Certificate:
    Data:
        Version: 4 (0x3)
        Serial Number: 1 (0x1)
    Signature Algorithm: sha1WithRSAEncryption
        Issuer: C=BE, CN=txjsonrpc-test-ca
        Validity
            Not Before: Jan  1 00:00:00 1970 GMT
            Not After : Jan 19 03:14:07 2038 GMT
        Subject: CN=www.example.com, C=BE, O=Gremwell bvba
        Subject Public Key Info:
            Public Key Algorithm: rsaEncryption
                Public-Key: (1024 bit)
                Modulus:
                    00:c0:92:86:cc:e0:15:62:b1:46:0c:a8:5d:c6:0b:
                    d2:31:72:42:cf:be:45:b7:c2:8f:4f:a2:c0:b0:dc:
                    16:96:45:ae:96:92:a0:fa:45:96:e8:69:13:03:34:
                    e5:91:e4:fb:92:44:e9:5a:71:24:9f:dd:d5:03:c7:
                    e6:75:1e:49:3c:2f:b8:90:cf:67:99:6f:37:91:e0:
                    32:50:8f:8f:e4:0d:e0:58:9f:8a:83:06:18:53:58:
                    15:fa:f7:40:83:e2:f3:fe:b2:c3:a4:97:a1:bb:28:
                    4e:41:f8:7d:7b:2a:dd:42:3a:1f:cf:8b:59:e6:c3:
                    72:0f:57:32:62:37:a8:93:37
                Exponent: 65537 (0x10001)
    Signature Algorithm: sha1WithRSAEncryption
         76:83:05:a9:0a:02:19:b3:79:98:b3:9d:c7:bc:13:a4:12:f0:
         60:38:fc:86:62:15:99:87:75:f6:b8:69:91:74:dd:e9:8d:c8:
         73:22:ba:fa:ab:bd:4f:35:0b:6e:4d:e9:2a:6c:51:0f:b6:ba:
         96:3f:e7:87:7e:0c:37:b1:86:5d:83:88:16:aa:86:95:83:d0:
         dd:69:35:c2:45:9f:89:68:a6:9c:38:a1:92:66:75:21:72:79:
         21:77:de:0e:45:18:c4:db:a7:6c:b6:b7:70:96:49:e1:2b:e2:
         84:e3:38:39:86:52:37:2f:bf:a4:95:54:02:ad:e3:a2:ee:b9:
         7f:be:83:01:2b:f7:cb:ce:f4:3f:07:79:2a:e9:c5:36:39:6d:
         07:7c:aa:a8:47:ea:7d:c3:97:d6:ef:82:2d:3a:68:76:9d:35:
         a2:47:25:02:80:5c:40:c8:44:53:6b:aa:18:5b:12:df:52:d4:
         4e:46:8c:07:41:76:56:48:87:30:ab:ad:6d:64:99:c6:3d:9d:
         41:11:aa:c1:9b:6a:3a:81:92:f2:6d:74:d2:f4:3c:2f:9d:9b:
         9e:6d:0b:6c:e9:33:39:76:2f:f8:1d:48:53:e1:d4:1e:1d:e8:
         4c:be:6e:a3:76:77:04:43:82:27:06:9d:e4:b6:cc:b4:ff:b9:
         b5:60:65:a3:54:b1:c5:13:78:bf:ae:55:86:e4:ff:df:3e:52:
         b9:65:94:a6:7d:74:e4:7b:fd:62:3e:61:24:41:3b:24:7c:dd:
         dd:7a:8d:6b:ad:4b:0d:4b:c4:db:84:a0:7d:99:48:a5:9e:97:
         40:66:a4:fd:84:eb:7d:99:33:b5:51:35:8a:63:fd:49:6d:fc:
         ae:88:f2:36:23:80:68:06:2a:fc:fa:69:76:25:12:ef:f8:3f:
         e5:3a:30:9a:a5:a2:29:64:2a:2c:f8:9e:7d:84:e9:2e:39:24:
         cb:a2:cf:b6:cc:de:b9:1b:22:cb:68:00:a8:42:b8:34:00:21:
         22:ce:2d:83:61:be:f8:0b:00:20:ec:3b:d2:55:9b:21:06:a8:
         bb:12:ea:91:79:44:20:88:70:0a:dc:a9:23:88:ce:d0:ed:88:
         01:6b:e7:fb:91:36:c6:e9:0c:4d:01:31:9b:dd:43:bd:cb:93:
         12:04:d2:41:e4:67:3e:a8:fe:d4:bf:01:b5:8f:4c:f7:10:e2:
         9f:b8:0d:f4:eb:40:15:1d:02:02:25:52:34:a7:26:39:b2:8d:
         0d:b4:77:0f:3c:19:78:7b:83:46:79:8d:3f:eb:db:7e:0c:1a:
         77:44:08:1e:43:2b:b2:a7:d6:99:2a:08:94:04:a9:f8:a9:02:
         9e:de:b7:bf:1a:58:72:f1
-----BEGIN CERTIFICATE-----
MIIDXTCCAUWgAwIBAwIBATANBgkqhkiG9w0BAQUFADApMQswCQYDVQQGEwJCRTEa
MBgGA1UEAxMRdHhqc29ucnBjLXRlc3QtY2EwHhcNNzAwMTAxMDAwMDAwWhcNMzgw
MTE5MDMxNDA3WjA/MRgwFgYDVQQDEw93d3cuZXhhbXBsZS5jb20xCzAJBgNVBAYT
AkJFMRYwFAYDVQQKEw1HcmVtd2VsbCBidmJhMIGfMA0GCSqGSIb3DQEBAQUAA4GN
ADCBiQKBgQDAkobM4BVisUYMqF3GC9IxckLPvkW3wo9PosCw3BaWRa6WkqD6RZbo
aRMDNOWR5PuSROlacSSf3dUDx+Z1Hkk8L7iQz2eZbzeR4DJQj4/kDeBYn4qDBhhT
WBX690CD4vP+ssOkl6G7KE5B+H17Kt1COh/Pi1nmw3IPVzJiN6iTNwIDAQABMA0G
CSqGSIb3DQEBBQUAA4ICAQB2gwWpCgIZs3mYs53HvBOkEvBgOPyGYhWZh3X2uGmR
dN3pjchzIrr6q71PNQtuTekqbFEPtrqWP+eHfgw3sYZdg4gWqoaVg9DdaTXCRZ+J
aKacOKGSZnUhcnkhd94ORRjE26dstrdwlknhK+KE4zg5hlI3L7+klVQCreOi7rl/
voMBK/fLzvQ/B3kq6cU2OW0HfKqoR+p9w5fW74ItOmh2nTWiRyUCgFxAyERTa6oY
WxLfUtRORowHQXZWSIcwq61tZJnGPZ1BEarBm2o6gZLybXTS9DwvnZuebQts6TM5
di/4HUhT4dQeHehMvm6jdncEQ4InBp3ktsy0/7m1YGWjVLHFE3i/rlWG5P/fPlK5
ZZSmfXTke/1iPmEkQTskfN3deo1rrUsNS8TbhKB9mUilnpdAZqT9hOt9mTO1UTWK
Y/1JbfyuiPI2I4BoBir8+ml2JRLv+D/lOjCapaIpZCos+J59hOkuOSTLos+2zN65
GyLLaACoQrg0ACEizi2DYb74CwAg7DvSVZshBqi7EuqReUQgiHAK3KkjiM7Q7YgB
a+f7kTbG6QxNATGb3UO9y5MSBNJB5Gc+qP7UvwG1j0z3EOKfuA3060AVHQICJVI0
pyY5so0NtHcPPBl4e4NGeY0/69t+DBp3RAgeQyuyp9aZKgiUBKn4qQKe3re/Glhy
8Q==
-----END CERTIFICATE-----
Certificate:
    Data:
        Version: 3 (0x2)
        Serial Number: 10219423159405941259 (0x8dd2af37f9ca920b)
    Signature Algorithm: sha1WithRSAEncryption
        Issuer: C=BE, CN=txjsonrpc-test-ca
        Validity
            Not Before: Jun 23 15:46:37 2012 GMT
            Not After : Jun 21 15:46:37 2022 GMT
        Subject: C=BE, CN=txjsonrpc-test-ca
        Subject Public Key Info:
            Public Key Algorithm: rsaEncryption
                Public-Key: (4096 bit)
                Modulus:
                    00:d1:25:af:77:c5:a8:72:cf:90:b9:39:10:fb:7b:
                    75:2c:a1:da:6a:95:e5:44:0c:d6:25:4b:58:7f:bb:
                    07:82:59:49:58:32:85:24:cc:3e:77:db:e1:a7:4f:
                    c8:b5:cb:ee:45:38:bd:bc:fb:e3:76:3b:88:04:ca:
                    ab:3a:a3:96:3b:5f:93:9c:28:a6:61:97:dc:a2:3f:
                    a0:93:2b:56:6c:cf:d3:4f:6a:9e:05:d3:1c:cd:ef:
                    75:80:1a:98:b7:92:49:14:33:b8:c4:7c:73:8c:7e:
                    83:a5:81:a2:59:8c:8b:a3:51:36:6d:68:ac:f2:f1:
                    ed:6f:49:d9:af:7a:63:c1:43:31:42:b6:c7:cd:b9:
                    78:b7:33:98:70:92:6c:9e:04:7a:7b:f0:6d:38:87:
                    eb:00:13:17:b9:d9:ec:b4:66:bb:51:d3:fd:81:e3:
                    0e:88:71:23:d2:80:2a:61:de:ab:25:02:47:a9:c1:
                    6b:c9:69:ae:da:47:b6:49:74:ac:a6:e1:c1:76:ba:
                    6d:b1:d9:68:6e:1c:37:a8:e2:18:60:37:b6:58:13:
                    6c:c7:92:7c:c6:45:8c:ef:c3:81:73:10:dc:2f:31:
                    e2:b9:05:5a:9e:28:70:5a:3e:1d:b8:68:71:81:c9:
                    e8:fe:1f:c3:a0:13:f8:e4:24:12:ba:91:8e:15:d2:
                    03:f1:8c:b0:aa:e2:34:e4:6b:f8:06:f6:23:8a:92:
                    43:a6:05:dc:e9:c7:a5:a8:06:d7:6e:91:52:72:47:
                    ab:ae:87:fe:b3:0f:04:87:6f:4b:22:29:e9:a9:06:
                    52:58:7d:03:16:d7:d5:31:44:b4:f1:51:44:a7:2a:
                    ba:5e:09:19:ec:4c:a2:e0:58:fe:0d:4e:b7:90:4d:
                    02:ac:2a:ad:99:14:65:3b:0a:3c:73:45:56:b2:0f:
                    10:25:24:51:79:57:1a:34:1a:10:6f:60:e0:fc:81:
                    db:ca:c2:e2:85:1b:4c:72:13:5c:9d:76:cc:d0:21:
                    33:31:56:82:8f:c5:57:b9:44:fd:8b:76:c1:b6:e4:
                    21:8b:35:9a:ee:54:74:9f:72:6b:19:84:d7:a2:3c:
                    a5:6e:11:0a:f1:93:04:2e:dd:7c:4c:7d:62:10:d4:
                    1b:8b:87:f6:ed:bf:12:b1:8b:f0:9a:7a:ee:02:94:
                    e1:3c:46:2b:7f:9c:54:fb:2e:61:c9:1c:ef:fc:de:
                    25:bc:2d:75:1b:1f:49:5e:44:3b:15:93:ad:c4:89:
                    d9:ae:3c:da:54:ef:d9:af:3a:16:cb:94:1b:6a:14:
                    e4:42:f9:75:33:46:6e:fb:40:bc:f8:82:36:cf:60:
                    f5:c2:a2:98:23:a7:2a:ae:c1:aa:22:f8:87:da:b7:
                    9c:a4:cf
                Exponent: 65537 (0x10001)
        X509v3 extensions:
            X509v3 Subject Key Identifier: 
                9D:8F:84:76:94:CD:07:FE:A3:E8:8B:D7:F9:D9:6E:EF:CA:75:51:7B
            X509v3 Authority Key Identifier: 
                keyid:9D:8F:84:76:94:CD:07:FE:A3:E8:8B:D7:F9:D9:6E:EF:CA:75:51:7B
                DirName:/C=BE/CN=txjsonrpc-test-ca
                serial:8D:D2:AF:37:F9:CA:92:0B

            X509v3 Basic Constraints: critical
                CA:TRUE
            Netscape Cert Type: 
                SSL CA, S/MIME CA
            X509v3 Issuer Alternative Name: 
                <EMPTY>

            Netscape Comment: 
                Test CA for txjsonrcp
            X509v3 Subject Alternative Name: 
                <EMPTY>

            X509v3 Key Usage: critical
                Certificate Sign, CRL Sign
    Signature Algorithm: sha1WithRSAEncryption
         06:82:86:81:a9:1b:7e:2d:ef:f5:fc:cc:d2:9d:d6:82:ad:d0:
         6f:7e:3d:b9:5c:b2:0f:3a:64:21:9a:fb:53:b2:93:81:dc:1a:
         24:fc:b8:30:57:a2:c7:71:0d:9c:1a:0b:8a:6c:89:52:8b:8a:
         f5:af:95:3e:b8:08:39:ee:36:50:ac:60:4d:df:2b:49:a2:72:
         f1:3f:12:3c:d9:55:56:a4:9a:77:2b:77:fa:16:b5:76:d9:f4:
         c4:51:6b:b9:fe:2f:a3:52:e8:64:80:49:22:6d:05:42:87:af:
         9d:85:6c:fa:c9:9b:48:39:7b:89:f5:a0:1e:ff:11:d3:9c:78:
         b1:b2:f6:4d:b1:e8:b3:98:23:2c:d4:20:e1:a1:01:3e:26:0a:
         5b:8e:eb:58:45:22:cf:e1:94:ad:84:40:b0:fb:ff:25:5f:31:
         9a:49:0b:36:ad:c6:1a:b0:42:60:40:e2:a2:3c:5a:36:41:89:
         fc:10:c4:60:ea:d4:85:7b:36:84:df:aa:81:cc:69:e7:52:ca:
         c1:46:b1:79:93:51:4f:24:84:42:14:3a:20:a0:6c:27:76:40:
         0f:96:7e:4e:c3:0c:37:b3:e3:73:49:86:58:31:00:1e:e7:0f:
         87:74:b6:4e:6e:1c:7d:87:a4:33:04:c9:76:ec:e5:3a:85:5f:
         a8:d1:ad:21:64:5e:c5:6a:df:b1:02:6e:65:a4:87:72:06:07:
         da:e5:f2:af:2b:a5:eb:18:80:67:83:a5:3c:e6:ed:d1:58:f9:
         90:5c:d6:e9:2f:76:c1:58:13:b8:bd:88:8a:f3:04:48:bb:42:
         8f:7f:c6:db:b4:30:3f:bb:6c:d5:47:e5:ae:8d:4b:da:92:a5:
         db:d3:6e:a8:9b:c2:6b:56:af:34:63:82:e6:78:f8:1f:54:d7:
         41:aa:a3:c9:7c:a6:83:41:bf:6e:33:7c:ae:e6:92:bd:da:27:
         b4:bc:e2:90:4f:33:1b:01:a1:cd:02:13:7a:31:ef:00:d6:9a:
         6e:38:6b:a7:cb:70:98:a8:0f:ff:1c:56:a8:b7:e6:d2:42:5a:
         bb:f4:78:27:71:13:d0:e8:43:eb:bc:2d:4f:e4:ea:4d:4f:76:
         7f:53:38:34:eb:13:e2:3d:c6:14:98:86:1c:ab:2c:0e:b7:68:
         2e:bd:63:a9:6a:8f:d5:22:2d:ab:13:d7:62:54:51:ff:5c:37:
         08:04:27:da:f9:57:77:05:18:73:88:5f:b0:c1:65:50:36:09:
         d6:c7:f5:ae:6e:3f:04:d1:84:3c:21:74:1d:bd:0a:fb:76:d0:
         13:2b:62:bb:24:48:43:89:d0:18:5c:b4:ad:ea:98:af:6d:fc:
         1c:6b:1f:06:64:54:23:88
-----BEGIN CERTIFICATE-----
MIIFwzCCA6ugAwIBAgIJAI3Srzf5ypILMA0GCSqGSIb3DQEBBQUAMCkxCzAJBgNV
BAYTAkJFMRowGAYDVQQDExF0eGpzb25ycGMtdGVzdC1jYTAeFw0xMjA2MjMxNTQ2
MzdaFw0yMjA2MjExNTQ2MzdaMCkxCzAJBgNVBAYTAkJFMRowGAYDVQQDExF0eGpz
b25ycGMtdGVzdC1jYTCCAiIwDQYJKoZIhvcNAQEBBQADggIPADCCAgoCggIBANEl
r3fFqHLPkLk5EPt7dSyh2mqV5UQM1iVLWH+7B4JZSVgyhSTMPnfb4adPyLXL7kU4
vbz743Y7iATKqzqjljtfk5wopmGX3KI/oJMrVmzP009qngXTHM3vdYAamLeSSRQz
uMR8c4x+g6WBolmMi6NRNm1orPLx7W9J2a96Y8FDMUK2x825eLczmHCSbJ4Eenvw
bTiH6wATF7nZ7LRmu1HT/YHjDohxI9KAKmHeqyUCR6nBa8lprtpHtkl0rKbhwXa6
bbHZaG4cN6jiGGA3tlgTbMeSfMZFjO/DgXMQ3C8x4rkFWp4ocFo+HbhocYHJ6P4f
w6AT+OQkErqRjhXSA/GMsKriNORr+Ab2I4qSQ6YF3OnHpagG126RUnJHq66H/rMP
BIdvSyIp6akGUlh9AxbX1TFEtPFRRKcqul4JGexMouBY/g1Ot5BNAqwqrZkUZTsK
PHNFVrIPECUkUXlXGjQaEG9g4PyB28rC4oUbTHITXJ12zNAhMzFWgo/FV7lE/Yt2
wbbkIYs1mu5UdJ9yaxmE16I8pW4RCvGTBC7dfEx9YhDUG4uH9u2/ErGL8Jp67gKU
4TxGK3+cVPsuYckc7/zeJbwtdRsfSV5EOxWTrcSJ2a482lTv2a86FsuUG2oU5EL5
dTNGbvtAvPiCNs9g9cKimCOnKq7BqiL4h9q3nKTPAgMBAAGjge0wgeowHQYDVR0O
BBYEFJ2PhHaUzQf+o+iL1/nZbu/KdVF7MFkGA1UdIwRSMFCAFJ2PhHaUzQf+o+iL
1/nZbu/KdVF7oS2kKzApMQswCQYDVQQGEwJCRTEaMBgGA1UEAxMRdHhqc29ucnBj
LXRlc3QtY2GCCQCN0q83+cqSCzAPBgNVHRMBAf8EBTADAQH/MBEGCWCGSAGG+EIB
AQQEAwIBBjAJBgNVHRIEAjAAMCQGCWCGSAGG+EIBDQQXFhVUZXN0IENBIGZvciB0
eGpzb25yY3AwCQYDVR0RBAIwADAOBgNVHQ8BAf8EBAMCAQYwDQYJKoZIhvcNAQEF
BQADggIBAAaChoGpG34t7/X8zNKd1oKt0G9+Pblcsg86ZCGa+1Oyk4HcGiT8uDBX
osdxDZwaC4psiVKLivWvlT64CDnuNlCsYE3fK0micvE/EjzZVVakmncrd/oWtXbZ
9MRRa7n+L6NS6GSASSJtBUKHr52FbPrJm0g5e4n1oB7/EdOceLGy9k2x6LOYIyzU
IOGhAT4mCluO61hFIs/hlK2EQLD7/yVfMZpJCzatxhqwQmBA4qI8WjZBifwQxGDq
1IV7NoTfqoHMaedSysFGsXmTUU8khEIUOiCgbCd2QA+Wfk7DDDez43NJhlgxAB7n
D4d0tk5uHH2HpDMEyXbs5TqFX6jRrSFkXsVq37ECbmWkh3IGB9rl8q8rpesYgGeD
pTzm7dFY+ZBc1ukvdsFYE7i9iIrzBEi7Qo9/xtu0MD+7bNVH5a6NS9qSpdvTbqib
wmtWrzRjguZ4+B9U10Gqo8l8poNBv24zfK7mkr3aJ7S84pBPMxsBoc0CE3ox7wDW
mm44a6fLcJioD/8cVqi35tJCWrv0eCdxE9DoQ+u8LU/k6k1Pdn9TODTrE+I9xhSY
hhyrLA63aC69Y6lqj9UiLasT12JUUf9cNwgEJ9r5V3cFGHOIX7DBZVA2CdbH9a5u
PwTRhDwhdB29Cvt20BMrYrskSEOJ0BhctK3qmK9t/BxrHwZkVCOI
-----END CERTIFICATE-----
