Certificate:
    Data:
        Version: 3 (0x2)
        Serial Number: 1 (0x1)
    Signature Algorithm: sha1WithRSAEncryption
        Issuer: CN=ca-none, C=BE, O=Gremwell bvba
        Validity
            Not Before: Jun 23 15:47:38 2012 GMT
            Not After : Jun 23 15:47:38 2013 GMT
        Subject: C=BE, CN=txjsonrpc-pyserver
        Subject Public Key Info:
            Public Key Algorithm: rsaEncryption
                Public-Key: (4096 bit)
                Modulus:
                    00:a0:05:2c:ef:3b:fa:e4:99:7e:d8:7a:75:65:f7:
                    61:f4:46:c0:07:7f:62:d3:ca:61:6f:c6:5c:88:75:
                    4a:f3:1c:02:01:d6:ed:a9:5e:b0:e6:2f:83:ed:4d:
                    ce:11:c3:df:1b:74:a0:07:62:23:0b:c1:68:40:3b:
                    7f:3f:3b:80:96:ae:72:f1:1b:a6:08:ef:09:4e:ad:
                    7f:72:9a:43:6c:5f:b4:6d:b7:a5:be:60:c1:13:ec:
                    60:41:94:c8:7b:9b:40:60:94:e5:21:59:9f:bc:d3:
                    69:78:6c:2b:71:7a:ad:ab:ad:59:77:f1:95:8d:fc:
                    06:ad:39:cf:3a:35:8a:76:c6:14:7a:70:2a:f5:3f:
                    19:eb:ec:c5:11:5f:65:a8:0a:53:09:87:96:8c:12:
                    bc:38:1e:f9:27:47:da:81:38:5f:2d:20:88:b4:94:
                    81:c6:1f:9e:63:3e:15:e3:98:0b:cf:de:df:36:f0:
                    59:5a:ac:75:57:2d:89:10:ad:69:b5:00:8f:8b:be:
                    81:31:86:d7:51:88:b2:70:81:f3:18:31:78:d5:95:
                    6b:47:8f:c5:b3:b6:73:90:8a:21:62:67:6b:a7:eb:
                    20:03:69:41:40:d1:f4:86:ec:0f:ca:4d:b1:63:45:
                    fa:89:9b:b1:4a:92:25:66:78:31:f0:c0:da:3f:f0:
                    49:0a:9a:4b:5f:32:2f:fa:e4:c9:bb:63:d1:2c:42:
                    e4:d4:df:b6:47:1c:1b:3a:9d:d4:68:8a:b7:8d:34:
                    32:26:15:16:2a:0b:0c:f5:3a:ae:1c:25:ba:90:21:
                    f4:98:1a:0f:bd:9e:1f:ed:10:a1:db:5a:54:1b:c4:
                    f9:57:a5:0a:56:b5:e5:21:9a:8f:24:7e:ec:82:a5:
                    fe:c7:78:7b:2e:b8:6f:20:3c:af:55:5e:84:34:d3:
                    df:4c:8f:fc:11:a1:f7:86:fa:f9:bd:22:e5:22:fd:
                    53:c0:0c:90:62:4a:9c:99:5d:c0:c6:31:00:45:b8:
                    43:9d:1d:1b:2a:8b:6f:c2:01:ee:e7:11:d9:81:ae:
                    b8:31:e2:37:ec:d8:a8:b9:58:38:87:eb:79:4e:5e:
                    c9:bd:ae:0d:f2:bf:74:04:e0:54:c9:9e:6f:63:e4:
                    88:52:86:c6:b0:b5:0f:b8:75:e2:d0:e9:4d:af:6b:
                    d1:bf:65:b4:91:a8:d3:c6:28:a5:ae:c6:a6:02:ed:
                    17:f6:75:2c:46:0e:f0:c6:20:a5:52:79:f4:8f:12:
                    b0:7a:84:1b:cf:b9:42:67:98:7e:9c:97:61:28:61:
                    24:46:80:b8:f9:bd:c7:24:c1:1e:d8:9f:7f:cf:f9:
                    76:fc:10:91:b5:10:33:56:03:8b:eb:8d:ca:92:d7:
                    13:62:71
                Exponent: 65537 (0x10001)
        X509v3 extensions:
            X509v3 Basic Constraints: 
                CA:FALSE
            Netscape Cert Type: 
                SSL Server
            Netscape Comment: 
                TinyCA Generated Certificate
            X509v3 Subject Key Identifier: 
                26:8C:A5:F9:A6:4A:FE:4C:E8:0F:04:33:7E:04:26:28:BF:4C:92:F3
            X509v3 Authority Key Identifier: 
                keyid:9D:8F:84:76:94:CD:07:FE:A3:E8:8B:D7:F9:D9:6E:EF:CA:75:51:7B
                DirName:/C=BE/CN=txjsonrpc-test-ca
                serial:8D:D2:AF:37:F9:CA:92:0B

            X509v3 Issuer Alternative Name: 
                <EMPTY>

            X509v3 Subject Alternative Name: 
                <EMPTY>

    Signature Algorithm: sha1WithRSAEncryption
         95:05:48:15:67:6d:f3:b4:3d:26:9e:50:a4:b4:32:56:d6:ac:
         9d:c6:5a:91:0b:aa:60:ea:f5:21:08:a4:48:4e:24:55:45:30:
         b7:2d:96:81:3a:2d:8d:73:b4:ce:a6:6d:59:28:64:18:f3:ab:
         da:66:8e:fd:97:5c:ef:3c:bc:2a:4d:e5:8c:9d:73:79:ae:3e:
         d9:93:a1:dc:cb:34:2c:9c:72:1f:8e:0f:98:32:c2:a3:17:05:
         ca:f6:7d:3e:fb:f0:4f:27:df:53:cc:9f:0d:20:f2:74:d6:c6:
         15:7f:a9:f0:3d:04:4b:4a:3a:28:62:0b:ed:c1:23:88:de:19:
         30:42
-----BEGIN CERTIFICATE-----
MIIEOjCCA6OgAwIBAgIBATANBgkqhkiG9w0BAQUFADA3MRAwDgYDVQQDEwdjYS1u
b25lMQswCQYDVQQGEwJCRTEWMBQGA1UEChMNR3JlbXdlbGwgYnZiYTAeFw0xMjA2
MjMxNTQ3MzhaFw0xMzA2MjMxNTQ3MzhaMCoxCzAJBgNVBAYTAkJFMRswGQYDVQQD
ExJ0eGpzb25ycGMtcHlzZXJ2ZXIwggIiMA0GCSqGSIb3DQEBAQUAA4ICDwAwggIK
AoICAQCgBSzvO/rkmX7YenVl92H0RsAHf2LTymFvxlyIdUrzHAIB1u2pXrDmL4Pt
Tc4Rw98bdKAHYiMLwWhAO38/O4CWrnLxG6YI7wlOrX9ymkNsX7Rtt6W+YMET7GBB
lMh7m0BglOUhWZ+802l4bCtxeq2rrVl38ZWN/AatOc86NYp2xhR6cCr1Pxnr7MUR
X2WoClMJh5aMErw4HvknR9qBOF8tIIi0lIHGH55jPhXjmAvP3t828FlarHVXLYkQ
rWm1AI+LvoExhtdRiLJwgfMYMXjVlWtHj8WztnOQiiFiZ2un6yADaUFA0fSG7A/K
TbFjRfqJm7FKkiVmeDHwwNo/8EkKmktfMi/65Mm7Y9EsQuTU37ZHHBs6ndRoireN
NDImFRYqCwz1Oq4cJbqQIfSYGg+9nh/tEKHbWlQbxPlXpQpWteUhmo8kfuyCpf7H
eHsuuG8gPK9VXoQ0099Mj/wRofeG+vm9IuUi/VPADJBiSpyZXcDGMQBFuEOdHRsq
i2/CAe7nEdmBrrgx4jfs2Ki5WDiH63lOXsm9rg3yv3QE4FTJnm9j5IhShsawtQ+4
deLQ6U2va9G/ZbSRqNPGKKWuxqYC7Rf2dSxGDvDGIKVSefSPErB6hBvPuUJnmH6c
l2EoYSRGgLj5vcckwR7Yn3/P+Xb8EJG1EDNWA4vrjcqS1xNicQIDAQABo4HeMIHb
MAkGA1UdEwQCMAAwEQYJYIZIAYb4QgEBBAQDAgZAMCsGCWCGSAGG+EIBDQQeFhxU
aW55Q0EgR2VuZXJhdGVkIENlcnRpZmljYXRlMB0GA1UdDgQWBBQmjKX5pkr+TOgP
BDN+BCYov0yS8zBZBgNVHSMEUjBQgBSdj4R2lM0H/qPoi9f52W7vynVRe6EtpCsw
KTELMAkGA1UEBhMCQkUxGjAYBgNVBAMTEXR4anNvbnJwYy10ZXN0LWNhggkAjdKv
N/nKkgswCQYDVR0SBAIwADAJBgNVHREEAjAAMA0GCSqGSIb3DQEBBQUAA4GBAJUF
SBVnbfO0PSaeUKS0MlbWrJ3GWpELqmDq9SEIpEhOJFVFMLctloE6LY1ztM6mbVko
ZBjzq9pmjv2XXO88vCpN5Yydc3muPtmTodzLNCycch+OD5gywqMXBcr2fT778E8n
31PMnw0g8nTWxhV/qfA9BEtKOihiC+3BI4jeGTBC
-----END CERTIFICATE-----
Certificate:
    Data:
        Version: 4 (0x3)
        Serial Number: 1 (0x1)
    Signature Algorithm: sha1WithRSAEncryption
        Issuer: C=BE, CN=txjsonrpc-test-ca
        Validity
            Not Before: Jan  1 00:00:00 1970 GMT
            Not After : Jan 19 03:14:07 2038 GMT
        Subject: CN=ca-none, C=BE, O=Gremwell bvba
        Subject Public Key Info:
            Public Key Algorithm: rsaEncryption
                Public-Key: (1024 bit)
                Modulus:
                    00:a2:c0:cd:3e:36:74:38:31:11:1c:09:e5:d4:9b:
                    2a:e0:5e:71:84:1e:ae:fa:4e:e0:af:f3:78:37:e1:
                    6b:d0:87:56:6f:8a:38:30:11:3b:86:5f:16:b5:05:
                    75:3e:79:f9:16:7d:06:9d:2b:07:f8:15:71:eb:27:
                    18:7b:6d:e4:68:d8:6f:69:19:35:a4:78:b6:6d:0f:
                    a3:08:7f:92:b5:ab:83:0e:d2:13:4f:9d:bf:00:c3:
                    d6:33:42:a4:36:f3:c8:e3:f4:63:82:87:e4:2f:2d:
                    1a:e2:92:ab:c2:66:43:5e:5f:c9:eb:ae:02:6e:72:
                    0e:8a:a2:d8:98:69:47:d5:29
                Exponent: 65537 (0x10001)
    Signature Algorithm: sha1WithRSAEncryption
         8c:52:d0:29:ea:98:d7:1e:79:01:61:bc:b8:dd:64:0e:09:9a:
         67:49:fa:5f:cd:d5:33:8d:43:68:59:f1:4b:96:57:d4:37:19:
         7c:38:39:02:31:d4:36:54:27:2d:a1:62:7a:44:69:df:c8:78:
         2d:22:3d:0b:6b:0a:fa:0f:3e:b0:86:36:d9:76:69:f3:e4:3f:
         44:5c:c8:b5:ff:50:f5:16:c1:57:89:8e:79:bd:d9:6e:e0:2e:
         9f:4d:86:09:f8:03:bf:58:5c:6a:a8:d1:d2:a4:6a:24:ed:d9:
         b6:14:6d:d4:36:22:30:ea:3b:15:33:af:c0:90:79:d2:d7:df:
         2b:3b:ee:72:98:3d:c1:1b:86:d8:45:60:92:25:33:4b:d1:ff:
         d0:a4:a7:31:d5:eb:b3:71:c8:78:f2:55:1f:db:14:5f:17:e3:
         3a:cb:04:82:6c:35:49:dc:7b:1f:f3:17:6c:fa:be:74:ed:ce:
         ec:11:cf:a9:c6:ed:39:f4:ef:11:33:6b:ed:af:4a:41:44:d3:
         9a:39:96:ab:82:1d:ea:94:3c:16:a7:a0:2e:5e:ae:c6:46:ee:
         2d:d0:14:32:97:62:54:0b:90:c5:c1:5d:cb:30:6a:04:bc:80:
         da:4f:ec:9a:12:0d:b9:2c:b7:39:f4:f6:48:ba:95:28:da:9a:
         a8:8b:41:ac:1b:b8:bc:6e:1d:76:db:7c:09:a2:24:72:fd:d5:
         37:33:f2:00:21:d5:70:d0:19:d6:02:70:09:91:82:33:f9:7c:
         5a:0a:79:3b:38:d6:21:38:14:6d:7b:b4:b0:b8:1e:99:6d:26:
         3d:c1:4d:ab:00:fa:06:72:cb:a2:5e:fc:8d:00:a4:aa:46:a6:
         62:b5:c8:30:56:e6:dd:21:8c:97:a9:ad:66:db:fa:ce:80:63:
         ac:cc:f9:cd:9e:44:07:d7:4b:c1:49:fc:a9:90:5f:eb:0e:6d:
         89:37:d0:56:03:0c:e6:51:77:2d:d0:26:5f:b4:27:dd:95:64:
         2b:d4:0c:c0:bb:42:88:a9:19:03:7b:a3:07:14:23:04:60:c5:
         17:c9:2b:15:8f:c2:88:50:39:ca:42:72:69:fd:b7:da:1d:6b:
         f1:28:12:5f:15:84:1a:68:fe:83:6f:14:63:ec:1f:92:07:a6:
         7e:da:8e:09:77:e9:4f:40:56:36:8b:6e:71:44:17:36:cd:4e:
         26:3f:57:09:e4:8a:cf:4a:4d:39:8d:85:30:af:52:4f:67:81:
         cf:89:02:cc:e6:3c:ab:b0:46:8d:1b:e4:c7:d9:6a:15:73:e6:
         a4:9e:9d:a3:f8:59:d9:65:0a:11:01:92:91:30:75:3f:16:a3:
         d2:8d:39:c1:b4:1f:5f:08
-----BEGIN CERTIFICATE-----
MIIDVTCCAT2gAwIBAwIBATANBgkqhkiG9w0BAQUFADApMQswCQYDVQQGEwJCRTEa
MBgGA1UEAxMRdHhqc29ucnBjLXRlc3QtY2EwHhcNNzAwMTAxMDAwMDAwWhcNMzgw
MTE5MDMxNDA3WjA3MRAwDgYDVQQDEwdjYS1ub25lMQswCQYDVQQGEwJCRTEWMBQG
A1UEChMNR3JlbXdlbGwgYnZiYTCBnzANBgkqhkiG9w0BAQEFAAOBjQAwgYkCgYEA
osDNPjZ0ODERHAnl1Jsq4F5xhB6u+k7gr/N4N+Fr0IdWb4o4MBE7hl8WtQV1Pnn5
Fn0GnSsH+BVx6ycYe23kaNhvaRk1pHi2bQ+jCH+StauDDtITT52/AMPWM0KkNvPI
4/RjgofkLy0a4pKrwmZDXl/J664CbnIOiqLYmGlH1SkCAwEAATANBgkqhkiG9w0B
AQUFAAOCAgEAjFLQKeqY1x55AWG8uN1kDgmaZ0n6X83VM41DaFnxS5ZX1DcZfDg5
AjHUNlQnLaFiekRp38h4LSI9C2sK+g8+sIY22XZp8+Q/RFzItf9Q9RbBV4mOeb3Z
buAun02GCfgDv1hcaqjR0qRqJO3ZthRt1DYiMOo7FTOvwJB50tffKzvucpg9wRuG
2EVgkiUzS9H/0KSnMdXrs3HIePJVH9sUXxfjOssEgmw1Sdx7H/MXbPq+dO3O7BHP
qcbtOfTvETNr7a9KQUTTmjmWq4Id6pQ8FqegLl6uxkbuLdAUMpdiVAuQxcFdyzBq
BLyA2k/smhINuSy3OfT2SLqVKNqaqItBrBu4vG4ddtt8CaIkcv3VNzPyACHVcNAZ
1gJwCZGCM/l8Wgp5OzjWITgUbXu0sLgemW0mPcFNqwD6BnLLol78jQCkqkamYrXI
MFbm3SGMl6mtZtv6zoBjrMz5zZ5EB9dLwUn8qZBf6w5tiTfQVgMM5lF3LdAmX7Qn
3ZVkK9QMwLtCiKkZA3ujBxQjBGDFF8krFY/CiFA5ykJyaf232h1r8SgSXxWEGmj+
g28UY+wfkgemftqOCXfpT0BWNotucUQXNs1OJj9XCeSKz0pNOY2FMK9ST2eBz4kC
zOY8q7BGjRvkx9lqFXPmpJ6do/hZ2WUKEQGSkTB1Pxaj0o05wbQfXwg=
-----END CERTIFICATE-----
