Certificate:
    Data:
        Version: 4 (0x3)
        Serial Number: 1 (0x1)
    Signature Algorithm: sha1WithRSAEncryption
        Issuer: C=BE, CN=txjsonrpc-test-ca
        Validity
            Not Before: Jan  1 00:00:00 1970 GMT
            Not After : Jan 19 03:14:07 2038 GMT
        Subject: CN=blah.com, C=BE, O=Gremwell bvba
        Subject Public Key Info:
            Public Key Algorithm: rsaEncryption
                Public-Key: (1024 bit)
                Modulus:
                    00:c1:ee:c9:1e:a3:5b:7e:7a:04:1e:3f:7d:97:1f:
                    53:1f:e6:00:55:e2:a9:02:86:44:92:c5:c6:8d:0d:
                    46:7b:ec:15:6c:d7:8d:60:58:27:d0:8b:1b:53:71:
                    49:05:90:9f:2a:96:77:b2:43:bf:6c:75:b8:08:7d:
                    c3:74:ca:1c:0a:cb:93:70:6a:ac:b2:e7:26:0b:db:
                    f9:ea:cc:3d:fb:6a:16:9f:55:9b:f6:66:f2:5d:75:
                    03:32:28:4b:bf:58:60:2d:ce:4f:ca:31:f5:41:40:
                    4d:f8:fb:f9:c4:7c:da:d1:3d:52:e3:c4:1d:47:20:
                    d5:34:5e:45:1d:20:c3:bc:3b
                Exponent: 65537 (0x10001)
    Signature Algorithm: sha1WithRSAEncryption
         bf:38:4e:1a:b8:91:18:3d:8e:b3:23:fd:2a:08:50:14:7d:4e:
         7f:8c:03:bf:d9:7d:c0:64:25:7f:f0:c5:60:97:a4:7e:81:53:
         38:46:dc:33:ef:6c:39:6d:df:e8:32:54:23:3a:5a:1e:f3:aa:
         ae:5b:da:ce:ea:bd:50:7c:c2:1f:38:f3:10:49:1d:b1:e1:12:
         10:b2:55:81:b2:58:23:1e:c4:65:b2:c1:63:16:ba:3d:fb:97:
         f3:ad:ce:59:69:de:24:eb:29:fc:59:f1:cf:61:26:f5:e4:88:
         97:f3:99:49:86:d7:24:62:29:ae:6c:ea:c5:25:af:4b:ff:2c:
         ea:20:2c:f4:30:3b:3e:bc:71:c7:4a:4a:41:57:73:fe:a9:1a:
         f4:8f:43:59:35:64:ad:59:50:22:8c:64:ba:fa:4f:74:af:f4:
         ac:3a:33:92:72:61:8f:95:f5:06:89:b9:3c:7e:76:19:d0:7a:
         75:6c:d9:62:31:c8:1b:fa:bc:0f:81:4b:d4:2d:89:58:bd:13:
         e1:cf:63:01:93:90:d8:c7:2e:85:17:e1:46:3f:e5:08:39:ef:
         eb:9c:c6:b6:ab:20:70:f8:f1:b0:a8:f4:2a:c4:43:db:70:3b:
         21:04:88:27:01:1f:8b:da:b8:f1:dc:af:9c:85:c2:6d:3e:a3:
         2c:bf:e3:61:0b:98:d7:1d:e5:92:8f:b3:8f:4c:0e:9b:e2:48:
         c1:89:a0:7b:67:a3:0b:1a:c0:9d:35:4b:ee:55:81:0b:63:d3:
         23:37:a9:80:ab:ef:9b:a4:e2:66:6c:52:1e:0a:f8:25:31:9d:
         05:f6:81:7a:8b:15:54:2e:d2:cf:4a:e3:db:88:2f:22:54:31:
         bd:71:a8:ee:b9:74:77:31:19:fa:6d:49:48:31:bd:4c:bc:40:
         af:e4:68:6b:16:50:0c:8e:30:b9:ee:3e:82:9b:ce:67:cd:15:
         ac:90:df:ce:8c:c6:95:40:72:13:ee:9a:9d:ea:d8:65:1d:77:
         06:8e:a1:ba:75:4d:08:88:93:56:37:52:a0:a5:4a:1e:4f:fe:
         d5:d6:86:27:7c:09:c7:e7:57:ca:9c:95:c8:63:7a:77:b0:ff:
         e3:21:05:36:17:23:57:13:05:fd:d8:da:0b:94:3c:1c:f4:73:
         ea:ad:cb:b3:f3:53:9f:28:f4:34:d9:8e:e7:5f:e9:f3:19:cf:
         bd:f2:e2:cd:60:f3:43:c1:b8:c5:51:9f:56:f4:c1:2d:2b:0c:
         f0:21:86:82:38:47:95:23:79:82:2f:67:62:40:3c:03:b3:c0:
         f2:f8:dd:8c:78:75:b8:a0:ec:02:84:dd:2c:97:7c:48:b6:62:
         e4:6b:95:ae:2f:52:bc:ba
-----BEGIN CERTIFICATE-----
MIIDVjCCAT6gAwIBAwIBATANBgkqhkiG9w0BAQUFADApMQswCQYDVQQGEwJCRTEa
MBgGA1UEAxMRdHhqc29ucnBjLXRlc3QtY2EwHhcNNzAwMTAxMDAwMDAwWhcNMzgw
MTE5MDMxNDA3WjA4MREwDwYDVQQDEwhibGFoLmNvbTELMAkGA1UEBhMCQkUxFjAU
BgNVBAoTDUdyZW13ZWxsIGJ2YmEwgZ8wDQYJKoZIhvcNAQEBBQADgY0AMIGJAoGB
AMHuyR6jW356BB4/fZcfUx/mAFXiqQKGRJLFxo0NRnvsFWzXjWBYJ9CLG1NxSQWQ
nyqWd7JDv2x1uAh9w3TKHArLk3BqrLLnJgvb+erMPftqFp9Vm/Zm8l11AzIoS79Y
YC3OT8ox9UFATfj7+cR82tE9UuPEHUcg1TReRR0gw7w7AgMBAAEwDQYJKoZIhvcN
AQEFBQADggIBAL84Thq4kRg9jrMj/SoIUBR9Tn+MA7/ZfcBkJX/wxWCXpH6BUzhG
3DPvbDlt3+gyVCM6Wh7zqq5b2s7qvVB8wh848xBJHbHhEhCyVYGyWCMexGWywWMW
uj37l/Otzllp3iTrKfxZ8c9hJvXkiJfzmUmG1yRiKa5s6sUlr0v/LOogLPQwOz68
ccdKSkFXc/6pGvSPQ1k1ZK1ZUCKMZLr6T3Sv9Kw6M5JyYY+V9QaJuTx+dhnQenVs
2WIxyBv6vA+BS9QtiVi9E+HPYwGTkNjHLoUX4UY/5Qg57+ucxrarIHD48bCo9CrE
Q9twOyEEiCcBH4vauPHcr5yFwm0+oyy/42ELmNcd5ZKPs49MDpviSMGJoHtnowsa
wJ01S+5VgQtj0yM3qYCr75uk4mZsUh4K+CUxnQX2gXqLFVQu0s9K49uILyJUMb1x
qO65dHcxGfptSUgxvUy8QK/kaGsWUAyOMLnuPoKbzmfNFayQ386MxpVAchPump3q
2GUddwaOobp1TQiIk1Y3UqClSh5P/tXWhid8CcfnV8qclchjenew/+MhBTYXI1cT
Bf3Y2guUPBz0c+qty7PzU58o9DTZjudf6fMZz73y4s1g80PBuMVRn1b0wS0rDPAh
hoI4R5UjeYIvZ2JAPAOzwPL43Yx4dbig7AKE3SyXfEi2YuRrla4vUry6
-----END CERTIFICATE-----
Certificate:
    Data:
        Version: 3 (0x2)
        Serial Number: 10219423159405941259 (0x8dd2af37f9ca920b)
    Signature Algorithm: sha1WithRSAEncryption
        Issuer: C=BE, CN=txjsonrpc-test-ca
        Validity
            Not Before: Jun 23 15:46:37 2012 GMT
            Not After : Jun 21 15:46:37 2022 GMT
        Subject: C=BE, CN=txjsonrpc-test-ca
        Subject Public Key Info:
            Public Key Algorithm: rsaEncryption
                Public-Key: (4096 bit)
                Modulus:
                    00:d1:25:af:77:c5:a8:72:cf:90:b9:39:10:fb:7b:
                    75:2c:a1:da:6a:95:e5:44:0c:d6:25:4b:58:7f:bb:
                    07:82:59:49:58:32:85:24:cc:3e:77:db:e1:a7:4f:
                    c8:b5:cb:ee:45:38:bd:bc:fb:e3:76:3b:88:04:ca:
                    ab:3a:a3:96:3b:5f:93:9c:28:a6:61:97:dc:a2:3f:
                    a0:93:2b:56:6c:cf:d3:4f:6a:9e:05:d3:1c:cd:ef:
                    75:80:1a:98:b7:92:49:14:33:b8:c4:7c:73:8c:7e:
                    83:a5:81:a2:59:8c:8b:a3:51:36:6d:68:ac:f2:f1:
                    ed:6f:49:d9:af:7a:63:c1:43:31:42:b6:c7:cd:b9:
                    78:b7:33:98:70:92:6c:9e:04:7a:7b:f0:6d:38:87:
                    eb:00:13:17:b9:d9:ec:b4:66:bb:51:d3:fd:81:e3:
                    0e:88:71:23:d2:80:2a:61:de:ab:25:02:47:a9:c1:
                    6b:c9:69:ae:da:47:b6:49:74:ac:a6:e1:c1:76:ba:
                    6d:b1:d9:68:6e:1c:37:a8:e2:18:60:37:b6:58:13:
                    6c:c7:92:7c:c6:45:8c:ef:c3:81:73:10:dc:2f:31:
                    e2:b9:05:5a:9e:28:70:5a:3e:1d:b8:68:71:81:c9:
                    e8:fe:1f:c3:a0:13:f8:e4:24:12:ba:91:8e:15:d2:
                    03:f1:8c:b0:aa:e2:34:e4:6b:f8:06:f6:23:8a:92:
                    43:a6:05:dc:e9:c7:a5:a8:06:d7:6e:91:52:72:47:
                    ab:ae:87:fe:b3:0f:04:87:6f:4b:22:29:e9:a9:06:
                    52:58:7d:03:16:d7:d5:31:44:b4:f1:51:44:a7:2a:
                    ba:5e:09:19:ec:4c:a2:e0:58:fe:0d:4e:b7:90:4d:
                    02:ac:2a:ad:99:14:65:3b:0a:3c:73:45:56:b2:0f:
                    10:25:24:51:79:57:1a:34:1a:10:6f:60:e0:fc:81:
                    db:ca:c2:e2:85:1b:4c:72:13:5c:9d:76:cc:d0:21:
                    33:31:56:82:8f:c5:57:b9:44:fd:8b:76:c1:b6:e4:
                    21:8b:35:9a:ee:54:74:9f:72:6b:19:84:d7:a2:3c:
                    a5:6e:11:0a:f1:93:04:2e:dd:7c:4c:7d:62:10:d4:
                    1b:8b:87:f6:ed:bf:12:b1:8b:f0:9a:7a:ee:02:94:
                    e1:3c:46:2b:7f:9c:54:fb:2e:61:c9:1c:ef:fc:de:
                    25:bc:2d:75:1b:1f:49:5e:44:3b:15:93:ad:c4:89:
                    d9:ae:3c:da:54:ef:d9:af:3a:16:cb:94:1b:6a:14:
                    e4:42:f9:75:33:46:6e:fb:40:bc:f8:82:36:cf:60:
                    f5:c2:a2:98:23:a7:2a:ae:c1:aa:22:f8:87:da:b7:
                    9c:a4:cf
                Exponent: 65537 (0x10001)
        X509v3 extensions:
            X509v3 Subject Key Identifier: 
                9D:8F:84:76:94:CD:07:FE:A3:E8:8B:D7:F9:D9:6E:EF:CA:75:51:7B
            X509v3 Authority Key Identifier: 
                keyid:9D:8F:84:76:94:CD:07:FE:A3:E8:8B:D7:F9:D9:6E:EF:CA:75:51:7B
                DirName:/C=BE/CN=txjsonrpc-test-ca
                serial:8D:D2:AF:37:F9:CA:92:0B

            X509v3 Basic Constraints: critical
                CA:TRUE
            Netscape Cert Type: 
                SSL CA, S/MIME CA
            X509v3 Issuer Alternative Name: 
                <EMPTY>

            Netscape Comment: 
                Test CA for txjsonrcp
            X509v3 Subject Alternative Name: 
                <EMPTY>

            X509v3 Key Usage: critical
                Certificate Sign, CRL Sign
    Signature Algorithm: sha1WithRSAEncryption
         06:82:86:81:a9:1b:7e:2d:ef:f5:fc:cc:d2:9d:d6:82:ad:d0:
         6f:7e:3d:b9:5c:b2:0f:3a:64:21:9a:fb:53:b2:93:81:dc:1a:
         24:fc:b8:30:57:a2:c7:71:0d:9c:1a:0b:8a:6c:89:52:8b:8a:
         f5:af:95:3e:b8:08:39:ee:36:50:ac:60:4d:df:2b:49:a2:72:
         f1:3f:12:3c:d9:55:56:a4:9a:77:2b:77:fa:16:b5:76:d9:f4:
         c4:51:6b:b9:fe:2f:a3:52:e8:64:80:49:22:6d:05:42:87:af:
         9d:85:6c:fa:c9:9b:48:39:7b:89:f5:a0:1e:ff:11:d3:9c:78:
         b1:b2:f6:4d:b1:e8:b3:98:23:2c:d4:20:e1:a1:01:3e:26:0a:
         5b:8e:eb:58:45:22:cf:e1:94:ad:84:40:b0:fb:ff:25:5f:31:
         9a:49:0b:36:ad:c6:1a:b0:42:60:40:e2:a2:3c:5a:36:41:89:
         fc:10:c4:60:ea:d4:85:7b:36:84:df:aa:81:cc:69:e7:52:ca:
         c1:46:b1:79:93:51:4f:24:84:42:14:3a:20:a0:6c:27:76:40:
         0f:96:7e:4e:c3:0c:37:b3:e3:73:49:86:58:31:00:1e:e7:0f:
         87:74:b6:4e:6e:1c:7d:87:a4:33:04:c9:76:ec:e5:3a:85:5f:
         a8:d1:ad:21:64:5e:c5:6a:df:b1:02:6e:65:a4:87:72:06:07:
         da:e5:f2:af:2b:a5:eb:18:80:67:83:a5:3c:e6:ed:d1:58:f9:
         90:5c:d6:e9:2f:76:c1:58:13:b8:bd:88:8a:f3:04:48:bb:42:
         8f:7f:c6:db:b4:30:3f:bb:6c:d5:47:e5:ae:8d:4b:da:92:a5:
         db:d3:6e:a8:9b:c2:6b:56:af:34:63:82:e6:78:f8:1f:54:d7:
         41:aa:a3:c9:7c:a6:83:41:bf:6e:33:7c:ae:e6:92:bd:da:27:
         b4:bc:e2:90:4f:33:1b:01:a1:cd:02:13:7a:31:ef:00:d6:9a:
         6e:38:6b:a7:cb:70:98:a8:0f:ff:1c:56:a8:b7:e6:d2:42:5a:
         bb:f4:78:27:71:13:d0:e8:43:eb:bc:2d:4f:e4:ea:4d:4f:76:
         7f:53:38:34:eb:13:e2:3d:c6:14:98:86:1c:ab:2c:0e:b7:68:
         2e:bd:63:a9:6a:8f:d5:22:2d:ab:13:d7:62:54:51:ff:5c:37:
         08:04:27:da:f9:57:77:05:18:73:88:5f:b0:c1:65:50:36:09:
         d6:c7:f5:ae:6e:3f:04:d1:84:3c:21:74:1d:bd:0a:fb:76:d0:
         13:2b:62:bb:24:48:43:89:d0:18:5c:b4:ad:ea:98:af:6d:fc:
         1c:6b:1f:06:64:54:23:88
-----BEGIN CERTIFICATE-----
MIIFwzCCA6ugAwIBAgIJAI3Srzf5ypILMA0GCSqGSIb3DQEBBQUAMCkxCzAJBgNV
BAYTAkJFMRowGAYDVQQDExF0eGpzb25ycGMtdGVzdC1jYTAeFw0xMjA2MjMxNTQ2
MzdaFw0yMjA2MjExNTQ2MzdaMCkxCzAJBgNVBAYTAkJFMRowGAYDVQQDExF0eGpz
b25ycGMtdGVzdC1jYTCCAiIwDQYJKoZIhvcNAQEBBQADggIPADCCAgoCggIBANEl
r3fFqHLPkLk5EPt7dSyh2mqV5UQM1iVLWH+7B4JZSVgyhSTMPnfb4adPyLXL7kU4
vbz743Y7iATKqzqjljtfk5wopmGX3KI/oJMrVmzP009qngXTHM3vdYAamLeSSRQz
uMR8c4x+g6WBolmMi6NRNm1orPLx7W9J2a96Y8FDMUK2x825eLczmHCSbJ4Eenvw
bTiH6wATF7nZ7LRmu1HT/YHjDohxI9KAKmHeqyUCR6nBa8lprtpHtkl0rKbhwXa6
bbHZaG4cN6jiGGA3tlgTbMeSfMZFjO/DgXMQ3C8x4rkFWp4ocFo+HbhocYHJ6P4f
w6AT+OQkErqRjhXSA/GMsKriNORr+Ab2I4qSQ6YF3OnHpagG126RUnJHq66H/rMP
BIdvSyIp6akGUlh9AxbX1TFEtPFRRKcqul4JGexMouBY/g1Ot5BNAqwqrZkUZTsK
PHNFVrIPECUkUXlXGjQaEG9g4PyB28rC4oUbTHITXJ12zNAhMzFWgo/FV7lE/Yt2
wbbkIYs1mu5UdJ9yaxmE16I8pW4RCvGTBC7dfEx9YhDUG4uH9u2/ErGL8Jp67gKU
4TxGK3+cVPsuYckc7/zeJbwtdRsfSV5EOxWTrcSJ2a482lTv2a86FsuUG2oU5EL5
dTNGbvtAvPiCNs9g9cKimCOnKq7BqiL4h9q3nKTPAgMBAAGjge0wgeowHQYDVR0O
BBYEFJ2PhHaUzQf+o+iL1/nZbu/KdVF7MFkGA1UdIwRSMFCAFJ2PhHaUzQf+o+iL
1/nZbu/KdVF7oS2kKzApMQswCQYDVQQGEwJCRTEaMBgGA1UEAxMRdHhqc29ucnBj
LXRlc3QtY2GCCQCN0q83+cqSCzAPBgNVHRMBAf8EBTADAQH/MBEGCWCGSAGG+EIB
AQQEAwIBBjAJBgNVHRIEAjAAMCQGCWCGSAGG+EIBDQQXFhVUZXN0IENBIGZvciB0
eGpzb25yY3AwCQYDVR0RBAIwADAOBgNVHQ8BAf8EBAMCAQYwDQYJKoZIhvcNAQEF
BQADggIBAAaChoGpG34t7/X8zNKd1oKt0G9+Pblcsg86ZCGa+1Oyk4HcGiT8uDBX
osdxDZwaC4psiVKLivWvlT64CDnuNlCsYE3fK0micvE/EjzZVVakmncrd/oWtXbZ
9MRRa7n+L6NS6GSASSJtBUKHr52FbPrJm0g5e4n1oB7/EdOceLGy9k2x6LOYIyzU
IOGhAT4mCluO61hFIs/hlK2EQLD7/yVfMZpJCzatxhqwQmBA4qI8WjZBifwQxGDq
1IV7NoTfqoHMaedSysFGsXmTUU8khEIUOiCgbCd2QA+Wfk7DDDez43NJhlgxAB7n
D4d0tk5uHH2HpDMEyXbs5TqFX6jRrSFkXsVq37ECbmWkh3IGB9rl8q8rpesYgGeD
pTzm7dFY+ZBc1ukvdsFYE7i9iIrzBEi7Qo9/xtu0MD+7bNVH5a6NS9qSpdvTbqib
wmtWrzRjguZ4+B9U10Gqo8l8poNBv24zfK7mkr3aJ7S84pBPMxsBoc0CE3ox7wDW
mm44a6fLcJioD/8cVqi35tJCWrv0eCdxE9DoQ+u8LU/k6k1Pdn9TODTrE+I9xhSY
hhyrLA63aC69Y6lqj9UiLasT12JUUf9cNwgEJ9r5V3cFGHOIX7DBZVA2CdbH9a5u
PwTRhDwhdB29Cvt20BMrYrskSEOJ0BhctK3qmK9t/BxrHwZkVCOI
-----END CERTIFICATE-----
