Certificate:
    Data:
        Version: 4 (0x3)
        Serial Number: 1 (0x1)
    Signature Algorithm: sha1WithRSAEncryption
        Issuer: C=BE, CN=txjsonrpc-test-ca
        Validity
            Not Before: Jan  1 00:00:00 1970 GMT
            Not After : Jan 19 03:14:07 2038 GMT
        Subject: CN=ca-none, C=BE, O=Gremwell bvba
        Subject Public Key Info:
            Public Key Algorithm: rsaEncryption
                Public-Key: (1024 bit)
                Modulus:
                    00:e8:8a:16:3d:7b:f2:79:72:d0:64:cb:64:4c:1e:
                    51:34:40:74:77:6b:a6:6d:fc:e0:9c:7e:f5:01:b7:
                    9b:bd:30:df:05:04:a7:47:ef:bc:e3:6f:56:ce:60:
                    c9:43:b2:8a:0b:6a:74:e2:40:47:12:92:ae:56:50:
                    f8:c0:72:f9:aa:2a:5f:2f:f2:bc:e1:ce:0f:9a:8f:
                    9e:79:35:9a:03:08:2b:f8:94:a2:90:a6:42:12:9b:
                    05:c0:c9:0b:d3:ae:53:be:35:f3:49:36:d2:06:0c:
                    f8:33:df:11:2a:99:a1:ee:df:69:00:99:b3:d5:96:
                    05:c6:a8:9c:58:92:63:b6:9b
                Exponent: 65537 (0x10001)
    Signature Algorithm: sha1WithRSAEncryption
         76:a3:fb:eb:c7:69:5a:79:73:73:37:3c:38:b4:a8:d6:00:93:
         da:a8:68:b4:08:b1:84:b4:ce:f0:47:c4:d0:27:1e:90:6a:f5:
         cd:20:c1:91:0e:f1:c4:2a:6d:33:c9:8e:dd:45:9a:fb:90:ca:
         d6:35:af:b1:20:50:e3:0e:69:8b:d5:d0:08:e3:75:c8:e8:81:
         77:a8:22:a7:31:2d:05:b0:fc:aa:ac:e6:90:2b:d9:eb:8f:1e:
         55:ea:af:bc:df:18:c5:c8:e1:4f:dd:f0:14:bb:21:f6:8e:e6:
         74:ee:bf:1b:8d:4a:99:17:36:58:e5:ab:bc:91:cd:65:8b:34:
         42:ab:eb:cf:48:32:d9:bc:2f:46:2e:f8:1a:26:13:e2:54:7e:
         92:83:ba:4e:50:85:42:ca:ab:f9:b0:11:0c:26:fc:c2:6b:25:
         24:c8:12:75:4c:29:0b:cd:8a:c6:5f:76:f4:51:6b:b3:ae:06:
         eb:51:b1:1e:2d:66:fb:2c:61:2a:2f:11:98:d8:e9:39:61:8d:
         47:8f:3b:46:41:ee:61:08:06:5e:9a:fa:95:ef:4a:58:6e:64:
         5f:99:4b:10:ed:cb:25:cc:21:ed:85:fa:3e:fe:1a:77:ec:8d:
         5f:99:65:d3:86:99:eb:fa:36:1f:1d:67:2f:54:95:08:93:5e:
         c9:53:75:fa:3d:b9:b6:01:00:1d:4c:54:95:c7:b4:6e:03:f2:
         c4:94:96:5a:fd:ef:36:bf:ca:6c:f3:30:c0:70:6f:1c:62:f3:
         1c:83:ed:dc:53:03:2b:c2:ee:1d:84:a8:fa:2c:eb:70:7e:d2:
         b8:68:e7:94:52:a4:0c:a6:5c:5b:cc:4d:93:e8:1a:8f:c6:3a:
         82:3c:fe:e2:84:46:dd:ee:93:32:e6:21:f5:ac:3a:da:4d:32:
         7d:a2:e6:a4:07:9f:88:b6:fe:59:ce:a6:e0:c8:15:df:5e:79:
         35:e8:29:09:b4:10:ff:6e:e0:36:b8:4a:fd:67:fb:8d:f2:e5:
         c0:84:fb:a9:03:47:07:c5:d2:12:30:59:82:05:ca:5c:2c:e1:
         84:b3:c3:69:02:7b:91:a3:4b:28:54:66:30:d2:01:41:9c:e3:
         af:37:3e:2a:cf:94:d4:13:28:e7:91:13:2e:76:25:5d:ea:01:
         2b:15:0e:8c:13:e2:c8:9f:42:fc:a4:0f:3e:8d:20:66:96:42:
         81:c6:f9:5c:eb:7a:18:f2:c0:09:ce:90:eb:ae:aa:9e:9b:13:
         c7:ed:ee:fe:38:cb:83:64:51:20:f1:6c:66:37:e1:cf:ea:ce:
         80:aa:b9:d6:44:b6:ce:fe:8d:23:10:5a:7f:a6:2e:e6:bf:0f:
         6c:dd:3d:16:55:b1:0a:4c
-----BEGIN CERTIFICATE-----
MIIDVTCCAT2gAwIBAwIBATANBgkqhkiG9w0BAQUFADApMQswCQYDVQQGEwJCRTEa
MBgGA1UEAxMRdHhqc29ucnBjLXRlc3QtY2EwHhcNNzAwMTAxMDAwMDAwWhcNMzgw
MTE5MDMxNDA3WjA3MRAwDgYDVQQDEwdjYS1ub25lMQswCQYDVQQGEwJCRTEWMBQG
A1UEChMNR3JlbXdlbGwgYnZiYTCBnzANBgkqhkiG9w0BAQEFAAOBjQAwgYkCgYEA
6IoWPXvyeXLQZMtkTB5RNEB0d2umbfzgnH71AbebvTDfBQSnR++8429WzmDJQ7KK
C2p04kBHEpKuVlD4wHL5qipfL/K84c4Pmo+eeTWaAwgr+JSikKZCEpsFwMkL065T
vjXzSTbSBgz4M98RKpmh7t9pAJmz1ZYFxqicWJJjtpsCAwEAATANBgkqhkiG9w0B
AQUFAAOCAgEAdqP768dpWnlzczc8OLSo1gCT2qhotAixhLTO8EfE0CcekGr1zSDB
kQ7xxCptM8mO3UWa+5DK1jWvsSBQ4w5pi9XQCON1yOiBd6gipzEtBbD8qqzmkCvZ
648eVeqvvN8YxcjhT93wFLsh9o7mdO6/G41KmRc2WOWrvJHNZYs0Qqvrz0gy2bwv
Ri74GiYT4lR+koO6TlCFQsqr+bARDCb8wmslJMgSdUwpC82Kxl929FFrs64G61Gx
Hi1m+yxhKi8RmNjpOWGNR487RkHuYQgGXpr6le9KWG5kX5lLEO3LJcwh7YX6Pv4a
d+yNX5ll04aZ6/o2Hx1nL1SVCJNeyVN1+j25tgEAHUxUlce0bgPyxJSWWv3vNr/K
bPMwwHBvHGLzHIPt3FMDK8LuHYSo+izrcH7SuGjnlFKkDKZcW8xNk+gaj8Y6gjz+
4oRG3e6TMuYh9aw62k0yfaLmpAefiLb+Wc6m4MgV3155NegpCbQQ/27gNrhK/Wf7
jfLlwIT7qQNHB8XSEjBZggXKXCzhhLPDaQJ7kaNLKFRmMNIBQZzjrzc+Ks+U1BMo
55ETLnYlXeoBKxUOjBPiyJ9C/KQPPo0gZpZCgcb5XOt6GPLACc6Q666qnpsTx+3u
/jjLg2RRIPFsZjfhz+rOgKq51kS2zv6NIxBaf6Yu5r8PbN09FlWxCkw=
-----END CERTIFICATE-----
Certificate:
    Data:
        Version: 3 (0x2)
        Serial Number: 10219423159405941259 (0x8dd2af37f9ca920b)
    Signature Algorithm: sha1WithRSAEncryption
        Issuer: C=BE, CN=txjsonrpc-test-ca
        Validity
            Not Before: Jun 23 15:46:37 2012 GMT
            Not After : Jun 21 15:46:37 2022 GMT
        Subject: C=BE, CN=txjsonrpc-test-ca
        Subject Public Key Info:
            Public Key Algorithm: rsaEncryption
                Public-Key: (4096 bit)
                Modulus:
                    00:d1:25:af:77:c5:a8:72:cf:90:b9:39:10:fb:7b:
                    75:2c:a1:da:6a:95:e5:44:0c:d6:25:4b:58:7f:bb:
                    07:82:59:49:58:32:85:24:cc:3e:77:db:e1:a7:4f:
                    c8:b5:cb:ee:45:38:bd:bc:fb:e3:76:3b:88:04:ca:
                    ab:3a:a3:96:3b:5f:93:9c:28:a6:61:97:dc:a2:3f:
                    a0:93:2b:56:6c:cf:d3:4f:6a:9e:05:d3:1c:cd:ef:
                    75:80:1a:98:b7:92:49:14:33:b8:c4:7c:73:8c:7e:
                    83:a5:81:a2:59:8c:8b:a3:51:36:6d:68:ac:f2:f1:
                    ed:6f:49:d9:af:7a:63:c1:43:31:42:b6:c7:cd:b9:
                    78:b7:33:98:70:92:6c:9e:04:7a:7b:f0:6d:38:87:
                    eb:00:13:17:b9:d9:ec:b4:66:bb:51:d3:fd:81:e3:
                    0e:88:71:23:d2:80:2a:61:de:ab:25:02:47:a9:c1:
                    6b:c9:69:ae:da:47:b6:49:74:ac:a6:e1:c1:76:ba:
                    6d:b1:d9:68:6e:1c:37:a8:e2:18:60:37:b6:58:13:
                    6c:c7:92:7c:c6:45:8c:ef:c3:81:73:10:dc:2f:31:
                    e2:b9:05:5a:9e:28:70:5a:3e:1d:b8:68:71:81:c9:
                    e8:fe:1f:c3:a0:13:f8:e4:24:12:ba:91:8e:15:d2:
                    03:f1:8c:b0:aa:e2:34:e4:6b:f8:06:f6:23:8a:92:
                    43:a6:05:dc:e9:c7:a5:a8:06:d7:6e:91:52:72:47:
                    ab:ae:87:fe:b3:0f:04:87:6f:4b:22:29:e9:a9:06:
                    52:58:7d:03:16:d7:d5:31:44:b4:f1:51:44:a7:2a:
                    ba:5e:09:19:ec:4c:a2:e0:58:fe:0d:4e:b7:90:4d:
                    02:ac:2a:ad:99:14:65:3b:0a:3c:73:45:56:b2:0f:
                    10:25:24:51:79:57:1a:34:1a:10:6f:60:e0:fc:81:
                    db:ca:c2:e2:85:1b:4c:72:13:5c:9d:76:cc:d0:21:
                    33:31:56:82:8f:c5:57:b9:44:fd:8b:76:c1:b6:e4:
                    21:8b:35:9a:ee:54:74:9f:72:6b:19:84:d7:a2:3c:
                    a5:6e:11:0a:f1:93:04:2e:dd:7c:4c:7d:62:10:d4:
                    1b:8b:87:f6:ed:bf:12:b1:8b:f0:9a:7a:ee:02:94:
                    e1:3c:46:2b:7f:9c:54:fb:2e:61:c9:1c:ef:fc:de:
                    25:bc:2d:75:1b:1f:49:5e:44:3b:15:93:ad:c4:89:
                    d9:ae:3c:da:54:ef:d9:af:3a:16:cb:94:1b:6a:14:
                    e4:42:f9:75:33:46:6e:fb:40:bc:f8:82:36:cf:60:
                    f5:c2:a2:98:23:a7:2a:ae:c1:aa:22:f8:87:da:b7:
                    9c:a4:cf
                Exponent: 65537 (0x10001)
        X509v3 extensions:
            X509v3 Subject Key Identifier: 
                9D:8F:84:76:94:CD:07:FE:A3:E8:8B:D7:F9:D9:6E:EF:CA:75:51:7B
            X509v3 Authority Key Identifier: 
                keyid:9D:8F:84:76:94:CD:07:FE:A3:E8:8B:D7:F9:D9:6E:EF:CA:75:51:7B
                DirName:/C=BE/CN=txjsonrpc-test-ca
                serial:8D:D2:AF:37:F9:CA:92:0B

            X509v3 Basic Constraints: critical
                CA:TRUE
            Netscape Cert Type: 
                SSL CA, S/MIME CA
            X509v3 Issuer Alternative Name: 
                <EMPTY>

            Netscape Comment: 
                Test CA for txjsonrcp
            X509v3 Subject Alternative Name: 
                <EMPTY>

            X509v3 Key Usage: critical
                Certificate Sign, CRL Sign
    Signature Algorithm: sha1WithRSAEncryption
         06:82:86:81:a9:1b:7e:2d:ef:f5:fc:cc:d2:9d:d6:82:ad:d0:
         6f:7e:3d:b9:5c:b2:0f:3a:64:21:9a:fb:53:b2:93:81:dc:1a:
         24:fc:b8:30:57:a2:c7:71:0d:9c:1a:0b:8a:6c:89:52:8b:8a:
         f5:af:95:3e:b8:08:39:ee:36:50:ac:60:4d:df:2b:49:a2:72:
         f1:3f:12:3c:d9:55:56:a4:9a:77:2b:77:fa:16:b5:76:d9:f4:
         c4:51:6b:b9:fe:2f:a3:52:e8:64:80:49:22:6d:05:42:87:af:
         9d:85:6c:fa:c9:9b:48:39:7b:89:f5:a0:1e:ff:11:d3:9c:78:
         b1:b2:f6:4d:b1:e8:b3:98:23:2c:d4:20:e1:a1:01:3e:26:0a:
         5b:8e:eb:58:45:22:cf:e1:94:ad:84:40:b0:fb:ff:25:5f:31:
         9a:49:0b:36:ad:c6:1a:b0:42:60:40:e2:a2:3c:5a:36:41:89:
         fc:10:c4:60:ea:d4:85:7b:36:84:df:aa:81:cc:69:e7:52:ca:
         c1:46:b1:79:93:51:4f:24:84:42:14:3a:20:a0:6c:27:76:40:
         0f:96:7e:4e:c3:0c:37:b3:e3:73:49:86:58:31:00:1e:e7:0f:
         87:74:b6:4e:6e:1c:7d:87:a4:33:04:c9:76:ec:e5:3a:85:5f:
         a8:d1:ad:21:64:5e:c5:6a:df:b1:02:6e:65:a4:87:72:06:07:
         da:e5:f2:af:2b:a5:eb:18:80:67:83:a5:3c:e6:ed:d1:58:f9:
         90:5c:d6:e9:2f:76:c1:58:13:b8:bd:88:8a:f3:04:48:bb:42:
         8f:7f:c6:db:b4:30:3f:bb:6c:d5:47:e5:ae:8d:4b:da:92:a5:
         db:d3:6e:a8:9b:c2:6b:56:af:34:63:82:e6:78:f8:1f:54:d7:
         41:aa:a3:c9:7c:a6:83:41:bf:6e:33:7c:ae:e6:92:bd:da:27:
         b4:bc:e2:90:4f:33:1b:01:a1:cd:02:13:7a:31:ef:00:d6:9a:
         6e:38:6b:a7:cb:70:98:a8:0f:ff:1c:56:a8:b7:e6:d2:42:5a:
         bb:f4:78:27:71:13:d0:e8:43:eb:bc:2d:4f:e4:ea:4d:4f:76:
         7f:53:38:34:eb:13:e2:3d:c6:14:98:86:1c:ab:2c:0e:b7:68:
         2e:bd:63:a9:6a:8f:d5:22:2d:ab:13:d7:62:54:51:ff:5c:37:
         08:04:27:da:f9:57:77:05:18:73:88:5f:b0:c1:65:50:36:09:
         d6:c7:f5:ae:6e:3f:04:d1:84:3c:21:74:1d:bd:0a:fb:76:d0:
         13:2b:62:bb:24:48:43:89:d0:18:5c:b4:ad:ea:98:af:6d:fc:
         1c:6b:1f:06:64:54:23:88
-----BEGIN CERTIFICATE-----
MIIFwzCCA6ugAwIBAgIJAI3Srzf5ypILMA0GCSqGSIb3DQEBBQUAMCkxCzAJBgNV
BAYTAkJFMRowGAYDVQQDExF0eGpzb25ycGMtdGVzdC1jYTAeFw0xMjA2MjMxNTQ2
MzdaFw0yMjA2MjExNTQ2MzdaMCkxCzAJBgNVBAYTAkJFMRowGAYDVQQDExF0eGpz
b25ycGMtdGVzdC1jYTCCAiIwDQYJKoZIhvcNAQEBBQADggIPADCCAgoCggIBANEl
r3fFqHLPkLk5EPt7dSyh2mqV5UQM1iVLWH+7B4JZSVgyhSTMPnfb4adPyLXL7kU4
vbz743Y7iATKqzqjljtfk5wopmGX3KI/oJMrVmzP009qngXTHM3vdYAamLeSSRQz
uMR8c4x+g6WBolmMi6NRNm1orPLx7W9J2a96Y8FDMUK2x825eLczmHCSbJ4Eenvw
bTiH6wATF7nZ7LRmu1HT/YHjDohxI9KAKmHeqyUCR6nBa8lprtpHtkl0rKbhwXa6
bbHZaG4cN6jiGGA3tlgTbMeSfMZFjO/DgXMQ3C8x4rkFWp4ocFo+HbhocYHJ6P4f
w6AT+OQkErqRjhXSA/GMsKriNORr+Ab2I4qSQ6YF3OnHpagG126RUnJHq66H/rMP
BIdvSyIp6akGUlh9AxbX1TFEtPFRRKcqul4JGexMouBY/g1Ot5BNAqwqrZkUZTsK
PHNFVrIPECUkUXlXGjQaEG9g4PyB28rC4oUbTHITXJ12zNAhMzFWgo/FV7lE/Yt2
wbbkIYs1mu5UdJ9yaxmE16I8pW4RCvGTBC7dfEx9YhDUG4uH9u2/ErGL8Jp67gKU
4TxGK3+cVPsuYckc7/zeJbwtdRsfSV5EOxWTrcSJ2a482lTv2a86FsuUG2oU5EL5
dTNGbvtAvPiCNs9g9cKimCOnKq7BqiL4h9q3nKTPAgMBAAGjge0wgeowHQYDVR0O
BBYEFJ2PhHaUzQf+o+iL1/nZbu/KdVF7MFkGA1UdIwRSMFCAFJ2PhHaUzQf+o+iL
1/nZbu/KdVF7oS2kKzApMQswCQYDVQQGEwJCRTEaMBgGA1UEAxMRdHhqc29ucnBj
LXRlc3QtY2GCCQCN0q83+cqSCzAPBgNVHRMBAf8EBTADAQH/MBEGCWCGSAGG+EIB
AQQEAwIBBjAJBgNVHRIEAjAAMCQGCWCGSAGG+EIBDQQXFhVUZXN0IENBIGZvciB0
eGpzb25yY3AwCQYDVR0RBAIwADAOBgNVHQ8BAf8EBAMCAQYwDQYJKoZIhvcNAQEF
BQADggIBAAaChoGpG34t7/X8zNKd1oKt0G9+Pblcsg86ZCGa+1Oyk4HcGiT8uDBX
osdxDZwaC4psiVKLivWvlT64CDnuNlCsYE3fK0micvE/EjzZVVakmncrd/oWtXbZ
9MRRa7n+L6NS6GSASSJtBUKHr52FbPrJm0g5e4n1oB7/EdOceLGy9k2x6LOYIyzU
IOGhAT4mCluO61hFIs/hlK2EQLD7/yVfMZpJCzatxhqwQmBA4qI8WjZBifwQxGDq
1IV7NoTfqoHMaedSysFGsXmTUU8khEIUOiCgbCd2QA+Wfk7DDDez43NJhlgxAB7n
D4d0tk5uHH2HpDMEyXbs5TqFX6jRrSFkXsVq37ECbmWkh3IGB9rl8q8rpesYgGeD
pTzm7dFY+ZBc1ukvdsFYE7i9iIrzBEi7Qo9/xtu0MD+7bNVH5a6NS9qSpdvTbqib
wmtWrzRjguZ4+B9U10Gqo8l8poNBv24zfK7mkr3aJ7S84pBPMxsBoc0CE3ox7wDW
mm44a6fLcJioD/8cVqi35tJCWrv0eCdxE9DoQ+u8LU/k6k1Pdn9TODTrE+I9xhSY
hhyrLA63aC69Y6lqj9UiLasT12JUUf9cNwgEJ9r5V3cFGHOIX7DBZVA2CdbH9a5u
PwTRhDwhdB29Cvt20BMrYrskSEOJ0BhctK3qmK9t/BxrHwZkVCOI
-----END CERTIFICATE-----
