Certificate:
    Data:
        Version: 4 (0x3)
        Serial Number: 1 (0x1)
    Signature Algorithm: sha1WithRSAEncryption
        Issuer: CN=www.example.com, C=BE, O=Gremwell bvba
        Validity
            Not Before: Jan  1 00:00:00 1970 GMT
            Not After : Jan 19 03:14:07 2038 GMT
        Subject: CN=www.example.com, C=BE, O=Gremwell bvba
        Subject Public Key Info:
            Public Key Algorithm: rsaEncryption
                Public-Key: (1024 bit)
                Modulus:
                    00:c0:92:86:cc:e0:15:62:b1:46:0c:a8:5d:c6:0b:
                    d2:31:72:42:cf:be:45:b7:c2:8f:4f:a2:c0:b0:dc:
                    16:96:45:ae:96:92:a0:fa:45:96:e8:69:13:03:34:
                    e5:91:e4:fb:92:44:e9:5a:71:24:9f:dd:d5:03:c7:
                    e6:75:1e:49:3c:2f:b8:90:cf:67:99:6f:37:91:e0:
                    32:50:8f:8f:e4:0d:e0:58:9f:8a:83:06:18:53:58:
                    15:fa:f7:40:83:e2:f3:fe:b2:c3:a4:97:a1:bb:28:
                    4e:41:f8:7d:7b:2a:dd:42:3a:1f:cf:8b:59:e6:c3:
                    72:0f:57:32:62:37:a8:93:37
                Exponent: 65537 (0x10001)
    Signature Algorithm: sha1WithRSAEncryption
         b0:5c:1b:3e:db:97:c6:55:89:17:21:59:28:e9:6f:4f:df:44:
         5d:3d:36:04:e0:1c:20:3e:1d:52:16:af:ea:af:ae:20:47:17:
         ad:10:e3:c6:62:d1:97:43:88:b4:79:a7:10:54:c1:fe:e4:f0:
         22:45:13:35:85:2e:62:42:4c:a8:2d:3c:53:80:a3:20:70:a3:
         80:27:6e:8f:c1:6a:0c:8b:24:11:a4:c7:08:26:e2:49:ea:62:
         99:f6:d1:51:d0:52:ba:20:00:3a:11:63:8b:82:64:75:78:08:
         25:58:39:0c:4e:1a:df:94:ee:02:71:5b:33:18:a8:3f:7f:fd:
         47:69
-----BEGIN CERTIFICATE-----
MIIB8jCCAVugAwIBAwIBATANBgkqhkiG9w0BAQUFADA/MRgwFgYDVQQDEw93d3cu
ZXhhbXBsZS5jb20xCzAJBgNVBAYTAkJFMRYwFAYDVQQKEw1HcmVtd2VsbCBidmJh
MB4XDTcwMDEwMTAwMDAwMFoXDTM4MDExOTAzMTQwN1owPzEYMBYGA1UEAxMPd3d3
LmV4YW1wbGUuY29tMQswCQYDVQQGEwJCRTEWMBQGA1UEChMNR3JlbXdlbGwgYnZi
YTCBnzANBgkqhkiG9w0BAQEFAAOBjQAwgYkCgYEAwJKGzOAVYrFGDKhdxgvSMXJC
z75Ft8KPT6LAsNwWlkWulpKg+kWW6GkTAzTlkeT7kkTpWnEkn93VA8fmdR5JPC+4
kM9nmW83keAyUI+P5A3gWJ+KgwYYU1gV+vdAg+Lz/rLDpJehuyhOQfh9eyrdQjof
z4tZ5sNyD1cyYjeokzcCAwEAATANBgkqhkiG9w0BAQUFAAOBgQCwXBs+25fGVYkX
IVko6W9P30RdPTYE4BwgPh1SFq/qr64gRxetEOPGYtGXQ4i0eacQVMH+5PAiRRM1
hS5iQkyoLTxTgKMgcKOAJ26PwWoMiyQRpMcIJuJJ6mKZ9tFR0FK6IAA6EWOLgmR1
eAglWDkMThrflO4CcVszGKg/f/1HaQ==
-----END CERTIFICATE-----
