Certificate:
    Data:
        Version: 4 (0x3)
        Serial Number: 1 (0x1)
    Signature Algorithm: sha1WithRSAEncryption
        Issuer: CN=blah.com, C=BE, O=Gremwell bvba
        Validity
            Not Before: Jan  1 00:00:00 1970 GMT
            Not After : Jan 19 03:14:07 2038 GMT
        Subject: CN=blah.com, C=BE, O=Gremwell bvba
        Subject Public Key Info:
            Public Key Algorithm: rsaEncryption
                Public-Key: (1024 bit)
                Modulus:
                    00:c1:ee:c9:1e:a3:5b:7e:7a:04:1e:3f:7d:97:1f:
                    53:1f:e6:00:55:e2:a9:02:86:44:92:c5:c6:8d:0d:
                    46:7b:ec:15:6c:d7:8d:60:58:27:d0:8b:1b:53:71:
                    49:05:90:9f:2a:96:77:b2:43:bf:6c:75:b8:08:7d:
                    c3:74:ca:1c:0a:cb:93:70:6a:ac:b2:e7:26:0b:db:
                    f9:ea:cc:3d:fb:6a:16:9f:55:9b:f6:66:f2:5d:75:
                    03:32:28:4b:bf:58:60:2d:ce:4f:ca:31:f5:41:40:
                    4d:f8:fb:f9:c4:7c:da:d1:3d:52:e3:c4:1d:47:20:
                    d5:34:5e:45:1d:20:c3:bc:3b
                Exponent: 65537 (0x10001)
    Signature Algorithm: sha1WithRSAEncryption
         58:53:8b:24:af:88:7e:07:33:55:27:5f:13:f7:51:72:fc:c1:
         ce:b7:55:d5:06:91:00:b4:17:07:ec:85:bc:66:2c:59:20:d4:
         ea:22:c0:de:9e:c4:cf:e6:f5:82:6f:08:09:c2:81:52:5b:82:
         49:1c:4c:11:2d:8a:7a:23:11:e7:c5:03:bb:34:3c:c9:ec:01:
         7b:ff:94:4a:57:24:cc:c9:ef:07:45:e3:ca:7e:01:4f:2d:59:
         de:90:2c:fa:9a:d5:0c:bf:96:04:d9:0c:d4:5a:67:90:ab:c3:
         51:3b:cb:fa:2e:c2:67:52:3a:02:be:52:61:09:4c:0e:12:f9:
         19:a8
-----BEGIN CERTIFICATE-----
MIIB5DCCAU2gAwIBAwIBATANBgkqhkiG9w0BAQUFADA4MREwDwYDVQQDEwhibGFo
LmNvbTELMAkGA1UEBhMCQkUxFjAUBgNVBAoTDUdyZW13ZWxsIGJ2YmEwHhcNNzAw
MTAxMDAwMDAwWhcNMzgwMTE5MDMxNDA3WjA4MREwDwYDVQQDEwhibGFoLmNvbTEL
MAkGA1UEBhMCQkUxFjAUBgNVBAoTDUdyZW13ZWxsIGJ2YmEwgZ8wDQYJKoZIhvcN
AQEBBQADgY0AMIGJAoGBAMHuyR6jW356BB4/fZcfUx/mAFXiqQKGRJLFxo0NRnvs
FWzXjWBYJ9CLG1NxSQWQnyqWd7JDv2x1uAh9w3TKHArLk3BqrLLnJgvb+erMPftq
Fp9Vm/Zm8l11AzIoS79YYC3OT8ox9UFATfj7+cR82tE9UuPEHUcg1TReRR0gw7w7
AgMBAAEwDQYJKoZIhvcNAQEFBQADgYEAWFOLJK+IfgczVSdfE/dRcvzBzrdV1QaR
ALQXB+yFvGYsWSDU6iLA3p7Ez+b1gm8ICcKBUluCSRxMES2KeiMR58UDuzQ8yewB
e/+USlckzMnvB0Xjyn4BTy1Z3pAs+prVDL+WBNkM1FpnkKvDUTvL+i7CZ1I6Ar5S
YQlMDhL5Gag=
-----END CERTIFICATE-----
