Certificate:
    Data:
        Version: 3 (0x2)
        Serial Number: 1 (0x1)
    Signature Algorithm: sha1WithRSAEncryption
        Issuer: C=BE, CN=txjsonrpc-test-ca
        Validity
            Not Before: Jun 23 15:47:38 2012 GMT
            Not After : Jun 23 15:47:38 2013 GMT
        Subject: C=BE, CN=txjsonrpc-pyserver
        Subject Public Key Info:
            Public Key Algorithm: rsaEncryption
                Public-Key: (4096 bit)
                Modulus:
                    00:a0:05:2c:ef:3b:fa:e4:99:7e:d8:7a:75:65:f7:
                    61:f4:46:c0:07:7f:62:d3:ca:61:6f:c6:5c:88:75:
                    4a:f3:1c:02:01:d6:ed:a9:5e:b0:e6:2f:83:ed:4d:
                    ce:11:c3:df:1b:74:a0:07:62:23:0b:c1:68:40:3b:
                    7f:3f:3b:80:96:ae:72:f1:1b:a6:08:ef:09:4e:ad:
                    7f:72:9a:43:6c:5f:b4:6d:b7:a5:be:60:c1:13:ec:
                    60:41:94:c8:7b:9b:40:60:94:e5:21:59:9f:bc:d3:
                    69:78:6c:2b:71:7a:ad:ab:ad:59:77:f1:95:8d:fc:
                    06:ad:39:cf:3a:35:8a:76:c6:14:7a:70:2a:f5:3f:
                    19:eb:ec:c5:11:5f:65:a8:0a:53:09:87:96:8c:12:
                    bc:38:1e:f9:27:47:da:81:38:5f:2d:20:88:b4:94:
                    81:c6:1f:9e:63:3e:15:e3:98:0b:cf:de:df:36:f0:
                    59:5a:ac:75:57:2d:89:10:ad:69:b5:00:8f:8b:be:
                    81:31:86:d7:51:88:b2:70:81:f3:18:31:78:d5:95:
                    6b:47:8f:c5:b3:b6:73:90:8a:21:62:67:6b:a7:eb:
                    20:03:69:41:40:d1:f4:86:ec:0f:ca:4d:b1:63:45:
                    fa:89:9b:b1:4a:92:25:66:78:31:f0:c0:da:3f:f0:
                    49:0a:9a:4b:5f:32:2f:fa:e4:c9:bb:63:d1:2c:42:
                    e4:d4:df:b6:47:1c:1b:3a:9d:d4:68:8a:b7:8d:34:
                    32:26:15:16:2a:0b:0c:f5:3a:ae:1c:25:ba:90:21:
                    f4:98:1a:0f:bd:9e:1f:ed:10:a1:db:5a:54:1b:c4:
                    f9:57:a5:0a:56:b5:e5:21:9a:8f:24:7e:ec:82:a5:
                    fe:c7:78:7b:2e:b8:6f:20:3c:af:55:5e:84:34:d3:
                    df:4c:8f:fc:11:a1:f7:86:fa:f9:bd:22:e5:22:fd:
                    53:c0:0c:90:62:4a:9c:99:5d:c0:c6:31:00:45:b8:
                    43:9d:1d:1b:2a:8b:6f:c2:01:ee:e7:11:d9:81:ae:
                    b8:31:e2:37:ec:d8:a8:b9:58:38:87:eb:79:4e:5e:
                    c9:bd:ae:0d:f2:bf:74:04:e0:54:c9:9e:6f:63:e4:
                    88:52:86:c6:b0:b5:0f:b8:75:e2:d0:e9:4d:af:6b:
                    d1:bf:65:b4:91:a8:d3:c6:28:a5:ae:c6:a6:02:ed:
                    17:f6:75:2c:46:0e:f0:c6:20:a5:52:79:f4:8f:12:
                    b0:7a:84:1b:cf:b9:42:67:98:7e:9c:97:61:28:61:
                    24:46:80:b8:f9:bd:c7:24:c1:1e:d8:9f:7f:cf:f9:
                    76:fc:10:91:b5:10:33:56:03:8b:eb:8d:ca:92:d7:
                    13:62:71
                Exponent: 65537 (0x10001)
        X509v3 extensions:
            X509v3 Basic Constraints: 
                CA:FALSE
            Netscape Cert Type: 
                SSL Server
            Netscape Comment: 
                TinyCA Generated Certificate
            X509v3 Subject Key Identifier: 
                26:8C:A5:F9:A6:4A:FE:4C:E8:0F:04:33:7E:04:26:28:BF:4C:92:F3
            X509v3 Authority Key Identifier: 
                keyid:9D:8F:84:76:94:CD:07:FE:A3:E8:8B:D7:F9:D9:6E:EF:CA:75:51:7B
                DirName:/C=BE/CN=txjsonrpc-test-ca
                serial:8D:D2:AF:37:F9:CA:92:0B

            X509v3 Issuer Alternative Name: 
                <EMPTY>

            X509v3 Subject Alternative Name: 
                <EMPTY>

    Signature Algorithm: sha1WithRSAEncryption
         81:7c:9e:77:97:1b:42:94:14:3f:d4:e4:60:d0:75:25:ed:b0:
         6f:5c:46:75:0c:80:44:8a:b0:3f:87:dd:d3:c6:f7:fe:41:1c:
         62:53:58:f6:c2:18:88:17:65:9b:f1:b5:67:af:bd:44:08:f6:
         7f:c1:f9:20:d1:20:8a:ee:09:2b:93:1f:ec:83:b7:86:f4:87:
         c2:76:cb:e8:38:ab:fb:9c:1f:06:25:7a:c6:51:de:4a:49:ac:
         18:51:c4:44:43:7e:06:72:ac:7f:68:c4:32:e2:d1:f7:75:a0:
         07:99:1d:90:dd:d6:3d:8a:ba:df:dc:fb:2d:b8:19:a6:c9:4d:
         37:c1:af:4d:9f:c6:50:7a:5d:1a:83:b9:4e:c3:30:86:99:e9:
         2e:f6:29:fd:b1:10:84:52:5c:82:fe:8f:87:66:19:ec:34:0b:
         64:8c:a3:52:e2:5e:a9:44:46:d7:18:4b:c2:f2:a3:29:03:70:
         98:ee:4c:0b:4f:65:2f:50:03:2e:8c:aa:e9:b4:a5:1e:e2:b7:
         d3:80:c2:a2:6b:5a:92:1d:80:30:cf:8a:ce:82:93:8f:cf:06:
         31:37:b8:c6:0e:3e:08:3e:e5:dd:95:fc:43:7b:34:15:dc:e7:
         c4:f3:54:44:ca:91:7d:ed:df:d9:f9:77:d9:7e:5b:72:6a:4d:
         c4:08:b3:5b:1a:4e:47:e6:22:02:27:cb:91:42:4f:ed:e0:52:
         b5:8c:89:5f:d9:49:dc:eb:01:3a:13:0f:62:da:62:97:ed:f2:
         35:b8:f4:70:d6:ad:e2:60:46:95:ae:26:f8:1b:b1:aa:0f:99:
         1c:24:ca:8b:bf:57:4e:90:11:2b:79:05:49:72:07:e5:46:f1:
         06:0b:3f:13:8b:9a:3a:20:43:db:97:53:66:70:52:78:83:40:
         e5:fc:7c:18:d3:02:2a:21:32:21:18:0d:3b:4a:8f:1e:7c:eb:
         f6:64:39:c9:02:fc:c2:bc:2b:6c:88:97:ab:25:c8:44:5f:f1:
         a6:20:6d:6b:7f:44:5e:26:98:41:13:b1:df:65:c9:22:89:79:
         0f:26:ae:54:3f:6b:6e:90:8e:80:a0:54:64:d9:8d:1e:be:63:
         aa:d8:c2:85:00:97:24:2d:ec:c2:8f:6f:84:9d:15:97:2b:44:
         47:64:68:da:1b:20:34:b2:30:a4:63:33:0f:aa:81:d7:9e:ef:
         5f:a5:1b:4f:ba:d7:99:31:9d:87:f5:77:f7:af:84:10:43:64:
         c4:f8:9e:03:d7:19:68:61:d3:6b:f3:46:c7:f7:c4:fe:fc:32:
         e5:6d:68:44:dd:99:b1:44:8b:db:70:c4:86:4b:b0:fa:3a:17:
         2e:8c:2a:ed:b9:08:c4:ab
-----BEGIN CERTIFICATE-----
MIIFrTCCA5WgAwIBAgIBATANBgkqhkiG9w0BAQUFADApMQswCQYDVQQGEwJCRTEa
MBgGA1UEAxMRdHhqc29ucnBjLXRlc3QtY2EwHhcNMTIwNjIzMTU0NzM4WhcNMTMw
NjIzMTU0NzM4WjAqMQswCQYDVQQGEwJCRTEbMBkGA1UEAxMSdHhqc29ucnBjLXB5
c2VydmVyMIICIjANBgkqhkiG9w0BAQEFAAOCAg8AMIICCgKCAgEAoAUs7zv65Jl+
2Hp1Zfdh9EbAB39i08phb8ZciHVK8xwCAdbtqV6w5i+D7U3OEcPfG3SgB2IjC8Fo
QDt/PzuAlq5y8RumCO8JTq1/cppDbF+0bbelvmDBE+xgQZTIe5tAYJTlIVmfvNNp
eGwrcXqtq61Zd/GVjfwGrTnPOjWKdsYUenAq9T8Z6+zFEV9lqApTCYeWjBK8OB75
J0fagThfLSCItJSBxh+eYz4V45gLz97fNvBZWqx1Vy2JEK1ptQCPi76BMYbXUYiy
cIHzGDF41ZVrR4/Fs7ZzkIohYmdrp+sgA2lBQNH0huwPyk2xY0X6iZuxSpIlZngx
8MDaP/BJCppLXzIv+uTJu2PRLELk1N+2RxwbOp3UaIq3jTQyJhUWKgsM9TquHCW6
kCH0mBoPvZ4f7RCh21pUG8T5V6UKVrXlIZqPJH7sgqX+x3h7LrhvIDyvVV6ENNPf
TI/8EaH3hvr5vSLlIv1TwAyQYkqcmV3AxjEARbhDnR0bKotvwgHu5xHZga64MeI3
7NiouVg4h+t5Tl7Jva4N8r90BOBUyZ5vY+SIUobGsLUPuHXi0OlNr2vRv2W0kajT
xiilrsamAu0X9nUsRg7wxiClUnn0jxKweoQbz7lCZ5h+nJdhKGEkRoC4+b3HJMEe
2J9/z/l2/BCRtRAzVgOL643KktcTYnECAwEAAaOB3jCB2zAJBgNVHRMEAjAAMBEG
CWCGSAGG+EIBAQQEAwIGQDArBglghkgBhvhCAQ0EHhYcVGlueUNBIEdlbmVyYXRl
ZCBDZXJ0aWZpY2F0ZTAdBgNVHQ4EFgQUJoyl+aZK/kzoDwQzfgQmKL9MkvMwWQYD
VR0jBFIwUIAUnY+EdpTNB/6j6IvX+dlu78p1UXuhLaQrMCkxCzAJBgNVBAYTAkJF
MRowGAYDVQQDExF0eGpzb25ycGMtdGVzdC1jYYIJAI3Srzf5ypILMAkGA1UdEgQC
MAAwCQYDVR0RBAIwADANBgkqhkiG9w0BAQUFAAOCAgEAgXyed5cbQpQUP9TkYNB1
Je2wb1xGdQyARIqwP4fd08b3/kEcYlNY9sIYiBdlm/G1Z6+9RAj2f8H5INEgiu4J
K5Mf7IO3hvSHwnbL6Dir+5wfBiV6xlHeSkmsGFHEREN+BnKsf2jEMuLR93WgB5kd
kN3WPYq639z7LbgZpslNN8GvTZ/GUHpdGoO5TsMwhpnpLvYp/bEQhFJcgv6Ph2YZ
7DQLZIyjUuJeqURG1xhLwvKjKQNwmO5MC09lL1ADLoyq6bSlHuK304DComtakh2A
MM+KzoKTj88GMTe4xg4+CD7l3ZX8Q3s0FdznxPNURMqRfe3f2fl32X5bcmpNxAiz
WxpOR+YiAifLkUJP7eBStYyJX9lJ3OsBOhMPYtpil+3yNbj0cNat4mBGla4m+Bux
qg+ZHCTKi79XTpARK3kFSXIH5UbxBgs/E4uaOiBD25dTZnBSeINA5fx8GNMCKiEy
IRgNO0qPHnzr9mQ5yQL8wrwrbIiXqyXIRF/xpiBta39EXiaYQROx32XJIol5Dyau
VD9rbpCOgKBUZNmNHr5jqtjChQCXJC3swo9vhJ0VlytER2Ro2hsgNLIwpGMzD6qB
157vX6UbT7rXmTGdh/V396+EEENkxPieA9cZaGHTa/NGx/fE/vwy5W1oRN2ZsUSL
23DEhkuw+joXLowq7bkIxKs=
-----END CERTIFICATE-----
Certificate:
    Data:
        Version: 3 (0x2)
        Serial Number: 10219423159405941259 (0x8dd2af37f9ca920b)
    Signature Algorithm: sha1WithRSAEncryption
        Issuer: C=BE, CN=txjsonrpc-test-ca
        Validity
            Not Before: Jun 23 15:46:37 2012 GMT
            Not After : Jun 21 15:46:37 2022 GMT
        Subject: C=BE, CN=txjsonrpc-test-ca
        Subject Public Key Info:
            Public Key Algorithm: rsaEncryption
                Public-Key: (4096 bit)
                Modulus:
                    00:d1:25:af:77:c5:a8:72:cf:90:b9:39:10:fb:7b:
                    75:2c:a1:da:6a:95:e5:44:0c:d6:25:4b:58:7f:bb:
                    07:82:59:49:58:32:85:24:cc:3e:77:db:e1:a7:4f:
                    c8:b5:cb:ee:45:38:bd:bc:fb:e3:76:3b:88:04:ca:
                    ab:3a:a3:96:3b:5f:93:9c:28:a6:61:97:dc:a2:3f:
                    a0:93:2b:56:6c:cf:d3:4f:6a:9e:05:d3:1c:cd:ef:
                    75:80:1a:98:b7:92:49:14:33:b8:c4:7c:73:8c:7e:
                    83:a5:81:a2:59:8c:8b:a3:51:36:6d:68:ac:f2:f1:
                    ed:6f:49:d9:af:7a:63:c1:43:31:42:b6:c7:cd:b9:
                    78:b7:33:98:70:92:6c:9e:04:7a:7b:f0:6d:38:87:
                    eb:00:13:17:b9:d9:ec:b4:66:bb:51:d3:fd:81:e3:
                    0e:88:71:23:d2:80:2a:61:de:ab:25:02:47:a9:c1:
                    6b:c9:69:ae:da:47:b6:49:74:ac:a6:e1:c1:76:ba:
                    6d:b1:d9:68:6e:1c:37:a8:e2:18:60:37:b6:58:13:
                    6c:c7:92:7c:c6:45:8c:ef:c3:81:73:10:dc:2f:31:
                    e2:b9:05:5a:9e:28:70:5a:3e:1d:b8:68:71:81:c9:
                    e8:fe:1f:c3:a0:13:f8:e4:24:12:ba:91:8e:15:d2:
                    03:f1:8c:b0:aa:e2:34:e4:6b:f8:06:f6:23:8a:92:
                    43:a6:05:dc:e9:c7:a5:a8:06:d7:6e:91:52:72:47:
                    ab:ae:87:fe:b3:0f:04:87:6f:4b:22:29:e9:a9:06:
                    52:58:7d:03:16:d7:d5:31:44:b4:f1:51:44:a7:2a:
                    ba:5e:09:19:ec:4c:a2:e0:58:fe:0d:4e:b7:90:4d:
                    02:ac:2a:ad:99:14:65:3b:0a:3c:73:45:56:b2:0f:
                    10:25:24:51:79:57:1a:34:1a:10:6f:60:e0:fc:81:
                    db:ca:c2:e2:85:1b:4c:72:13:5c:9d:76:cc:d0:21:
                    33:31:56:82:8f:c5:57:b9:44:fd:8b:76:c1:b6:e4:
                    21:8b:35:9a:ee:54:74:9f:72:6b:19:84:d7:a2:3c:
                    a5:6e:11:0a:f1:93:04:2e:dd:7c:4c:7d:62:10:d4:
                    1b:8b:87:f6:ed:bf:12:b1:8b:f0:9a:7a:ee:02:94:
                    e1:3c:46:2b:7f:9c:54:fb:2e:61:c9:1c:ef:fc:de:
                    25:bc:2d:75:1b:1f:49:5e:44:3b:15:93:ad:c4:89:
                    d9:ae:3c:da:54:ef:d9:af:3a:16:cb:94:1b:6a:14:
                    e4:42:f9:75:33:46:6e:fb:40:bc:f8:82:36:cf:60:
                    f5:c2:a2:98:23:a7:2a:ae:c1:aa:22:f8:87:da:b7:
                    9c:a4:cf
                Exponent: 65537 (0x10001)
        X509v3 extensions:
            X509v3 Subject Key Identifier: 
                9D:8F:84:76:94:CD:07:FE:A3:E8:8B:D7:F9:D9:6E:EF:CA:75:51:7B
            X509v3 Authority Key Identifier: 
                keyid:9D:8F:84:76:94:CD:07:FE:A3:E8:8B:D7:F9:D9:6E:EF:CA:75:51:7B
                DirName:/C=BE/CN=txjsonrpc-test-ca
                serial:8D:D2:AF:37:F9:CA:92:0B

            X509v3 Basic Constraints: critical
                CA:TRUE
            Netscape Cert Type: 
                SSL CA, S/MIME CA
            X509v3 Issuer Alternative Name: 
                <EMPTY>

            Netscape Comment: 
                Test CA for txjsonrcp
            X509v3 Subject Alternative Name: 
                <EMPTY>

            X509v3 Key Usage: critical
                Certificate Sign, CRL Sign
    Signature Algorithm: sha1WithRSAEncryption
         06:82:86:81:a9:1b:7e:2d:ef:f5:fc:cc:d2:9d:d6:82:ad:d0:
         6f:7e:3d:b9:5c:b2:0f:3a:64:21:9a:fb:53:b2:93:81:dc:1a:
         24:fc:b8:30:57:a2:c7:71:0d:9c:1a:0b:8a:6c:89:52:8b:8a:
         f5:af:95:3e:b8:08:39:ee:36:50:ac:60:4d:df:2b:49:a2:72:
         f1:3f:12:3c:d9:55:56:a4:9a:77:2b:77:fa:16:b5:76:d9:f4:
         c4:51:6b:b9:fe:2f:a3:52:e8:64:80:49:22:6d:05:42:87:af:
         9d:85:6c:fa:c9:9b:48:39:7b:89:f5:a0:1e:ff:11:d3:9c:78:
         b1:b2:f6:4d:b1:e8:b3:98:23:2c:d4:20:e1:a1:01:3e:26:0a:
         5b:8e:eb:58:45:22:cf:e1:94:ad:84:40:b0:fb:ff:25:5f:31:
         9a:49:0b:36:ad:c6:1a:b0:42:60:40:e2:a2:3c:5a:36:41:89:
         fc:10:c4:60:ea:d4:85:7b:36:84:df:aa:81:cc:69:e7:52:ca:
         c1:46:b1:79:93:51:4f:24:84:42:14:3a:20:a0:6c:27:76:40:
         0f:96:7e:4e:c3:0c:37:b3:e3:73:49:86:58:31:00:1e:e7:0f:
         87:74:b6:4e:6e:1c:7d:87:a4:33:04:c9:76:ec:e5:3a:85:5f:
         a8:d1:ad:21:64:5e:c5:6a:df:b1:02:6e:65:a4:87:72:06:07:
         da:e5:f2:af:2b:a5:eb:18:80:67:83:a5:3c:e6:ed:d1:58:f9:
         90:5c:d6:e9:2f:76:c1:58:13:b8:bd:88:8a:f3:04:48:bb:42:
         8f:7f:c6:db:b4:30:3f:bb:6c:d5:47:e5:ae:8d:4b:da:92:a5:
         db:d3:6e:a8:9b:c2:6b:56:af:34:63:82:e6:78:f8:1f:54:d7:
         41:aa:a3:c9:7c:a6:83:41:bf:6e:33:7c:ae:e6:92:bd:da:27:
         b4:bc:e2:90:4f:33:1b:01:a1:cd:02:13:7a:31:ef:00:d6:9a:
         6e:38:6b:a7:cb:70:98:a8:0f:ff:1c:56:a8:b7:e6:d2:42:5a:
         bb:f4:78:27:71:13:d0:e8:43:eb:bc:2d:4f:e4:ea:4d:4f:76:
         7f:53:38:34:eb:13:e2:3d:c6:14:98:86:1c:ab:2c:0e:b7:68:
         2e:bd:63:a9:6a:8f:d5:22:2d:ab:13:d7:62:54:51:ff:5c:37:
         08:04:27:da:f9:57:77:05:18:73:88:5f:b0:c1:65:50:36:09:
         d6:c7:f5:ae:6e:3f:04:d1:84:3c:21:74:1d:bd:0a:fb:76:d0:
         13:2b:62:bb:24:48:43:89:d0:18:5c:b4:ad:ea:98:af:6d:fc:
         1c:6b:1f:06:64:54:23:88
-----BEGIN CERTIFICATE-----
MIIFwzCCA6ugAwIBAgIJAI3Srzf5ypILMA0GCSqGSIb3DQEBBQUAMCkxCzAJBgNV
BAYTAkJFMRowGAYDVQQDExF0eGpzb25ycGMtdGVzdC1jYTAeFw0xMjA2MjMxNTQ2
MzdaFw0yMjA2MjExNTQ2MzdaMCkxCzAJBgNVBAYTAkJFMRowGAYDVQQDExF0eGpz
b25ycGMtdGVzdC1jYTCCAiIwDQYJKoZIhvcNAQEBBQADggIPADCCAgoCggIBANEl
r3fFqHLPkLk5EPt7dSyh2mqV5UQM1iVLWH+7B4JZSVgyhSTMPnfb4adPyLXL7kU4
vbz743Y7iATKqzqjljtfk5wopmGX3KI/oJMrVmzP009qngXTHM3vdYAamLeSSRQz
uMR8c4x+g6WBolmMi6NRNm1orPLx7W9J2a96Y8FDMUK2x825eLczmHCSbJ4Eenvw
bTiH6wATF7nZ7LRmu1HT/YHjDohxI9KAKmHeqyUCR6nBa8lprtpHtkl0rKbhwXa6
bbHZaG4cN6jiGGA3tlgTbMeSfMZFjO/DgXMQ3C8x4rkFWp4ocFo+HbhocYHJ6P4f
w6AT+OQkErqRjhXSA/GMsKriNORr+Ab2I4qSQ6YF3OnHpagG126RUnJHq66H/rMP
BIdvSyIp6akGUlh9AxbX1TFEtPFRRKcqul4JGexMouBY/g1Ot5BNAqwqrZkUZTsK
PHNFVrIPECUkUXlXGjQaEG9g4PyB28rC4oUbTHITXJ12zNAhMzFWgo/FV7lE/Yt2
wbbkIYs1mu5UdJ9yaxmE16I8pW4RCvGTBC7dfEx9YhDUG4uH9u2/ErGL8Jp67gKU
4TxGK3+cVPsuYckc7/zeJbwtdRsfSV5EOxWTrcSJ2a482lTv2a86FsuUG2oU5EL5
dTNGbvtAvPiCNs9g9cKimCOnKq7BqiL4h9q3nKTPAgMBAAGjge0wgeowHQYDVR0O
BBYEFJ2PhHaUzQf+o+iL1/nZbu/KdVF7MFkGA1UdIwRSMFCAFJ2PhHaUzQf+o+iL
1/nZbu/KdVF7oS2kKzApMQswCQYDVQQGEwJCRTEaMBgGA1UEAxMRdHhqc29ucnBj
LXRlc3QtY2GCCQCN0q83+cqSCzAPBgNVHRMBAf8EBTADAQH/MBEGCWCGSAGG+EIB
AQQEAwIBBjAJBgNVHRIEAjAAMCQGCWCGSAGG+EIBDQQXFhVUZXN0IENBIGZvciB0
eGpzb25yY3AwCQYDVR0RBAIwADAOBgNVHQ8BAf8EBAMCAQYwDQYJKoZIhvcNAQEF
BQADggIBAAaChoGpG34t7/X8zNKd1oKt0G9+Pblcsg86ZCGa+1Oyk4HcGiT8uDBX
osdxDZwaC4psiVKLivWvlT64CDnuNlCsYE3fK0micvE/EjzZVVakmncrd/oWtXbZ
9MRRa7n+L6NS6GSASSJtBUKHr52FbPrJm0g5e4n1oB7/EdOceLGy9k2x6LOYIyzU
IOGhAT4mCluO61hFIs/hlK2EQLD7/yVfMZpJCzatxhqwQmBA4qI8WjZBifwQxGDq
1IV7NoTfqoHMaedSysFGsXmTUU8khEIUOiCgbCd2QA+Wfk7DDDez43NJhlgxAB7n
D4d0tk5uHH2HpDMEyXbs5TqFX6jRrSFkXsVq37ECbmWkh3IGB9rl8q8rpesYgGeD
pTzm7dFY+ZBc1ukvdsFYE7i9iIrzBEi7Qo9/xtu0MD+7bNVH5a6NS9qSpdvTbqib
wmtWrzRjguZ4+B9U10Gqo8l8poNBv24zfK7mkr3aJ7S84pBPMxsBoc0CE3ox7wDW
mm44a6fLcJioD/8cVqi35tJCWrv0eCdxE9DoQ+u8LU/k6k1Pdn9TODTrE+I9xhSY
hhyrLA63aC69Y6lqj9UiLasT12JUUf9cNwgEJ9r5V3cFGHOIX7DBZVA2CdbH9a5u
PwTRhDwhdB29Cvt20BMrYrskSEOJ0BhctK3qmK9t/BxrHwZkVCOI
-----END CERTIFICATE-----
