Certificate:
    Data:
        Version: 4 (0x3)
        Serial Number: 1 (0x1)
    Signature Algorithm: sha1WithRSAEncryption
        Issuer: C=BE, CN=txjsonrpc-test-ca
        Validity
            Not Before: Jan  1 00:00:00 1970 GMT
            Not After : Jan 19 03:14:07 2038 GMT
        Subject: CN=ca-none, C=BE, O=Gremwell bvba
        Subject Public Key Info:
            Public Key Algorithm: rsaEncryption
                Public-Key: (1024 bit)
                Modulus:
                    00:a2:c0:cd:3e:36:74:38:31:11:1c:09:e5:d4:9b:
                    2a:e0:5e:71:84:1e:ae:fa:4e:e0:af:f3:78:37:e1:
                    6b:d0:87:56:6f:8a:38:30:11:3b:86:5f:16:b5:05:
                    75:3e:79:f9:16:7d:06:9d:2b:07:f8:15:71:eb:27:
                    18:7b:6d:e4:68:d8:6f:69:19:35:a4:78:b6:6d:0f:
                    a3:08:7f:92:b5:ab:83:0e:d2:13:4f:9d:bf:00:c3:
                    d6:33:42:a4:36:f3:c8:e3:f4:63:82:87:e4:2f:2d:
                    1a:e2:92:ab:c2:66:43:5e:5f:c9:eb:ae:02:6e:72:
                    0e:8a:a2:d8:98:69:47:d5:29
                Exponent: 65537 (0x10001)
    Signature Algorithm: sha1WithRSAEncryption
         8c:52:d0:29:ea:98:d7:1e:79:01:61:bc:b8:dd:64:0e:09:9a:
         67:49:fa:5f:cd:d5:33:8d:43:68:59:f1:4b:96:57:d4:37:19:
         7c:38:39:02:31:d4:36:54:27:2d:a1:62:7a:44:69:df:c8:78:
         2d:22:3d:0b:6b:0a:fa:0f:3e:b0:86:36:d9:76:69:f3:e4:3f:
         44:5c:c8:b5:ff:50:f5:16:c1:57:89:8e:79:bd:d9:6e:e0:2e:
         9f:4d:86:09:f8:03:bf:58:5c:6a:a8:d1:d2:a4:6a:24:ed:d9:
         b6:14:6d:d4:36:22:30:ea:3b:15:33:af:c0:90:79:d2:d7:df:
         2b:3b:ee:72:98:3d:c1:1b:86:d8:45:60:92:25:33:4b:d1:ff:
         d0:a4:a7:31:d5:eb:b3:71:c8:78:f2:55:1f:db:14:5f:17:e3:
         3a:cb:04:82:6c:35:49:dc:7b:1f:f3:17:6c:fa:be:74:ed:ce:
         ec:11:cf:a9:c6:ed:39:f4:ef:11:33:6b:ed:af:4a:41:44:d3:
         9a:39:96:ab:82:1d:ea:94:3c:16:a7:a0:2e:5e:ae:c6:46:ee:
         2d:d0:14:32:97:62:54:0b:90:c5:c1:5d:cb:30:6a:04:bc:80:
         da:4f:ec:9a:12:0d:b9:2c:b7:39:f4:f6:48:ba:95:28:da:9a:
         a8:8b:41:ac:1b:b8:bc:6e:1d:76:db:7c:09:a2:24:72:fd:d5:
         37:33:f2:00:21:d5:70:d0:19:d6:02:70:09:91:82:33:f9:7c:
         5a:0a:79:3b:38:d6:21:38:14:6d:7b:b4:b0:b8:1e:99:6d:26:
         3d:c1:4d:ab:00:fa:06:72:cb:a2:5e:fc:8d:00:a4:aa:46:a6:
         62:b5:c8:30:56:e6:dd:21:8c:97:a9:ad:66:db:fa:ce:80:63:
         ac:cc:f9:cd:9e:44:07:d7:4b:c1:49:fc:a9:90:5f:eb:0e:6d:
         89:37:d0:56:03:0c:e6:51:77:2d:d0:26:5f:b4:27:dd:95:64:
         2b:d4:0c:c0:bb:42:88:a9:19:03:7b:a3:07:14:23:04:60:c5:
         17:c9:2b:15:8f:c2:88:50:39:ca:42:72:69:fd:b7:da:1d:6b:
         f1:28:12:5f:15:84:1a:68:fe:83:6f:14:63:ec:1f:92:07:a6:
         7e:da:8e:09:77:e9:4f:40:56:36:8b:6e:71:44:17:36:cd:4e:
         26:3f:57:09:e4:8a:cf:4a:4d:39:8d:85:30:af:52:4f:67:81:
         cf:89:02:cc:e6:3c:ab:b0:46:8d:1b:e4:c7:d9:6a:15:73:e6:
         a4:9e:9d:a3:f8:59:d9:65:0a:11:01:92:91:30:75:3f:16:a3:
         d2:8d:39:c1:b4:1f:5f:08
-----BEGIN CERTIFICATE-----
MIIDVTCCAT2gAwIBAwIBATANBgkqhkiG9w0BAQUFADApMQswCQYDVQQGEwJCRTEa
MBgGA1UEAxMRdHhqc29ucnBjLXRlc3QtY2EwHhcNNzAwMTAxMDAwMDAwWhcNMzgw
MTE5MDMxNDA3WjA3MRAwDgYDVQQDEwdjYS1ub25lMQswCQYDVQQGEwJCRTEWMBQG
A1UEChMNR3JlbXdlbGwgYnZiYTCBnzANBgkqhkiG9w0BAQEFAAOBjQAwgYkCgYEA
osDNPjZ0ODERHAnl1Jsq4F5xhB6u+k7gr/N4N+Fr0IdWb4o4MBE7hl8WtQV1Pnn5
Fn0GnSsH+BVx6ycYe23kaNhvaRk1pHi2bQ+jCH+StauDDtITT52/AMPWM0KkNvPI
4/RjgofkLy0a4pKrwmZDXl/J664CbnIOiqLYmGlH1SkCAwEAATANBgkqhkiG9w0B
AQUFAAOCAgEAjFLQKeqY1x55AWG8uN1kDgmaZ0n6X83VM41DaFnxS5ZX1DcZfDg5
AjHUNlQnLaFiekRp38h4LSI9C2sK+g8+sIY22XZp8+Q/RFzItf9Q9RbBV4mOeb3Z
buAun02GCfgDv1hcaqjR0qRqJO3ZthRt1DYiMOo7FTOvwJB50tffKzvucpg9wRuG
2EVgkiUzS9H/0KSnMdXrs3HIePJVH9sUXxfjOssEgmw1Sdx7H/MXbPq+dO3O7BHP
qcbtOfTvETNr7a9KQUTTmjmWq4Id6pQ8FqegLl6uxkbuLdAUMpdiVAuQxcFdyzBq
BLyA2k/smhINuSy3OfT2SLqVKNqaqItBrBu4vG4ddtt8CaIkcv3VNzPyACHVcNAZ
1gJwCZGCM/l8Wgp5OzjWITgUbXu0sLgemW0mPcFNqwD6BnLLol78jQCkqkamYrXI
MFbm3SGMl6mtZtv6zoBjrMz5zZ5EB9dLwUn8qZBf6w5tiTfQVgMM5lF3LdAmX7Qn
3ZVkK9QMwLtCiKkZA3ujBxQjBGDFF8krFY/CiFA5ykJyaf232h1r8SgSXxWEGmj+
g28UY+wfkgemftqOCXfpT0BWNotucUQXNs1OJj9XCeSKz0pNOY2FMK9ST2eBz4kC
zOY8q7BGjRvkx9lqFXPmpJ6do/hZ2WUKEQGSkTB1Pxaj0o05wbQfXwg=
-----END CERTIFICATE-----
Certificate:
    Data:
        Version: 3 (0x2)
        Serial Number: 10219423159405941259 (0x8dd2af37f9ca920b)
    Signature Algorithm: sha1WithRSAEncryption
        Issuer: C=BE, CN=txjsonrpc-test-ca
        Validity
            Not Before: Jun 23 15:46:37 2012 GMT
            Not After : Jun 21 15:46:37 2022 GMT
        Subject: C=BE, CN=txjsonrpc-test-ca
        Subject Public Key Info:
            Public Key Algorithm: rsaEncryption
                Public-Key: (4096 bit)
                Modulus:
                    00:d1:25:af:77:c5:a8:72:cf:90:b9:39:10:fb:7b:
                    75:2c:a1:da:6a:95:e5:44:0c:d6:25:4b:58:7f:bb:
                    07:82:59:49:58:32:85:24:cc:3e:77:db:e1:a7:4f:
                    c8:b5:cb:ee:45:38:bd:bc:fb:e3:76:3b:88:04:ca:
                    ab:3a:a3:96:3b:5f:93:9c:28:a6:61:97:dc:a2:3f:
                    a0:93:2b:56:6c:cf:d3:4f:6a:9e:05:d3:1c:cd:ef:
                    75:80:1a:98:b7:92:49:14:33:b8:c4:7c:73:8c:7e:
                    83:a5:81:a2:59:8c:8b:a3:51:36:6d:68:ac:f2:f1:
                    ed:6f:49:d9:af:7a:63:c1:43:31:42:b6:c7:cd:b9:
                    78:b7:33:98:70:92:6c:9e:04:7a:7b:f0:6d:38:87:
                    eb:00:13:17:b9:d9:ec:b4:66:bb:51:d3:fd:81:e3:
                    0e:88:71:23:d2:80:2a:61:de:ab:25:02:47:a9:c1:
                    6b:c9:69:ae:da:47:b6:49:74:ac:a6:e1:c1:76:ba:
                    6d:b1:d9:68:6e:1c:37:a8:e2:18:60:37:b6:58:13:
                    6c:c7:92:7c:c6:45:8c:ef:c3:81:73:10:dc:2f:31:
                    e2:b9:05:5a:9e:28:70:5a:3e:1d:b8:68:71:81:c9:
                    e8:fe:1f:c3:a0:13:f8:e4:24:12:ba:91:8e:15:d2:
                    03:f1:8c:b0:aa:e2:34:e4:6b:f8:06:f6:23:8a:92:
                    43:a6:05:dc:e9:c7:a5:a8:06:d7:6e:91:52:72:47:
                    ab:ae:87:fe:b3:0f:04:87:6f:4b:22:29:e9:a9:06:
                    52:58:7d:03:16:d7:d5:31:44:b4:f1:51:44:a7:2a:
                    ba:5e:09:19:ec:4c:a2:e0:58:fe:0d:4e:b7:90:4d:
                    02:ac:2a:ad:99:14:65:3b:0a:3c:73:45:56:b2:0f:
                    10:25:24:51:79:57:1a:34:1a:10:6f:60:e0:fc:81:
                    db:ca:c2:e2:85:1b:4c:72:13:5c:9d:76:cc:d0:21:
                    33:31:56:82:8f:c5:57:b9:44:fd:8b:76:c1:b6:e4:
                    21:8b:35:9a:ee:54:74:9f:72:6b:19:84:d7:a2:3c:
                    a5:6e:11:0a:f1:93:04:2e:dd:7c:4c:7d:62:10:d4:
                    1b:8b:87:f6:ed:bf:12:b1:8b:f0:9a:7a:ee:02:94:
                    e1:3c:46:2b:7f:9c:54:fb:2e:61:c9:1c:ef:fc:de:
                    25:bc:2d:75:1b:1f:49:5e:44:3b:15:93:ad:c4:89:
                    d9:ae:3c:da:54:ef:d9:af:3a:16:cb:94:1b:6a:14:
                    e4:42:f9:75:33:46:6e:fb:40:bc:f8:82:36:cf:60:
                    f5:c2:a2:98:23:a7:2a:ae:c1:aa:22:f8:87:da:b7:
                    9c:a4:cf
                Exponent: 65537 (0x10001)
        X509v3 extensions:
            X509v3 Subject Key Identifier: 
                9D:8F:84:76:94:CD:07:FE:A3:E8:8B:D7:F9:D9:6E:EF:CA:75:51:7B
            X509v3 Authority Key Identifier: 
                keyid:9D:8F:84:76:94:CD:07:FE:A3:E8:8B:D7:F9:D9:6E:EF:CA:75:51:7B
                DirName:/C=BE/CN=txjsonrpc-test-ca
                serial:8D:D2:AF:37:F9:CA:92:0B

            X509v3 Basic Constraints: critical
                CA:TRUE
            Netscape Cert Type: 
                SSL CA, S/MIME CA
            X509v3 Issuer Alternative Name: 
                <EMPTY>

            Netscape Comment: 
                Test CA for txjsonrcp
            X509v3 Subject Alternative Name: 
                <EMPTY>

            X509v3 Key Usage: critical
                Certificate Sign, CRL Sign
    Signature Algorithm: sha1WithRSAEncryption
         06:82:86:81:a9:1b:7e:2d:ef:f5:fc:cc:d2:9d:d6:82:ad:d0:
         6f:7e:3d:b9:5c:b2:0f:3a:64:21:9a:fb:53:b2:93:81:dc:1a:
         24:fc:b8:30:57:a2:c7:71:0d:9c:1a:0b:8a:6c:89:52:8b:8a:
         f5:af:95:3e:b8:08:39:ee:36:50:ac:60:4d:df:2b:49:a2:72:
         f1:3f:12:3c:d9:55:56:a4:9a:77:2b:77:fa:16:b5:76:d9:f4:
         c4:51:6b:b9:fe:2f:a3:52:e8:64:80:49:22:6d:05:42:87:af:
         9d:85:6c:fa:c9:9b:48:39:7b:89:f5:a0:1e:ff:11:d3:9c:78:
         b1:b2:f6:4d:b1:e8:b3:98:23:2c:d4:20:e1:a1:01:3e:26:0a:
         5b:8e:eb:58:45:22:cf:e1:94:ad:84:40:b0:fb:ff:25:5f:31:
         9a:49:0b:36:ad:c6:1a:b0:42:60:40:e2:a2:3c:5a:36:41:89:
         fc:10:c4:60:ea:d4:85:7b:36:84:df:aa:81:cc:69:e7:52:ca:
         c1:46:b1:79:93:51:4f:24:84:42:14:3a:20:a0:6c:27:76:40:
         0f:96:7e:4e:c3:0c:37:b3:e3:73:49:86:58:31:00:1e:e7:0f:
         87:74:b6:4e:6e:1c:7d:87:a4:33:04:c9:76:ec:e5:3a:85:5f:
         a8:d1:ad:21:64:5e:c5:6a:df:b1:02:6e:65:a4:87:72:06:07:
         da:e5:f2:af:2b:a5:eb:18:80:67:83:a5:3c:e6:ed:d1:58:f9:
         90:5c:d6:e9:2f:76:c1:58:13:b8:bd:88:8a:f3:04:48:bb:42:
         8f:7f:c6:db:b4:30:3f:bb:6c:d5:47:e5:ae:8d:4b:da:92:a5:
         db:d3:6e:a8:9b:c2:6b:56:af:34:63:82:e6:78:f8:1f:54:d7:
         41:aa:a3:c9:7c:a6:83:41:bf:6e:33:7c:ae:e6:92:bd:da:27:
         b4:bc:e2:90:4f:33:1b:01:a1:cd:02:13:7a:31:ef:00:d6:9a:
         6e:38:6b:a7:cb:70:98:a8:0f:ff:1c:56:a8:b7:e6:d2:42:5a:
         bb:f4:78:27:71:13:d0:e8:43:eb:bc:2d:4f:e4:ea:4d:4f:76:
         7f:53:38:34:eb:13:e2:3d:c6:14:98:86:1c:ab:2c:0e:b7:68:
         2e:bd:63:a9:6a:8f:d5:22:2d:ab:13:d7:62:54:51:ff:5c:37:
         08:04:27:da:f9:57:77:05:18:73:88:5f:b0:c1:65:50:36:09:
         d6:c7:f5:ae:6e:3f:04:d1:84:3c:21:74:1d:bd:0a:fb:76:d0:
         13:2b:62:bb:24:48:43:89:d0:18:5c:b4:ad:ea:98:af:6d:fc:
         1c:6b:1f:06:64:54:23:88
-----BEGIN CERTIFICATE-----
MIIFwzCCA6ugAwIBAgIJAI3Srzf5ypILMA0GCSqGSIb3DQEBBQUAMCkxCzAJBgNV
BAYTAkJFMRowGAYDVQQDExF0eGpzb25ycGMtdGVzdC1jYTAeFw0xMjA2MjMxNTQ2
MzdaFw0yMjA2MjExNTQ2MzdaMCkxCzAJBgNVBAYTAkJFMRowGAYDVQQDExF0eGpz
b25ycGMtdGVzdC1jYTCCAiIwDQYJKoZIhvcNAQEBBQADggIPADCCAgoCggIBANEl
r3fFqHLPkLk5EPt7dSyh2mqV5UQM1iVLWH+7B4JZSVgyhSTMPnfb4adPyLXL7kU4
vbz743Y7iATKqzqjljtfk5wopmGX3KI/oJMrVmzP009qngXTHM3vdYAamLeSSRQz
uMR8c4x+g6WBolmMi6NRNm1orPLx7W9J2a96Y8FDMUK2x825eLczmHCSbJ4Eenvw
bTiH6wATF7nZ7LRmu1HT/YHjDohxI9KAKmHeqyUCR6nBa8lprtpHtkl0rKbhwXa6
bbHZaG4cN6jiGGA3tlgTbMeSfMZFjO/DgXMQ3C8x4rkFWp4ocFo+HbhocYHJ6P4f
w6AT+OQkErqRjhXSA/GMsKriNORr+Ab2I4qSQ6YF3OnHpagG126RUnJHq66H/rMP
BIdvSyIp6akGUlh9AxbX1TFEtPFRRKcqul4JGexMouBY/g1Ot5BNAqwqrZkUZTsK
PHNFVrIPECUkUXlXGjQaEG9g4PyB28rC4oUbTHITXJ12zNAhMzFWgo/FV7lE/Yt2
wbbkIYs1mu5UdJ9yaxmE16I8pW4RCvGTBC7dfEx9YhDUG4uH9u2/ErGL8Jp67gKU
4TxGK3+cVPsuYckc7/zeJbwtdRsfSV5EOxWTrcSJ2a482lTv2a86FsuUG2oU5EL5
dTNGbvtAvPiCNs9g9cKimCOnKq7BqiL4h9q3nKTPAgMBAAGjge0wgeowHQYDVR0O
BBYEFJ2PhHaUzQf+o+iL1/nZbu/KdVF7MFkGA1UdIwRSMFCAFJ2PhHaUzQf+o+iL
1/nZbu/KdVF7oS2kKzApMQswCQYDVQQGEwJCRTEaMBgGA1UEAxMRdHhqc29ucnBj
LXRlc3QtY2GCCQCN0q83+cqSCzAPBgNVHRMBAf8EBTADAQH/MBEGCWCGSAGG+EIB
AQQEAwIBBjAJBgNVHRIEAjAAMCQGCWCGSAGG+EIBDQQXFhVUZXN0IENBIGZvciB0
eGpzb25yY3AwCQYDVR0RBAIwADAOBgNVHQ8BAf8EBAMCAQYwDQYJKoZIhvcNAQEF
BQADggIBAAaChoGpG34t7/X8zNKd1oKt0G9+Pblcsg86ZCGa+1Oyk4HcGiT8uDBX
osdxDZwaC4psiVKLivWvlT64CDnuNlCsYE3fK0micvE/EjzZVVakmncrd/oWtXbZ
9MRRa7n+L6NS6GSASSJtBUKHr52FbPrJm0g5e4n1oB7/EdOceLGy9k2x6LOYIyzU
IOGhAT4mCluO61hFIs/hlK2EQLD7/yVfMZpJCzatxhqwQmBA4qI8WjZBifwQxGDq
1IV7NoTfqoHMaedSysFGsXmTUU8khEIUOiCgbCd2QA+Wfk7DDDez43NJhlgxAB7n
D4d0tk5uHH2HpDMEyXbs5TqFX6jRrSFkXsVq37ECbmWkh3IGB9rl8q8rpesYgGeD
pTzm7dFY+ZBc1ukvdsFYE7i9iIrzBEi7Qo9/xtu0MD+7bNVH5a6NS9qSpdvTbqib
wmtWrzRjguZ4+B9U10Gqo8l8poNBv24zfK7mkr3aJ7S84pBPMxsBoc0CE3ox7wDW
mm44a6fLcJioD/8cVqi35tJCWrv0eCdxE9DoQ+u8LU/k6k1Pdn9TODTrE+I9xhSY
hhyrLA63aC69Y6lqj9UiLasT12JUUf9cNwgEJ9r5V3cFGHOIX7DBZVA2CdbH9a5u
PwTRhDwhdB29Cvt20BMrYrskSEOJ0BhctK3qmK9t/BxrHwZkVCOI
-----END CERTIFICATE-----
