Certificate:
    Data:
        Version: 3 (0x2)
        Serial Number: 1 (0x1)
    Signature Algorithm: sha1WithRSAEncryption
        Issuer: CN=ca-true, C=BE, O=Gremwell bvba
        Validity
            Not Before: Jun 23 15:47:38 2012 GMT
            Not After : Jun 23 15:47:38 2013 GMT
        Subject: C=BE, CN=txjsonrpc-pyserver
        Subject Public Key Info:
            Public Key Algorithm: rsaEncryption
                Public-Key: (4096 bit)
                Modulus:
                    00:a0:05:2c:ef:3b:fa:e4:99:7e:d8:7a:75:65:f7:
                    61:f4:46:c0:07:7f:62:d3:ca:61:6f:c6:5c:88:75:
                    4a:f3:1c:02:01:d6:ed:a9:5e:b0:e6:2f:83:ed:4d:
                    ce:11:c3:df:1b:74:a0:07:62:23:0b:c1:68:40:3b:
                    7f:3f:3b:80:96:ae:72:f1:1b:a6:08:ef:09:4e:ad:
                    7f:72:9a:43:6c:5f:b4:6d:b7:a5:be:60:c1:13:ec:
                    60:41:94:c8:7b:9b:40:60:94:e5:21:59:9f:bc:d3:
                    69:78:6c:2b:71:7a:ad:ab:ad:59:77:f1:95:8d:fc:
                    06:ad:39:cf:3a:35:8a:76:c6:14:7a:70:2a:f5:3f:
                    19:eb:ec:c5:11:5f:65:a8:0a:53:09:87:96:8c:12:
                    bc:38:1e:f9:27:47:da:81:38:5f:2d:20:88:b4:94:
                    81:c6:1f:9e:63:3e:15:e3:98:0b:cf:de:df:36:f0:
                    59:5a:ac:75:57:2d:89:10:ad:69:b5:00:8f:8b:be:
                    81:31:86:d7:51:88:b2:70:81:f3:18:31:78:d5:95:
                    6b:47:8f:c5:b3:b6:73:90:8a:21:62:67:6b:a7:eb:
                    20:03:69:41:40:d1:f4:86:ec:0f:ca:4d:b1:63:45:
                    fa:89:9b:b1:4a:92:25:66:78:31:f0:c0:da:3f:f0:
                    49:0a:9a:4b:5f:32:2f:fa:e4:c9:bb:63:d1:2c:42:
                    e4:d4:df:b6:47:1c:1b:3a:9d:d4:68:8a:b7:8d:34:
                    32:26:15:16:2a:0b:0c:f5:3a:ae:1c:25:ba:90:21:
                    f4:98:1a:0f:bd:9e:1f:ed:10:a1:db:5a:54:1b:c4:
                    f9:57:a5:0a:56:b5:e5:21:9a:8f:24:7e:ec:82:a5:
                    fe:c7:78:7b:2e:b8:6f:20:3c:af:55:5e:84:34:d3:
                    df:4c:8f:fc:11:a1:f7:86:fa:f9:bd:22:e5:22:fd:
                    53:c0:0c:90:62:4a:9c:99:5d:c0:c6:31:00:45:b8:
                    43:9d:1d:1b:2a:8b:6f:c2:01:ee:e7:11:d9:81:ae:
                    b8:31:e2:37:ec:d8:a8:b9:58:38:87:eb:79:4e:5e:
                    c9:bd:ae:0d:f2:bf:74:04:e0:54:c9:9e:6f:63:e4:
                    88:52:86:c6:b0:b5:0f:b8:75:e2:d0:e9:4d:af:6b:
                    d1:bf:65:b4:91:a8:d3:c6:28:a5:ae:c6:a6:02:ed:
                    17:f6:75:2c:46:0e:f0:c6:20:a5:52:79:f4:8f:12:
                    b0:7a:84:1b:cf:b9:42:67:98:7e:9c:97:61:28:61:
                    24:46:80:b8:f9:bd:c7:24:c1:1e:d8:9f:7f:cf:f9:
                    76:fc:10:91:b5:10:33:56:03:8b:eb:8d:ca:92:d7:
                    13:62:71
                Exponent: 65537 (0x10001)
        X509v3 extensions:
            X509v3 Basic Constraints: 
                CA:FALSE
            Netscape Cert Type: 
                SSL Server
            Netscape Comment: 
                TinyCA Generated Certificate
            X509v3 Subject Key Identifier: 
                26:8C:A5:F9:A6:4A:FE:4C:E8:0F:04:33:7E:04:26:28:BF:4C:92:F3
            X509v3 Authority Key Identifier: 
                keyid:9D:8F:84:76:94:CD:07:FE:A3:E8:8B:D7:F9:D9:6E:EF:CA:75:51:7B
                DirName:/C=BE/CN=txjsonrpc-test-ca
                serial:8D:D2:AF:37:F9:CA:92:0B

            X509v3 Issuer Alternative Name: 
                <EMPTY>

            X509v3 Subject Alternative Name: 
                <EMPTY>

    Signature Algorithm: sha1WithRSAEncryption
         22:cd:b6:d4:49:67:41:8f:78:08:b7:ff:83:ff:ba:48:f5:f8:
         31:d0:20:a1:68:39:28:3f:dc:d8:cf:06:ac:9a:37:9e:72:57:
         e5:61:f0:3d:fc:7a:21:cb:32:71:5b:d0:ba:c4:2f:b4:71:30:
         3a:5c:48:4f:8b:19:36:d3:d0:04:83:29:ec:47:af:a6:c8:36:
         00:21:9f:0b:ed:63:1b:64:67:e2:6f:97:57:f9:1f:8f:08:be:
         17:01:09:d9:b0:a1:07:c5:2d:39:bc:14:3b:45:ab:ff:ba:a6:
         b7:25:e4:c8:8f:f0:4f:54:94:69:6f:47:31:8e:3c:95:42:89:
         ea:7f
-----BEGIN CERTIFICATE-----
MIIEOjCCA6OgAwIBAgIBATANBgkqhkiG9w0BAQUFADA3MRAwDgYDVQQDEwdjYS10
cnVlMQswCQYDVQQGEwJCRTEWMBQGA1UEChMNR3JlbXdlbGwgYnZiYTAeFw0xMjA2
MjMxNTQ3MzhaFw0xMzA2MjMxNTQ3MzhaMCoxCzAJBgNVBAYTAkJFMRswGQYDVQQD
ExJ0eGpzb25ycGMtcHlzZXJ2ZXIwggIiMA0GCSqGSIb3DQEBAQUAA4ICDwAwggIK
AoICAQCgBSzvO/rkmX7YenVl92H0RsAHf2LTymFvxlyIdUrzHAIB1u2pXrDmL4Pt
Tc4Rw98bdKAHYiMLwWhAO38/O4CWrnLxG6YI7wlOrX9ymkNsX7Rtt6W+YMET7GBB
lMh7m0BglOUhWZ+802l4bCtxeq2rrVl38ZWN/AatOc86NYp2xhR6cCr1Pxnr7MUR
X2WoClMJh5aMErw4HvknR9qBOF8tIIi0lIHGH55jPhXjmAvP3t828FlarHVXLYkQ
rWm1AI+LvoExhtdRiLJwgfMYMXjVlWtHj8WztnOQiiFiZ2un6yADaUFA0fSG7A/K
TbFjRfqJm7FKkiVmeDHwwNo/8EkKmktfMi/65Mm7Y9EsQuTU37ZHHBs6ndRoireN
NDImFRYqCwz1Oq4cJbqQIfSYGg+9nh/tEKHbWlQbxPlXpQpWteUhmo8kfuyCpf7H
eHsuuG8gPK9VXoQ0099Mj/wRofeG+vm9IuUi/VPADJBiSpyZXcDGMQBFuEOdHRsq
i2/CAe7nEdmBrrgx4jfs2Ki5WDiH63lOXsm9rg3yv3QE4FTJnm9j5IhShsawtQ+4
deLQ6U2va9G/ZbSRqNPGKKWuxqYC7Rf2dSxGDvDGIKVSefSPErB6hBvPuUJnmH6c
l2EoYSRGgLj5vcckwR7Yn3/P+Xb8EJG1EDNWA4vrjcqS1xNicQIDAQABo4HeMIHb
MAkGA1UdEwQCMAAwEQYJYIZIAYb4QgEBBAQDAgZAMCsGCWCGSAGG+EIBDQQeFhxU
aW55Q0EgR2VuZXJhdGVkIENlcnRpZmljYXRlMB0GA1UdDgQWBBQmjKX5pkr+TOgP
BDN+BCYov0yS8zBZBgNVHSMEUjBQgBSdj4R2lM0H/qPoi9f52W7vynVRe6EtpCsw
KTELMAkGA1UEBhMCQkUxGjAYBgNVBAMTEXR4anNvbnJwYy10ZXN0LWNhggkAjdKv
N/nKkgswCQYDVR0SBAIwADAJBgNVHREEAjAAMA0GCSqGSIb3DQEBBQUAA4GBACLN
ttRJZ0GPeAi3/4P/ukj1+DHQIKFoOSg/3NjPBqyaN55yV+Vh8D38eiHLMnFb0LrE
L7RxMDpcSE+LGTbT0ASDKexHr6bINgAhnwvtYxtkZ+Jvl1f5H48IvhcBCdmwoQfF
LTm8FDtFq/+6prcl5MiP8E9UlGlvRzGOPJVCiep/
-----END CERTIFICATE-----
Certificate:
    Data:
        Version: 4 (0x3)
        Serial Number: 1 (0x1)
    Signature Algorithm: sha1WithRSAEncryption
        Issuer: C=BE, CN=txjsonrpc-test-ca
        Validity
            Not Before: Jan  1 00:00:00 1970 GMT
            Not After : Jan 19 03:14:07 2038 GMT
        Subject: CN=ca-true, C=BE, O=Gremwell bvba
        Subject Public Key Info:
            Public Key Algorithm: rsaEncryption
                Public-Key: (1024 bit)
                Modulus:
                    00:b7:ea:ff:7d:94:e0:16:f5:fc:f6:ff:4d:59:3a:
                    fa:86:1a:50:40:71:a7:92:74:00:d0:1e:88:59:1c:
                    32:57:ea:8b:98:a3:7e:c8:bf:5c:72:f3:a5:9c:a2:
                    fc:98:9d:f9:19:fe:3b:a2:36:1a:b5:92:3c:e6:d6:
                    50:75:0a:90:14:88:62:1c:07:0f:7f:c4:88:b2:e6:
                    53:05:cb:3f:af:a6:b4:09:80:6e:10:66:f0:e9:75:
                    7a:68:a2:78:67:b0:eb:25:68:ad:1e:0f:b0:72:67:
                    7e:4c:64:89:c1:99:f3:5d:a2:1f:d0:b1:14:17:77:
                    6c:d6:02:e1:70:50:a8:b7:2f
                Exponent: 65537 (0x10001)
        X509v3 extensions:
            X509v3 Basic Constraints: critical
                CA:TRUE
    Signature Algorithm: sha1WithRSAEncryption
         3e:e7:6e:01:d4:4d:e5:a7:96:26:51:0d:4e:f6:6c:3c:47:77:
         6a:e2:d2:25:8d:a1:51:d3:f7:ab:5e:32:8a:7e:b9:48:e2:76:
         19:20:bb:de:de:5e:f1:aa:4e:2b:c2:0d:01:65:6e:9e:20:35:
         47:dd:55:59:80:ba:9f:59:82:bc:87:89:86:23:99:23:f1:f4:
         b4:69:3b:2c:e7:2b:d6:62:9a:5f:28:a8:77:98:89:de:7e:11:
         8b:29:86:48:9e:a6:39:e1:19:3a:14:89:7e:ff:ef:d4:cc:ae:
         ef:e5:b9:a0:e7:b1:2c:60:16:cb:34:1e:39:2b:36:39:74:5a:
         4b:41:f3:bd:38:e5:19:4a:81:6f:09:55:d8:7e:cd:a1:2b:67:
         2a:87:ab:e4:6c:3f:52:88:17:9d:b8:89:fb:24:4d:59:a6:5c:
         07:09:fd:16:2a:b4:fe:83:89:98:60:80:19:0d:5d:70:78:60:
         a3:26:e7:1e:8e:94:dc:ab:52:5e:4f:e7:e2:fa:a6:fc:54:f1:
         83:0d:5d:91:88:5b:0f:25:af:eb:38:de:c2:b7:a7:85:f4:fb:
         7e:59:be:9b:cf:54:bb:2c:67:71:dc:f5:e7:be:1f:6b:d2:a1:
         ac:1f:26:09:b0:ab:ba:70:89:f9:70:4e:e6:c8:c1:2d:16:6c:
         6f:8e:04:8e:47:76:3c:9d:7a:4a:cb:e4:ec:88:47:77:00:74:
         66:ff:1a:b5:13:a2:1e:ab:b3:b5:e3:62:af:dd:07:e5:3a:67:
         e0:92:78:41:17:48:f9:00:7c:e0:89:d6:53:7f:32:6a:e3:71:
         44:09:d0:b5:68:31:01:ec:5b:ca:85:e6:85:65:74:61:21:27:
         50:ec:a6:15:66:78:77:8d:25:fa:33:9b:ec:0a:10:64:5a:8e:
         e8:1a:da:5c:05:a6:da:45:2c:54:d3:0a:43:3e:e9:86:e8:2c:
         72:33:bc:59:d6:b9:f2:56:8d:5e:78:d7:87:43:41:40:cb:b5:
         fe:66:29:17:20:02:bf:b7:d7:b1:e8:8d:a5:ab:3d:16:02:76:
         cd:c6:2f:eb:7a:f1:c8:08:d4:2d:04:9b:15:2b:1d:aa:24:71:
         03:48:90:30:28:fd:59:05:21:1c:b9:09:41:c7:fb:83:c2:60:
         31:d9:9a:1d:ef:01:cb:10:cf:d4:51:e6:b1:21:ef:6e:6a:f5:
         1a:b4:5d:fc:89:e7:c0:ce:73:99:16:17:eb:0e:27:41:f7:c0:
         cb:86:73:4c:86:3d:ea:7c:a1:34:2b:68:2f:6d:47:4a:d1:1a:
         1d:b9:58:2a:9f:39:47:c9:cb:2f:0a:0c:5b:a2:14:a5:75:c8:
         26:92:d8:eb:01:ac:c4:18
-----BEGIN CERTIFICATE-----
MIIDajCCAVKgAwIBAwIBATANBgkqhkiG9w0BAQUFADApMQswCQYDVQQGEwJCRTEa
MBgGA1UEAxMRdHhqc29ucnBjLXRlc3QtY2EwHhcNNzAwMTAxMDAwMDAwWhcNMzgw
MTE5MDMxNDA3WjA3MRAwDgYDVQQDEwdjYS10cnVlMQswCQYDVQQGEwJCRTEWMBQG
A1UEChMNR3JlbXdlbGwgYnZiYTCBnzANBgkqhkiG9w0BAQEFAAOBjQAwgYkCgYEA
t+r/fZTgFvX89v9NWTr6hhpQQHGnknQA0B6IWRwyV+qLmKN+yL9ccvOlnKL8mJ35
Gf47ojYatZI85tZQdQqQFIhiHAcPf8SIsuZTBcs/r6a0CYBuEGbw6XV6aKJ4Z7Dr
JWitHg+wcmd+TGSJwZnzXaIf0LEUF3ds1gLhcFCoty8CAwEAAaMTMBEwDwYDVR0T
AQH/BAUwAwEB/zANBgkqhkiG9w0BAQUFAAOCAgEAPuduAdRN5aeWJlENTvZsPEd3
auLSJY2hUdP3q14yin65SOJ2GSC73t5e8apOK8INAWVuniA1R91VWYC6n1mCvIeJ
hiOZI/H0tGk7LOcr1mKaXyiod5iJ3n4RiymGSJ6mOeEZOhSJfv/v1Myu7+W5oOex
LGAWyzQeOSs2OXRaS0HzvTjlGUqBbwlV2H7NoStnKoer5Gw/UogXnbiJ+yRNWaZc
Bwn9Fiq0/oOJmGCAGQ1dcHhgoybnHo6U3KtSXk/n4vqm/FTxgw1dkYhbDyWv6zje
wrenhfT7flm+m89Uuyxncdz1574fa9KhrB8mCbCrunCJ+XBO5sjBLRZsb44Ejkd2
PJ16Ssvk7IhHdwB0Zv8atROiHquzteNir90H5Tpn4JJ4QRdI+QB84InWU38yauNx
RAnQtWgxAexbyoXmhWV0YSEnUOymFWZ4d40l+jOb7AoQZFqO6BraXAWm2kUsVNMK
Qz7phugscjO8Wda58laNXnjXh0NBQMu1/mYpFyACv7fXseiNpas9FgJ2zcYv63rx
yAjULQSbFSsdqiRxA0iQMCj9WQUhHLkJQcf7g8JgMdmaHe8ByxDP1FHmsSHvbmr1
GrRd/InnwM5zmRYX6w4nQffAy4ZzTIY96nyhNCtoL21HStEaHblYKp85R8nLLwoM
W6IUpXXIJpLY6wGsxBg=
-----END CERTIFICATE-----
