Certificate:
    Data:
        Version: 4 (0x3)
        Serial Number: 1 (0x1)
    Signature Algorithm: sha1WithRSAEncryption
        Issuer: CN=ca-true, C=BE, O=Gremwell bvba
        Validity
            Not Before: Jan  1 00:00:00 1970 GMT
            Not After : Jan 19 03:14:07 2038 GMT
        Subject: CN=blah.com, C=BE, O=Gremwell bvba
        Subject Public Key Info:
            Public Key Algorithm: rsaEncryption
                Public-Key: (1024 bit)
                Modulus:
                    00:c1:ee:c9:1e:a3:5b:7e:7a:04:1e:3f:7d:97:1f:
                    53:1f:e6:00:55:e2:a9:02:86:44:92:c5:c6:8d:0d:
                    46:7b:ec:15:6c:d7:8d:60:58:27:d0:8b:1b:53:71:
                    49:05:90:9f:2a:96:77:b2:43:bf:6c:75:b8:08:7d:
                    c3:74:ca:1c:0a:cb:93:70:6a:ac:b2:e7:26:0b:db:
                    f9:ea:cc:3d:fb:6a:16:9f:55:9b:f6:66:f2:5d:75:
                    03:32:28:4b:bf:58:60:2d:ce:4f:ca:31:f5:41:40:
                    4d:f8:fb:f9:c4:7c:da:d1:3d:52:e3:c4:1d:47:20:
                    d5:34:5e:45:1d:20:c3:bc:3b
                Exponent: 65537 (0x10001)
    Signature Algorithm: sha1WithRSAEncryption
         5f:3c:64:69:be:2a:b3:50:2d:b4:33:a9:9a:86:4b:4f:53:bb:
         b3:56:de:ac:ab:61:4b:8a:64:f7:83:ed:02:f2:93:75:76:6f:
         5c:45:eb:28:eb:02:38:e9:8e:4d:fd:10:32:13:05:31:3b:43:
         0e:fe:85:f9:22:71:bd:fb:f9:3d:06:2c:49:7a:8d:1b:b9:1d:
         f9:71:6d:28:af:9b:1e:2c:39:cf:db:91:0e:10:0b:28:f0:54:
         3f:27:bd:30:d0:a9:b1:f1:48:ea:e9:13:09:4a:21:6b:17:1d:
         02:af:ef:0a:4d:07:f6:c7:69:09:4d:58:d8:74:6a:82:df:a5:
         dd:07
-----BEGIN CERTIFICATE-----
MIIB4zCCAUygAwIBAwIBATANBgkqhkiG9w0BAQUFADA3MRAwDgYDVQQDEwdjYS10
cnVlMQswCQYDVQQGEwJCRTEWMBQGA1UEChMNR3JlbXdlbGwgYnZiYTAeFw03MDAx
MDEwMDAwMDBaFw0zODAxMTkwMzE0MDdaMDgxETAPBgNVBAMTCGJsYWguY29tMQsw
CQYDVQQGEwJCRTEWMBQGA1UEChMNR3JlbXdlbGwgYnZiYTCBnzANBgkqhkiG9w0B
AQEFAAOBjQAwgYkCgYEAwe7JHqNbfnoEHj99lx9TH+YAVeKpAoZEksXGjQ1Ge+wV
bNeNYFgn0IsbU3FJBZCfKpZ3skO/bHW4CH3DdMocCsuTcGqssucmC9v56sw9+2oW
n1Wb9mbyXXUDMihLv1hgLc5PyjH1QUBN+Pv5xHza0T1S48QdRyDVNF5FHSDDvDsC
AwEAATANBgkqhkiG9w0BAQUFAAOBgQBfPGRpviqzUC20M6mahktPU7uzVt6sq2FL
imT3g+0C8pN1dm9cReso6wI46Y5N/RAyEwUxO0MO/oX5InG9+/k9BixJeo0buR35
cW0or5seLDnP25EOEAso8FQ/J70w0Kmx8Ujq6RMJSiFrFx0Cr+8KTQf2x2kJTVjY
dGqC36XdBw==
-----END CERTIFICATE-----
Certificate:
    Data:
        Version: 4 (0x3)
        Serial Number: 1 (0x1)
    Signature Algorithm: sha1WithRSAEncryption
        Issuer: C=BE, CN=txjsonrpc-test-ca
        Validity
            Not Before: Jan  1 00:00:00 1970 GMT
            Not After : Jan 19 03:14:07 2038 GMT
        Subject: CN=ca-true, C=BE, O=Gremwell bvba
        Subject Public Key Info:
            Public Key Algorithm: rsaEncryption
                Public-Key: (1024 bit)
                Modulus:
                    00:ae:b5:bb:75:24:35:4c:6f:c1:b1:ed:b9:58:8a:
                    13:00:11:4e:b5:a9:24:6b:57:ab:0b:1d:bf:5a:e5:
                    fd:58:6f:4b:ea:ea:b5:b3:84:2c:94:c7:0d:c4:2c:
                    54:4b:b6:c3:cc:99:18:79:0e:e5:fd:3c:c4:bb:60:
                    33:af:03:94:98:9b:9d:03:00:41:5e:83:2e:60:ed:
                    94:b1:1f:9b:7f:47:68:e7:eb:18:d6:ee:1c:b3:e3:
                    da:a0:d0:fd:6d:fe:91:f7:2d:90:58:d2:d1:0d:58:
                    27:a4:49:58:cf:db:50:d6:a1:94:10:8d:78:5e:b1:
                    a8:f2:85:f7:1a:49:ad:16:45
                Exponent: 65537 (0x10001)
        X509v3 extensions:
            X509v3 Basic Constraints: critical
                CA:TRUE
    Signature Algorithm: sha1WithRSAEncryption
         61:4d:b2:a2:f9:d4:89:2b:2d:61:58:85:d4:0c:bc:03:a5:a4:
         39:c2:a6:bc:f9:89:34:f1:70:8b:ea:93:74:78:20:74:75:24:
         8c:be:75:be:10:f2:64:3e:03:ba:7a:8c:03:5f:29:55:b9:ea:
         78:2a:96:34:ea:29:e8:82:36:84:75:3b:34:20:4f:e3:13:28:
         9d:5f:c1:65:37:98:92:3a:b2:95:2c:f7:e2:f7:3f:90:44:40:
         66:8d:92:c5:d3:62:61:db:5a:3f:e7:21:1e:54:46:52:a4:30:
         b0:3e:0b:a9:05:a8:59:69:94:f8:43:52:d4:63:a4:ee:c5:3c:
         dd:47:58:37:14:92:ca:dd:ad:c4:e9:6b:f8:a6:34:e1:2e:64:
         56:61:a1:23:bb:36:6c:ca:42:80:56:79:d0:cf:07:dd:b5:3b:
         0a:23:1f:3c:b5:7a:ca:0a:79:66:09:c1:e9:80:f5:b7:06:ef:
         30:b9:4d:e2:f8:e9:d2:1e:6a:63:35:7b:75:97:fc:b0:2a:a0:
         43:4e:cf:83:bb:81:c7:95:05:70:3d:74:75:e4:42:4b:ba:ab:
         de:24:1c:0f:02:cc:53:62:eb:c7:7f:b1:21:f0:27:0b:70:cd:
         fe:01:a5:27:47:a4:39:dc:b4:5e:30:e1:2d:15:64:91:3b:52:
         17:6a:4b:dc:7d:03:4a:be:44:66:bb:34:6b:3f:12:39:5b:43:
         e2:92:af:47:a2:bd:11:3f:37:f9:26:64:9f:03:fb:ba:77:9f:
         91:10:91:f5:bd:2b:7b:ff:b4:66:c3:d6:bd:94:a9:eb:a8:78:
         f0:22:05:b2:28:00:ba:41:61:c8:51:8e:95:42:22:46:9f:01:
         01:99:14:60:17:28:5e:4f:cc:33:37:37:b4:0b:bb:e9:5e:fd:
         5d:e5:da:54:7a:9a:f0:72:63:3f:ae:44:52:9b:2f:b8:7f:e7:
         4f:3c:10:37:25:66:6d:3a:e5:c6:01:53:91:1a:b4:3b:91:25:
         59:d7:17:8d:db:0a:fd:1a:31:fc:ab:2a:d9:f8:04:4e:27:00:
         37:3e:01:54:35:86:a5:ef:a7:49:55:f9:ff:94:02:3d:76:d7:
         cb:c5:77:85:56:92:da:a2:b6:f9:ae:50:4c:59:da:87:0e:62:
         4d:c6:39:ca:c4:4a:bd:1c:d6:99:3c:ae:75:d1:da:d2:83:19:
         89:a0:65:ac:e9:93:1e:45:8e:10:22:c1:06:7c:f6:9a:9f:d8:
         e2:ec:ca:5b:7d:da:94:79:28:f4:34:0a:22:74:16:c8:09:6d:
         9d:a5:56:a7:ad:50:e6:a7:b3:b5:ac:dc:14:32:7a:37:62:ae:
         b9:29:57:59:d1:75:25:64
-----BEGIN CERTIFICATE-----
MIIDajCCAVKgAwIBAwIBATANBgkqhkiG9w0BAQUFADApMQswCQYDVQQGEwJCRTEa
MBgGA1UEAxMRdHhqc29ucnBjLXRlc3QtY2EwHhcNNzAwMTAxMDAwMDAwWhcNMzgw
MTE5MDMxNDA3WjA3MRAwDgYDVQQDEwdjYS10cnVlMQswCQYDVQQGEwJCRTEWMBQG
A1UEChMNR3JlbXdlbGwgYnZiYTCBnzANBgkqhkiG9w0BAQEFAAOBjQAwgYkCgYEA
rrW7dSQ1TG/Bse25WIoTABFOtakka1erCx2/WuX9WG9L6uq1s4QslMcNxCxUS7bD
zJkYeQ7l/TzEu2AzrwOUmJudAwBBXoMuYO2UsR+bf0do5+sY1u4cs+PaoND9bf6R
9y2QWNLRDVgnpElYz9tQ1qGUEI14XrGo8oX3GkmtFkUCAwEAAaMTMBEwDwYDVR0T
AQH/BAUwAwEB/zANBgkqhkiG9w0BAQUFAAOCAgEAYU2yovnUiSstYViF1Ay8A6Wk
OcKmvPmJNPFwi+qTdHggdHUkjL51vhDyZD4DunqMA18pVbnqeCqWNOop6II2hHU7
NCBP4xMonV/BZTeYkjqylSz34vc/kERAZo2SxdNiYdtaP+chHlRGUqQwsD4LqQWo
WWmU+ENS1GOk7sU83UdYNxSSyt2txOlr+KY04S5kVmGhI7s2bMpCgFZ50M8H3bU7
CiMfPLV6ygp5ZgnB6YD1twbvMLlN4vjp0h5qYzV7dZf8sCqgQ07Pg7uBx5UFcD10
deRCS7qr3iQcDwLMU2Lrx3+xIfAnC3DN/gGlJ0ekOdy0XjDhLRVkkTtSF2pL3H0D
Sr5EZrs0az8SOVtD4pKvR6K9ET83+SZknwP7unefkRCR9b0re/+0ZsPWvZSp66h4
8CIFsigAukFhyFGOlUIiRp8BAZkUYBcoXk/MMzc3tAu76V79XeXaVHqa8HJjP65E
UpsvuH/nTzwQNyVmbTrlxgFTkRq0O5ElWdcXjdsK/Rox/Ksq2fgETicANz4BVDWG
pe+nSVX5/5QCPXbXy8V3hVaS2qK2+a5QTFnahw5iTcY5ysRKvRzWmTyuddHa0oMZ
iaBlrOmTHkWOECLBBnz2mp/Y4uzKW33alHko9DQKInQWyAltnaVWp61Q5qeztazc
FDJ6N2KuuSlXWdF1JWQ=
-----END CERTIFICATE-----
