Certificate:
    Data:
        Version: 4 (0x3)
        Serial Number: 1 (0x1)
    Signature Algorithm: sha1WithRSAEncryption
        Issuer: CN=ca-none, C=BE, O=Gremwell bvba
        Validity
            Not Before: Jan  1 00:00:00 1970 GMT
            Not After : Jan 19 03:14:07 2038 GMT
        Subject: CN=blah.com, C=BE, O=Gremwell bvba
        Subject Public Key Info:
            Public Key Algorithm: rsaEncryption
                Public-Key: (1024 bit)
                Modulus:
                    00:c1:ee:c9:1e:a3:5b:7e:7a:04:1e:3f:7d:97:1f:
                    53:1f:e6:00:55:e2:a9:02:86:44:92:c5:c6:8d:0d:
                    46:7b:ec:15:6c:d7:8d:60:58:27:d0:8b:1b:53:71:
                    49:05:90:9f:2a:96:77:b2:43:bf:6c:75:b8:08:7d:
                    c3:74:ca:1c:0a:cb:93:70:6a:ac:b2:e7:26:0b:db:
                    f9:ea:cc:3d:fb:6a:16:9f:55:9b:f6:66:f2:5d:75:
                    03:32:28:4b:bf:58:60:2d:ce:4f:ca:31:f5:41:40:
                    4d:f8:fb:f9:c4:7c:da:d1:3d:52:e3:c4:1d:47:20:
                    d5:34:5e:45:1d:20:c3:bc:3b
                Exponent: 65537 (0x10001)
    Signature Algorithm: sha1WithRSAEncryption
         07:75:1f:58:3c:ce:04:6f:c4:d5:4c:10:06:9a:51:66:42:df:
         e3:45:d5:da:53:1e:61:6a:e1:b7:09:3f:09:37:d5:c4:66:a5:
         c1:99:2c:85:63:0a:c2:eb:8c:de:36:61:da:6b:a3:fc:aa:a1:
         d4:c2:ef:8f:0b:72:f0:06:92:69:e7:94:4d:b8:ec:84:25:66:
         6c:c7:98:a5:7f:0b:6d:0c:ca:ca:60:e3:ca:fe:55:a3:bb:7d:
         93:9d:08:cd:13:21:1e:20:92:28:21:5d:eb:3c:5f:6b:62:ef:
         be:7b:91:10:ac:39:a6:2d:10:ef:98:4e:de:4a:30:ef:fd:c9:
         67:45
-----BEGIN CERTIFICATE-----
MIIB4zCCAUygAwIBAwIBATANBgkqhkiG9w0BAQUFADA3MRAwDgYDVQQDEwdjYS1u
b25lMQswCQYDVQQGEwJCRTEWMBQGA1UEChMNR3JlbXdlbGwgYnZiYTAeFw03MDAx
MDEwMDAwMDBaFw0zODAxMTkwMzE0MDdaMDgxETAPBgNVBAMTCGJsYWguY29tMQsw
CQYDVQQGEwJCRTEWMBQGA1UEChMNR3JlbXdlbGwgYnZiYTCBnzANBgkqhkiG9w0B
AQEFAAOBjQAwgYkCgYEAwe7JHqNbfnoEHj99lx9TH+YAVeKpAoZEksXGjQ1Ge+wV
bNeNYFgn0IsbU3FJBZCfKpZ3skO/bHW4CH3DdMocCsuTcGqssucmC9v56sw9+2oW
n1Wb9mbyXXUDMihLv1hgLc5PyjH1QUBN+Pv5xHza0T1S48QdRyDVNF5FHSDDvDsC
AwEAATANBgkqhkiG9w0BAQUFAAOBgQAHdR9YPM4Eb8TVTBAGmlFmQt/jRdXaUx5h
auG3CT8JN9XEZqXBmSyFYwrC64zeNmHaa6P8qqHUwu+PC3LwBpJp55RNuOyEJWZs
x5ilfwttDMrKYOPK/lWju32TnQjNEyEeIJIoIV3rPF9rYu++e5EQrDmmLRDvmE7e
SjDv/clnRQ==
-----END CERTIFICATE-----
Certificate:
    Data:
        Version: 4 (0x3)
        Serial Number: 1 (0x1)
    Signature Algorithm: sha1WithRSAEncryption
        Issuer: C=BE, CN=txjsonrpc-test-ca
        Validity
            Not Before: Jan  1 00:00:00 1970 GMT
            Not After : Jan 19 03:14:07 2038 GMT
        Subject: CN=ca-none, C=BE, O=Gremwell bvba
        Subject Public Key Info:
            Public Key Algorithm: rsaEncryption
                Public-Key: (1024 bit)
                Modulus:
                    00:e8:cc:a4:b8:81:08:56:32:75:08:f8:ed:07:c1:
                    23:44:ef:2a:0a:57:ae:4b:06:e3:ff:bf:e2:ab:5c:
                    57:f0:5c:cb:38:5e:8a:7b:86:5a:c9:dd:1a:cf:cc:
                    3a:8c:4d:90:ba:6a:c1:cc:8c:27:c5:ae:e5:79:4d:
                    4c:2f:b5:00:fa:2a:15:82:eb:8d:c3:5f:31:59:72:
                    5f:6f:d1:49:c4:7a:a6:9c:b9:47:a7:36:1f:2e:20:
                    2b:65:5f:a8:c5:5f:1d:10:7a:69:6a:23:3d:e4:d5:
                    12:5d:56:96:fd:c5:9b:09:82:ae:d5:87:84:c0:b6:
                    2f:02:83:b4:47:15:91:ff:6d
                Exponent: 65537 (0x10001)
    Signature Algorithm: sha1WithRSAEncryption
         2d:d9:a9:df:33:f1:7f:2d:3c:ae:1f:51:b4:c5:59:78:ee:3e:
         2e:3e:03:39:d7:8b:f1:05:0f:03:86:60:f4:15:9c:a0:26:0a:
         b9:df:ff:43:40:8c:35:e0:50:c8:06:ac:cf:50:55:6b:cb:ec:
         42:ba:7b:4a:25:32:96:6c:61:f5:f5:58:18:5a:a3:92:e7:07:
         2e:1e:ff:20:11:ff:47:4a:15:a7:d5:d4:34:ed:5e:ba:24:d3:
         4f:d4:56:e9:5e:b6:62:d1:fe:cd:9a:b7:7d:f1:b1:e4:70:fb:
         cd:23:c4:91:7a:3f:ed:4b:ff:f6:02:ca:c1:c2:00:1e:37:45:
         a7:54:33:f6:ca:8c:66:92:08:7d:f6:8d:56:a0:cc:70:ff:22:
         6b:7a:29:04:f3:6f:18:7a:28:68:64:91:2a:f4:c6:ef:ea:77:
         07:4c:7a:ce:ae:4f:8c:a5:8e:ab:e5:98:cf:ad:7a:7a:6a:a6:
         4e:8d:8f:09:ca:60:f9:a6:b7:2d:a3:c6:b4:89:de:be:a5:c5:
         e9:71:f4:f4:d5:68:bd:06:c0:ba:e1:90:bb:52:a8:90:8b:9f:
         04:d3:a0:4e:8b:09:af:f1:58:8b:4b:55:ae:3e:f9:78:fc:28:
         f8:5a:7d:d6:cd:2c:e2:ac:dc:08:a3:b9:38:7c:3a:d2:70:1e:
         aa:ed:df:16:77:30:b8:d8:32:69:dc:9a:62:7d:1a:fb:6e:d8:
         89:e0:c2:a0:2e:3d:bc:05:2d:4a:0a:36:18:5c:17:02:86:15:
         8a:3e:cf:f7:42:98:cb:ef:f9:6f:2f:07:44:0c:aa:8f:f5:b5:
         50:63:bd:3b:0e:21:b3:08:1c:23:2e:d7:17:a2:33:71:63:d3:
         a1:cd:29:fd:f9:70:bc:2a:fc:bc:16:71:02:2a:36:29:4e:4c:
         e7:d5:79:fd:86:87:2c:9d:c6:77:7f:2b:ff:e4:90:f2:56:b2:
         22:a2:ce:ab:5c:58:a7:ee:cc:a9:27:a5:fb:fd:73:a9:4d:31:
         87:50:e0:99:08:cd:21:b5:53:8a:d0:bc:be:34:8b:8b:b2:53:
         0a:09:c7:2a:8c:e3:1e:95:c1:08:57:64:12:a7:c6:5f:14:5d:
         60:07:e1:a6:87:22:1f:13:eb:b6:d8:6f:95:1d:26:aa:35:8e:
         f7:b8:d2:8c:e8:30:a1:31:85:fc:60:71:00:11:50:1d:dc:7e:
         0a:fc:b9:3a:de:fd:f3:34:ad:4c:aa:d6:78:5d:97:a2:ca:db:
         ec:d0:bb:c2:51:83:66:2e:d1:f1:1e:be:94:89:4d:a6:67:00:
         10:63:44:00:01:b9:7b:82:35:2d:01:d9:7f:2d:96:bd:46:12:
         68:fa:df:ab:cb:03:7c:a0
-----BEGIN CERTIFICATE-----
MIIDVTCCAT2gAwIBAwIBATANBgkqhkiG9w0BAQUFADApMQswCQYDVQQGEwJCRTEa
MBgGA1UEAxMRdHhqc29ucnBjLXRlc3QtY2EwHhcNNzAwMTAxMDAwMDAwWhcNMzgw
MTE5MDMxNDA3WjA3MRAwDgYDVQQDEwdjYS1ub25lMQswCQYDVQQGEwJCRTEWMBQG
A1UEChMNR3JlbXdlbGwgYnZiYTCBnzANBgkqhkiG9w0BAQEFAAOBjQAwgYkCgYEA
6MykuIEIVjJ1CPjtB8EjRO8qCleuSwbj/7/iq1xX8FzLOF6Ke4Zayd0az8w6jE2Q
umrBzIwnxa7leU1ML7UA+ioVguuNw18xWXJfb9FJxHqmnLlHpzYfLiArZV+oxV8d
EHppaiM95NUSXVaW/cWbCYKu1YeEwLYvAoO0RxWR/20CAwEAATANBgkqhkiG9w0B
AQUFAAOCAgEALdmp3zPxfy08rh9RtMVZeO4+Lj4DOdeL8QUPA4Zg9BWcoCYKud//
Q0CMNeBQyAasz1BVa8vsQrp7SiUylmxh9fVYGFqjkucHLh7/IBH/R0oVp9XUNO1e
uiTTT9RW6V62YtH+zZq3ffGx5HD7zSPEkXo/7Uv/9gLKwcIAHjdFp1Qz9sqMZpII
ffaNVqDMcP8ia3opBPNvGHooaGSRKvTG7+p3B0x6zq5PjKWOq+WYz616emqmTo2P
Ccpg+aa3LaPGtInevqXF6XH09NVovQbAuuGQu1KokIufBNOgTosJr/FYi0tVrj75
ePwo+Fp91s0s4qzcCKO5OHw60nAequ3fFncwuNgyadyaYn0a+27YieDCoC49vAUt
Sgo2GFwXAoYVij7P90KYy+/5by8HRAyqj/W1UGO9Ow4hswgcIy7XF6IzcWPToc0p
/flwvCr8vBZxAio2KU5M59V5/YaHLJ3Gd38r/+SQ8layIqLOq1xYp+7MqSel+/1z
qU0xh1DgmQjNIbVTitC8vjSLi7JTCgnHKozjHpXBCFdkEqfGXxRdYAfhpociHxPr
tthvlR0mqjWO97jSjOgwoTGF/GBxABFQHdx+Cvy5Ot798zStTKrWeF2Xosrb7NC7
wlGDZi7R8R6+lIlNpmcAEGNEAAG5e4I1LQHZfy2WvUYSaPrfq8sDfKA=
-----END CERTIFICATE-----
