Certificate:
    Data:
        Version: 4 (0x3)
        Serial Number: 1 (0x1)
    Signature Algorithm: sha1WithRSAEncryption
        Issuer: CN=ca-false, C=BE, O=Gremwell bvba
        Validity
            Not Before: Jan  1 00:00:00 1970 GMT
            Not After : Jan 19 03:14:07 2038 GMT
        Subject: CN=www.example.com, C=BE, O=Gremwell bvba
        Subject Public Key Info:
            Public Key Algorithm: rsaEncryption
                Public-Key: (1024 bit)
                Modulus:
                    00:c0:92:86:cc:e0:15:62:b1:46:0c:a8:5d:c6:0b:
                    d2:31:72:42:cf:be:45:b7:c2:8f:4f:a2:c0:b0:dc:
                    16:96:45:ae:96:92:a0:fa:45:96:e8:69:13:03:34:
                    e5:91:e4:fb:92:44:e9:5a:71:24:9f:dd:d5:03:c7:
                    e6:75:1e:49:3c:2f:b8:90:cf:67:99:6f:37:91:e0:
                    32:50:8f:8f:e4:0d:e0:58:9f:8a:83:06:18:53:58:
                    15:fa:f7:40:83:e2:f3:fe:b2:c3:a4:97:a1:bb:28:
                    4e:41:f8:7d:7b:2a:dd:42:3a:1f:cf:8b:59:e6:c3:
                    72:0f:57:32:62:37:a8:93:37
                Exponent: 65537 (0x10001)
    Signature Algorithm: sha1WithRSAEncryption
         cc:85:2b:a1:23:07:7f:93:a8:53:87:47:bb:7d:a8:63:4b:ca:
         3b:ce:23:15:49:ad:eb:b9:33:a9:c9:82:69:8a:6b:57:33:33:
         12:82:4e:62:d5:f3:1e:25:e9:bb:fc:30:3f:2e:c0:0e:02:79:
         4e:c7:7f:18:57:dd:bf:20:e4:83:74:61:89:fe:5d:aa:6f:04:
         6e:af:5e:7c:7e:ec:0e:28:47:db:bd:48:19:67:22:54:e4:42:
         dd:b4:8f:91:3e:37:e6:b8:56:f8:88:1f:22:d7:52:ac:05:cb:
         17:db:01:4e:d6:fa:40:02:fc:b2:18:44:ca:0b:17:10:a2:c2:
         2d:03
-----BEGIN CERTIFICATE-----
MIIB6zCCAVSgAwIBAwIBATANBgkqhkiG9w0BAQUFADA4MREwDwYDVQQDEwhjYS1m
YWxzZTELMAkGA1UEBhMCQkUxFjAUBgNVBAoTDUdyZW13ZWxsIGJ2YmEwHhcNNzAw
MTAxMDAwMDAwWhcNMzgwMTE5MDMxNDA3WjA/MRgwFgYDVQQDEw93d3cuZXhhbXBs
ZS5jb20xCzAJBgNVBAYTAkJFMRYwFAYDVQQKEw1HcmVtd2VsbCBidmJhMIGfMA0G
CSqGSIb3DQEBAQUAA4GNADCBiQKBgQDAkobM4BVisUYMqF3GC9IxckLPvkW3wo9P
osCw3BaWRa6WkqD6RZboaRMDNOWR5PuSROlacSSf3dUDx+Z1Hkk8L7iQz2eZbzeR
4DJQj4/kDeBYn4qDBhhTWBX690CD4vP+ssOkl6G7KE5B+H17Kt1COh/Pi1nmw3IP
VzJiN6iTNwIDAQABMA0GCSqGSIb3DQEBBQUAA4GBAMyFK6EjB3+TqFOHR7t9qGNL
yjvOIxVJreu5M6nJgmmKa1czMxKCTmLV8x4l6bv8MD8uwA4CeU7HfxhX3b8g5IN0
YYn+XapvBG6vXnx+7A4oR9u9SBlnIlTkQt20j5E+N+a4VviIHyLXUqwFyxfbAU7W
+kAC/LIYRMoLFxCiwi0D
-----END CERTIFICATE-----
Certificate:
    Data:
        Version: 4 (0x3)
        Serial Number: 1 (0x1)
    Signature Algorithm: sha1WithRSAEncryption
        Issuer: C=BE, CN=txjsonrpc-test-ca
        Validity
            Not Before: Jan  1 00:00:00 1970 GMT
            Not After : Jan 19 03:14:07 2038 GMT
        Subject: CN=ca-false, C=BE, O=Gremwell bvba
        Subject Public Key Info:
            Public Key Algorithm: rsaEncryption
                Public-Key: (1024 bit)
                Modulus:
                    00:f3:2e:84:33:4f:83:53:e4:f1:75:90:56:4c:96:
                    b5:a6:33:7c:7c:04:1d:68:59:27:3d:09:c2:d1:a3:
                    e5:42:ae:dc:b8:c0:4a:d0:3f:bd:1e:bf:b9:23:53:
                    84:bd:ab:25:70:a9:dc:75:83:40:5a:e8:d7:01:fe:
                    39:f8:be:a2:a8:79:11:8e:43:d4:42:33:6f:2c:30:
                    76:a9:cc:25:22:9a:69:09:94:93:5e:ca:83:94:40:
                    18:61:39:f9:7b:7d:a7:0f:5c:42:a7:8e:9c:46:21:
                    e0:28:44:04:e9:e2:5f:b6:00:37:eb:c1:23:c9:1a:
                    c7:37:57:8c:8d:f8:fd:62:51
                Exponent: 65537 (0x10001)
        X509v3 extensions:
            X509v3 Basic Constraints: critical
                CA:FALSE
    Signature Algorithm: sha1WithRSAEncryption
         56:71:2c:9a:2f:59:78:6e:fd:86:27:67:35:f2:2b:f5:35:06:
         f4:90:fd:16:3a:68:0a:34:7e:9c:40:e7:30:17:cd:4a:23:f0:
         db:d7:30:69:3b:98:6b:f3:64:5e:ec:9c:53:de:e6:7b:f0:36:
         44:3c:69:8e:f9:2c:b9:ef:ed:4e:2e:d2:39:e5:68:07:99:13:
         4f:4e:65:9f:6c:a2:6a:57:6c:b1:11:90:9a:37:71:d0:f5:68:
         fe:d9:65:37:4e:f5:91:94:7a:bb:bf:3e:c8:ac:69:aa:00:73:
         c0:a2:da:66:32:6d:1b:6a:f2:0e:03:14:b5:96:88:31:1a:83:
         bb:18:56:81:92:d4:8c:84:7b:6c:a3:22:5c:f4:1d:6f:71:fe:
         44:2c:61:74:57:06:b0:8e:b6:ff:10:d5:59:c9:3c:09:88:b4:
         87:06:c0:e1:0e:3a:70:8a:53:4d:9d:35:49:ae:d4:f4:f5:8a:
         f9:f8:3e:d1:07:ab:1e:33:3c:c6:06:66:55:d6:f7:11:1f:a8:
         7e:05:d9:08:50:e2:e8:22:66:79:8b:52:90:f1:db:aa:bf:2b:
         48:82:3f:c6:cd:d5:7d:81:57:d0:7b:71:c6:b0:b6:c5:50:bd:
         dd:6f:9e:7d:6b:fd:60:bc:aa:57:53:31:72:fd:26:51:23:a2:
         82:31:f6:95:0b:c4:b5:64:94:99:f7:2a:ed:72:b6:48:b6:84:
         44:1c:09:be:8d:88:49:ac:98:cf:c8:e6:1f:5b:45:1e:6f:12:
         be:98:07:4f:8e:01:b7:0d:7e:42:16:2a:d9:4a:80:c4:71:3a:
         35:1c:4e:6d:fd:eb:b2:6d:33:5d:53:a6:8b:ee:b8:02:cd:b6:
         d0:0b:16:83:a9:e1:e2:8e:40:9c:24:01:3a:2e:31:41:2f:c7:
         f5:d2:95:aa:a3:38:9a:0b:8d:f9:05:ae:f5:97:e5:5c:0f:b2:
         29:b4:f4:24:66:3a:a9:e4:48:a1:a2:16:48:7a:45:68:b2:9a:
         44:46:1f:e5:e8:bd:bd:3d:e5:fc:f7:27:37:f6:7e:74:56:9f:
         3f:aa:50:75:8a:f9:d6:0b:00:d0:31:5b:57:d8:b5:ae:50:1c:
         56:ad:2c:55:be:64:c6:77:06:af:22:6d:6b:22:c1:91:0d:2f:
         66:23:9b:8e:60:d8:17:2c:8c:2f:e6:d1:f3:f6:a7:d3:08:fb:
         8a:9d:a5:52:cf:de:80:8e:36:84:00:50:b1:e8:1d:5b:96:80:
         e7:f5:c8:2b:9c:2d:7a:1f:4c:98:02:f3:af:35:83:07:1e:6b:
         16:d7:23:15:5b:9e:83:5f:8a:31:bd:2d:31:cd:91:b1:97:24:
         33:1b:e0:ea:76:d9:41:99
-----BEGIN CERTIFICATE-----
MIIDaDCCAVCgAwIBAwIBATANBgkqhkiG9w0BAQUFADApMQswCQYDVQQGEwJCRTEa
MBgGA1UEAxMRdHhqc29ucnBjLXRlc3QtY2EwHhcNNzAwMTAxMDAwMDAwWhcNMzgw
MTE5MDMxNDA3WjA4MREwDwYDVQQDEwhjYS1mYWxzZTELMAkGA1UEBhMCQkUxFjAU
BgNVBAoTDUdyZW13ZWxsIGJ2YmEwgZ8wDQYJKoZIhvcNAQEBBQADgY0AMIGJAoGB
APMuhDNPg1Pk8XWQVkyWtaYzfHwEHWhZJz0JwtGj5UKu3LjAStA/vR6/uSNThL2r
JXCp3HWDQFro1wH+Ofi+oqh5EY5D1EIzbywwdqnMJSKaaQmUk17Kg5RAGGE5+Xt9
pw9cQqeOnEYh4ChEBOniX7YAN+vBI8kaxzdXjI34/WJRAgMBAAGjEDAOMAwGA1Ud
EwEB/wQCMAAwDQYJKoZIhvcNAQEFBQADggIBAFZxLJovWXhu/YYnZzXyK/U1BvSQ
/RY6aAo0fpxA5zAXzUoj8NvXMGk7mGvzZF7snFPe5nvwNkQ8aY75LLnv7U4u0jnl
aAeZE09OZZ9sompXbLERkJo3cdD1aP7ZZTdO9ZGUeru/PsisaaoAc8Ci2mYybRtq
8g4DFLWWiDEag7sYVoGS1IyEe2yjIlz0HW9x/kQsYXRXBrCOtv8Q1VnJPAmItIcG
wOEOOnCKU02dNUmu1PT1ivn4PtEHqx4zPMYGZlXW9xEfqH4F2QhQ4ugiZnmLUpDx
26q/K0iCP8bN1X2BV9B7ccawtsVQvd1vnn1r/WC8qldTMXL9JlEjooIx9pULxLVk
lJn3Ku1ytki2hEQcCb6NiEmsmM/I5h9bRR5vEr6YB0+OAbcNfkIWKtlKgMRxOjUc
Tm3967JtM11TpovuuALNttALFoOp4eKOQJwkATouMUEvx/XSlaqjOJoLjfkFrvWX
5VwPsim09CRmOqnkSKGiFkh6RWiymkRGH+Xovb095fz3Jzf2fnRWnz+qUHWK+dYL
ANAxW1fYta5QHFatLFW+ZMZ3Bq8ibWsiwZENL2Yjm45g2BcsjC/m0fP2p9MI+4qd
pVLP3oCONoQAULHoHVuWgOf1yCucLXofTJgC8681gwceaxbXIxVbnoNfijG9LTHN
kbGXJDMb4Op22UGZ
-----END CERTIFICATE-----
