Certificate:
    Data:
        Version: 3 (0x2)
        Serial Number: 1 (0x1)
    Signature Algorithm: sha1WithRSAEncryption
        Issuer: CN=ca-false, C=BE, O=Gremwell bvba
        Validity
            Not Before: Jun 23 15:47:38 2012 GMT
            Not After : Jun 23 15:47:38 2013 GMT
        Subject: C=BE, CN=txjsonrpc-pyserver
        Subject Public Key Info:
            Public Key Algorithm: rsaEncryption
                Public-Key: (4096 bit)
                Modulus:
                    00:a0:05:2c:ef:3b:fa:e4:99:7e:d8:7a:75:65:f7:
                    61:f4:46:c0:07:7f:62:d3:ca:61:6f:c6:5c:88:75:
                    4a:f3:1c:02:01:d6:ed:a9:5e:b0:e6:2f:83:ed:4d:
                    ce:11:c3:df:1b:74:a0:07:62:23:0b:c1:68:40:3b:
                    7f:3f:3b:80:96:ae:72:f1:1b:a6:08:ef:09:4e:ad:
                    7f:72:9a:43:6c:5f:b4:6d:b7:a5:be:60:c1:13:ec:
                    60:41:94:c8:7b:9b:40:60:94:e5:21:59:9f:bc:d3:
                    69:78:6c:2b:71:7a:ad:ab:ad:59:77:f1:95:8d:fc:
                    06:ad:39:cf:3a:35:8a:76:c6:14:7a:70:2a:f5:3f:
                    19:eb:ec:c5:11:5f:65:a8:0a:53:09:87:96:8c:12:
                    bc:38:1e:f9:27:47:da:81:38:5f:2d:20:88:b4:94:
                    81:c6:1f:9e:63:3e:15:e3:98:0b:cf:de:df:36:f0:
                    59:5a:ac:75:57:2d:89:10:ad:69:b5:00:8f:8b:be:
                    81:31:86:d7:51:88:b2:70:81:f3:18:31:78:d5:95:
                    6b:47:8f:c5:b3:b6:73:90:8a:21:62:67:6b:a7:eb:
                    20:03:69:41:40:d1:f4:86:ec:0f:ca:4d:b1:63:45:
                    fa:89:9b:b1:4a:92:25:66:78:31:f0:c0:da:3f:f0:
                    49:0a:9a:4b:5f:32:2f:fa:e4:c9:bb:63:d1:2c:42:
                    e4:d4:df:b6:47:1c:1b:3a:9d:d4:68:8a:b7:8d:34:
                    32:26:15:16:2a:0b:0c:f5:3a:ae:1c:25:ba:90:21:
                    f4:98:1a:0f:bd:9e:1f:ed:10:a1:db:5a:54:1b:c4:
                    f9:57:a5:0a:56:b5:e5:21:9a:8f:24:7e:ec:82:a5:
                    fe:c7:78:7b:2e:b8:6f:20:3c:af:55:5e:84:34:d3:
                    df:4c:8f:fc:11:a1:f7:86:fa:f9:bd:22:e5:22:fd:
                    53:c0:0c:90:62:4a:9c:99:5d:c0:c6:31:00:45:b8:
                    43:9d:1d:1b:2a:8b:6f:c2:01:ee:e7:11:d9:81:ae:
                    b8:31:e2:37:ec:d8:a8:b9:58:38:87:eb:79:4e:5e:
                    c9:bd:ae:0d:f2:bf:74:04:e0:54:c9:9e:6f:63:e4:
                    88:52:86:c6:b0:b5:0f:b8:75:e2:d0:e9:4d:af:6b:
                    d1:bf:65:b4:91:a8:d3:c6:28:a5:ae:c6:a6:02:ed:
                    17:f6:75:2c:46:0e:f0:c6:20:a5:52:79:f4:8f:12:
                    b0:7a:84:1b:cf:b9:42:67:98:7e:9c:97:61:28:61:
                    24:46:80:b8:f9:bd:c7:24:c1:1e:d8:9f:7f:cf:f9:
                    76:fc:10:91:b5:10:33:56:03:8b:eb:8d:ca:92:d7:
                    13:62:71
                Exponent: 65537 (0x10001)
        X509v3 extensions:
            X509v3 Basic Constraints: 
                CA:FALSE
            Netscape Cert Type: 
                SSL Server
            Netscape Comment: 
                TinyCA Generated Certificate
            X509v3 Subject Key Identifier: 
                26:8C:A5:F9:A6:4A:FE:4C:E8:0F:04:33:7E:04:26:28:BF:4C:92:F3
            X509v3 Authority Key Identifier: 
                keyid:9D:8F:84:76:94:CD:07:FE:A3:E8:8B:D7:F9:D9:6E:EF:CA:75:51:7B
                DirName:/C=BE/CN=txjsonrpc-test-ca
                serial:8D:D2:AF:37:F9:CA:92:0B

            X509v3 Issuer Alternative Name: 
                <EMPTY>

            X509v3 Subject Alternative Name: 
                <EMPTY>

    Signature Algorithm: sha1WithRSAEncryption
         b3:c5:3c:51:c0:76:9c:74:cd:b9:5a:ed:36:9e:a2:55:cc:74:
         c8:f2:12:b3:44:87:21:84:c2:d2:76:b0:2a:70:9e:67:56:58:
         8c:c3:1b:00:d3:4a:b6:2a:6b:46:d3:ab:57:b2:8a:d1:ea:6c:
         51:3a:b8:d5:50:9e:e4:e2:f8:11:74:38:a5:1a:78:e2:16:cd:
         4e:93:59:3b:42:7c:51:74:27:49:a9:f3:e1:10:be:bc:9e:2f:
         df:96:ce:a0:7e:7d:b0:17:1b:4a:6b:b7:6e:e5:a2:d7:2b:45:
         19:ff:60:6d:f9:0e:8e:24:b8:4f:e2:91:1c:60:ea:b3:e0:bf:
         60:ce
-----BEGIN CERTIFICATE-----
MIIEOzCCA6SgAwIBAgIBATANBgkqhkiG9w0BAQUFADA4MREwDwYDVQQDEwhjYS1m
YWxzZTELMAkGA1UEBhMCQkUxFjAUBgNVBAoTDUdyZW13ZWxsIGJ2YmEwHhcNMTIw
NjIzMTU0NzM4WhcNMTMwNjIzMTU0NzM4WjAqMQswCQYDVQQGEwJCRTEbMBkGA1UE
AxMSdHhqc29ucnBjLXB5c2VydmVyMIICIjANBgkqhkiG9w0BAQEFAAOCAg8AMIIC
CgKCAgEAoAUs7zv65Jl+2Hp1Zfdh9EbAB39i08phb8ZciHVK8xwCAdbtqV6w5i+D
7U3OEcPfG3SgB2IjC8FoQDt/PzuAlq5y8RumCO8JTq1/cppDbF+0bbelvmDBE+xg
QZTIe5tAYJTlIVmfvNNpeGwrcXqtq61Zd/GVjfwGrTnPOjWKdsYUenAq9T8Z6+zF
EV9lqApTCYeWjBK8OB75J0fagThfLSCItJSBxh+eYz4V45gLz97fNvBZWqx1Vy2J
EK1ptQCPi76BMYbXUYiycIHzGDF41ZVrR4/Fs7ZzkIohYmdrp+sgA2lBQNH0huwP
yk2xY0X6iZuxSpIlZngx8MDaP/BJCppLXzIv+uTJu2PRLELk1N+2RxwbOp3UaIq3
jTQyJhUWKgsM9TquHCW6kCH0mBoPvZ4f7RCh21pUG8T5V6UKVrXlIZqPJH7sgqX+
x3h7LrhvIDyvVV6ENNPfTI/8EaH3hvr5vSLlIv1TwAyQYkqcmV3AxjEARbhDnR0b
KotvwgHu5xHZga64MeI37NiouVg4h+t5Tl7Jva4N8r90BOBUyZ5vY+SIUobGsLUP
uHXi0OlNr2vRv2W0kajTxiilrsamAu0X9nUsRg7wxiClUnn0jxKweoQbz7lCZ5h+
nJdhKGEkRoC4+b3HJMEe2J9/z/l2/BCRtRAzVgOL643KktcTYnECAwEAAaOB3jCB
2zAJBgNVHRMEAjAAMBEGCWCGSAGG+EIBAQQEAwIGQDArBglghkgBhvhCAQ0EHhYc
VGlueUNBIEdlbmVyYXRlZCBDZXJ0aWZpY2F0ZTAdBgNVHQ4EFgQUJoyl+aZK/kzo
DwQzfgQmKL9MkvMwWQYDVR0jBFIwUIAUnY+EdpTNB/6j6IvX+dlu78p1UXuhLaQr
MCkxCzAJBgNVBAYTAkJFMRowGAYDVQQDExF0eGpzb25ycGMtdGVzdC1jYYIJAI3S
rzf5ypILMAkGA1UdEgQCMAAwCQYDVR0RBAIwADANBgkqhkiG9w0BAQUFAAOBgQCz
xTxRwHacdM25Wu02nqJVzHTI8hKzRIchhMLSdrAqcJ5nVliMwxsA00q2KmtG06tX
sorR6mxROrjVUJ7k4vgRdDilGnjiFs1Ok1k7QnxRdCdJqfPhEL68ni/fls6gfn2w
FxtKa7du5aLXK0UZ/2Bt+Q6OJLhP4pEcYOqz4L9gzg==
-----END CERTIFICATE-----
Certificate:
    Data:
        Version: 4 (0x3)
        Serial Number: 1 (0x1)
    Signature Algorithm: sha1WithRSAEncryption
        Issuer: C=BE, CN=txjsonrpc-test-ca
        Validity
            Not Before: Jan  1 00:00:00 1970 GMT
            Not After : Jan 19 03:14:07 2038 GMT
        Subject: CN=ca-false, C=BE, O=Gremwell bvba
        Subject Public Key Info:
            Public Key Algorithm: rsaEncryption
                Public-Key: (1024 bit)
                Modulus:
                    00:bf:f9:97:cd:e6:11:3b:b0:67:b7:60:05:5f:a3:
                    66:8c:18:d8:16:a7:fe:38:c3:c7:42:db:84:bf:79:
                    13:65:80:ce:65:fb:2e:95:cb:c8:ef:3f:76:9e:64:
                    f8:ea:d5:a2:1e:dd:35:fa:6e:31:ce:fe:98:99:44:
                    0f:13:10:29:c5:44:51:00:2e:62:da:1f:e6:3c:fc:
                    d2:04:f6:a2:a5:47:5d:66:39:c9:91:90:25:7f:3e:
                    b1:1e:d8:a4:c9:3c:1a:3f:ae:38:45:50:46:a0:ec:
                    e3:ae:0e:ce:f4:be:16:e0:c1:b5:28:86:1e:65:79:
                    64:0d:2d:60:c1:17:bc:cb:89
                Exponent: 65537 (0x10001)
        X509v3 extensions:
            X509v3 Basic Constraints: critical
                CA:FALSE
    Signature Algorithm: sha1WithRSAEncryption
         78:86:56:ad:7b:02:94:d7:ce:57:f2:34:44:09:e7:90:0e:ac:
         ee:17:3a:fc:8b:1b:d6:9c:0b:6a:2a:8e:7d:c4:d4:52:ac:89:
         dd:a9:6c:e1:6a:6b:94:b7:56:50:de:ec:1f:57:8d:e3:02:2f:
         7d:4a:b1:2c:65:f8:b8:62:42:4f:cb:3e:d8:db:ec:91:b1:07:
         06:54:51:72:52:20:86:42:f0:96:19:4a:46:44:a5:4a:9d:25:
         2d:72:b5:1a:2e:d5:f0:0b:70:b2:2b:4e:22:02:a8:08:56:7b:
         09:24:b5:b4:58:98:61:a8:75:9e:30:72:e6:71:81:33:f3:38:
         48:c1:e7:4c:8b:5b:70:f5:8f:d9:e0:d5:c6:82:44:31:d9:dc:
         fd:8a:25:38:20:e0:b7:f1:32:0c:be:07:59:e1:ea:b7:5e:05:
         90:90:87:1c:9f:60:f3:7e:0b:e2:f2:c9:b8:ad:be:0b:55:5b:
         da:1e:2f:7c:1e:27:e6:74:43:6c:a5:90:80:00:95:e6:b7:5a:
         8c:0f:bf:48:d2:00:43:2e:7c:3b:d2:df:db:93:5c:59:ad:60:
         91:23:86:c8:8f:c9:fc:4f:82:2b:2d:ce:48:09:ee:03:ef:90:
         28:68:56:d5:1e:39:4d:f4:73:bf:da:74:ec:d6:57:19:c6:5b:
         aa:b6:1a:56:13:86:fc:60:13:88:00:fc:7c:7d:a7:8e:76:c5:
         c4:ff:aa:35:3e:bd:89:09:06:bf:7d:5c:7f:92:9b:1a:e7:26:
         45:f1:b0:13:43:a5:9f:a7:1b:e9:7c:af:7c:59:c0:b7:06:e3:
         db:88:5b:bd:ca:82:32:b8:5e:52:d1:92:e1:b1:38:8a:7d:87:
         ce:d2:99:ed:86:47:89:1f:e6:89:95:4c:1c:5d:14:a0:a4:ac:
         d9:b7:a3:d3:32:44:cb:5f:4a:29:e7:d6:75:d4:c5:71:91:85:
         1f:f1:7e:73:b7:00:11:ff:d1:54:bf:54:13:f2:6b:c1:b4:71:
         47:7b:df:c7:e8:69:74:b7:55:94:46:c6:4d:54:08:d4:7b:1d:
         45:24:58:68:65:35:f9:3f:ba:c1:7e:1e:ed:d3:5b:82:3f:66:
         2f:20:cc:f9:cb:6c:bb:65:68:65:9b:68:ae:de:9f:e7:00:aa:
         67:14:b8:36:c7:65:99:cc:5b:03:ef:8f:e2:89:36:14:9f:21:
         37:dd:f2:bc:82:d4:48:ec:4e:8e:f8:e5:53:30:03:5a:7e:95:
         ae:22:82:e6:f0:ca:4e:7c:11:ae:9e:a8:dd:3c:20:30:5d:0a:
         69:47:d7:94:cc:8e:76:6e:77:4e:fb:19:68:f9:90:cc:46:ff:
         c3:89:be:2b:28:21:c1:d7
-----BEGIN CERTIFICATE-----
MIIDaDCCAVCgAwIBAwIBATANBgkqhkiG9w0BAQUFADApMQswCQYDVQQGEwJCRTEa
MBgGA1UEAxMRdHhqc29ucnBjLXRlc3QtY2EwHhcNNzAwMTAxMDAwMDAwWhcNMzgw
MTE5MDMxNDA3WjA4MREwDwYDVQQDEwhjYS1mYWxzZTELMAkGA1UEBhMCQkUxFjAU
BgNVBAoTDUdyZW13ZWxsIGJ2YmEwgZ8wDQYJKoZIhvcNAQEBBQADgY0AMIGJAoGB
AL/5l83mETuwZ7dgBV+jZowY2Ban/jjDx0LbhL95E2WAzmX7LpXLyO8/dp5k+OrV
oh7dNfpuMc7+mJlEDxMQKcVEUQAuYtof5jz80gT2oqVHXWY5yZGQJX8+sR7YpMk8
Gj+uOEVQRqDs464OzvS+FuDBtSiGHmV5ZA0tYMEXvMuJAgMBAAGjEDAOMAwGA1Ud
EwEB/wQCMAAwDQYJKoZIhvcNAQEFBQADggIBAHiGVq17ApTXzlfyNEQJ55AOrO4X
OvyLG9acC2oqjn3E1FKsid2pbOFqa5S3VlDe7B9XjeMCL31KsSxl+LhiQk/LPtjb
7JGxBwZUUXJSIIZC8JYZSkZEpUqdJS1ytRou1fALcLIrTiICqAhWewkktbRYmGGo
dZ4wcuZxgTPzOEjB50yLW3D1j9ng1caCRDHZ3P2KJTgg4LfxMgy+B1nh6rdeBZCQ
hxyfYPN+C+LyybitvgtVW9oeL3weJ+Z0Q2ylkIAAlea3WowPv0jSAEMufDvS39uT
XFmtYJEjhsiPyfxPgistzkgJ7gPvkChoVtUeOU30c7/adOzWVxnGW6q2GlYThvxg
E4gA/Hx9p452xcT/qjU+vYkJBr99XH+SmxrnJkXxsBNDpZ+nG+l8r3xZwLcG49uI
W73KgjK4XlLRkuGxOIp9h87Sme2GR4kf5omVTBxdFKCkrNm3o9MyRMtfSinn1nXU
xXGRhR/xfnO3ABH/0VS/VBPya8G0cUd738foaXS3VZRGxk1UCNR7HUUkWGhlNfk/
usF+Hu3TW4I/Zi8gzPnLbLtlaGWbaK7en+cAqmcUuDbHZZnMWwPvj+KJNhSfITfd
8ryC1EjsTo745VMwA1p+la4igubwyk58Ea6eqN08IDBdCmlH15TMjnZud077GWj5
kMxG/8OJvisoIcHX
-----END CERTIFICATE-----
