Certificate:
    Data:
        Version: 3 (0x2)
        Serial Number: 1 (0x1)
    Signature Algorithm: sha1WithRSAEncryption
        Issuer: C=BE, CN=txjsonrpc-pyserver
        Validity
            Not Before: Jun 23 15:47:38 2012 GMT
            Not After : Jun 23 15:47:38 2013 GMT
        Subject: C=BE, CN=txjsonrpc-pyserver
        Subject Public Key Info:
            Public Key Algorithm: rsaEncryption
                Public-Key: (4096 bit)
                Modulus:
                    00:a0:05:2c:ef:3b:fa:e4:99:7e:d8:7a:75:65:f7:
                    61:f4:46:c0:07:7f:62:d3:ca:61:6f:c6:5c:88:75:
                    4a:f3:1c:02:01:d6:ed:a9:5e:b0:e6:2f:83:ed:4d:
                    ce:11:c3:df:1b:74:a0:07:62:23:0b:c1:68:40:3b:
                    7f:3f:3b:80:96:ae:72:f1:1b:a6:08:ef:09:4e:ad:
                    7f:72:9a:43:6c:5f:b4:6d:b7:a5:be:60:c1:13:ec:
                    60:41:94:c8:7b:9b:40:60:94:e5:21:59:9f:bc:d3:
                    69:78:6c:2b:71:7a:ad:ab:ad:59:77:f1:95:8d:fc:
                    06:ad:39:cf:3a:35:8a:76:c6:14:7a:70:2a:f5:3f:
                    19:eb:ec:c5:11:5f:65:a8:0a:53:09:87:96:8c:12:
                    bc:38:1e:f9:27:47:da:81:38:5f:2d:20:88:b4:94:
                    81:c6:1f:9e:63:3e:15:e3:98:0b:cf:de:df:36:f0:
                    59:5a:ac:75:57:2d:89:10:ad:69:b5:00:8f:8b:be:
                    81:31:86:d7:51:88:b2:70:81:f3:18:31:78:d5:95:
                    6b:47:8f:c5:b3:b6:73:90:8a:21:62:67:6b:a7:eb:
                    20:03:69:41:40:d1:f4:86:ec:0f:ca:4d:b1:63:45:
                    fa:89:9b:b1:4a:92:25:66:78:31:f0:c0:da:3f:f0:
                    49:0a:9a:4b:5f:32:2f:fa:e4:c9:bb:63:d1:2c:42:
                    e4:d4:df:b6:47:1c:1b:3a:9d:d4:68:8a:b7:8d:34:
                    32:26:15:16:2a:0b:0c:f5:3a:ae:1c:25:ba:90:21:
                    f4:98:1a:0f:bd:9e:1f:ed:10:a1:db:5a:54:1b:c4:
                    f9:57:a5:0a:56:b5:e5:21:9a:8f:24:7e:ec:82:a5:
                    fe:c7:78:7b:2e:b8:6f:20:3c:af:55:5e:84:34:d3:
                    df:4c:8f:fc:11:a1:f7:86:fa:f9:bd:22:e5:22:fd:
                    53:c0:0c:90:62:4a:9c:99:5d:c0:c6:31:00:45:b8:
                    43:9d:1d:1b:2a:8b:6f:c2:01:ee:e7:11:d9:81:ae:
                    b8:31:e2:37:ec:d8:a8:b9:58:38:87:eb:79:4e:5e:
                    c9:bd:ae:0d:f2:bf:74:04:e0:54:c9:9e:6f:63:e4:
                    88:52:86:c6:b0:b5:0f:b8:75:e2:d0:e9:4d:af:6b:
                    d1:bf:65:b4:91:a8:d3:c6:28:a5:ae:c6:a6:02:ed:
                    17:f6:75:2c:46:0e:f0:c6:20:a5:52:79:f4:8f:12:
                    b0:7a:84:1b:cf:b9:42:67:98:7e:9c:97:61:28:61:
                    24:46:80:b8:f9:bd:c7:24:c1:1e:d8:9f:7f:cf:f9:
                    76:fc:10:91:b5:10:33:56:03:8b:eb:8d:ca:92:d7:
                    13:62:71
                Exponent: 65537 (0x10001)
        X509v3 extensions:
            X509v3 Basic Constraints: 
                CA:FALSE
            Netscape Cert Type: 
                SSL Server
            Netscape Comment: 
                TinyCA Generated Certificate
            X509v3 Subject Key Identifier: 
                26:8C:A5:F9:A6:4A:FE:4C:E8:0F:04:33:7E:04:26:28:BF:4C:92:F3
            X509v3 Authority Key Identifier: 
                keyid:9D:8F:84:76:94:CD:07:FE:A3:E8:8B:D7:F9:D9:6E:EF:CA:75:51:7B
                DirName:/C=BE/CN=txjsonrpc-test-ca
                serial:8D:D2:AF:37:F9:CA:92:0B

            X509v3 Issuer Alternative Name: 
                <EMPTY>

            X509v3 Subject Alternative Name: 
                <EMPTY>

    Signature Algorithm: sha1WithRSAEncryption
         11:d2:d8:51:59:68:59:0a:95:0b:33:e9:8c:31:a3:aa:1d:69:
         43:c2:ec:a5:ca:8b:7e:0b:2d:3f:b8:42:04:49:97:ef:92:42:
         b3:bb:bf:1a:a9:b9:17:29:88:ef:1e:ea:6c:37:2d:aa:38:29:
         c9:77:cc:81:f2:8b:21:cb:e5:22:09:d9:b2:ec:b5:82:a8:7d:
         14:da:f9:2b:39:b7:19:d1:0c:a0:81:49:9a:ea:43:3d:26:c1:
         99:91:b8:24:63:25:43:d1:54:2c:08:cb:ce:84:ec:f5:11:bf:
         0f:57:a2:bb:e3:f3:ed:20:61:72:dc:3a:5f:f0:d0:8d:7f:9c:
         b7:ca:d8:d2:0e:33:6d:41:73:fe:79:ec:b6:aa:51:f9:38:39:
         e3:68:7e:ff:ca:69:04:78:af:f3:1a:bd:7e:e7:38:d2:59:7c:
         1d:1c:3a:8b:1f:4b:ea:d5:88:97:f8:5e:70:3e:23:4e:db:61:
         68:0f:d4:55:d6:6d:1b:74:4e:59:87:ce:6a:ca:0b:77:4e:da:
         3a:76:59:30:0a:53:41:db:bf:d8:f9:a4:aa:91:fe:51:f2:e9:
         32:73:9c:5d:bd:16:3b:69:ad:6b:26:f3:75:7d:7a:1a:ac:a5:
         3a:b1:dc:07:7a:41:bb:b1:b4:8c:34:15:68:d2:3d:ca:08:0a:
         8c:2c:2f:2a:bf:60:e4:db:6f:72:41:67:ad:20:61:ef:a4:96:
         4c:1f:69:6e:41:3f:0e:d1:9b:3f:42:2a:d7:89:a0:aa:88:d7:
         7e:ae:76:e6:4e:1c:be:25:7d:b3:6d:02:8a:1a:53:47:b6:9b:
         e8:8a:91:a1:3b:d6:a8:37:0f:22:58:6d:c6:2e:e3:5f:52:2e:
         d2:4f:95:57:b7:f2:0b:a1:48:dc:5f:9f:52:cf:38:f6:f8:f5:
         44:13:7a:64:21:9d:44:8e:4e:57:93:9a:14:65:05:15:15:fa:
         88:35:69:5a:9d:c8:cf:95:2f:f8:4c:58:25:76:f7:cf:76:9f:
         5a:b4:e3:cb:fa:3f:65:cf:54:85:28:cd:91:3e:9e:6c:ea:f2:
         2c:84:e3:99:2d:8e:76:07:4f:66:c5:81:62:dc:a1:b3:d1:6c:
         e8:a8:80:a2:ae:9d:06:f6:dc:e1:2f:44:2b:73:0c:80:ca:e0:
         6a:c4:9d:7a:bc:00:62:bd:7c:ba:f3:fc:d6:ee:30:05:3d:ed:
         39:38:04:12:c6:4b:e7:2f:80:1c:25:d0:88:94:ac:93:05:66:
         e6:7d:9a:b1:a6:95:62:db:d5:b1:4e:29:f5:5b:8a:37:d7:c0:
         6a:18:56:55:2e:72:b2:78:dc:94:0e:50:18:cd:f8:cc:89:68:
         d6:ef:e9:c3:6a:13:5a:3f
-----BEGIN CERTIFICATE-----
MIIFrjCCA5agAwIBAgIBATANBgkqhkiG9w0BAQUFADAqMQswCQYDVQQGEwJCRTEb
MBkGA1UEAxMSdHhqc29ucnBjLXB5c2VydmVyMB4XDTEyMDYyMzE1NDczOFoXDTEz
MDYyMzE1NDczOFowKjELMAkGA1UEBhMCQkUxGzAZBgNVBAMTEnR4anNvbnJwYy1w
eXNlcnZlcjCCAiIwDQYJKoZIhvcNAQEBBQADggIPADCCAgoCggIBAKAFLO87+uSZ
fth6dWX3YfRGwAd/YtPKYW/GXIh1SvMcAgHW7alesOYvg+1NzhHD3xt0oAdiIwvB
aEA7fz87gJaucvEbpgjvCU6tf3KaQ2xftG23pb5gwRPsYEGUyHubQGCU5SFZn7zT
aXhsK3F6rautWXfxlY38Bq05zzo1inbGFHpwKvU/GevsxRFfZagKUwmHlowSvDge
+SdH2oE4Xy0giLSUgcYfnmM+FeOYC8/e3zbwWVqsdVctiRCtabUAj4u+gTGG11GI
snCB8xgxeNWVa0ePxbO2c5CKIWJna6frIANpQUDR9IbsD8pNsWNF+ombsUqSJWZ4
MfDA2j/wSQqaS18yL/rkybtj0SxC5NTftkccGzqd1GiKt400MiYVFioLDPU6rhwl
upAh9JgaD72eH+0QodtaVBvE+VelCla15SGajyR+7IKl/sd4ey64byA8r1VehDTT
30yP/BGh94b6+b0i5SL9U8AMkGJKnJldwMYxAEW4Q50dGyqLb8IB7ucR2YGuuDHi
N+zYqLlYOIfreU5eyb2uDfK/dATgVMmeb2PkiFKGxrC1D7h14tDpTa9r0b9ltJGo
08Yopa7GpgLtF/Z1LEYO8MYgpVJ59I8SsHqEG8+5QmeYfpyXYShhJEaAuPm9xyTB
Htiff8/5dvwQkbUQM1YDi+uNypLXE2JxAgMBAAGjgd4wgdswCQYDVR0TBAIwADAR
BglghkgBhvhCAQEEBAMCBkAwKwYJYIZIAYb4QgENBB4WHFRpbnlDQSBHZW5lcmF0
ZWQgQ2VydGlmaWNhdGUwHQYDVR0OBBYEFCaMpfmmSv5M6A8EM34EJii/TJLzMFkG
A1UdIwRSMFCAFJ2PhHaUzQf+o+iL1/nZbu/KdVF7oS2kKzApMQswCQYDVQQGEwJC
RTEaMBgGA1UEAxMRdHhqc29ucnBjLXRlc3QtY2GCCQCN0q83+cqSCzAJBgNVHRIE
AjAAMAkGA1UdEQQCMAAwDQYJKoZIhvcNAQEFBQADggIBABHS2FFZaFkKlQsz6Ywx
o6odaUPC7KXKi34LLT+4QgRJl++SQrO7vxqpuRcpiO8e6mw3Lao4Kcl3zIHyiyHL
5SIJ2bLstYKofRTa+Ss5txnRDKCBSZrqQz0mwZmRuCRjJUPRVCwIy86E7PURvw9X
orvj8+0gYXLcOl/w0I1/nLfK2NIOM21Bc/557LaqUfk4OeNofv/KaQR4r/MavX7n
ONJZfB0cOosfS+rViJf4XnA+I07bYWgP1FXWbRt0TlmHzmrKC3dO2jp2WTAKU0Hb
v9j5pKqR/lHy6TJznF29FjtprWsm83V9ehqspTqx3Ad6QbuxtIw0FWjSPcoICows
Lyq/YOTbb3JBZ60gYe+klkwfaW5BPw7Rmz9CKteJoKqI136uduZOHL4lfbNtAooa
U0e2m+iKkaE71qg3DyJYbcYu419SLtJPlVe38guhSNxfn1LPOPb49UQTemQhnUSO
TleTmhRlBRUV+og1aVqdyM+VL/hMWCV29892n1q048v6P2XPVIUozZE+nmzq8iyE
45ktjnYHT2bFgWLcobPRbOiogKKunQb23OEvRCtzDIDK4GrEnXq8AGK9fLrz/Nbu
MAU97Tk4BBLGS+cvgBwl0IiUrJMFZuZ9mrGmlWLb1bFOKfVbijfXwGoYVlUucrJ4
3JQOUBjN+MyJaNbv6cNqE1o/
-----END CERTIFICATE-----
