Certificate:
    Data:
        Version: 4 (0x3)
        Serial Number: 1 (0x1)
    Signature Algorithm: sha1WithRSAEncryption
        Issuer: CN=ca-true, C=BE, O=Gremwell bvba
        Validity
            Not Before: Jan  1 00:00:00 1970 GMT
            Not After : Jan 19 03:14:07 2038 GMT
        Subject: CN=www.example.com, C=BE, O=Gremwell bvba
        Subject Public Key Info:
            Public Key Algorithm: rsaEncryption
                Public-Key: (1024 bit)
                Modulus:
                    00:c0:92:86:cc:e0:15:62:b1:46:0c:a8:5d:c6:0b:
                    d2:31:72:42:cf:be:45:b7:c2:8f:4f:a2:c0:b0:dc:
                    16:96:45:ae:96:92:a0:fa:45:96:e8:69:13:03:34:
                    e5:91:e4:fb:92:44:e9:5a:71:24:9f:dd:d5:03:c7:
                    e6:75:1e:49:3c:2f:b8:90:cf:67:99:6f:37:91:e0:
                    32:50:8f:8f:e4:0d:e0:58:9f:8a:83:06:18:53:58:
                    15:fa:f7:40:83:e2:f3:fe:b2:c3:a4:97:a1:bb:28:
                    4e:41:f8:7d:7b:2a:dd:42:3a:1f:cf:8b:59:e6:c3:
                    72:0f:57:32:62:37:a8:93:37
                Exponent: 65537 (0x10001)
    Signature Algorithm: sha1WithRSAEncryption
         52:63:dd:c8:c9:af:03:c0:f5:48:40:f9:66:b1:2e:0e:94:a2:
         e8:da:84:a6:a3:78:d1:20:1e:8d:c7:e8:2c:63:14:66:0d:b0:
         0e:8f:8e:a7:03:08:38:25:62:78:85:31:e1:c8:08:71:13:07:
         a1:a8:ea:9d:66:9e:b2:72:b2:6a:92:9d:d9:35:3d:bd:1d:57:
         3a:ee:ec:5c:55:76:5b:7e:0c:2f:a4:42:0d:4c:a8:6f:19:82:
         e8:99:ab:e1:89:fe:cc:2b:67:7f:37:e5:a9:53:af:12:07:a9:
         c9:c6:c8:93:0a:32:c2:91:a7:16:0c:23:df:6a:65:62:fc:dd:
         bd:e3
-----BEGIN CERTIFICATE-----
MIIB6jCCAVOgAwIBAwIBATANBgkqhkiG9w0BAQUFADA3MRAwDgYDVQQDEwdjYS10
cnVlMQswCQYDVQQGEwJCRTEWMBQGA1UEChMNR3JlbXdlbGwgYnZiYTAeFw03MDAx
MDEwMDAwMDBaFw0zODAxMTkwMzE0MDdaMD8xGDAWBgNVBAMTD3d3dy5leGFtcGxl
LmNvbTELMAkGA1UEBhMCQkUxFjAUBgNVBAoTDUdyZW13ZWxsIGJ2YmEwgZ8wDQYJ
KoZIhvcNAQEBBQADgY0AMIGJAoGBAMCShszgFWKxRgyoXcYL0jFyQs++RbfCj0+i
wLDcFpZFrpaSoPpFluhpEwM05ZHk+5JE6VpxJJ/d1QPH5nUeSTwvuJDPZ5lvN5Hg
MlCPj+QN4FifioMGGFNYFfr3QIPi8/6yw6SXobsoTkH4fXsq3UI6H8+LWebDcg9X
MmI3qJM3AgMBAAEwDQYJKoZIhvcNAQEFBQADgYEAUmPdyMmvA8D1SED5ZrEuDpSi
6NqEpqN40SAejcfoLGMUZg2wDo+OpwMIOCVieIUx4cgIcRMHoajqnWaesnKyapKd
2TU9vR1XOu7sXFV2W34ML6RCDUyobxmC6Jmr4Yn+zCtnfzflqVOvEgepycbIkwoy
wpGnFgwj32plYvzdveM=
-----END CERTIFICATE-----
Certificate:
    Data:
        Version: 4 (0x3)
        Serial Number: 1 (0x1)
    Signature Algorithm: sha1WithRSAEncryption
        Issuer: C=BE, CN=txjsonrpc-test-ca
        Validity
            Not Before: Jan  1 00:00:00 1970 GMT
            Not After : Jan 19 03:14:07 2038 GMT
        Subject: CN=ca-true, C=BE, O=Gremwell bvba
        Subject Public Key Info:
            Public Key Algorithm: rsaEncryption
                Public-Key: (1024 bit)
                Modulus:
                    00:d6:64:c2:52:d7:16:1a:27:95:9f:5d:c5:67:f1:
                    b8:07:11:e7:98:b2:ac:06:67:d9:19:36:65:e6:16:
                    7a:31:29:e6:eb:fe:16:86:84:f7:cb:b3:b8:6b:ef:
                    b9:8b:8c:3f:b7:c5:68:54:eb:f6:0c:8f:b3:27:3b:
                    e9:c0:d5:e8:c0:58:3c:03:9c:11:9d:53:2d:0c:dd:
                    c4:cf:10:1b:02:a7:85:bf:75:bb:43:ec:0a:58:e0:
                    21:e3:e3:8a:32:fa:d8:73:b7:d0:47:39:da:a3:4b:
                    85:bd:0e:45:33:cf:f7:a0:e4:59:a0:3a:44:37:92:
                    f0:4a:7b:cf:8d:53:df:ee:b7
                Exponent: 65537 (0x10001)
        X509v3 extensions:
            X509v3 Basic Constraints: critical
                CA:TRUE
    Signature Algorithm: sha1WithRSAEncryption
         2f:63:7e:66:66:e5:c3:ef:90:fe:d0:b6:dd:e6:c5:b3:71:64:
         2d:5c:71:4e:94:82:e6:37:ef:6d:39:3e:6f:2d:ae:33:34:9a:
         2d:20:f5:d5:b6:5d:2b:55:13:57:d9:85:5c:31:38:81:a6:56:
         07:59:87:d0:b5:ec:d2:15:9b:31:49:8e:8c:5f:47:11:e1:1e:
         09:97:2c:ec:2b:f4:6f:fd:db:fb:6d:c5:50:e3:21:a7:40:af:
         0a:a9:7f:ab:93:44:d4:d5:b4:2a:7d:43:fc:00:a7:d3:5d:86:
         4c:0a:5f:6c:15:18:66:77:11:25:3b:93:35:7c:41:26:2b:70:
         70:f3:9d:48:60:f0:47:55:3d:9d:5d:17:5d:0c:21:83:88:e5:
         dd:ed:9f:0a:73:09:c9:cd:44:8d:b4:ac:8f:8f:cb:02:bc:38:
         db:c2:c1:bd:11:93:0c:f7:4a:ed:fe:f8:cc:be:53:e6:f6:55:
         ef:81:d9:e1:7a:8f:8c:5e:19:54:90:e2:07:29:ad:18:96:23:
         e7:c6:56:62:dd:95:1c:95:c9:3c:68:d2:96:9c:b8:f8:d9:26:
         60:bd:24:fc:5e:bf:1c:0b:a7:66:2b:13:5c:9b:b4:b0:04:e2:
         b7:3b:84:78:03:50:1b:3c:1e:37:e2:d1:4e:3b:08:07:70:80:
         d8:34:d8:24:41:f9:90:43:85:0d:18:11:22:3a:be:4a:59:e0:
         66:5d:01:cc:2e:7a:87:46:9f:c9:c1:f3:fa:9b:b7:15:94:05:
         3a:b7:a4:8c:41:02:de:6c:07:80:6c:27:59:5c:7a:b7:ef:8d:
         c9:7b:cd:a2:74:e9:70:55:92:eb:b1:0c:ce:43:2e:85:98:59:
         6f:1d:fc:b5:62:70:59:8e:1e:aa:68:77:49:0c:b1:15:69:5e:
         5f:76:8a:6a:aa:af:23:be:00:d0:53:e4:77:72:11:6e:34:14:
         89:f2:8e:01:20:c9:7b:16:73:58:f1:55:ad:8e:cb:d6:4d:91:
         f6:d9:8b:f1:8d:58:04:a0:e2:96:74:01:64:c9:8f:b3:1c:93:
         05:a2:06:03:3b:90:38:47:0f:36:c3:5f:81:07:1f:44:55:e8:
         f0:8d:0e:84:fd:b0:78:c9:80:73:6a:6b:db:80:76:7b:2b:e2:
         2e:20:38:f6:a2:ad:5d:61:1d:15:10:2e:d7:1f:d9:f7:8d:aa:
         a4:6a:a1:8a:70:3c:5b:38:35:39:31:7f:60:dd:fb:2e:e5:02:
         f8:fc:e3:11:43:2a:4e:a6:5b:60:84:bc:51:ad:df:08:c4:51:
         be:9c:37:0f:78:eb:ea:e0:56:a8:88:a3:b2:51:c5:0d:a1:aa:
         3c:7d:10:d4:f8:e6:cc:cc
-----BEGIN CERTIFICATE-----
MIIDajCCAVKgAwIBAwIBATANBgkqhkiG9w0BAQUFADApMQswCQYDVQQGEwJCRTEa
MBgGA1UEAxMRdHhqc29ucnBjLXRlc3QtY2EwHhcNNzAwMTAxMDAwMDAwWhcNMzgw
MTE5MDMxNDA3WjA3MRAwDgYDVQQDEwdjYS10cnVlMQswCQYDVQQGEwJCRTEWMBQG
A1UEChMNR3JlbXdlbGwgYnZiYTCBnzANBgkqhkiG9w0BAQEFAAOBjQAwgYkCgYEA
1mTCUtcWGieVn13FZ/G4BxHnmLKsBmfZGTZl5hZ6MSnm6/4WhoT3y7O4a++5i4w/
t8VoVOv2DI+zJzvpwNXowFg8A5wRnVMtDN3EzxAbAqeFv3W7Q+wKWOAh4+OKMvrY
c7fQRznao0uFvQ5FM8/3oORZoDpEN5LwSnvPjVPf7rcCAwEAAaMTMBEwDwYDVR0T
AQH/BAUwAwEB/zANBgkqhkiG9w0BAQUFAAOCAgEAL2N+Zmblw++Q/tC23ebFs3Fk
LVxxTpSC5jfvbTk+by2uMzSaLSD11bZdK1UTV9mFXDE4gaZWB1mH0LXs0hWbMUmO
jF9HEeEeCZcs7Cv0b/3b+23FUOMhp0CvCql/q5NE1NW0Kn1D/ACn012GTApfbBUY
ZncRJTuTNXxBJitwcPOdSGDwR1U9nV0XXQwhg4jl3e2fCnMJyc1EjbSsj4/LArw4
28LBvRGTDPdK7f74zL5T5vZV74HZ4XqPjF4ZVJDiBymtGJYj58ZWYt2VHJXJPGjS
lpy4+NkmYL0k/F6/HAunZisTXJu0sATitzuEeANQGzweN+LRTjsIB3CA2DTYJEH5
kEOFDRgRIjq+SlngZl0BzC56h0afycHz+pu3FZQFOrekjEEC3mwHgGwnWVx6t++N
yXvNonTpcFWS67EMzkMuhZhZbx38tWJwWY4eqmh3SQyxFWleX3aKaqqvI74A0FPk
d3IRbjQUifKOASDJexZzWPFVrY7L1k2R9tmL8Y1YBKDilnQBZMmPsxyTBaIGAzuQ
OEcPNsNfgQcfRFXo8I0OhP2weMmAc2pr24B2eyviLiA49qKtXWEdFRAu1x/Z942q
pGqhinA8Wzg1OTF/YN37LuUC+PzjEUMqTqZbYIS8Ua3fCMRRvpw3D3jr6uBWqIij
slHFDaGqPH0Q1PjmzMw=
-----END CERTIFICATE-----
