Certificate:
    Data:
        Version: 4 (0x3)
        Serial Number: 1 (0x1)
    Signature Algorithm: sha1WithRSAEncryption
        Issuer: CN=ca-false, C=BE, O=Gremwell bvba
        Validity
            Not Before: Jan  1 00:00:00 1970 GMT
            Not After : Jan 19 03:14:07 2038 GMT
        Subject: CN=blah.com, C=BE, O=Gremwell bvba
        Subject Public Key Info:
            Public Key Algorithm: rsaEncryption
                Public-Key: (1024 bit)
                Modulus:
                    00:c1:ee:c9:1e:a3:5b:7e:7a:04:1e:3f:7d:97:1f:
                    53:1f:e6:00:55:e2:a9:02:86:44:92:c5:c6:8d:0d:
                    46:7b:ec:15:6c:d7:8d:60:58:27:d0:8b:1b:53:71:
                    49:05:90:9f:2a:96:77:b2:43:bf:6c:75:b8:08:7d:
                    c3:74:ca:1c:0a:cb:93:70:6a:ac:b2:e7:26:0b:db:
                    f9:ea:cc:3d:fb:6a:16:9f:55:9b:f6:66:f2:5d:75:
                    03:32:28:4b:bf:58:60:2d:ce:4f:ca:31:f5:41:40:
                    4d:f8:fb:f9:c4:7c:da:d1:3d:52:e3:c4:1d:47:20:
                    d5:34:5e:45:1d:20:c3:bc:3b
                Exponent: 65537 (0x10001)
    Signature Algorithm: sha1WithRSAEncryption
         89:2f:78:8b:d7:eb:b5:37:66:a1:dc:29:9f:fe:e0:4c:6c:f1:
         76:15:ac:b6:05:62:c6:66:a5:97:83:52:2d:8c:58:01:c7:14:
         74:de:5c:24:2e:12:f4:33:ed:fd:d2:7d:cd:df:c1:cd:97:d7:
         6a:1e:4b:bc:d3:1b:51:d7:bf:78:b1:10:5c:06:67:8b:60:96:
         c2:42:62:ff:a9:14:60:62:7d:ae:85:8b:d4:6a:3b:5d:35:43:
         f6:78:e3:34:59:b4:20:69:43:1d:7b:33:1d:99:cd:43:1e:25:
         ef:b7:87:73:f7:89:b4:bf:7f:17:51:ed:ff:97:9f:f8:07:61:
         7c:5b
-----BEGIN CERTIFICATE-----
MIIB5DCCAU2gAwIBAwIBATANBgkqhkiG9w0BAQUFADA4MREwDwYDVQQDEwhjYS1m
YWxzZTELMAkGA1UEBhMCQkUxFjAUBgNVBAoTDUdyZW13ZWxsIGJ2YmEwHhcNNzAw
MTAxMDAwMDAwWhcNMzgwMTE5MDMxNDA3WjA4MREwDwYDVQQDEwhibGFoLmNvbTEL
MAkGA1UEBhMCQkUxFjAUBgNVBAoTDUdyZW13ZWxsIGJ2YmEwgZ8wDQYJKoZIhvcN
AQEBBQADgY0AMIGJAoGBAMHuyR6jW356BB4/fZcfUx/mAFXiqQKGRJLFxo0NRnvs
FWzXjWBYJ9CLG1NxSQWQnyqWd7JDv2x1uAh9w3TKHArLk3BqrLLnJgvb+erMPftq
Fp9Vm/Zm8l11AzIoS79YYC3OT8ox9UFATfj7+cR82tE9UuPEHUcg1TReRR0gw7w7
AgMBAAEwDQYJKoZIhvcNAQEFBQADgYEAiS94i9frtTdmodwpn/7gTGzxdhWstgVi
xmall4NSLYxYAccUdN5cJC4S9DPt/dJ9zd/BzZfXah5LvNMbUde/eLEQXAZni2CW
wkJi/6kUYGJ9roWL1Go7XTVD9njjNFm0IGlDHXszHZnNQx4l77eHc/eJtL9/F1Ht
/5ef+AdhfFs=
-----END CERTIFICATE-----
Certificate:
    Data:
        Version: 4 (0x3)
        Serial Number: 1 (0x1)
    Signature Algorithm: sha1WithRSAEncryption
        Issuer: C=BE, CN=txjsonrpc-test-ca
        Validity
            Not Before: Jan  1 00:00:00 1970 GMT
            Not After : Jan 19 03:14:07 2038 GMT
        Subject: CN=ca-false, C=BE, O=Gremwell bvba
        Subject Public Key Info:
            Public Key Algorithm: rsaEncryption
                Public-Key: (1024 bit)
                Modulus:
                    00:be:13:7c:a6:0e:34:a4:18:1e:b4:e2:ae:2a:eb:
                    ce:28:00:8d:53:ef:ef:8b:eb:e1:03:2a:b8:0b:7c:
                    20:36:d2:2f:9e:b5:3d:fb:47:48:b5:cb:f1:03:09:
                    1a:10:4c:c8:ff:cf:74:0b:04:16:1a:4f:f1:63:71:
                    05:1e:98:51:6b:52:1f:2d:65:fb:5d:73:1e:fb:1d:
                    cb:13:aa:07:e9:bd:b6:17:36:b6:59:2e:26:51:33:
                    8d:78:d9:86:0a:8e:86:6b:05:04:1c:a1:d7:e3:88:
                    94:71:2f:76:d0:0c:93:1c:f4:19:27:ab:4e:e0:1b:
                    a7:22:f2:2f:58:ab:fd:be:31
                Exponent: 65537 (0x10001)
        X509v3 extensions:
            X509v3 Basic Constraints: critical
                CA:FALSE
    Signature Algorithm: sha1WithRSAEncryption
         5b:ac:11:09:d5:74:a0:07:00:e5:88:0b:b1:4b:6a:60:11:c3:
         9f:44:4c:4e:78:e8:8d:e9:c1:4d:01:10:cb:84:c1:d3:c8:7b:
         8e:5a:97:a1:86:49:15:df:0f:dc:f8:8d:13:f9:77:c0:ad:2a:
         81:e1:12:f1:5e:72:1e:ec:f7:94:3b:bc:67:34:75:cf:00:c9:
         8f:19:d9:d6:c2:f3:a8:99:c2:81:e4:9b:ab:9d:00:99:d4:08:
         74:42:27:27:15:d9:7a:dd:71:7b:7f:41:05:16:5b:2e:3b:c4:
         16:85:50:ea:a1:cb:52:5d:72:8e:03:ae:88:e9:13:f9:27:76:
         a0:60:50:5c:aa:41:f3:cc:ba:8e:a9:c5:68:1b:19:dd:e5:46:
         1d:d2:92:15:73:48:c4:5f:9e:45:bb:0c:ff:20:a3:94:cf:99:
         cf:96:bc:8f:58:03:ba:fa:0f:3e:6f:16:79:5b:7d:d6:65:35:
         bc:fa:05:b3:84:81:8b:7f:9b:62:a1:00:fb:f6:7e:c0:ec:dd:
         9d:72:25:65:4e:70:c7:79:7d:f4:94:2b:8d:82:28:dd:fb:db:
         5c:19:ce:e0:04:e8:a2:09:d1:c4:46:10:2d:ba:92:92:62:b4:
         8f:48:74:0f:d3:bd:26:4e:0f:a7:55:fd:1b:3c:d1:63:a4:52:
         5c:45:06:35:60:dc:64:52:63:cc:b5:e8:ec:d8:96:b8:90:c9:
         91:a8:b7:9b:0f:fe:d6:7b:f4:d1:ff:f4:7a:90:40:4f:fc:ec:
         fa:1c:7d:9a:55:18:a5:6d:67:c6:6e:99:02:8e:86:30:82:ff:
         05:3d:f2:9f:75:01:c7:f4:9b:00:b2:ee:f5:d3:73:54:34:21:
         7b:0a:f3:a8:25:fb:67:bb:bd:c2:74:ee:03:17:9f:9f:e9:a9:
         14:6b:f7:db:82:00:c4:00:49:d5:f4:10:eb:32:d1:16:94:3f:
         b8:b1:2b:cb:c1:72:6f:b5:49:7d:74:02:37:8c:14:9a:02:31:
         76:33:7f:05:b1:8a:41:7c:32:4d:19:45:0c:2a:2e:60:1f:72:
         7e:16:0a:57:32:f5:c6:d6:dc:da:b0:2c:b6:76:c1:70:4e:b8:
         92:37:9e:c9:33:7f:1d:41:b0:cf:04:4b:e6:a7:0c:d6:d1:ec:
         a0:c9:85:03:60:01:06:21:1b:36:fc:f9:46:63:d7:2f:12:37:
         0c:85:ac:03:4c:80:a9:1a:3a:a5:48:8d:a1:ee:49:da:5a:2a:
         50:9e:25:4a:be:f7:40:83:7a:0b:e0:df:3d:3b:87:94:fe:1d:
         02:05:fc:41:07:26:a0:8b:75:64:2c:fb:86:c2:61:7b:03:06:
         d2:20:de:5f:31:c5:03:13
-----BEGIN CERTIFICATE-----
MIIDaDCCAVCgAwIBAwIBATANBgkqhkiG9w0BAQUFADApMQswCQYDVQQGEwJCRTEa
MBgGA1UEAxMRdHhqc29ucnBjLXRlc3QtY2EwHhcNNzAwMTAxMDAwMDAwWhcNMzgw
MTE5MDMxNDA3WjA4MREwDwYDVQQDEwhjYS1mYWxzZTELMAkGA1UEBhMCQkUxFjAU
BgNVBAoTDUdyZW13ZWxsIGJ2YmEwgZ8wDQYJKoZIhvcNAQEBBQADgY0AMIGJAoGB
AL4TfKYONKQYHrTirirrzigAjVPv74vr4QMquAt8IDbSL561PftHSLXL8QMJGhBM
yP/PdAsEFhpP8WNxBR6YUWtSHy1l+11zHvsdyxOqB+m9thc2tlkuJlEzjXjZhgqO
hmsFBByh1+OIlHEvdtAMkxz0GSerTuAbpyLyL1ir/b4xAgMBAAGjEDAOMAwGA1Ud
EwEB/wQCMAAwDQYJKoZIhvcNAQEFBQADggIBAFusEQnVdKAHAOWIC7FLamARw59E
TE546I3pwU0BEMuEwdPIe45al6GGSRXfD9z4jRP5d8CtKoHhEvFech7s95Q7vGc0
dc8AyY8Z2dbC86iZwoHkm6udAJnUCHRCJycV2XrdcXt/QQUWWy47xBaFUOqhy1Jd
co4DrojpE/kndqBgUFyqQfPMuo6pxWgbGd3lRh3SkhVzSMRfnkW7DP8go5TPmc+W
vI9YA7r6Dz5vFnlbfdZlNbz6BbOEgYt/m2KhAPv2fsDs3Z1yJWVOcMd5ffSUK42C
KN3721wZzuAE6KIJ0cRGEC26kpJitI9IdA/TvSZOD6dV/Rs80WOkUlxFBjVg3GRS
Y8y16OzYlriQyZGot5sP/tZ79NH/9HqQQE/87PocfZpVGKVtZ8ZumQKOhjCC/wU9
8p91Acf0mwCy7vXTc1Q0IXsK86gl+2e7vcJ07gMXn5/pqRRr99uCAMQASdX0EOsy
0RaUP7ixK8vBcm+1SX10AjeMFJoCMXYzfwWxikF8Mk0ZRQwqLmAfcn4WClcy9cbW
3NqwLLZ2wXBOuJI3nskzfx1BsM8ES+anDNbR7KDJhQNgAQYhGzb8+UZj1y8SNwyF
rANMgKkaOqVIjaHuSdpaKlCeJUq+90CDegvg3z07h5T+HQIF/EEHJqCLdWQs+4bC
YXsDBtIg3l8xxQMT
-----END CERTIFICATE-----
