Certificate:
    Data:
        Version: 4 (0x3)
        Serial Number: 1 (0x1)
    Signature Algorithm: sha1WithRSAEncryption
        Issuer: CN=ca-none, C=BE, O=Gremwell bvba
        Validity
            Not Before: Jan  1 00:00:00 1970 GMT
            Not After : Jan 19 03:14:07 2038 GMT
        Subject: CN=www.example.com, C=BE, O=Gremwell bvba
        Subject Public Key Info:
            Public Key Algorithm: rsaEncryption
                Public-Key: (1024 bit)
                Modulus:
                    00:c0:92:86:cc:e0:15:62:b1:46:0c:a8:5d:c6:0b:
                    d2:31:72:42:cf:be:45:b7:c2:8f:4f:a2:c0:b0:dc:
                    16:96:45:ae:96:92:a0:fa:45:96:e8:69:13:03:34:
                    e5:91:e4:fb:92:44:e9:5a:71:24:9f:dd:d5:03:c7:
                    e6:75:1e:49:3c:2f:b8:90:cf:67:99:6f:37:91:e0:
                    32:50:8f:8f:e4:0d:e0:58:9f:8a:83:06:18:53:58:
                    15:fa:f7:40:83:e2:f3:fe:b2:c3:a4:97:a1:bb:28:
                    4e:41:f8:7d:7b:2a:dd:42:3a:1f:cf:8b:59:e6:c3:
                    72:0f:57:32:62:37:a8:93:37
                Exponent: 65537 (0x10001)
    Signature Algorithm: sha1WithRSAEncryption
         47:0c:cf:c5:59:84:9f:26:95:4b:58:a6:01:58:3d:61:7d:1a:
         d6:7e:27:77:29:6a:9e:ea:b3:61:1a:68:69:ef:78:3d:1b:e4:
         dd:9a:5a:03:3e:41:48:82:dc:70:22:67:60:3d:21:da:8b:d2:
         80:71:8e:fe:5b:a2:a6:5f:a1:79:a6:7a:b9:bb:0a:5c:4b:2b:
         e0:c0:b9:e1:0b:5b:5d:67:7d:6f:bc:59:8a:04:bd:a2:2d:2a:
         5f:68:ac:94:ca:74:15:be:95:f8:b1:9b:7a:f1:10:00:e2:41:
         eb:77:87:b5:b1:49:df:03:6e:8b:56:8c:4c:6d:0e:d4:11:ad:
         cc:65
-----BEGIN CERTIFICATE-----
MIIB6jCCAVOgAwIBAwIBATANBgkqhkiG9w0BAQUFADA3MRAwDgYDVQQDEwdjYS1u
b25lMQswCQYDVQQGEwJCRTEWMBQGA1UEChMNR3JlbXdlbGwgYnZiYTAeFw03MDAx
MDEwMDAwMDBaFw0zODAxMTkwMzE0MDdaMD8xGDAWBgNVBAMTD3d3dy5leGFtcGxl
LmNvbTELMAkGA1UEBhMCQkUxFjAUBgNVBAoTDUdyZW13ZWxsIGJ2YmEwgZ8wDQYJ
KoZIhvcNAQEBBQADgY0AMIGJAoGBAMCShszgFWKxRgyoXcYL0jFyQs++RbfCj0+i
wLDcFpZFrpaSoPpFluhpEwM05ZHk+5JE6VpxJJ/d1QPH5nUeSTwvuJDPZ5lvN5Hg
MlCPj+QN4FifioMGGFNYFfr3QIPi8/6yw6SXobsoTkH4fXsq3UI6H8+LWebDcg9X
MmI3qJM3AgMBAAEwDQYJKoZIhvcNAQEFBQADgYEARwzPxVmEnyaVS1imAVg9YX0a
1n4ndylqnuqzYRpoae94PRvk3ZpaAz5BSILccCJnYD0h2ovSgHGO/luipl+heaZ6
ubsKXEsr4MC54QtbXWd9b7xZigS9oi0qX2islMp0Fb6V+LGbevEQAOJB63eHtbFJ
3wNui1aMTG0O1BGtzGU=
-----END CERTIFICATE-----
Certificate:
    Data:
        Version: 4 (0x3)
        Serial Number: 1 (0x1)
    Signature Algorithm: sha1WithRSAEncryption
        Issuer: C=BE, CN=txjsonrpc-test-ca
        Validity
            Not Before: Jan  1 00:00:00 1970 GMT
            Not After : Jan 19 03:14:07 2038 GMT
        Subject: CN=ca-none, C=BE, O=Gremwell bvba
        Subject Public Key Info:
            Public Key Algorithm: rsaEncryption
                Public-Key: (1024 bit)
                Modulus:
                    00:e8:8a:16:3d:7b:f2:79:72:d0:64:cb:64:4c:1e:
                    51:34:40:74:77:6b:a6:6d:fc:e0:9c:7e:f5:01:b7:
                    9b:bd:30:df:05:04:a7:47:ef:bc:e3:6f:56:ce:60:
                    c9:43:b2:8a:0b:6a:74:e2:40:47:12:92:ae:56:50:
                    f8:c0:72:f9:aa:2a:5f:2f:f2:bc:e1:ce:0f:9a:8f:
                    9e:79:35:9a:03:08:2b:f8:94:a2:90:a6:42:12:9b:
                    05:c0:c9:0b:d3:ae:53:be:35:f3:49:36:d2:06:0c:
                    f8:33:df:11:2a:99:a1:ee:df:69:00:99:b3:d5:96:
                    05:c6:a8:9c:58:92:63:b6:9b
                Exponent: 65537 (0x10001)
    Signature Algorithm: sha1WithRSAEncryption
         76:a3:fb:eb:c7:69:5a:79:73:73:37:3c:38:b4:a8:d6:00:93:
         da:a8:68:b4:08:b1:84:b4:ce:f0:47:c4:d0:27:1e:90:6a:f5:
         cd:20:c1:91:0e:f1:c4:2a:6d:33:c9:8e:dd:45:9a:fb:90:ca:
         d6:35:af:b1:20:50:e3:0e:69:8b:d5:d0:08:e3:75:c8:e8:81:
         77:a8:22:a7:31:2d:05:b0:fc:aa:ac:e6:90:2b:d9:eb:8f:1e:
         55:ea:af:bc:df:18:c5:c8:e1:4f:dd:f0:14:bb:21:f6:8e:e6:
         74:ee:bf:1b:8d:4a:99:17:36:58:e5:ab:bc:91:cd:65:8b:34:
         42:ab:eb:cf:48:32:d9:bc:2f:46:2e:f8:1a:26:13:e2:54:7e:
         92:83:ba:4e:50:85:42:ca:ab:f9:b0:11:0c:26:fc:c2:6b:25:
         24:c8:12:75:4c:29:0b:cd:8a:c6:5f:76:f4:51:6b:b3:ae:06:
         eb:51:b1:1e:2d:66:fb:2c:61:2a:2f:11:98:d8:e9:39:61:8d:
         47:8f:3b:46:41:ee:61:08:06:5e:9a:fa:95:ef:4a:58:6e:64:
         5f:99:4b:10:ed:cb:25:cc:21:ed:85:fa:3e:fe:1a:77:ec:8d:
         5f:99:65:d3:86:99:eb:fa:36:1f:1d:67:2f:54:95:08:93:5e:
         c9:53:75:fa:3d:b9:b6:01:00:1d:4c:54:95:c7:b4:6e:03:f2:
         c4:94:96:5a:fd:ef:36:bf:ca:6c:f3:30:c0:70:6f:1c:62:f3:
         1c:83:ed:dc:53:03:2b:c2:ee:1d:84:a8:fa:2c:eb:70:7e:d2:
         b8:68:e7:94:52:a4:0c:a6:5c:5b:cc:4d:93:e8:1a:8f:c6:3a:
         82:3c:fe:e2:84:46:dd:ee:93:32:e6:21:f5:ac:3a:da:4d:32:
         7d:a2:e6:a4:07:9f:88:b6:fe:59:ce:a6:e0:c8:15:df:5e:79:
         35:e8:29:09:b4:10:ff:6e:e0:36:b8:4a:fd:67:fb:8d:f2:e5:
         c0:84:fb:a9:03:47:07:c5:d2:12:30:59:82:05:ca:5c:2c:e1:
         84:b3:c3:69:02:7b:91:a3:4b:28:54:66:30:d2:01:41:9c:e3:
         af:37:3e:2a:cf:94:d4:13:28:e7:91:13:2e:76:25:5d:ea:01:
         2b:15:0e:8c:13:e2:c8:9f:42:fc:a4:0f:3e:8d:20:66:96:42:
         81:c6:f9:5c:eb:7a:18:f2:c0:09:ce:90:eb:ae:aa:9e:9b:13:
         c7:ed:ee:fe:38:cb:83:64:51:20:f1:6c:66:37:e1:cf:ea:ce:
         80:aa:b9:d6:44:b6:ce:fe:8d:23:10:5a:7f:a6:2e:e6:bf:0f:
         6c:dd:3d:16:55:b1:0a:4c
-----BEGIN CERTIFICATE-----
MIIDVTCCAT2gAwIBAwIBATANBgkqhkiG9w0BAQUFADApMQswCQYDVQQGEwJCRTEa
MBgGA1UEAxMRdHhqc29ucnBjLXRlc3QtY2EwHhcNNzAwMTAxMDAwMDAwWhcNMzgw
MTE5MDMxNDA3WjA3MRAwDgYDVQQDEwdjYS1ub25lMQswCQYDVQQGEwJCRTEWMBQG
A1UEChMNR3JlbXdlbGwgYnZiYTCBnzANBgkqhkiG9w0BAQEFAAOBjQAwgYkCgYEA
6IoWPXvyeXLQZMtkTB5RNEB0d2umbfzgnH71AbebvTDfBQSnR++8429WzmDJQ7KK
C2p04kBHEpKuVlD4wHL5qipfL/K84c4Pmo+eeTWaAwgr+JSikKZCEpsFwMkL065T
vjXzSTbSBgz4M98RKpmh7t9pAJmz1ZYFxqicWJJjtpsCAwEAATANBgkqhkiG9w0B
AQUFAAOCAgEAdqP768dpWnlzczc8OLSo1gCT2qhotAixhLTO8EfE0CcekGr1zSDB
kQ7xxCptM8mO3UWa+5DK1jWvsSBQ4w5pi9XQCON1yOiBd6gipzEtBbD8qqzmkCvZ
648eVeqvvN8YxcjhT93wFLsh9o7mdO6/G41KmRc2WOWrvJHNZYs0Qqvrz0gy2bwv
Ri74GiYT4lR+koO6TlCFQsqr+bARDCb8wmslJMgSdUwpC82Kxl929FFrs64G61Gx
Hi1m+yxhKi8RmNjpOWGNR487RkHuYQgGXpr6le9KWG5kX5lLEO3LJcwh7YX6Pv4a
d+yNX5ll04aZ6/o2Hx1nL1SVCJNeyVN1+j25tgEAHUxUlce0bgPyxJSWWv3vNr/K
bPMwwHBvHGLzHIPt3FMDK8LuHYSo+izrcH7SuGjnlFKkDKZcW8xNk+gaj8Y6gjz+
4oRG3e6TMuYh9aw62k0yfaLmpAefiLb+Wc6m4MgV3155NegpCbQQ/27gNrhK/Wf7
jfLlwIT7qQNHB8XSEjBZggXKXCzhhLPDaQJ7kaNLKFRmMNIBQZzjrzc+Ks+U1BMo
55ETLnYlXeoBKxUOjBPiyJ9C/KQPPo0gZpZCgcb5XOt6GPLACc6Q666qnpsTx+3u
/jjLg2RRIPFsZjfhz+rOgKq51kS2zv6NIxBaf6Yu5r8PbN09FlWxCkw=
-----END CERTIFICATE-----
