Certificate:
    Data:
        Version: 4 (0x3)
        Serial Number: 1 (0x1)
    Signature Algorithm: sha1WithRSAEncryption
        Issuer: C=BE, CN=txjsonrpc-test-ca
        Validity
            Not Before: Jan  1 00:00:00 1970 GMT
            Not After : Jan 19 03:14:07 2038 GMT
        Subject: CN=ca-none, C=BE, O=Gremwell bvba
        Subject Public Key Info:
            Public Key Algorithm: rsaEncryption
                Public-Key: (1024 bit)
                Modulus:
                    00:e8:cc:a4:b8:81:08:56:32:75:08:f8:ed:07:c1:
                    23:44:ef:2a:0a:57:ae:4b:06:e3:ff:bf:e2:ab:5c:
                    57:f0:5c:cb:38:5e:8a:7b:86:5a:c9:dd:1a:cf:cc:
                    3a:8c:4d:90:ba:6a:c1:cc:8c:27:c5:ae:e5:79:4d:
                    4c:2f:b5:00:fa:2a:15:82:eb:8d:c3:5f:31:59:72:
                    5f:6f:d1:49:c4:7a:a6:9c:b9:47:a7:36:1f:2e:20:
                    2b:65:5f:a8:c5:5f:1d:10:7a:69:6a:23:3d:e4:d5:
                    12:5d:56:96:fd:c5:9b:09:82:ae:d5:87:84:c0:b6:
                    2f:02:83:b4:47:15:91:ff:6d
                Exponent: 65537 (0x10001)
    Signature Algorithm: sha1WithRSAEncryption
         2d:d9:a9:df:33:f1:7f:2d:3c:ae:1f:51:b4:c5:59:78:ee:3e:
         2e:3e:03:39:d7:8b:f1:05:0f:03:86:60:f4:15:9c:a0:26:0a:
         b9:df:ff:43:40:8c:35:e0:50:c8:06:ac:cf:50:55:6b:cb:ec:
         42:ba:7b:4a:25:32:96:6c:61:f5:f5:58:18:5a:a3:92:e7:07:
         2e:1e:ff:20:11:ff:47:4a:15:a7:d5:d4:34:ed:5e:ba:24:d3:
         4f:d4:56:e9:5e:b6:62:d1:fe:cd:9a:b7:7d:f1:b1:e4:70:fb:
         cd:23:c4:91:7a:3f:ed:4b:ff:f6:02:ca:c1:c2:00:1e:37:45:
         a7:54:33:f6:ca:8c:66:92:08:7d:f6:8d:56:a0:cc:70:ff:22:
         6b:7a:29:04:f3:6f:18:7a:28:68:64:91:2a:f4:c6:ef:ea:77:
         07:4c:7a:ce:ae:4f:8c:a5:8e:ab:e5:98:cf:ad:7a:7a:6a:a6:
         4e:8d:8f:09:ca:60:f9:a6:b7:2d:a3:c6:b4:89:de:be:a5:c5:
         e9:71:f4:f4:d5:68:bd:06:c0:ba:e1:90:bb:52:a8:90:8b:9f:
         04:d3:a0:4e:8b:09:af:f1:58:8b:4b:55:ae:3e:f9:78:fc:28:
         f8:5a:7d:d6:cd:2c:e2:ac:dc:08:a3:b9:38:7c:3a:d2:70:1e:
         aa:ed:df:16:77:30:b8:d8:32:69:dc:9a:62:7d:1a:fb:6e:d8:
         89:e0:c2:a0:2e:3d:bc:05:2d:4a:0a:36:18:5c:17:02:86:15:
         8a:3e:cf:f7:42:98:cb:ef:f9:6f:2f:07:44:0c:aa:8f:f5:b5:
         50:63:bd:3b:0e:21:b3:08:1c:23:2e:d7:17:a2:33:71:63:d3:
         a1:cd:29:fd:f9:70:bc:2a:fc:bc:16:71:02:2a:36:29:4e:4c:
         e7:d5:79:fd:86:87:2c:9d:c6:77:7f:2b:ff:e4:90:f2:56:b2:
         22:a2:ce:ab:5c:58:a7:ee:cc:a9:27:a5:fb:fd:73:a9:4d:31:
         87:50:e0:99:08:cd:21:b5:53:8a:d0:bc:be:34:8b:8b:b2:53:
         0a:09:c7:2a:8c:e3:1e:95:c1:08:57:64:12:a7:c6:5f:14:5d:
         60:07:e1:a6:87:22:1f:13:eb:b6:d8:6f:95:1d:26:aa:35:8e:
         f7:b8:d2:8c:e8:30:a1:31:85:fc:60:71:00:11:50:1d:dc:7e:
         0a:fc:b9:3a:de:fd:f3:34:ad:4c:aa:d6:78:5d:97:a2:ca:db:
         ec:d0:bb:c2:51:83:66:2e:d1:f1:1e:be:94:89:4d:a6:67:00:
         10:63:44:00:01:b9:7b:82:35:2d:01:d9:7f:2d:96:bd:46:12:
         68:fa:df:ab:cb:03:7c:a0
-----BEGIN CERTIFICATE-----
MIIDVTCCAT2gAwIBAwIBATANBgkqhkiG9w0BAQUFADApMQswCQYDVQQGEwJCRTEa
MBgGA1UEAxMRdHhqc29ucnBjLXRlc3QtY2EwHhcNNzAwMTAxMDAwMDAwWhcNMzgw
MTE5MDMxNDA3WjA3MRAwDgYDVQQDEwdjYS1ub25lMQswCQYDVQQGEwJCRTEWMBQG
A1UEChMNR3JlbXdlbGwgYnZiYTCBnzANBgkqhkiG9w0BAQEFAAOBjQAwgYkCgYEA
6MykuIEIVjJ1CPjtB8EjRO8qCleuSwbj/7/iq1xX8FzLOF6Ke4Zayd0az8w6jE2Q
umrBzIwnxa7leU1ML7UA+ioVguuNw18xWXJfb9FJxHqmnLlHpzYfLiArZV+oxV8d
EHppaiM95NUSXVaW/cWbCYKu1YeEwLYvAoO0RxWR/20CAwEAATANBgkqhkiG9w0B
AQUFAAOCAgEALdmp3zPxfy08rh9RtMVZeO4+Lj4DOdeL8QUPA4Zg9BWcoCYKud//
Q0CMNeBQyAasz1BVa8vsQrp7SiUylmxh9fVYGFqjkucHLh7/IBH/R0oVp9XUNO1e
uiTTT9RW6V62YtH+zZq3ffGx5HD7zSPEkXo/7Uv/9gLKwcIAHjdFp1Qz9sqMZpII
ffaNVqDMcP8ia3opBPNvGHooaGSRKvTG7+p3B0x6zq5PjKWOq+WYz616emqmTo2P
Ccpg+aa3LaPGtInevqXF6XH09NVovQbAuuGQu1KokIufBNOgTosJr/FYi0tVrj75
ePwo+Fp91s0s4qzcCKO5OHw60nAequ3fFncwuNgyadyaYn0a+27YieDCoC49vAUt
Sgo2GFwXAoYVij7P90KYy+/5by8HRAyqj/W1UGO9Ow4hswgcIy7XF6IzcWPToc0p
/flwvCr8vBZxAio2KU5M59V5/YaHLJ3Gd38r/+SQ8layIqLOq1xYp+7MqSel+/1z
qU0xh1DgmQjNIbVTitC8vjSLi7JTCgnHKozjHpXBCFdkEqfGXxRdYAfhpociHxPr
tthvlR0mqjWO97jSjOgwoTGF/GBxABFQHdx+Cvy5Ot798zStTKrWeF2Xosrb7NC7
wlGDZi7R8R6+lIlNpmcAEGNEAAG5e4I1LQHZfy2WvUYSaPrfq8sDfKA=
-----END CERTIFICATE-----
Certificate:
    Data:
        Version: 3 (0x2)
        Serial Number: 10219423159405941259 (0x8dd2af37f9ca920b)
    Signature Algorithm: sha1WithRSAEncryption
        Issuer: C=BE, CN=txjsonrpc-test-ca
        Validity
            Not Before: Jun 23 15:46:37 2012 GMT
            Not After : Jun 21 15:46:37 2022 GMT
        Subject: C=BE, CN=txjsonrpc-test-ca
        Subject Public Key Info:
            Public Key Algorithm: rsaEncryption
                Public-Key: (4096 bit)
                Modulus:
                    00:d1:25:af:77:c5:a8:72:cf:90:b9:39:10:fb:7b:
                    75:2c:a1:da:6a:95:e5:44:0c:d6:25:4b:58:7f:bb:
                    07:82:59:49:58:32:85:24:cc:3e:77:db:e1:a7:4f:
                    c8:b5:cb:ee:45:38:bd:bc:fb:e3:76:3b:88:04:ca:
                    ab:3a:a3:96:3b:5f:93:9c:28:a6:61:97:dc:a2:3f:
                    a0:93:2b:56:6c:cf:d3:4f:6a:9e:05:d3:1c:cd:ef:
                    75:80:1a:98:b7:92:49:14:33:b8:c4:7c:73:8c:7e:
                    83:a5:81:a2:59:8c:8b:a3:51:36:6d:68:ac:f2:f1:
                    ed:6f:49:d9:af:7a:63:c1:43:31:42:b6:c7:cd:b9:
                    78:b7:33:98:70:92:6c:9e:04:7a:7b:f0:6d:38:87:
                    eb:00:13:17:b9:d9:ec:b4:66:bb:51:d3:fd:81:e3:
                    0e:88:71:23:d2:80:2a:61:de:ab:25:02:47:a9:c1:
                    6b:c9:69:ae:da:47:b6:49:74:ac:a6:e1:c1:76:ba:
                    6d:b1:d9:68:6e:1c:37:a8:e2:18:60:37:b6:58:13:
                    6c:c7:92:7c:c6:45:8c:ef:c3:81:73:10:dc:2f:31:
                    e2:b9:05:5a:9e:28:70:5a:3e:1d:b8:68:71:81:c9:
                    e8:fe:1f:c3:a0:13:f8:e4:24:12:ba:91:8e:15:d2:
                    03:f1:8c:b0:aa:e2:34:e4:6b:f8:06:f6:23:8a:92:
                    43:a6:05:dc:e9:c7:a5:a8:06:d7:6e:91:52:72:47:
                    ab:ae:87:fe:b3:0f:04:87:6f:4b:22:29:e9:a9:06:
                    52:58:7d:03:16:d7:d5:31:44:b4:f1:51:44:a7:2a:
                    ba:5e:09:19:ec:4c:a2:e0:58:fe:0d:4e:b7:90:4d:
                    02:ac:2a:ad:99:14:65:3b:0a:3c:73:45:56:b2:0f:
                    10:25:24:51:79:57:1a:34:1a:10:6f:60:e0:fc:81:
                    db:ca:c2:e2:85:1b:4c:72:13:5c:9d:76:cc:d0:21:
                    33:31:56:82:8f:c5:57:b9:44:fd:8b:76:c1:b6:e4:
                    21:8b:35:9a:ee:54:74:9f:72:6b:19:84:d7:a2:3c:
                    a5:6e:11:0a:f1:93:04:2e:dd:7c:4c:7d:62:10:d4:
                    1b:8b:87:f6:ed:bf:12:b1:8b:f0:9a:7a:ee:02:94:
                    e1:3c:46:2b:7f:9c:54:fb:2e:61:c9:1c:ef:fc:de:
                    25:bc:2d:75:1b:1f:49:5e:44:3b:15:93:ad:c4:89:
                    d9:ae:3c:da:54:ef:d9:af:3a:16:cb:94:1b:6a:14:
                    e4:42:f9:75:33:46:6e:fb:40:bc:f8:82:36:cf:60:
                    f5:c2:a2:98:23:a7:2a:ae:c1:aa:22:f8:87:da:b7:
                    9c:a4:cf
                Exponent: 65537 (0x10001)
        X509v3 extensions:
            X509v3 Subject Key Identifier: 
                9D:8F:84:76:94:CD:07:FE:A3:E8:8B:D7:F9:D9:6E:EF:CA:75:51:7B
            X509v3 Authority Key Identifier: 
                keyid:9D:8F:84:76:94:CD:07:FE:A3:E8:8B:D7:F9:D9:6E:EF:CA:75:51:7B
                DirName:/C=BE/CN=txjsonrpc-test-ca
                serial:8D:D2:AF:37:F9:CA:92:0B

            X509v3 Basic Constraints: critical
                CA:TRUE
            Netscape Cert Type: 
                SSL CA, S/MIME CA
            X509v3 Issuer Alternative Name: 
                <EMPTY>

            Netscape Comment: 
                Test CA for txjsonrcp
            X509v3 Subject Alternative Name: 
                <EMPTY>

            X509v3 Key Usage: critical
                Certificate Sign, CRL Sign
    Signature Algorithm: sha1WithRSAEncryption
         06:82:86:81:a9:1b:7e:2d:ef:f5:fc:cc:d2:9d:d6:82:ad:d0:
         6f:7e:3d:b9:5c:b2:0f:3a:64:21:9a:fb:53:b2:93:81:dc:1a:
         24:fc:b8:30:57:a2:c7:71:0d:9c:1a:0b:8a:6c:89:52:8b:8a:
         f5:af:95:3e:b8:08:39:ee:36:50:ac:60:4d:df:2b:49:a2:72:
         f1:3f:12:3c:d9:55:56:a4:9a:77:2b:77:fa:16:b5:76:d9:f4:
         c4:51:6b:b9:fe:2f:a3:52:e8:64:80:49:22:6d:05:42:87:af:
         9d:85:6c:fa:c9:9b:48:39:7b:89:f5:a0:1e:ff:11:d3:9c:78:
         b1:b2:f6:4d:b1:e8:b3:98:23:2c:d4:20:e1:a1:01:3e:26:0a:
         5b:8e:eb:58:45:22:cf:e1:94:ad:84:40:b0:fb:ff:25:5f:31:
         9a:49:0b:36:ad:c6:1a:b0:42:60:40:e2:a2:3c:5a:36:41:89:
         fc:10:c4:60:ea:d4:85:7b:36:84:df:aa:81:cc:69:e7:52:ca:
         c1:46:b1:79:93:51:4f:24:84:42:14:3a:20:a0:6c:27:76:40:
         0f:96:7e:4e:c3:0c:37:b3:e3:73:49:86:58:31:00:1e:e7:0f:
         87:74:b6:4e:6e:1c:7d:87:a4:33:04:c9:76:ec:e5:3a:85:5f:
         a8:d1:ad:21:64:5e:c5:6a:df:b1:02:6e:65:a4:87:72:06:07:
         da:e5:f2:af:2b:a5:eb:18:80:67:83:a5:3c:e6:ed:d1:58:f9:
         90:5c:d6:e9:2f:76:c1:58:13:b8:bd:88:8a:f3:04:48:bb:42:
         8f:7f:c6:db:b4:30:3f:bb:6c:d5:47:e5:ae:8d:4b:da:92:a5:
         db:d3:6e:a8:9b:c2:6b:56:af:34:63:82:e6:78:f8:1f:54:d7:
         41:aa:a3:c9:7c:a6:83:41:bf:6e:33:7c:ae:e6:92:bd:da:27:
         b4:bc:e2:90:4f:33:1b:01:a1:cd:02:13:7a:31:ef:00:d6:9a:
         6e:38:6b:a7:cb:70:98:a8:0f:ff:1c:56:a8:b7:e6:d2:42:5a:
         bb:f4:78:27:71:13:d0:e8:43:eb:bc:2d:4f:e4:ea:4d:4f:76:
         7f:53:38:34:eb:13:e2:3d:c6:14:98:86:1c:ab:2c:0e:b7:68:
         2e:bd:63:a9:6a:8f:d5:22:2d:ab:13:d7:62:54:51:ff:5c:37:
         08:04:27:da:f9:57:77:05:18:73:88:5f:b0:c1:65:50:36:09:
         d6:c7:f5:ae:6e:3f:04:d1:84:3c:21:74:1d:bd:0a:fb:76:d0:
         13:2b:62:bb:24:48:43:89:d0:18:5c:b4:ad:ea:98:af:6d:fc:
         1c:6b:1f:06:64:54:23:88
-----BEGIN CERTIFICATE-----
MIIFwzCCA6ugAwIBAgIJAI3Srzf5ypILMA0GCSqGSIb3DQEBBQUAMCkxCzAJBgNV
BAYTAkJFMRowGAYDVQQDExF0eGpzb25ycGMtdGVzdC1jYTAeFw0xMjA2MjMxNTQ2
MzdaFw0yMjA2MjExNTQ2MzdaMCkxCzAJBgNVBAYTAkJFMRowGAYDVQQDExF0eGpz
b25ycGMtdGVzdC1jYTCCAiIwDQYJKoZIhvcNAQEBBQADggIPADCCAgoCggIBANEl
r3fFqHLPkLk5EPt7dSyh2mqV5UQM1iVLWH+7B4JZSVgyhSTMPnfb4adPyLXL7kU4
vbz743Y7iATKqzqjljtfk5wopmGX3KI/oJMrVmzP009qngXTHM3vdYAamLeSSRQz
uMR8c4x+g6WBolmMi6NRNm1orPLx7W9J2a96Y8FDMUK2x825eLczmHCSbJ4Eenvw
bTiH6wATF7nZ7LRmu1HT/YHjDohxI9KAKmHeqyUCR6nBa8lprtpHtkl0rKbhwXa6
bbHZaG4cN6jiGGA3tlgTbMeSfMZFjO/DgXMQ3C8x4rkFWp4ocFo+HbhocYHJ6P4f
w6AT+OQkErqRjhXSA/GMsKriNORr+Ab2I4qSQ6YF3OnHpagG126RUnJHq66H/rMP
BIdvSyIp6akGUlh9AxbX1TFEtPFRRKcqul4JGexMouBY/g1Ot5BNAqwqrZkUZTsK
PHNFVrIPECUkUXlXGjQaEG9g4PyB28rC4oUbTHITXJ12zNAhMzFWgo/FV7lE/Yt2
wbbkIYs1mu5UdJ9yaxmE16I8pW4RCvGTBC7dfEx9YhDUG4uH9u2/ErGL8Jp67gKU
4TxGK3+cVPsuYckc7/zeJbwtdRsfSV5EOxWTrcSJ2a482lTv2a86FsuUG2oU5EL5
dTNGbvtAvPiCNs9g9cKimCOnKq7BqiL4h9q3nKTPAgMBAAGjge0wgeowHQYDVR0O
BBYEFJ2PhHaUzQf+o+iL1/nZbu/KdVF7MFkGA1UdIwRSMFCAFJ2PhHaUzQf+o+iL
1/nZbu/KdVF7oS2kKzApMQswCQYDVQQGEwJCRTEaMBgGA1UEAxMRdHhqc29ucnBj
LXRlc3QtY2GCCQCN0q83+cqSCzAPBgNVHRMBAf8EBTADAQH/MBEGCWCGSAGG+EIB
AQQEAwIBBjAJBgNVHRIEAjAAMCQGCWCGSAGG+EIBDQQXFhVUZXN0IENBIGZvciB0
eGpzb25yY3AwCQYDVR0RBAIwADAOBgNVHQ8BAf8EBAMCAQYwDQYJKoZIhvcNAQEF
BQADggIBAAaChoGpG34t7/X8zNKd1oKt0G9+Pblcsg86ZCGa+1Oyk4HcGiT8uDBX
osdxDZwaC4psiVKLivWvlT64CDnuNlCsYE3fK0micvE/EjzZVVakmncrd/oWtXbZ
9MRRa7n+L6NS6GSASSJtBUKHr52FbPrJm0g5e4n1oB7/EdOceLGy9k2x6LOYIyzU
IOGhAT4mCluO61hFIs/hlK2EQLD7/yVfMZpJCzatxhqwQmBA4qI8WjZBifwQxGDq
1IV7NoTfqoHMaedSysFGsXmTUU8khEIUOiCgbCd2QA+Wfk7DDDez43NJhlgxAB7n
D4d0tk5uHH2HpDMEyXbs5TqFX6jRrSFkXsVq37ECbmWkh3IGB9rl8q8rpesYgGeD
pTzm7dFY+ZBc1ukvdsFYE7i9iIrzBEi7Qo9/xtu0MD+7bNVH5a6NS9qSpdvTbqib
wmtWrzRjguZ4+B9U10Gqo8l8poNBv24zfK7mkr3aJ7S84pBPMxsBoc0CE3ox7wDW
mm44a6fLcJioD/8cVqi35tJCWrv0eCdxE9DoQ+u8LU/k6k1Pdn9TODTrE+I9xhSY
hhyrLA63aC69Y6lqj9UiLasT12JUUf9cNwgEJ9r5V3cFGHOIX7DBZVA2CdbH9a5u
PwTRhDwhdB29Cvt20BMrYrskSEOJ0BhctK3qmK9t/BxrHwZkVCOI
-----END CERTIFICATE-----
