Certificate:
    Data:
        Version: 4 (0x3)
        Serial Number: 1 (0x1)
    Signature Algorithm: sha1WithRSAEncryption
        Issuer: CN=www.example.com, C=BE, O=Gremwell bvba
        Validity
            Not Before: Jan  1 00:00:00 1970 GMT
            Not After : Jan 19 03:14:07 2038 GMT
        Subject: CN=www.example.com, C=BE, O=Gremwell bvba
        Subject Public Key Info:
            Public Key Algorithm: rsaEncryption
                Public-Key: (1024 bit)
                Modulus:
                    00:ac:06:89:10:82:4f:4e:9e:3f:37:55:fd:9f:de:
                    22:41:77:98:06:88:20:26:41:69:8f:f6:76:d6:f8:
                    a1:9b:37:fc:d8:48:db:67:9c:c8:5d:01:a5:57:92:
                    4d:fc:5b:bd:4c:6d:7d:b8:a3:a1:66:01:0c:b7:da:
                    49:1b:31:f4:11:00:a8:56:22:3c:ae:b3:ef:30:3f:
                    76:34:19:63:30:09:c9:e9:64:f1:a1:f4:b5:3a:cc:
                    ca:e5:df:3b:13:5c:49:8d:9a:43:78:64:e7:db:2e:
                    49:bf:c4:12:c8:c4:55:1a:13:5e:88:3e:11:d4:8d:
                    a1:d7:f9:b6:16:66:fc:aa:cf
                Exponent: 65537 (0x10001)
    Signature Algorithm: sha1WithRSAEncryption
         94:63:9c:05:83:87:bd:79:c8:8c:c8:4a:e2:6f:4a:3a:53:34:
         ff:b1:f0:01:0b:d6:31:70:c7:1f:d1:2d:0c:cf:cf:cd:6c:e3:
         84:09:4e:b3:28:79:b7:9f:0d:98:5b:30:0d:ee:ae:90:ee:2b:
         cc:d6:57:19:e7:b6:91:ae:59:f3:80:b8:2e:98:67:0f:11:bb:
         de:94:d2:cb:31:55:c1:6b:a0:5c:26:25:ac:3b:3f:77:a8:c8:
         fb:42:3e:30:b4:c5:fc:aa:0e:88:70:2b:c5:3c:fe:d4:fe:83:
         ac:64:5f:70:a0:0b:98:71:92:fe:03:52:21:33:63:c6:98:02:
         99:75
-----BEGIN CERTIFICATE-----
MIIB8jCCAVugAwIBAwIBATANBgkqhkiG9w0BAQUFADA/MRgwFgYDVQQDEw93d3cu
ZXhhbXBsZS5jb20xCzAJBgNVBAYTAkJFMRYwFAYDVQQKEw1HcmVtd2VsbCBidmJh
MB4XDTcwMDEwMTAwMDAwMFoXDTM4MDExOTAzMTQwN1owPzEYMBYGA1UEAxMPd3d3
LmV4YW1wbGUuY29tMQswCQYDVQQGEwJCRTEWMBQGA1UEChMNR3JlbXdlbGwgYnZi
YTCBnzANBgkqhkiG9w0BAQEFAAOBjQAwgYkCgYEArAaJEIJPTp4/N1X9n94iQXeY
BoggJkFpj/Z21vihmzf82EjbZ5zIXQGlV5JN/Fu9TG19uKOhZgEMt9pJGzH0EQCo
ViI8rrPvMD92NBljMAnJ6WTxofS1OszK5d87E1xJjZpDeGTn2y5Jv8QSyMRVGhNe
iD4R1I2h1/m2Fmb8qs8CAwEAATANBgkqhkiG9w0BAQUFAAOBgQCUY5wFg4e9eciM
yErib0o6UzT/sfABC9YxcMcf0S0Mz8/NbOOECU6zKHm3nw2YWzAN7q6Q7ivM1lcZ
57aRrlnzgLgumGcPEbvelNLLMVXBa6BcJiWsOz93qMj7Qj4wtMX8qg6IcCvFPP7U
/oOsZF9woAuYcZL+A1IhM2PGmAKZdQ==
-----END CERTIFICATE-----
