Certificate:
    Data:
        Version: 4 (0x3)
        Serial Number: 1 (0x1)
    Signature Algorithm: sha1WithRSAEncryption
        Issuer: C=BE, CN=txjsonrpc-test-ca
        Validity
            Not Before: Jan  1 00:00:00 1970 GMT
            Not After : Jan 19 03:14:07 2038 GMT
        Subject: CN=ca-none, C=BE, O=Gremwell bvba
        Subject Public Key Info:
            Public Key Algorithm: rsaEncryption
                Public-Key: (1024 bit)
                Modulus:
                    00:f2:39:1f:c1:dd:43:ea:0e:a8:c8:30:0b:03:3a:
                    99:29:07:4a:32:6d:05:0a:79:b5:ac:a2:06:98:a9:
                    a7:ce:1f:4e:8b:8c:d7:6b:72:48:f2:32:5c:91:83:
                    7f:8a:b9:b7:ca:b0:d1:a6:ae:a1:a8:c8:ef:12:5f:
                    7d:91:b6:00:15:ac:c1:9b:41:e7:04:ea:eb:eb:5f:
                    01:a1:cc:c9:08:98:1a:52:a2:55:d4:d9:7b:77:0d:
                    43:9f:51:48:f1:a7:60:2b:d8:a1:0d:d9:98:52:18:
                    af:39:09:c4:9a:27:3c:4c:64:d4:16:fa:89:6e:3a:
                    20:47:0f:a7:d6:ec:80:97:89
                Exponent: 65537 (0x10001)
    Signature Algorithm: sha1WithRSAEncryption
         1d:5e:d1:4e:75:9e:07:ae:f8:66:c5:a9:a0:48:c2:5c:ab:83:
         51:80:8b:51:14:0c:16:4a:7c:9f:c0:b5:86:c5:e8:38:de:9f:
         e9:8f:d6:42:26:d5:ad:54:cc:81:5d:98:e5:1b:a2:37:4b:86:
         70:75:9b:49:60:ca:1e:56:e1:8a:1a:69:e3:86:8d:20:dd:8d:
         16:a7:1b:28:22:c5:87:0c:11:0f:85:fc:2d:33:0c:b5:c5:f8:
         bf:23:d1:58:74:b8:47:76:71:17:ce:8a:c9:f5:b8:81:8e:f2:
         d7:eb:20:8c:43:f0:d5:bc:fe:23:21:18:17:e4:18:26:f2:c2:
         59:20:d7:07:6c:e3:4c:f9:70:5c:86:9f:b5:e4:e8:7e:77:53:
         f7:25:45:b6:8d:51:6b:fc:ad:05:62:80:75:6c:87:7f:76:65:
         50:fa:81:ae:48:a5:fd:f4:ea:dc:ad:4e:36:11:9d:cc:c7:f0:
         67:da:49:5b:f9:2e:bf:0d:b7:63:1d:c6:0f:6e:0c:dc:30:12:
         7f:3a:61:ac:7b:1c:e7:e1:e1:88:9e:d2:d7:6a:27:cd:0b:aa:
         6d:c5:f7:98:ba:08:6d:b4:15:1a:59:9a:27:fa:4f:64:fc:c2:
         e4:25:e0:51:04:44:01:36:00:2e:8b:f6:f2:8b:12:cd:16:a2:
         57:66:cf:b5:46:83:42:21:0d:e3:ea:23:25:3d:7f:c5:4a:f9:
         aa:b0:65:be:0f:d2:86:b9:b1:83:ef:eb:f7:25:22:19:3c:b3:
         12:68:eb:6e:67:d2:35:12:9b:6f:2a:99:2a:7d:bf:84:45:06:
         ef:62:19:14:fb:75:29:a9:b1:ee:e2:f0:09:93:de:91:70:6e:
         c5:6c:35:93:01:f7:4f:84:54:f1:62:19:ab:cc:75:c4:f0:65:
         21:af:7c:bc:43:07:e7:7d:cf:e1:4c:0e:1d:93:1b:62:4a:0e:
         3f:4b:ad:a6:41:2b:78:f9:2d:ca:1e:e7:ae:05:6f:dc:79:17:
         98:db:98:22:0f:47:29:a3:ed:2a:da:65:32:05:19:33:ca:8e:
         6a:88:63:a3:bd:44:51:be:32:f5:dd:7e:78:12:7d:23:36:e3:
         89:35:84:0b:66:c9:ba:ef:c5:47:a3:d9:79:98:43:81:af:6e:
         8c:2e:52:d2:b8:92:7e:b5:d9:39:10:4e:c5:63:16:5e:b6:c3:
         cc:19:20:eb:02:0a:72:32:a6:9d:13:e2:ef:f0:76:06:0b:b9:
         ec:bc:7f:99:e6:22:85:d8:13:f3:22:f6:f7:d8:ed:a8:d2:94:
         05:86:ed:05:9a:c8:26:02:54:93:29:ae:dd:f8:52:2d:ec:7f:
         41:bd:f0:cc:15:e7:dd:78
-----BEGIN CERTIFICATE-----
MIIDVTCCAT2gAwIBAwIBATANBgkqhkiG9w0BAQUFADApMQswCQYDVQQGEwJCRTEa
MBgGA1UEAxMRdHhqc29ucnBjLXRlc3QtY2EwHhcNNzAwMTAxMDAwMDAwWhcNMzgw
MTE5MDMxNDA3WjA3MRAwDgYDVQQDEwdjYS1ub25lMQswCQYDVQQGEwJCRTEWMBQG
A1UEChMNR3JlbXdlbGwgYnZiYTCBnzANBgkqhkiG9w0BAQEFAAOBjQAwgYkCgYEA
8jkfwd1D6g6oyDALAzqZKQdKMm0FCnm1rKIGmKmnzh9Oi4zXa3JI8jJckYN/irm3
yrDRpq6hqMjvEl99kbYAFazBm0HnBOrr618BoczJCJgaUqJV1Nl7dw1Dn1FI8adg
K9ihDdmYUhivOQnEmic8TGTUFvqJbjogRw+n1uyAl4kCAwEAATANBgkqhkiG9w0B
AQUFAAOCAgEAHV7RTnWeB674ZsWpoEjCXKuDUYCLURQMFkp8n8C1hsXoON6f6Y/W
QibVrVTMgV2Y5RuiN0uGcHWbSWDKHlbhihpp44aNIN2NFqcbKCLFhwwRD4X8LTMM
tcX4vyPRWHS4R3ZxF86KyfW4gY7y1+sgjEPw1bz+IyEYF+QYJvLCWSDXB2zjTPlw
XIafteTofndT9yVFto1Ra/ytBWKAdWyHf3ZlUPqBrkil/fTq3K1ONhGdzMfwZ9pJ
W/kuvw23Yx3GD24M3DASfzphrHsc5+HhiJ7S12onzQuqbcX3mLoIbbQVGlmaJ/pP
ZPzC5CXgUQREATYALov28osSzRaiV2bPtUaDQiEN4+ojJT1/xUr5qrBlvg/Shrmx
g+/r9yUiGTyzEmjrbmfSNRKbbyqZKn2/hEUG72IZFPt1Kamx7uLwCZPekXBuxWw1
kwH3T4RU8WIZq8x1xPBlIa98vEMH533P4UwOHZMbYkoOP0utpkErePktyh7nrgVv
3HkXmNuYIg9HKaPtKtplMgUZM8qOaohjo71EUb4y9d1+eBJ9IzbjiTWEC2bJuu/F
R6PZeZhDga9ujC5S0riSfrXZORBOxWMWXrbDzBkg6wIKcjKmnRPi7/B2Bgu57Lx/
meYihdgT8yL299jtqNKUBYbtBZrIJgJUkymu3fhSLex/Qb3wzBXn3Xg=
-----END CERTIFICATE-----
Certificate:
    Data:
        Version: 3 (0x2)
        Serial Number: 10219423159405941259 (0x8dd2af37f9ca920b)
    Signature Algorithm: sha1WithRSAEncryption
        Issuer: C=BE, CN=txjsonrpc-test-ca
        Validity
            Not Before: Jun 23 15:46:37 2012 GMT
            Not After : Jun 21 15:46:37 2022 GMT
        Subject: C=BE, CN=txjsonrpc-test-ca
        Subject Public Key Info:
            Public Key Algorithm: rsaEncryption
                Public-Key: (4096 bit)
                Modulus:
                    00:d1:25:af:77:c5:a8:72:cf:90:b9:39:10:fb:7b:
                    75:2c:a1:da:6a:95:e5:44:0c:d6:25:4b:58:7f:bb:
                    07:82:59:49:58:32:85:24:cc:3e:77:db:e1:a7:4f:
                    c8:b5:cb:ee:45:38:bd:bc:fb:e3:76:3b:88:04:ca:
                    ab:3a:a3:96:3b:5f:93:9c:28:a6:61:97:dc:a2:3f:
                    a0:93:2b:56:6c:cf:d3:4f:6a:9e:05:d3:1c:cd:ef:
                    75:80:1a:98:b7:92:49:14:33:b8:c4:7c:73:8c:7e:
                    83:a5:81:a2:59:8c:8b:a3:51:36:6d:68:ac:f2:f1:
                    ed:6f:49:d9:af:7a:63:c1:43:31:42:b6:c7:cd:b9:
                    78:b7:33:98:70:92:6c:9e:04:7a:7b:f0:6d:38:87:
                    eb:00:13:17:b9:d9:ec:b4:66:bb:51:d3:fd:81:e3:
                    0e:88:71:23:d2:80:2a:61:de:ab:25:02:47:a9:c1:
                    6b:c9:69:ae:da:47:b6:49:74:ac:a6:e1:c1:76:ba:
                    6d:b1:d9:68:6e:1c:37:a8:e2:18:60:37:b6:58:13:
                    6c:c7:92:7c:c6:45:8c:ef:c3:81:73:10:dc:2f:31:
                    e2:b9:05:5a:9e:28:70:5a:3e:1d:b8:68:71:81:c9:
                    e8:fe:1f:c3:a0:13:f8:e4:24:12:ba:91:8e:15:d2:
                    03:f1:8c:b0:aa:e2:34:e4:6b:f8:06:f6:23:8a:92:
                    43:a6:05:dc:e9:c7:a5:a8:06:d7:6e:91:52:72:47:
                    ab:ae:87:fe:b3:0f:04:87:6f:4b:22:29:e9:a9:06:
                    52:58:7d:03:16:d7:d5:31:44:b4:f1:51:44:a7:2a:
                    ba:5e:09:19:ec:4c:a2:e0:58:fe:0d:4e:b7:90:4d:
                    02:ac:2a:ad:99:14:65:3b:0a:3c:73:45:56:b2:0f:
                    10:25:24:51:79:57:1a:34:1a:10:6f:60:e0:fc:81:
                    db:ca:c2:e2:85:1b:4c:72:13:5c:9d:76:cc:d0:21:
                    33:31:56:82:8f:c5:57:b9:44:fd:8b:76:c1:b6:e4:
                    21:8b:35:9a:ee:54:74:9f:72:6b:19:84:d7:a2:3c:
                    a5:6e:11:0a:f1:93:04:2e:dd:7c:4c:7d:62:10:d4:
                    1b:8b:87:f6:ed:bf:12:b1:8b:f0:9a:7a:ee:02:94:
                    e1:3c:46:2b:7f:9c:54:fb:2e:61:c9:1c:ef:fc:de:
                    25:bc:2d:75:1b:1f:49:5e:44:3b:15:93:ad:c4:89:
                    d9:ae:3c:da:54:ef:d9:af:3a:16:cb:94:1b:6a:14:
                    e4:42:f9:75:33:46:6e:fb:40:bc:f8:82:36:cf:60:
                    f5:c2:a2:98:23:a7:2a:ae:c1:aa:22:f8:87:da:b7:
                    9c:a4:cf
                Exponent: 65537 (0x10001)
        X509v3 extensions:
            X509v3 Subject Key Identifier: 
                9D:8F:84:76:94:CD:07:FE:A3:E8:8B:D7:F9:D9:6E:EF:CA:75:51:7B
            X509v3 Authority Key Identifier: 
                keyid:9D:8F:84:76:94:CD:07:FE:A3:E8:8B:D7:F9:D9:6E:EF:CA:75:51:7B
                DirName:/C=BE/CN=txjsonrpc-test-ca
                serial:8D:D2:AF:37:F9:CA:92:0B

            X509v3 Basic Constraints: critical
                CA:TRUE
            Netscape Cert Type: 
                SSL CA, S/MIME CA
            X509v3 Issuer Alternative Name: 
                <EMPTY>

            Netscape Comment: 
                Test CA for txjsonrcp
            X509v3 Subject Alternative Name: 
                <EMPTY>

            X509v3 Key Usage: critical
                Certificate Sign, CRL Sign
    Signature Algorithm: sha1WithRSAEncryption
         06:82:86:81:a9:1b:7e:2d:ef:f5:fc:cc:d2:9d:d6:82:ad:d0:
         6f:7e:3d:b9:5c:b2:0f:3a:64:21:9a:fb:53:b2:93:81:dc:1a:
         24:fc:b8:30:57:a2:c7:71:0d:9c:1a:0b:8a:6c:89:52:8b:8a:
         f5:af:95:3e:b8:08:39:ee:36:50:ac:60:4d:df:2b:49:a2:72:
         f1:3f:12:3c:d9:55:56:a4:9a:77:2b:77:fa:16:b5:76:d9:f4:
         c4:51:6b:b9:fe:2f:a3:52:e8:64:80:49:22:6d:05:42:87:af:
         9d:85:6c:fa:c9:9b:48:39:7b:89:f5:a0:1e:ff:11:d3:9c:78:
         b1:b2:f6:4d:b1:e8:b3:98:23:2c:d4:20:e1:a1:01:3e:26:0a:
         5b:8e:eb:58:45:22:cf:e1:94:ad:84:40:b0:fb:ff:25:5f:31:
         9a:49:0b:36:ad:c6:1a:b0:42:60:40:e2:a2:3c:5a:36:41:89:
         fc:10:c4:60:ea:d4:85:7b:36:84:df:aa:81:cc:69:e7:52:ca:
         c1:46:b1:79:93:51:4f:24:84:42:14:3a:20:a0:6c:27:76:40:
         0f:96:7e:4e:c3:0c:37:b3:e3:73:49:86:58:31:00:1e:e7:0f:
         87:74:b6:4e:6e:1c:7d:87:a4:33:04:c9:76:ec:e5:3a:85:5f:
         a8:d1:ad:21:64:5e:c5:6a:df:b1:02:6e:65:a4:87:72:06:07:
         da:e5:f2:af:2b:a5:eb:18:80:67:83:a5:3c:e6:ed:d1:58:f9:
         90:5c:d6:e9:2f:76:c1:58:13:b8:bd:88:8a:f3:04:48:bb:42:
         8f:7f:c6:db:b4:30:3f:bb:6c:d5:47:e5:ae:8d:4b:da:92:a5:
         db:d3:6e:a8:9b:c2:6b:56:af:34:63:82:e6:78:f8:1f:54:d7:
         41:aa:a3:c9:7c:a6:83:41:bf:6e:33:7c:ae:e6:92:bd:da:27:
         b4:bc:e2:90:4f:33:1b:01:a1:cd:02:13:7a:31:ef:00:d6:9a:
         6e:38:6b:a7:cb:70:98:a8:0f:ff:1c:56:a8:b7:e6:d2:42:5a:
         bb:f4:78:27:71:13:d0:e8:43:eb:bc:2d:4f:e4:ea:4d:4f:76:
         7f:53:38:34:eb:13:e2:3d:c6:14:98:86:1c:ab:2c:0e:b7:68:
         2e:bd:63:a9:6a:8f:d5:22:2d:ab:13:d7:62:54:51:ff:5c:37:
         08:04:27:da:f9:57:77:05:18:73:88:5f:b0:c1:65:50:36:09:
         d6:c7:f5:ae:6e:3f:04:d1:84:3c:21:74:1d:bd:0a:fb:76:d0:
         13:2b:62:bb:24:48:43:89:d0:18:5c:b4:ad:ea:98:af:6d:fc:
         1c:6b:1f:06:64:54:23:88
-----BEGIN CERTIFICATE-----
MIIFwzCCA6ugAwIBAgIJAI3Srzf5ypILMA0GCSqGSIb3DQEBBQUAMCkxCzAJBgNV
BAYTAkJFMRowGAYDVQQDExF0eGpzb25ycGMtdGVzdC1jYTAeFw0xMjA2MjMxNTQ2
MzdaFw0yMjA2MjExNTQ2MzdaMCkxCzAJBgNVBAYTAkJFMRowGAYDVQQDExF0eGpz
b25ycGMtdGVzdC1jYTCCAiIwDQYJKoZIhvcNAQEBBQADggIPADCCAgoCggIBANEl
r3fFqHLPkLk5EPt7dSyh2mqV5UQM1iVLWH+7B4JZSVgyhSTMPnfb4adPyLXL7kU4
vbz743Y7iATKqzqjljtfk5wopmGX3KI/oJMrVmzP009qngXTHM3vdYAamLeSSRQz
uMR8c4x+g6WBolmMi6NRNm1orPLx7W9J2a96Y8FDMUK2x825eLczmHCSbJ4Eenvw
bTiH6wATF7nZ7LRmu1HT/YHjDohxI9KAKmHeqyUCR6nBa8lprtpHtkl0rKbhwXa6
bbHZaG4cN6jiGGA3tlgTbMeSfMZFjO/DgXMQ3C8x4rkFWp4ocFo+HbhocYHJ6P4f
w6AT+OQkErqRjhXSA/GMsKriNORr+Ab2I4qSQ6YF3OnHpagG126RUnJHq66H/rMP
BIdvSyIp6akGUlh9AxbX1TFEtPFRRKcqul4JGexMouBY/g1Ot5BNAqwqrZkUZTsK
PHNFVrIPECUkUXlXGjQaEG9g4PyB28rC4oUbTHITXJ12zNAhMzFWgo/FV7lE/Yt2
wbbkIYs1mu5UdJ9yaxmE16I8pW4RCvGTBC7dfEx9YhDUG4uH9u2/ErGL8Jp67gKU
4TxGK3+cVPsuYckc7/zeJbwtdRsfSV5EOxWTrcSJ2a482lTv2a86FsuUG2oU5EL5
dTNGbvtAvPiCNs9g9cKimCOnKq7BqiL4h9q3nKTPAgMBAAGjge0wgeowHQYDVR0O
BBYEFJ2PhHaUzQf+o+iL1/nZbu/KdVF7MFkGA1UdIwRSMFCAFJ2PhHaUzQf+o+iL
1/nZbu/KdVF7oS2kKzApMQswCQYDVQQGEwJCRTEaMBgGA1UEAxMRdHhqc29ucnBj
LXRlc3QtY2GCCQCN0q83+cqSCzAPBgNVHRMBAf8EBTADAQH/MBEGCWCGSAGG+EIB
AQQEAwIBBjAJBgNVHRIEAjAAMCQGCWCGSAGG+EIBDQQXFhVUZXN0IENBIGZvciB0
eGpzb25yY3AwCQYDVR0RBAIwADAOBgNVHQ8BAf8EBAMCAQYwDQYJKoZIhvcNAQEF
BQADggIBAAaChoGpG34t7/X8zNKd1oKt0G9+Pblcsg86ZCGa+1Oyk4HcGiT8uDBX
osdxDZwaC4psiVKLivWvlT64CDnuNlCsYE3fK0micvE/EjzZVVakmncrd/oWtXbZ
9MRRa7n+L6NS6GSASSJtBUKHr52FbPrJm0g5e4n1oB7/EdOceLGy9k2x6LOYIyzU
IOGhAT4mCluO61hFIs/hlK2EQLD7/yVfMZpJCzatxhqwQmBA4qI8WjZBifwQxGDq
1IV7NoTfqoHMaedSysFGsXmTUU8khEIUOiCgbCd2QA+Wfk7DDDez43NJhlgxAB7n
D4d0tk5uHH2HpDMEyXbs5TqFX6jRrSFkXsVq37ECbmWkh3IGB9rl8q8rpesYgGeD
pTzm7dFY+ZBc1ukvdsFYE7i9iIrzBEi7Qo9/xtu0MD+7bNVH5a6NS9qSpdvTbqib
wmtWrzRjguZ4+B9U10Gqo8l8poNBv24zfK7mkr3aJ7S84pBPMxsBoc0CE3ox7wDW
mm44a6fLcJioD/8cVqi35tJCWrv0eCdxE9DoQ+u8LU/k6k1Pdn9TODTrE+I9xhSY
hhyrLA63aC69Y6lqj9UiLasT12JUUf9cNwgEJ9r5V3cFGHOIX7DBZVA2CdbH9a5u
PwTRhDwhdB29Cvt20BMrYrskSEOJ0BhctK3qmK9t/BxrHwZkVCOI
-----END CERTIFICATE-----
