Certificate:
    Data:
        Version: 3 (0x2)
        Serial Number: 1 (0x1)
    Signature Algorithm: sha1WithRSAEncryption
        Issuer: CN=ca-false, C=BE, O=Gremwell bvba
        Validity
            Not Before: Jun 23 15:47:38 2012 GMT
            Not After : Jun 23 15:47:38 2013 GMT
        Subject: C=BE, CN=txjsonrpc-pyserver
        Subject Public Key Info:
            Public Key Algorithm: rsaEncryption
                Public-Key: (4096 bit)
                Modulus:
                    00:a4:55:0e:3b:fd:34:78:17:66:9b:bc:3e:1e:81:
                    69:e0:1a:5f:2e:b4:3d:84:64:00:74:c1:30:eb:17:
                    1f:aa:d3:c0:4c:7e:42:38:90:b3:bf:ea:ff:6d:40:
                    c7:cb:41:55:9f:83:31:c4:df:80:a1:77:e6:52:f1:
                    12:a0:89:e2:71:e4:12:5c:33:3f:3d:34:fb:44:5c:
                    13:30:9c:0b:ac:cc:eb:f7:20:d6:bb:6f:f2:8b:fe:
                    cc:85:e8:94:4f:4d:ef:09:b7:f0:5c:00:03:c3:d4:
                    f3:d2:77:09:66:4a:a4:14:cd:3a:00:e5:62:68:2a:
                    66:6c:9b:12:b7:2f:cc:a1:b4:54:38:72:1a:d9:d5:
                    3c:eb:12:30:64:79:a5:42:10:32:f3:9e:d8:d7:52:
                    2f:09:b9:1d:44:7d:74:05:3e:17:38:28:1a:e0:4f:
                    80:7f:ba:98:9b:6e:21:b9:f8:0f:fd:c6:d9:88:ba:
                    fa:ec:e1:19:05:37:20:ee:31:8c:3a:49:85:a5:5c:
                    3d:67:64:7b:08:f4:66:71:be:cb:3b:2d:6a:89:9f:
                    b0:12:e8:bc:22:57:7c:ca:4d:3b:b6:58:57:d5:a3:
                    e0:57:b5:e9:36:f6:90:28:af:77:9a:31:d8:e0:b9:
                    4c:36:cd:57:61:cd:4e:ea:5c:41:6a:19:df:ba:f8:
                    d6:86:c3:2d:d3:33:5c:d8:33:89:22:f0:33:9f:e4:
                    df:4a:e8:76:59:1a:2e:d7:ad:cf:63:e2:2a:76:e7:
                    3d:aa:be:94:98:0c:2b:bf:7f:31:c6:36:21:6c:0d:
                    1e:9f:2f:24:30:23:32:c2:c3:7b:3a:a6:ba:cf:fe:
                    ed:78:23:80:8a:9f:8a:50:cc:77:14:d4:3c:84:cc:
                    26:e7:6b:ef:7e:28:1a:98:71:8c:86:5c:2a:09:e0:
                    5b:63:4d:e8:ce:c8:69:97:ae:7a:1d:99:15:08:cf:
                    1d:a0:07:bb:11:b4:02:c4:73:b5:e2:09:7c:e5:91:
                    3d:1f:54:b9:e5:45:01:a0:75:f5:55:f0:d7:c6:c6:
                    9b:7c:46:4e:90:58:e2:0e:62:67:5f:f1:10:01:ec:
                    00:86:d6:ca:00:13:9a:32:84:7e:a4:39:3c:b2:5e:
                    23:c7:ae:c5:e3:4e:84:86:1c:e1:ed:c4:55:34:df:
                    49:81:48:a9:80:19:5a:1f:cb:c6:1e:a3:8d:bb:2a:
                    b2:03:e0:1c:20:98:65:c6:37:9e:85:d1:fc:2c:22:
                    4e:2c:f0:f0:e2:41:d3:e0:14:ce:d1:1a:64:6b:be:
                    04:0a:44:be:5e:6a:a8:c1:46:cd:af:18:31:ca:77:
                    56:ba:1f:b2:12:7f:b7:f6:4e:a1:8f:cd:96:61:35:
                    0b:2a:4d
                Exponent: 65537 (0x10001)
    Signature Algorithm: sha1WithRSAEncryption
         2f:14:7b:f6:a2:f1:4c:bc:e2:85:75:d9:8d:1b:3b:88:66:f1:
         6d:4e:fb:c2:24:e5:ad:f1:02:14:78:e1:25:9e:ea:20:b4:ae:
         28:74:d5:9d:04:b7:44:f4:bb:48:e3:d0:de:8f:20:29:05:89:
         0d:e6:4a:e7:b2:ff:c3:3b:27:36:d5:b5:a9:b1:ee:37:5d:9f:
         33:22:37:8f:2d:2d:51:73:af:4f:e7:0c:a1:96:ca:4f:75:ca:
         c3:02:8a:46:04:43:39:c9:2a:c2:89:e5:dd:45:d7:91:a6:d7:
         65:21:9a:83:b0:94:d2:ea:11:89:d6:92:93:4f:a2:94:a2:04:
         a5:56
-----BEGIN CERTIFICATE-----
MIIDWjCCAsOgAwIBAgIBATANBgkqhkiG9w0BAQUFADA4MREwDwYDVQQDEwhjYS1m
YWxzZTELMAkGA1UEBhMCQkUxFjAUBgNVBAoTDUdyZW13ZWxsIGJ2YmEwHhcNMTIw
NjIzMTU0NzM4WhcNMTMwNjIzMTU0NzM4WjAqMQswCQYDVQQGEwJCRTEbMBkGA1UE
AxMSdHhqc29ucnBjLXB5c2VydmVyMIICIjANBgkqhkiG9w0BAQEFAAOCAg8AMIIC
CgKCAgEApFUOO/00eBdmm7w+HoFp4BpfLrQ9hGQAdMEw6xcfqtPATH5COJCzv+r/
bUDHy0FVn4MxxN+AoXfmUvESoIniceQSXDM/PTT7RFwTMJwLrMzr9yDWu2/yi/7M
heiUT03vCbfwXAADw9Tz0ncJZkqkFM06AOViaCpmbJsSty/MobRUOHIa2dU86xIw
ZHmlQhAy857Y11IvCbkdRH10BT4XOCga4E+Af7qYm24hufgP/cbZiLr67OEZBTcg
7jGMOkmFpVw9Z2R7CPRmcb7LOy1qiZ+wEui8Ild8yk07tlhX1aPgV7XpNvaQKK93
mjHY4LlMNs1XYc1O6lxBahnfuvjWhsMt0zNc2DOJIvAzn+TfSuh2WRou163PY+Iq
duc9qr6UmAwrv38xxjYhbA0eny8kMCMywsN7Oqa6z/7teCOAip+KUMx3FNQ8hMwm
52vvfigamHGMhlwqCeBbY03ozshpl656HZkVCM8doAe7EbQCxHO14gl85ZE9H1S5
5UUBoHX1VfDXxsabfEZOkFjiDmJnX/EQAewAhtbKABOaMoR+pDk8sl4jx67F406E
hhzh7cRVNN9JgUipgBlaH8vGHqONuyqyA+AcIJhlxjeehdH8LCJOLPDw4kHT4BTO
0Rpka74ECkS+XmqowUbNrxgxyndWuh+yEn+39k6hj82WYTULKk0CAwEAATANBgkq
hkiG9w0BAQUFAAOBgQAvFHv2ovFMvOKFddmNGzuIZvFtTvvCJOWt8QIUeOElnuog
tK4odNWdBLdE9LtI49DejyApBYkN5krnsv/DOyc21bWpse43XZ8zIjePLS1Rc69P
5wyhlspPdcrDAopGBEM5ySrCieXdRdeRptdlIZqDsJTS6hGJ1pKTT6KUogSlVg==
-----END CERTIFICATE-----
Certificate:
    Data:
        Version: 4 (0x3)
        Serial Number: 1 (0x1)
    Signature Algorithm: sha1WithRSAEncryption
        Issuer: C=BE, CN=txjsonrpc-test-ca
        Validity
            Not Before: Jan  1 00:00:00 1970 GMT
            Not After : Jan 19 03:14:07 2038 GMT
        Subject: CN=ca-false, C=BE, O=Gremwell bvba
        Subject Public Key Info:
            Public Key Algorithm: rsaEncryption
                Public-Key: (1024 bit)
                Modulus:
                    00:d1:59:19:85:35:24:59:4a:97:84:92:ae:98:86:
                    65:a3:ac:4b:cc:ad:e5:2b:a8:d1:7f:5e:ed:8f:3e:
                    ac:57:02:c6:6c:84:70:dd:54:06:0d:1d:aa:ae:8a:
                    71:1d:d2:55:c8:e2:51:6b:8c:4e:b3:e8:18:75:b6:
                    84:a7:a5:cc:8e:da:5d:83:42:30:51:73:9e:2d:5a:
                    35:84:53:b9:64:20:79:7b:ef:2c:44:17:70:c0:1d:
                    fa:54:cf:8f:02:49:9b:73:57:19:b5:8e:12:cd:24:
                    c8:9b:21:d5:b7:22:09:be:8c:c0:4b:9b:b0:0b:18:
                    9a:45:07:ad:68:9a:cf:b0:39
                Exponent: 65537 (0x10001)
        X509v3 extensions:
            X509v3 Basic Constraints: critical
                CA:FALSE
    Signature Algorithm: sha1WithRSAEncryption
         45:66:51:4f:b5:44:4b:e8:d7:52:c2:cc:7b:2c:68:0d:18:ae:
         0f:86:7f:cd:63:c4:78:f2:b2:0d:ae:04:32:86:0e:ab:18:11:
         11:c5:7e:f0:65:b9:e1:d4:ae:ae:7b:ec:45:e1:a5:be:c9:35:
         c8:96:58:24:09:cb:ab:bd:4d:8d:9f:60:f8:67:2a:e4:11:e0:
         83:d9:f0:c0:f6:9e:84:bc:eb:a7:e0:06:74:f1:6b:dc:ed:a9:
         cf:0d:8b:c8:fa:d7:f9:d4:2d:c1:52:48:a2:43:7a:1e:04:2b:
         f9:58:80:f5:a5:84:b1:f6:13:e0:b7:7d:f1:6e:5a:d2:99:85:
         17:d3:96:85:fd:be:f5:a7:7b:4c:3a:b5:d4:c8:71:ce:7b:8a:
         11:9f:aa:b3:93:ef:f2:57:79:db:4d:34:87:f3:96:4b:d4:f9:
         d9:1c:9a:22:74:9a:ea:9a:52:0a:a0:5e:6d:cb:f8:7f:7a:6f:
         fa:f1:2c:86:c3:26:bd:3d:de:12:34:ee:7f:7a:18:bb:3a:c5:
         93:ff:b2:fb:72:c2:14:86:14:0f:1f:1d:62:d1:c9:e3:9d:db:
         68:a3:f1:1a:b7:09:12:84:27:51:ae:64:2c:86:20:36:8d:c7:
         4b:47:84:2a:b4:2d:d0:34:54:46:ee:33:f6:98:3a:d3:a5:76:
         a8:5f:fd:e4:1d:49:df:9a:27:b4:97:69:c7:2d:29:ab:cf:36:
         83:c1:ea:42:87:29:58:60:18:b7:19:37:0e:bb:83:27:f3:27:
         e1:c6:77:96:81:28:63:0e:2e:08:1c:5a:ad:7a:53:cf:40:4d:
         84:ba:41:6e:98:2d:9d:d8:27:12:5c:dd:6a:1c:03:f9:d5:b8:
         a7:9b:0a:45:b7:3f:a6:5d:78:9b:b6:e7:b6:97:20:03:8e:66:
         1b:e2:c8:83:b1:5b:0c:25:e5:a6:7d:06:b4:11:61:37:70:9a:
         8e:1c:91:84:76:c5:5f:47:1e:6f:fe:22:2e:38:78:3f:8b:44:
         ed:b7:ea:15:12:93:78:d9:9b:41:7e:0c:0c:5f:c2:29:f7:0f:
         89:fe:26:73:b5:83:9a:14:eb:0c:9f:4e:b5:7c:76:8c:92:d4:
         b6:3f:f6:0a:57:53:93:1a:9e:8f:25:d7:80:3a:82:09:b5:1d:
         40:de:03:d8:83:e0:fe:6a:5c:d1:02:1a:59:79:60:c3:6c:6b:
         69:12:f5:2b:64:58:17:ca:4e:28:9d:9b:92:68:26:b3:73:e8:
         ec:8e:c9:a8:4f:d9:f8:08:70:3f:4f:c5:28:94:15:0f:a5:f5:
         d3:9a:9d:7b:40:b1:39:68:9e:79:30:96:39:9a:23:e1:22:8c:
         fe:0d:73:33:db:bc:d0:12
-----BEGIN CERTIFICATE-----
MIIDaDCCAVCgAwIBAwIBATANBgkqhkiG9w0BAQUFADApMQswCQYDVQQGEwJCRTEa
MBgGA1UEAxMRdHhqc29ucnBjLXRlc3QtY2EwHhcNNzAwMTAxMDAwMDAwWhcNMzgw
MTE5MDMxNDA3WjA4MREwDwYDVQQDEwhjYS1mYWxzZTELMAkGA1UEBhMCQkUxFjAU
BgNVBAoTDUdyZW13ZWxsIGJ2YmEwgZ8wDQYJKoZIhvcNAQEBBQADgY0AMIGJAoGB
ANFZGYU1JFlKl4SSrpiGZaOsS8yt5Suo0X9e7Y8+rFcCxmyEcN1UBg0dqq6KcR3S
VcjiUWuMTrPoGHW2hKelzI7aXYNCMFFzni1aNYRTuWQgeXvvLEQXcMAd+lTPjwJJ
m3NXGbWOEs0kyJsh1bciCb6MwEubsAsYmkUHrWiaz7A5AgMBAAGjEDAOMAwGA1Ud
EwEB/wQCMAAwDQYJKoZIhvcNAQEFBQADggIBAEVmUU+1REvo11LCzHssaA0Yrg+G
f81jxHjysg2uBDKGDqsYERHFfvBlueHUrq577EXhpb7JNciWWCQJy6u9TY2fYPhn
KuQR4IPZ8MD2noS866fgBnTxa9ztqc8Ni8j61/nULcFSSKJDeh4EK/lYgPWlhLH2
E+C3ffFuWtKZhRfTloX9vvWne0w6tdTIcc57ihGfqrOT7/JXedtNNIfzlkvU+dkc
miJ0muqaUgqgXm3L+H96b/rxLIbDJr093hI07n96GLs6xZP/svtywhSGFA8fHWLR
yeOd22ij8Rq3CRKEJ1GuZCyGIDaNx0tHhCq0LdA0VEbuM/aYOtOldqhf/eQdSd+a
J7SXacctKavPNoPB6kKHKVhgGLcZNw67gyfzJ+HGd5aBKGMOLggcWq16U89ATYS6
QW6YLZ3YJxJc3WocA/nVuKebCkW3P6ZdeJu257aXIAOOZhviyIOxWwwl5aZ9BrQR
YTdwmo4ckYR2xV9HHm/+Ii44eD+LRO236hUSk3jZm0F+DAxfwin3D4n+JnO1g5oU
6wyfTrV8doyS1LY/9gpXU5Mano8l14A6ggm1HUDeA9iD4P5qXNECGll5YMNsa2kS
9StkWBfKTiidm5JoJrNz6OyOyahP2fgIcD9PxSiUFQ+l9dOanXtAsTlonnkwljma
I+EijP4NczPbvNAS
-----END CERTIFICATE-----
