Certificate:
    Data:
        Version: 4 (0x3)
        Serial Number: 1 (0x1)
    Signature Algorithm: sha1WithRSAEncryption
        Issuer: C=BE, CN=txjsonrpc-test-ca
        Validity
            Not Before: Jan  1 00:00:00 1970 GMT
            Not After : Jan 19 03:14:07 2038 GMT
        Subject: CN=ca-none, C=BE, O=Gremwell bvba
        Subject Public Key Info:
            Public Key Algorithm: rsaEncryption
                Public-Key: (1024 bit)
                Modulus:
                    00:b4:b7:af:ed:fc:1c:e5:d5:20:d3:a9:46:d2:1a:
                    d8:73:21:4c:7c:fc:dc:62:84:65:be:7b:cb:6a:3b:
                    65:0d:ba:cd:c3:4d:44:e1:d4:2e:1d:f5:f8:9a:22:
                    8f:dd:7a:c8:f4:8a:18:9a:89:1a:72:c2:d4:fd:f8:
                    c7:0e:aa:98:8e:a9:fa:3a:0e:cf:8e:e6:f4:43:b9:
                    99:d1:59:04:37:5c:b3:86:c5:7e:66:cf:2e:5d:ce:
                    3c:1b:02:d4:8a:78:05:96:a9:9e:29:1c:98:79:25:
                    d0:13:a3:63:05:09:68:94:d8:1f:15:dc:c2:d7:7a:
                    c2:6b:4e:4f:6d:00:b6:4e:5b
                Exponent: 65537 (0x10001)
    Signature Algorithm: sha1WithRSAEncryption
         87:db:16:bf:c0:f9:f4:c6:51:ef:8a:15:0a:d7:71:1d:63:c8:
         51:e9:5d:b4:b8:68:eb:22:5e:3b:53:2f:19:da:08:f5:34:f6:
         3f:23:59:1f:ff:1e:02:80:1d:1e:5b:ef:4b:99:81:cc:24:d9:
         18:b3:8d:f5:47:28:d0:8c:f0:c5:3a:20:a9:52:84:dc:40:a6:
         c2:6d:bf:e6:68:19:c8:e0:46:6a:6b:fb:38:66:b7:db:25:eb:
         19:5f:65:7a:c7:53:05:f6:41:79:4b:66:39:c4:8f:e6:c7:52:
         08:d9:cf:7a:c0:e6:5e:12:28:6f:34:86:f7:22:bd:11:d1:c8:
         b3:37:91:da:60:83:91:cf:84:72:0f:ff:68:b7:b0:1f:82:65:
         c7:d1:83:4b:43:bd:c2:2a:8f:73:54:56:34:21:ad:89:0f:06:
         ef:74:e7:c2:4f:3e:e9:28:d6:70:94:67:24:a3:8a:bc:db:78:
         05:ef:8d:36:15:48:d3:a9:93:70:d3:08:41:0b:1e:c8:97:36:
         ad:06:ff:9b:a3:d5:a7:4f:d3:10:b4:52:dd:83:ed:2f:b9:f1:
         ed:81:68:d9:1a:b1:0a:c8:ad:0b:af:be:1b:36:8e:dc:7f:e5:
         89:a1:44:28:ed:e0:99:60:3d:47:de:18:30:8b:da:f8:eb:da:
         a8:9f:0d:1f:45:d6:1e:6e:44:0f:e2:38:dc:9c:d7:c7:6a:df:
         d1:91:f6:59:e5:8a:28:fd:a1:a1:5f:13:29:13:b7:76:bb:60:
         48:99:6d:a6:99:9d:c0:0c:11:ae:41:f4:37:a3:88:58:8d:13:
         3e:ab:e5:6d:96:6d:b0:10:f7:bc:c4:23:3b:ed:f0:e9:68:f3:
         78:f7:e3:50:e8:fa:97:03:8f:8a:5f:ab:ac:d6:aa:e3:e9:4e:
         3f:99:e2:79:2b:c6:49:8f:5a:a2:28:b4:ef:65:3e:60:c1:ff:
         e8:86:a2:b8:45:b3:4c:f4:76:6a:1e:56:b2:a6:9e:04:c4:71:
         59:f0:0c:35:6e:10:91:2b:04:50:96:33:6a:88:8a:5b:29:19:
         a6:f0:3b:3f:89:77:73:38:cb:a1:c9:6b:65:5d:ca:b3:2e:8c:
         4a:7e:62:a1:bf:b7:30:75:f4:b7:c3:00:67:49:69:19:eb:1a:
         83:0f:3e:40:0e:ce:69:c7:0f:92:63:30:7f:d9:94:59:72:36:
         1e:44:59:3f:4c:3a:32:93:fb:06:59:82:e5:a7:fb:9a:83:d5:
         6a:75:4a:27:ff:cf:0c:22:96:4c:00:ab:5f:68:99:9f:24:a8:
         ea:93:d5:9b:1d:9b:3e:df:e1:2c:9e:26:af:80:ef:1e:dd:f7:
         d8:b6:77:bd:2a:a5:1e:7f
-----BEGIN CERTIFICATE-----
MIIDVTCCAT2gAwIBAwIBATANBgkqhkiG9w0BAQUFADApMQswCQYDVQQGEwJCRTEa
MBgGA1UEAxMRdHhqc29ucnBjLXRlc3QtY2EwHhcNNzAwMTAxMDAwMDAwWhcNMzgw
MTE5MDMxNDA3WjA3MRAwDgYDVQQDEwdjYS1ub25lMQswCQYDVQQGEwJCRTEWMBQG
A1UEChMNR3JlbXdlbGwgYnZiYTCBnzANBgkqhkiG9w0BAQEFAAOBjQAwgYkCgYEA
tLev7fwc5dUg06lG0hrYcyFMfPzcYoRlvnvLajtlDbrNw01E4dQuHfX4miKP3XrI
9IoYmokacsLU/fjHDqqYjqn6Og7Pjub0Q7mZ0VkEN1yzhsV+Zs8uXc48GwLUingF
lqmeKRyYeSXQE6NjBQlolNgfFdzC13rCa05PbQC2TlsCAwEAATANBgkqhkiG9w0B
AQUFAAOCAgEAh9sWv8D59MZR74oVCtdxHWPIUeldtLho6yJeO1MvGdoI9TT2PyNZ
H/8eAoAdHlvvS5mBzCTZGLON9Uco0IzwxTogqVKE3ECmwm2/5mgZyOBGamv7OGa3
2yXrGV9lesdTBfZBeUtmOcSP5sdSCNnPesDmXhIobzSG9yK9EdHIszeR2mCDkc+E
cg//aLewH4Jlx9GDS0O9wiqPc1RWNCGtiQ8G73Tnwk8+6SjWcJRnJKOKvNt4Be+N
NhVI06mTcNMIQQseyJc2rQb/m6PVp0/TELRS3YPtL7nx7YFo2RqxCsitC6++GzaO
3H/liaFEKO3gmWA9R94YMIva+OvaqJ8NH0XWHm5ED+I43JzXx2rf0ZH2WeWKKP2h
oV8TKRO3drtgSJltppmdwAwRrkH0N6OIWI0TPqvlbZZtsBD3vMQjO+3w6WjzePfj
UOj6lwOPil+rrNaq4+lOP5nieSvGSY9aoii072U+YMH/6IaiuEWzTPR2ah5Wsqae
BMRxWfAMNW4QkSsEUJYzaoiKWykZpvA7P4l3czjLoclrZV3Ksy6MSn5iob+3MHX0
t8MAZ0lpGesagw8+QA7OaccPkmMwf9mUWXI2HkRZP0w6MpP7BlmC5af7moPVanVK
J//PDCKWTACrX2iZnySo6pPVmx2bPt/hLJ4mr4DvHt332LZ3vSqlHn8=
-----END CERTIFICATE-----
Certificate:
    Data:
        Version: 3 (0x2)
        Serial Number: 10219423159405941259 (0x8dd2af37f9ca920b)
    Signature Algorithm: sha1WithRSAEncryption
        Issuer: C=BE, CN=txjsonrpc-test-ca
        Validity
            Not Before: Jun 23 15:46:37 2012 GMT
            Not After : Jun 21 15:46:37 2022 GMT
        Subject: C=BE, CN=txjsonrpc-test-ca
        Subject Public Key Info:
            Public Key Algorithm: rsaEncryption
                Public-Key: (4096 bit)
                Modulus:
                    00:d1:25:af:77:c5:a8:72:cf:90:b9:39:10:fb:7b:
                    75:2c:a1:da:6a:95:e5:44:0c:d6:25:4b:58:7f:bb:
                    07:82:59:49:58:32:85:24:cc:3e:77:db:e1:a7:4f:
                    c8:b5:cb:ee:45:38:bd:bc:fb:e3:76:3b:88:04:ca:
                    ab:3a:a3:96:3b:5f:93:9c:28:a6:61:97:dc:a2:3f:
                    a0:93:2b:56:6c:cf:d3:4f:6a:9e:05:d3:1c:cd:ef:
                    75:80:1a:98:b7:92:49:14:33:b8:c4:7c:73:8c:7e:
                    83:a5:81:a2:59:8c:8b:a3:51:36:6d:68:ac:f2:f1:
                    ed:6f:49:d9:af:7a:63:c1:43:31:42:b6:c7:cd:b9:
                    78:b7:33:98:70:92:6c:9e:04:7a:7b:f0:6d:38:87:
                    eb:00:13:17:b9:d9:ec:b4:66:bb:51:d3:fd:81:e3:
                    0e:88:71:23:d2:80:2a:61:de:ab:25:02:47:a9:c1:
                    6b:c9:69:ae:da:47:b6:49:74:ac:a6:e1:c1:76:ba:
                    6d:b1:d9:68:6e:1c:37:a8:e2:18:60:37:b6:58:13:
                    6c:c7:92:7c:c6:45:8c:ef:c3:81:73:10:dc:2f:31:
                    e2:b9:05:5a:9e:28:70:5a:3e:1d:b8:68:71:81:c9:
                    e8:fe:1f:c3:a0:13:f8:e4:24:12:ba:91:8e:15:d2:
                    03:f1:8c:b0:aa:e2:34:e4:6b:f8:06:f6:23:8a:92:
                    43:a6:05:dc:e9:c7:a5:a8:06:d7:6e:91:52:72:47:
                    ab:ae:87:fe:b3:0f:04:87:6f:4b:22:29:e9:a9:06:
                    52:58:7d:03:16:d7:d5:31:44:b4:f1:51:44:a7:2a:
                    ba:5e:09:19:ec:4c:a2:e0:58:fe:0d:4e:b7:90:4d:
                    02:ac:2a:ad:99:14:65:3b:0a:3c:73:45:56:b2:0f:
                    10:25:24:51:79:57:1a:34:1a:10:6f:60:e0:fc:81:
                    db:ca:c2:e2:85:1b:4c:72:13:5c:9d:76:cc:d0:21:
                    33:31:56:82:8f:c5:57:b9:44:fd:8b:76:c1:b6:e4:
                    21:8b:35:9a:ee:54:74:9f:72:6b:19:84:d7:a2:3c:
                    a5:6e:11:0a:f1:93:04:2e:dd:7c:4c:7d:62:10:d4:
                    1b:8b:87:f6:ed:bf:12:b1:8b:f0:9a:7a:ee:02:94:
                    e1:3c:46:2b:7f:9c:54:fb:2e:61:c9:1c:ef:fc:de:
                    25:bc:2d:75:1b:1f:49:5e:44:3b:15:93:ad:c4:89:
                    d9:ae:3c:da:54:ef:d9:af:3a:16:cb:94:1b:6a:14:
                    e4:42:f9:75:33:46:6e:fb:40:bc:f8:82:36:cf:60:
                    f5:c2:a2:98:23:a7:2a:ae:c1:aa:22:f8:87:da:b7:
                    9c:a4:cf
                Exponent: 65537 (0x10001)
        X509v3 extensions:
            X509v3 Subject Key Identifier: 
                9D:8F:84:76:94:CD:07:FE:A3:E8:8B:D7:F9:D9:6E:EF:CA:75:51:7B
            X509v3 Authority Key Identifier: 
                keyid:9D:8F:84:76:94:CD:07:FE:A3:E8:8B:D7:F9:D9:6E:EF:CA:75:51:7B
                DirName:/C=BE/CN=txjsonrpc-test-ca
                serial:8D:D2:AF:37:F9:CA:92:0B

            X509v3 Basic Constraints: critical
                CA:TRUE
            Netscape Cert Type: 
                SSL CA, S/MIME CA
            X509v3 Issuer Alternative Name: 
                <EMPTY>

            Netscape Comment: 
                Test CA for txjsonrcp
            X509v3 Subject Alternative Name: 
                <EMPTY>

            X509v3 Key Usage: critical
                Certificate Sign, CRL Sign
    Signature Algorithm: sha1WithRSAEncryption
         06:82:86:81:a9:1b:7e:2d:ef:f5:fc:cc:d2:9d:d6:82:ad:d0:
         6f:7e:3d:b9:5c:b2:0f:3a:64:21:9a:fb:53:b2:93:81:dc:1a:
         24:fc:b8:30:57:a2:c7:71:0d:9c:1a:0b:8a:6c:89:52:8b:8a:
         f5:af:95:3e:b8:08:39:ee:36:50:ac:60:4d:df:2b:49:a2:72:
         f1:3f:12:3c:d9:55:56:a4:9a:77:2b:77:fa:16:b5:76:d9:f4:
         c4:51:6b:b9:fe:2f:a3:52:e8:64:80:49:22:6d:05:42:87:af:
         9d:85:6c:fa:c9:9b:48:39:7b:89:f5:a0:1e:ff:11:d3:9c:78:
         b1:b2:f6:4d:b1:e8:b3:98:23:2c:d4:20:e1:a1:01:3e:26:0a:
         5b:8e:eb:58:45:22:cf:e1:94:ad:84:40:b0:fb:ff:25:5f:31:
         9a:49:0b:36:ad:c6:1a:b0:42:60:40:e2:a2:3c:5a:36:41:89:
         fc:10:c4:60:ea:d4:85:7b:36:84:df:aa:81:cc:69:e7:52:ca:
         c1:46:b1:79:93:51:4f:24:84:42:14:3a:20:a0:6c:27:76:40:
         0f:96:7e:4e:c3:0c:37:b3:e3:73:49:86:58:31:00:1e:e7:0f:
         87:74:b6:4e:6e:1c:7d:87:a4:33:04:c9:76:ec:e5:3a:85:5f:
         a8:d1:ad:21:64:5e:c5:6a:df:b1:02:6e:65:a4:87:72:06:07:
         da:e5:f2:af:2b:a5:eb:18:80:67:83:a5:3c:e6:ed:d1:58:f9:
         90:5c:d6:e9:2f:76:c1:58:13:b8:bd:88:8a:f3:04:48:bb:42:
         8f:7f:c6:db:b4:30:3f:bb:6c:d5:47:e5:ae:8d:4b:da:92:a5:
         db:d3:6e:a8:9b:c2:6b:56:af:34:63:82:e6:78:f8:1f:54:d7:
         41:aa:a3:c9:7c:a6:83:41:bf:6e:33:7c:ae:e6:92:bd:da:27:
         b4:bc:e2:90:4f:33:1b:01:a1:cd:02:13:7a:31:ef:00:d6:9a:
         6e:38:6b:a7:cb:70:98:a8:0f:ff:1c:56:a8:b7:e6:d2:42:5a:
         bb:f4:78:27:71:13:d0:e8:43:eb:bc:2d:4f:e4:ea:4d:4f:76:
         7f:53:38:34:eb:13:e2:3d:c6:14:98:86:1c:ab:2c:0e:b7:68:
         2e:bd:63:a9:6a:8f:d5:22:2d:ab:13:d7:62:54:51:ff:5c:37:
         08:04:27:da:f9:57:77:05:18:73:88:5f:b0:c1:65:50:36:09:
         d6:c7:f5:ae:6e:3f:04:d1:84:3c:21:74:1d:bd:0a:fb:76:d0:
         13:2b:62:bb:24:48:43:89:d0:18:5c:b4:ad:ea:98:af:6d:fc:
         1c:6b:1f:06:64:54:23:88
-----BEGIN CERTIFICATE-----
MIIFwzCCA6ugAwIBAgIJAI3Srzf5ypILMA0GCSqGSIb3DQEBBQUAMCkxCzAJBgNV
BAYTAkJFMRowGAYDVQQDExF0eGpzb25ycGMtdGVzdC1jYTAeFw0xMjA2MjMxNTQ2
MzdaFw0yMjA2MjExNTQ2MzdaMCkxCzAJBgNVBAYTAkJFMRowGAYDVQQDExF0eGpz
b25ycGMtdGVzdC1jYTCCAiIwDQYJKoZIhvcNAQEBBQADggIPADCCAgoCggIBANEl
r3fFqHLPkLk5EPt7dSyh2mqV5UQM1iVLWH+7B4JZSVgyhSTMPnfb4adPyLXL7kU4
vbz743Y7iATKqzqjljtfk5wopmGX3KI/oJMrVmzP009qngXTHM3vdYAamLeSSRQz
uMR8c4x+g6WBolmMi6NRNm1orPLx7W9J2a96Y8FDMUK2x825eLczmHCSbJ4Eenvw
bTiH6wATF7nZ7LRmu1HT/YHjDohxI9KAKmHeqyUCR6nBa8lprtpHtkl0rKbhwXa6
bbHZaG4cN6jiGGA3tlgTbMeSfMZFjO/DgXMQ3C8x4rkFWp4ocFo+HbhocYHJ6P4f
w6AT+OQkErqRjhXSA/GMsKriNORr+Ab2I4qSQ6YF3OnHpagG126RUnJHq66H/rMP
BIdvSyIp6akGUlh9AxbX1TFEtPFRRKcqul4JGexMouBY/g1Ot5BNAqwqrZkUZTsK
PHNFVrIPECUkUXlXGjQaEG9g4PyB28rC4oUbTHITXJ12zNAhMzFWgo/FV7lE/Yt2
wbbkIYs1mu5UdJ9yaxmE16I8pW4RCvGTBC7dfEx9YhDUG4uH9u2/ErGL8Jp67gKU
4TxGK3+cVPsuYckc7/zeJbwtdRsfSV5EOxWTrcSJ2a482lTv2a86FsuUG2oU5EL5
dTNGbvtAvPiCNs9g9cKimCOnKq7BqiL4h9q3nKTPAgMBAAGjge0wgeowHQYDVR0O
BBYEFJ2PhHaUzQf+o+iL1/nZbu/KdVF7MFkGA1UdIwRSMFCAFJ2PhHaUzQf+o+iL
1/nZbu/KdVF7oS2kKzApMQswCQYDVQQGEwJCRTEaMBgGA1UEAxMRdHhqc29ucnBj
LXRlc3QtY2GCCQCN0q83+cqSCzAPBgNVHRMBAf8EBTADAQH/MBEGCWCGSAGG+EIB
AQQEAwIBBjAJBgNVHRIEAjAAMCQGCWCGSAGG+EIBDQQXFhVUZXN0IENBIGZvciB0
eGpzb25yY3AwCQYDVR0RBAIwADAOBgNVHQ8BAf8EBAMCAQYwDQYJKoZIhvcNAQEF
BQADggIBAAaChoGpG34t7/X8zNKd1oKt0G9+Pblcsg86ZCGa+1Oyk4HcGiT8uDBX
osdxDZwaC4psiVKLivWvlT64CDnuNlCsYE3fK0micvE/EjzZVVakmncrd/oWtXbZ
9MRRa7n+L6NS6GSASSJtBUKHr52FbPrJm0g5e4n1oB7/EdOceLGy9k2x6LOYIyzU
IOGhAT4mCluO61hFIs/hlK2EQLD7/yVfMZpJCzatxhqwQmBA4qI8WjZBifwQxGDq
1IV7NoTfqoHMaedSysFGsXmTUU8khEIUOiCgbCd2QA+Wfk7DDDez43NJhlgxAB7n
D4d0tk5uHH2HpDMEyXbs5TqFX6jRrSFkXsVq37ECbmWkh3IGB9rl8q8rpesYgGeD
pTzm7dFY+ZBc1ukvdsFYE7i9iIrzBEi7Qo9/xtu0MD+7bNVH5a6NS9qSpdvTbqib
wmtWrzRjguZ4+B9U10Gqo8l8poNBv24zfK7mkr3aJ7S84pBPMxsBoc0CE3ox7wDW
mm44a6fLcJioD/8cVqi35tJCWrv0eCdxE9DoQ+u8LU/k6k1Pdn9TODTrE+I9xhSY
hhyrLA63aC69Y6lqj9UiLasT12JUUf9cNwgEJ9r5V3cFGHOIX7DBZVA2CdbH9a5u
PwTRhDwhdB29Cvt20BMrYrskSEOJ0BhctK3qmK9t/BxrHwZkVCOI
-----END CERTIFICATE-----
