Certificate:
    Data:
        Version: 4 (0x3)
        Serial Number: 1 (0x1)
    Signature Algorithm: sha1WithRSAEncryption
        Issuer: CN=ca-true, C=BE, O=Gremwell bvba
        Validity
            Not Before: Jan  1 00:00:00 1970 GMT
            Not After : Jan 19 03:14:07 2038 GMT
        Subject: CN=txjsonrpc-pyserver, C=BE, O=Gremwell bvba
        Subject Public Key Info:
            Public Key Algorithm: rsaEncryption
                Public-Key: (1024 bit)
                Modulus:
                    00:cc:6f:0b:d2:9c:d9:46:8b:f5:be:07:72:94:9f:
                    de:55:72:5d:e9:c5:09:29:a0:1e:81:95:64:ea:b3:
                    66:6f:e3:11:7b:3d:6c:f2:0e:75:82:fc:f0:03:65:
                    97:31:f1:65:18:7c:89:09:7c:16:81:98:d1:24:81:
                    27:ab:e5:b7:c5:53:1e:47:51:f6:88:fe:62:9f:2c:
                    fe:c1:df:e5:6b:f3:81:64:81:8c:73:48:5a:ec:df:
                    bd:b1:c2:b3:f1:7d:12:53:52:a1:d1:15:3e:66:41:
                    e6:cb:93:8d:ec:0f:62:14:55:6b:34:5d:87:04:97:
                    0d:39:ad:c5:61:ed:01:28:95
                Exponent: 65537 (0x10001)
    Signature Algorithm: sha1WithRSAEncryption
         6e:ba:34:17:20:52:5b:87:b9:10:40:7d:4b:67:13:b7:91:ac:
         45:ed:b3:a6:0b:b5:f3:92:2e:fe:68:74:00:f1:8d:8a:58:0c:
         4e:18:c0:13:54:ed:03:ca:a6:d0:fb:88:78:af:e5:dc:82:64:
         5c:9b:c5:f2:c6:6c:56:ca:1d:7d:e4:d7:db:84:d3:6e:92:4f:
         79:44:e6:e6:21:e6:89:0a:af:3b:5a:1a:ed:84:3a:a2:47:57:
         4b:d9:bc:c2:75:c3:da:0a:18:41:d2:e1:22:59:11:1d:9d:62:
         fc:18:92:1c:d8:7c:e8:5e:c0:b7:60:77:29:84:c7:fd:87:2c:
         83:fb
-----BEGIN CERTIFICATE-----
MIIB7TCCAVagAwIBAwIBATANBgkqhkiG9w0BAQUFADA3MRAwDgYDVQQDEwdjYS10
cnVlMQswCQYDVQQGEwJCRTEWMBQGA1UEChMNR3JlbXdlbGwgYnZiYTAeFw03MDAx
MDEwMDAwMDBaFw0zODAxMTkwMzE0MDdaMEIxGzAZBgNVBAMTEnR4anNvbnJwYy1w
eXNlcnZlcjELMAkGA1UEBhMCQkUxFjAUBgNVBAoTDUdyZW13ZWxsIGJ2YmEwgZ8w
DQYJKoZIhvcNAQEBBQADgY0AMIGJAoGBAMxvC9Kc2UaL9b4HcpSf3lVyXenFCSmg
HoGVZOqzZm/jEXs9bPIOdYL88ANllzHxZRh8iQl8FoGY0SSBJ6vlt8VTHkdR9oj+
Yp8s/sHf5WvzgWSBjHNIWuzfvbHCs/F9ElNSodEVPmZB5suTjewPYhRVazRdhwSX
DTmtxWHtASiVAgMBAAEwDQYJKoZIhvcNAQEFBQADgYEAbro0FyBSW4e5EEB9S2cT
t5GsRe2zpgu185Iu/mh0APGNilgMThjAE1TtA8qm0PuIeK/l3IJkXJvF8sZsVsod
feTX24TTbpJPeUTm5iHmiQqvO1oa7YQ6okdXS9m8wnXD2goYQdLhIlkRHZ1i/BiS
HNh86F7At2B3KYTH/Ycsg/s=
-----END CERTIFICATE-----
Certificate:
    Data:
        Version: 4 (0x3)
        Serial Number: 1 (0x1)
    Signature Algorithm: sha1WithRSAEncryption
        Issuer: C=BE, CN=txjsonrpc-test-ca
        Validity
            Not Before: Jan  1 00:00:00 1970 GMT
            Not After : Jan 19 03:14:07 2038 GMT
        Subject: CN=ca-true, C=BE, O=Gremwell bvba
        Subject Public Key Info:
            Public Key Algorithm: rsaEncryption
                Public-Key: (1024 bit)
                Modulus:
                    00:b1:ee:38:dd:5e:fd:ac:2e:29:f9:f0:39:96:4e:
                    5b:dc:71:6d:aa:ce:fd:98:05:47:66:3c:f0:ce:82:
                    7a:d3:1a:f9:3f:84:12:04:d3:e4:b3:53:06:8e:22:
                    e3:46:4f:2a:88:cb:ba:02:8c:23:e7:92:84:3b:8b:
                    3c:1f:42:5e:40:5a:79:bd:7f:95:73:51:dd:95:5e:
                    3f:16:da:cd:f7:3a:ac:cb:68:05:8b:b4:ed:ff:15:
                    03:62:aa:57:9d:44:a1:b3:93:7f:f9:e4:e4:3e:ed:
                    6f:9a:88:be:07:bf:e0:52:d3:e8:67:f7:3c:95:10:
                    62:bb:ef:70:21:5f:90:06:b5
                Exponent: 65537 (0x10001)
        X509v3 extensions:
            X509v3 Basic Constraints: critical
                CA:TRUE
    Signature Algorithm: sha1WithRSAEncryption
         4d:00:4b:bf:8c:e4:5c:5c:98:2b:d7:c4:b3:bf:64:f2:0e:37:
         da:9a:ef:40:ac:6a:6f:be:2f:43:99:10:22:86:53:f3:b0:c9:
         21:37:9c:c8:3d:41:c7:49:1f:d0:4a:29:c9:5a:bd:c1:ea:c5:
         f3:aa:86:37:b9:fa:08:ea:f2:bf:2a:9f:ef:ca:af:e1:ee:36:
         96:b3:27:36:8f:b5:48:b1:09:a0:d2:56:3c:13:95:b8:81:4b:
         bb:b3:5e:92:c5:4e:7f:ff:1a:f6:c3:ae:df:9d:2a:9d:64:30:
         98:bd:ce:c1:4c:72:5a:56:a0:c2:a5:ab:9e:ac:aa:54:76:57:
         10:78:ae:9a:9d:7e:ce:8e:ec:cc:c1:58:89:13:98:97:20:fc:
         7b:ce:08:54:d6:ff:9b:f5:ce:24:70:b2:f6:a2:7f:cf:19:84:
         20:9b:a2:e7:4f:17:ab:43:78:cc:f2:3b:df:55:fa:f0:3d:89:
         65:d9:d7:6d:a7:8c:fa:fa:2b:9b:7a:f7:34:af:4e:fb:00:a0:
         ca:8f:e4:8f:90:f8:c9:0d:fb:46:f7:ca:ae:d5:2f:ac:ac:e5:
         2a:74:76:48:8e:c2:82:93:dd:41:2f:7d:e8:2b:52:54:a6:97:
         1c:c8:c4:48:be:e9:75:af:74:fe:af:da:bc:4d:33:a7:ca:77:
         2a:2d:e4:06:16:a6:e8:a5:fa:7b:c5:09:0b:e8:d7:6d:c5:b6:
         b2:7b:45:34:ba:3d:50:db:3e:72:64:9d:ad:bb:ec:cb:73:f0:
         30:7c:67:63:7a:98:63:65:0e:e8:91:d5:ff:97:19:fc:17:da:
         0d:69:39:f3:2f:05:de:fe:9f:d5:c8:fb:20:a9:bf:7d:05:c0:
         27:06:ad:e2:de:3b:27:f1:e0:fd:ca:13:30:14:24:47:f1:9c:
         3c:ba:29:ea:31:8e:bf:a4:30:48:18:5d:21:b0:fa:18:38:50:
         ba:2f:e2:a7:a8:07:ef:a6:0a:13:8a:b3:00:52:52:fb:ed:3f:
         37:7f:97:e3:55:d3:0d:88:ab:20:c1:86:50:a4:5f:c5:45:29:
         dc:de:41:cb:e0:66:f7:71:ff:f1:9d:69:6b:fd:80:b7:12:71:
         96:8b:f5:73:49:05:97:71:21:7a:99:46:ee:f1:06:0a:81:80:
         0d:87:03:a2:a4:97:c4:75:8f:fe:55:91:c5:6b:00:2c:7b:77:
         bd:3c:5f:63:37:43:f8:51:44:2e:1d:69:aa:d0:73:51:9a:21:
         aa:97:85:9e:26:c8:d7:01:a6:30:78:b7:44:ce:f8:b9:b2:b4:
         99:56:eb:01:47:a8:17:37:0a:c7:01:5e:1a:67:08:08:ca:5c:
         c3:d2:75:a7:ce:d3:b6:36
-----BEGIN CERTIFICATE-----
MIIDajCCAVKgAwIBAwIBATANBgkqhkiG9w0BAQUFADApMQswCQYDVQQGEwJCRTEa
MBgGA1UEAxMRdHhqc29ucnBjLXRlc3QtY2EwHhcNNzAwMTAxMDAwMDAwWhcNMzgw
MTE5MDMxNDA3WjA3MRAwDgYDVQQDEwdjYS10cnVlMQswCQYDVQQGEwJCRTEWMBQG
A1UEChMNR3JlbXdlbGwgYnZiYTCBnzANBgkqhkiG9w0BAQEFAAOBjQAwgYkCgYEA
se443V79rC4p+fA5lk5b3HFtqs79mAVHZjzwzoJ60xr5P4QSBNPks1MGjiLjRk8q
iMu6Aowj55KEO4s8H0JeQFp5vX+Vc1HdlV4/FtrN9zqsy2gFi7Tt/xUDYqpXnUSh
s5N/+eTkPu1vmoi+B7/gUtPoZ/c8lRBiu+9wIV+QBrUCAwEAAaMTMBEwDwYDVR0T
AQH/BAUwAwEB/zANBgkqhkiG9w0BAQUFAAOCAgEATQBLv4zkXFyYK9fEs79k8g43
2prvQKxqb74vQ5kQIoZT87DJITecyD1Bx0kf0EopyVq9werF86qGN7n6COryvyqf
78qv4e42lrMnNo+1SLEJoNJWPBOVuIFLu7NeksVOf/8a9sOu350qnWQwmL3OwUxy
WlagwqWrnqyqVHZXEHiump1+zo7szMFYiROYlyD8e84IVNb/m/XOJHCy9qJ/zxmE
IJui508Xq0N4zPI731X68D2JZdnXbaeM+vorm3r3NK9O+wCgyo/kj5D4yQ37RvfK
rtUvrKzlKnR2SI7CgpPdQS996CtSVKaXHMjESL7pda90/q/avE0zp8p3Ki3kBham
6KX6e8UJC+jXbcW2sntFNLo9UNs+cmSdrbvsy3PwMHxnY3qYY2UO6JHV/5cZ/Bfa
DWk58y8F3v6f1cj7IKm/fQXAJwat4t47J/Hg/coTMBQkR/GcPLop6jGOv6QwSBhd
IbD6GDhQui/ip6gH76YKE4qzAFJS++0/N3+X41XTDYirIMGGUKRfxUUp3N5By+Bm
93H/8Z1pa/2AtxJxlov1c0kFl3EheplG7vEGCoGADYcDoqSXxHWP/lWRxWsALHt3
vTxfYzdD+FFELh1pqtBzUZohqpeFnibI1wGmMHi3RM74ubK0mVbrAUeoFzcKxwFe
GmcICMpcw9J1p87TtjY=
-----END CERTIFICATE-----
