Certificate:
    Data:
        Version: 4 (0x3)
        Serial Number: 1 (0x1)
    Signature Algorithm: sha1WithRSAEncryption
        Issuer: CN=ca-none, C=BE, O=Gremwell bvba
        Validity
            Not Before: Jan  1 00:00:00 1970 GMT
            Not After : Jan 19 03:14:07 2038 GMT
        Subject: CN=www.example.com, C=BE, O=Gremwell bvba
        Subject Public Key Info:
            Public Key Algorithm: rsaEncryption
                Public-Key: (1024 bit)
                Modulus:
                    00:ac:06:89:10:82:4f:4e:9e:3f:37:55:fd:9f:de:
                    22:41:77:98:06:88:20:26:41:69:8f:f6:76:d6:f8:
                    a1:9b:37:fc:d8:48:db:67:9c:c8:5d:01:a5:57:92:
                    4d:fc:5b:bd:4c:6d:7d:b8:a3:a1:66:01:0c:b7:da:
                    49:1b:31:f4:11:00:a8:56:22:3c:ae:b3:ef:30:3f:
                    76:34:19:63:30:09:c9:e9:64:f1:a1:f4:b5:3a:cc:
                    ca:e5:df:3b:13:5c:49:8d:9a:43:78:64:e7:db:2e:
                    49:bf:c4:12:c8:c4:55:1a:13:5e:88:3e:11:d4:8d:
                    a1:d7:f9:b6:16:66:fc:aa:cf
                Exponent: 65537 (0x10001)
    Signature Algorithm: sha1WithRSAEncryption
         c7:3f:ba:e3:62:c7:52:1e:ca:49:03:4b:01:5b:a5:4d:b1:93:
         a1:ed:b0:55:92:6c:4b:01:8b:e0:8b:7a:ac:b9:6a:60:49:d6:
         36:87:50:0c:b1:7f:cc:c9:77:2f:10:a2:e2:35:5e:d4:47:a5:
         e1:2a:c3:f6:d3:be:f8:6a:fc:fb:b4:04:da:48:e1:dd:5c:5a:
         a4:df:58:60:11:3d:90:a1:55:72:f0:74:31:ef:06:4f:a0:23:
         fe:f5:ff:b9:fd:92:96:07:92:6f:31:b2:6d:43:0d:e3:ca:d8:
         84:ba:d8:46:7b:ec:33:99:45:3e:ac:4c:0a:3d:cc:ed:26:68:
         25:d1
-----BEGIN CERTIFICATE-----
MIIB6jCCAVOgAwIBAwIBATANBgkqhkiG9w0BAQUFADA3MRAwDgYDVQQDEwdjYS1u
b25lMQswCQYDVQQGEwJCRTEWMBQGA1UEChMNR3JlbXdlbGwgYnZiYTAeFw03MDAx
MDEwMDAwMDBaFw0zODAxMTkwMzE0MDdaMD8xGDAWBgNVBAMTD3d3dy5leGFtcGxl
LmNvbTELMAkGA1UEBhMCQkUxFjAUBgNVBAoTDUdyZW13ZWxsIGJ2YmEwgZ8wDQYJ
KoZIhvcNAQEBBQADgY0AMIGJAoGBAKwGiRCCT06ePzdV/Z/eIkF3mAaIICZBaY/2
dtb4oZs3/NhI22ecyF0BpVeSTfxbvUxtfbijoWYBDLfaSRsx9BEAqFYiPK6z7zA/
djQZYzAJyelk8aH0tTrMyuXfOxNcSY2aQ3hk59suSb/EEsjEVRoTXog+EdSNodf5
thZm/KrPAgMBAAEwDQYJKoZIhvcNAQEFBQADgYEAxz+642LHUh7KSQNLAVulTbGT
oe2wVZJsSwGL4It6rLlqYEnWNodQDLF/zMl3LxCi4jVe1Eel4SrD9tO++Gr8+7QE
2kjh3VxapN9YYBE9kKFVcvB0Me8GT6Aj/vX/uf2SlgeSbzGybUMN48rYhLrYRnvs
M5lFPqxMCj3M7SZoJdE=
-----END CERTIFICATE-----
Certificate:
    Data:
        Version: 4 (0x3)
        Serial Number: 1 (0x1)
    Signature Algorithm: sha1WithRSAEncryption
        Issuer: C=BE, CN=txjsonrpc-test-ca
        Validity
            Not Before: Jan  1 00:00:00 1970 GMT
            Not After : Jan 19 03:14:07 2038 GMT
        Subject: CN=ca-none, C=BE, O=Gremwell bvba
        Subject Public Key Info:
            Public Key Algorithm: rsaEncryption
                Public-Key: (1024 bit)
                Modulus:
                    00:f2:39:1f:c1:dd:43:ea:0e:a8:c8:30:0b:03:3a:
                    99:29:07:4a:32:6d:05:0a:79:b5:ac:a2:06:98:a9:
                    a7:ce:1f:4e:8b:8c:d7:6b:72:48:f2:32:5c:91:83:
                    7f:8a:b9:b7:ca:b0:d1:a6:ae:a1:a8:c8:ef:12:5f:
                    7d:91:b6:00:15:ac:c1:9b:41:e7:04:ea:eb:eb:5f:
                    01:a1:cc:c9:08:98:1a:52:a2:55:d4:d9:7b:77:0d:
                    43:9f:51:48:f1:a7:60:2b:d8:a1:0d:d9:98:52:18:
                    af:39:09:c4:9a:27:3c:4c:64:d4:16:fa:89:6e:3a:
                    20:47:0f:a7:d6:ec:80:97:89
                Exponent: 65537 (0x10001)
    Signature Algorithm: sha1WithRSAEncryption
         1d:5e:d1:4e:75:9e:07:ae:f8:66:c5:a9:a0:48:c2:5c:ab:83:
         51:80:8b:51:14:0c:16:4a:7c:9f:c0:b5:86:c5:e8:38:de:9f:
         e9:8f:d6:42:26:d5:ad:54:cc:81:5d:98:e5:1b:a2:37:4b:86:
         70:75:9b:49:60:ca:1e:56:e1:8a:1a:69:e3:86:8d:20:dd:8d:
         16:a7:1b:28:22:c5:87:0c:11:0f:85:fc:2d:33:0c:b5:c5:f8:
         bf:23:d1:58:74:b8:47:76:71:17:ce:8a:c9:f5:b8:81:8e:f2:
         d7:eb:20:8c:43:f0:d5:bc:fe:23:21:18:17:e4:18:26:f2:c2:
         59:20:d7:07:6c:e3:4c:f9:70:5c:86:9f:b5:e4:e8:7e:77:53:
         f7:25:45:b6:8d:51:6b:fc:ad:05:62:80:75:6c:87:7f:76:65:
         50:fa:81:ae:48:a5:fd:f4:ea:dc:ad:4e:36:11:9d:cc:c7:f0:
         67:da:49:5b:f9:2e:bf:0d:b7:63:1d:c6:0f:6e:0c:dc:30:12:
         7f:3a:61:ac:7b:1c:e7:e1:e1:88:9e:d2:d7:6a:27:cd:0b:aa:
         6d:c5:f7:98:ba:08:6d:b4:15:1a:59:9a:27:fa:4f:64:fc:c2:
         e4:25:e0:51:04:44:01:36:00:2e:8b:f6:f2:8b:12:cd:16:a2:
         57:66:cf:b5:46:83:42:21:0d:e3:ea:23:25:3d:7f:c5:4a:f9:
         aa:b0:65:be:0f:d2:86:b9:b1:83:ef:eb:f7:25:22:19:3c:b3:
         12:68:eb:6e:67:d2:35:12:9b:6f:2a:99:2a:7d:bf:84:45:06:
         ef:62:19:14:fb:75:29:a9:b1:ee:e2:f0:09:93:de:91:70:6e:
         c5:6c:35:93:01:f7:4f:84:54:f1:62:19:ab:cc:75:c4:f0:65:
         21:af:7c:bc:43:07:e7:7d:cf:e1:4c:0e:1d:93:1b:62:4a:0e:
         3f:4b:ad:a6:41:2b:78:f9:2d:ca:1e:e7:ae:05:6f:dc:79:17:
         98:db:98:22:0f:47:29:a3:ed:2a:da:65:32:05:19:33:ca:8e:
         6a:88:63:a3:bd:44:51:be:32:f5:dd:7e:78:12:7d:23:36:e3:
         89:35:84:0b:66:c9:ba:ef:c5:47:a3:d9:79:98:43:81:af:6e:
         8c:2e:52:d2:b8:92:7e:b5:d9:39:10:4e:c5:63:16:5e:b6:c3:
         cc:19:20:eb:02:0a:72:32:a6:9d:13:e2:ef:f0:76:06:0b:b9:
         ec:bc:7f:99:e6:22:85:d8:13:f3:22:f6:f7:d8:ed:a8:d2:94:
         05:86:ed:05:9a:c8:26:02:54:93:29:ae:dd:f8:52:2d:ec:7f:
         41:bd:f0:cc:15:e7:dd:78
-----BEGIN CERTIFICATE-----
MIIDVTCCAT2gAwIBAwIBATANBgkqhkiG9w0BAQUFADApMQswCQYDVQQGEwJCRTEa
MBgGA1UEAxMRdHhqc29ucnBjLXRlc3QtY2EwHhcNNzAwMTAxMDAwMDAwWhcNMzgw
MTE5MDMxNDA3WjA3MRAwDgYDVQQDEwdjYS1ub25lMQswCQYDVQQGEwJCRTEWMBQG
A1UEChMNR3JlbXdlbGwgYnZiYTCBnzANBgkqhkiG9w0BAQEFAAOBjQAwgYkCgYEA
8jkfwd1D6g6oyDALAzqZKQdKMm0FCnm1rKIGmKmnzh9Oi4zXa3JI8jJckYN/irm3
yrDRpq6hqMjvEl99kbYAFazBm0HnBOrr618BoczJCJgaUqJV1Nl7dw1Dn1FI8adg
K9ihDdmYUhivOQnEmic8TGTUFvqJbjogRw+n1uyAl4kCAwEAATANBgkqhkiG9w0B
AQUFAAOCAgEAHV7RTnWeB674ZsWpoEjCXKuDUYCLURQMFkp8n8C1hsXoON6f6Y/W
QibVrVTMgV2Y5RuiN0uGcHWbSWDKHlbhihpp44aNIN2NFqcbKCLFhwwRD4X8LTMM
tcX4vyPRWHS4R3ZxF86KyfW4gY7y1+sgjEPw1bz+IyEYF+QYJvLCWSDXB2zjTPlw
XIafteTofndT9yVFto1Ra/ytBWKAdWyHf3ZlUPqBrkil/fTq3K1ONhGdzMfwZ9pJ
W/kuvw23Yx3GD24M3DASfzphrHsc5+HhiJ7S12onzQuqbcX3mLoIbbQVGlmaJ/pP
ZPzC5CXgUQREATYALov28osSzRaiV2bPtUaDQiEN4+ojJT1/xUr5qrBlvg/Shrmx
g+/r9yUiGTyzEmjrbmfSNRKbbyqZKn2/hEUG72IZFPt1Kamx7uLwCZPekXBuxWw1
kwH3T4RU8WIZq8x1xPBlIa98vEMH533P4UwOHZMbYkoOP0utpkErePktyh7nrgVv
3HkXmNuYIg9HKaPtKtplMgUZM8qOaohjo71EUb4y9d1+eBJ9IzbjiTWEC2bJuu/F
R6PZeZhDga9ujC5S0riSfrXZORBOxWMWXrbDzBkg6wIKcjKmnRPi7/B2Bgu57Lx/
meYihdgT8yL299jtqNKUBYbtBZrIJgJUkymu3fhSLex/Qb3wzBXn3Xg=
-----END CERTIFICATE-----
