Certificate:
    Data:
        Version: 3 (0x2)
        Serial Number: 1 (0x1)
    Signature Algorithm: sha1WithRSAEncryption
        Issuer: C=BE, CN=txjsonrpc-pyserver
        Validity
            Not Before: Jun 23 15:47:38 2012 GMT
            Not After : Jun 23 15:47:38 2013 GMT
        Subject: C=BE, CN=txjsonrpc-pyserver
        Subject Public Key Info:
            Public Key Algorithm: rsaEncryption
                Public-Key: (4096 bit)
                Modulus:
                    00:a4:55:0e:3b:fd:34:78:17:66:9b:bc:3e:1e:81:
                    69:e0:1a:5f:2e:b4:3d:84:64:00:74:c1:30:eb:17:
                    1f:aa:d3:c0:4c:7e:42:38:90:b3:bf:ea:ff:6d:40:
                    c7:cb:41:55:9f:83:31:c4:df:80:a1:77:e6:52:f1:
                    12:a0:89:e2:71:e4:12:5c:33:3f:3d:34:fb:44:5c:
                    13:30:9c:0b:ac:cc:eb:f7:20:d6:bb:6f:f2:8b:fe:
                    cc:85:e8:94:4f:4d:ef:09:b7:f0:5c:00:03:c3:d4:
                    f3:d2:77:09:66:4a:a4:14:cd:3a:00:e5:62:68:2a:
                    66:6c:9b:12:b7:2f:cc:a1:b4:54:38:72:1a:d9:d5:
                    3c:eb:12:30:64:79:a5:42:10:32:f3:9e:d8:d7:52:
                    2f:09:b9:1d:44:7d:74:05:3e:17:38:28:1a:e0:4f:
                    80:7f:ba:98:9b:6e:21:b9:f8:0f:fd:c6:d9:88:ba:
                    fa:ec:e1:19:05:37:20:ee:31:8c:3a:49:85:a5:5c:
                    3d:67:64:7b:08:f4:66:71:be:cb:3b:2d:6a:89:9f:
                    b0:12:e8:bc:22:57:7c:ca:4d:3b:b6:58:57:d5:a3:
                    e0:57:b5:e9:36:f6:90:28:af:77:9a:31:d8:e0:b9:
                    4c:36:cd:57:61:cd:4e:ea:5c:41:6a:19:df:ba:f8:
                    d6:86:c3:2d:d3:33:5c:d8:33:89:22:f0:33:9f:e4:
                    df:4a:e8:76:59:1a:2e:d7:ad:cf:63:e2:2a:76:e7:
                    3d:aa:be:94:98:0c:2b:bf:7f:31:c6:36:21:6c:0d:
                    1e:9f:2f:24:30:23:32:c2:c3:7b:3a:a6:ba:cf:fe:
                    ed:78:23:80:8a:9f:8a:50:cc:77:14:d4:3c:84:cc:
                    26:e7:6b:ef:7e:28:1a:98:71:8c:86:5c:2a:09:e0:
                    5b:63:4d:e8:ce:c8:69:97:ae:7a:1d:99:15:08:cf:
                    1d:a0:07:bb:11:b4:02:c4:73:b5:e2:09:7c:e5:91:
                    3d:1f:54:b9:e5:45:01:a0:75:f5:55:f0:d7:c6:c6:
                    9b:7c:46:4e:90:58:e2:0e:62:67:5f:f1:10:01:ec:
                    00:86:d6:ca:00:13:9a:32:84:7e:a4:39:3c:b2:5e:
                    23:c7:ae:c5:e3:4e:84:86:1c:e1:ed:c4:55:34:df:
                    49:81:48:a9:80:19:5a:1f:cb:c6:1e:a3:8d:bb:2a:
                    b2:03:e0:1c:20:98:65:c6:37:9e:85:d1:fc:2c:22:
                    4e:2c:f0:f0:e2:41:d3:e0:14:ce:d1:1a:64:6b:be:
                    04:0a:44:be:5e:6a:a8:c1:46:cd:af:18:31:ca:77:
                    56:ba:1f:b2:12:7f:b7:f6:4e:a1:8f:cd:96:61:35:
                    0b:2a:4d
                Exponent: 65537 (0x10001)
    Signature Algorithm: sha1WithRSAEncryption
         2e:3a:1b:03:0e:46:5a:80:f1:3a:fe:82:e8:8a:0f:a0:1e:05:
         c1:60:59:6e:81:90:99:6e:59:75:7c:fb:24:2e:18:4c:77:d6:
         89:c9:8f:fd:ee:48:4e:36:59:9d:00:e9:dd:c7:c3:00:31:09:
         3f:d9:86:aa:9b:57:9a:41:55:a6:30:cd:79:0a:c0:00:ff:80:
         93:89:58:a8:49:af:47:45:da:9c:03:cb:01:f3:c7:72:57:cf:
         47:44:0e:31:03:37:e8:b7:f0:3d:ba:24:b8:13:a4:54:e1:fb:
         fd:3d:de:ea:40:fd:3d:dc:35:c9:bc:65:3b:80:00:6e:a1:73:
         fb:83:14:f5:d2:c2:ed:5e:4d:f9:41:cd:00:2f:3c:72:61:40:
         d7:a3:28:05:e1:27:a8:a2:38:60:d2:a3:29:2b:e7:4c:f3:77:
         f4:39:a7:7b:ff:d0:d0:b6:b5:cc:77:03:94:69:99:ce:a6:34:
         63:eb:14:7c:65:f8:de:20:0d:9a:05:ea:7a:0e:b2:7d:bf:a1:
         44:1a:f2:99:f0:30:a5:53:11:5c:0e:53:25:00:31:f7:21:48:
         71:74:e2:8e:f8:aa:97:2b:b9:b8:8e:cc:76:24:63:e4:89:45:
         88:6b:1e:ed:59:c1:3c:7c:f0:83:5e:7c:11:4a:57:01:b9:bf:
         ba:bc:9f:5a:0c:5e:57:b7:52:63:eb:fa:fe:89:e1:c4:a8:3f:
         52:5a:d2:8e:bd:8f:a8:5a:3d:e3:28:02:36:2e:41:ea:65:61:
         8c:00:11:14:85:d2:c0:52:85:8d:36:b7:a7:30:38:d3:44:3e:
         53:8a:e6:cd:ca:4b:94:ae:67:d8:b3:b8:2b:ee:36:83:7f:92:
         85:f0:6a:38:65:5e:19:ab:37:26:68:f5:8e:d2:9b:5d:b7:ca:
         6f:d9:ad:fd:f5:21:99:cd:e2:31:d0:67:c8:8f:74:5c:cd:08:
         6f:45:c0:af:88:9b:ef:58:7d:21:44:42:0d:bb:8c:bb:ff:54:
         b6:61:1f:f9:d0:1e:cd:34:20:a0:20:05:7c:e5:2c:d1:9d:ca:
         8d:a5:7f:58:9e:50:54:ab:20:56:37:97:51:6d:5c:d9:13:a8:
         46:45:6a:60:5a:c8:4b:96:06:06:3e:64:46:26:f0:96:14:77:
         40:ef:03:46:21:80:1e:df:62:42:9b:43:37:3d:e9:68:47:9c:
         87:63:55:47:f2:20:77:9c:7d:12:e1:4b:de:59:68:c4:37:a1:
         37:c2:95:27:c9:c7:39:e3:8f:f3:4f:63:b9:2c:c8:53:0d:0b:
         57:eb:a8:1c:a1:f2:af:d3:60:85:cb:96:e6:c7:b5:0c:e6:c6:
         07:4f:a7:4e:a9:9d:16:60
-----BEGIN CERTIFICATE-----
MIIEzTCCArWgAwIBAgIBATANBgkqhkiG9w0BAQUFADAqMQswCQYDVQQGEwJCRTEb
MBkGA1UEAxMSdHhqc29ucnBjLXB5c2VydmVyMB4XDTEyMDYyMzE1NDczOFoXDTEz
MDYyMzE1NDczOFowKjELMAkGA1UEBhMCQkUxGzAZBgNVBAMTEnR4anNvbnJwYy1w
eXNlcnZlcjCCAiIwDQYJKoZIhvcNAQEBBQADggIPADCCAgoCggIBAKRVDjv9NHgX
Zpu8Ph6BaeAaXy60PYRkAHTBMOsXH6rTwEx+QjiQs7/q/21Ax8tBVZ+DMcTfgKF3
5lLxEqCJ4nHkElwzPz00+0RcEzCcC6zM6/cg1rtv8ov+zIXolE9N7wm38FwAA8PU
89J3CWZKpBTNOgDlYmgqZmybErcvzKG0VDhyGtnVPOsSMGR5pUIQMvOe2NdSLwm5
HUR9dAU+FzgoGuBPgH+6mJtuIbn4D/3G2Yi6+uzhGQU3IO4xjDpJhaVcPWdkewj0
ZnG+yzstaomfsBLovCJXfMpNO7ZYV9Wj4Fe16Tb2kCivd5ox2OC5TDbNV2HNTupc
QWoZ37r41obDLdMzXNgziSLwM5/k30rodlkaLtetz2PiKnbnPaq+lJgMK79/McY2
IWwNHp8vJDAjMsLDezqmus/+7XgjgIqfilDMdxTUPITMJudr734oGphxjIZcKgng
W2NN6M7IaZeueh2ZFQjPHaAHuxG0AsRzteIJfOWRPR9UueVFAaB19VXw18bGm3xG
TpBY4g5iZ1/xEAHsAIbWygATmjKEfqQ5PLJeI8euxeNOhIYc4e3EVTTfSYFIqYAZ
Wh/Lxh6jjbsqsgPgHCCYZcY3noXR/CwiTizw8OJB0+AUztEaZGu+BApEvl5qqMFG
za8YMcp3VrofshJ/t/ZOoY/NlmE1CypNAgMBAAEwDQYJKoZIhvcNAQEFBQADggIB
AC46GwMORlqA8Tr+guiKD6AeBcFgWW6BkJluWXV8+yQuGEx31onJj/3uSE42WZ0A
6d3HwwAxCT/ZhqqbV5pBVaYwzXkKwAD/gJOJWKhJr0dF2pwDywHzx3JXz0dEDjED
N+i38D26JLgTpFTh+/093upA/T3cNcm8ZTuAAG6hc/uDFPXSwu1eTflBzQAvPHJh
QNejKAXhJ6iiOGDSoykr50zzd/Q5p3v/0NC2tcx3A5Rpmc6mNGPrFHxl+N4gDZoF
6noOsn2/oUQa8pnwMKVTEVwOUyUAMfchSHF04o74qpcrubiOzHYkY+SJRYhrHu1Z
wTx88INefBFKVwG5v7q8n1oMXle3UmPr+v6J4cSoP1Ja0o69j6haPeMoAjYuQepl
YYwAERSF0sBShY02t6cwONNEPlOK5s3KS5SuZ9izuCvuNoN/koXwajhlXhmrNyZo
9Y7Sm123ym/Zrf31IZnN4jHQZ8iPdFzNCG9FwK+Im+9YfSFEQg27jLv/VLZhH/nQ
Hs00IKAgBXzlLNGdyo2lf1ieUFSrIFY3l1FtXNkTqEZFamBayEuWBgY+ZEYm8JYU
d0DvA0YhgB7fYkKbQzc96WhHnIdjVUfyIHecfRLhS95ZaMQ3oTfClSfJxznjj/NP
Y7ksyFMNC1frqByh8q/TYIXLlubHtQzmxgdPp06pnRZg
-----END CERTIFICATE-----
