Certificate:
    Data:
        Version: 4 (0x3)
        Serial Number: 1 (0x1)
    Signature Algorithm: sha1WithRSAEncryption
        Issuer: CN=ca-none, C=BE, O=Gremwell bvba
        Validity
            Not Before: Jan  1 00:00:00 1970 GMT
            Not After : Jan 19 03:14:07 2038 GMT
        Subject: CN=txjsonrpc-pyserver, C=BE, O=Gremwell bvba
        Subject Public Key Info:
            Public Key Algorithm: rsaEncryption
                Public-Key: (1024 bit)
                Modulus:
                    00:cc:6f:0b:d2:9c:d9:46:8b:f5:be:07:72:94:9f:
                    de:55:72:5d:e9:c5:09:29:a0:1e:81:95:64:ea:b3:
                    66:6f:e3:11:7b:3d:6c:f2:0e:75:82:fc:f0:03:65:
                    97:31:f1:65:18:7c:89:09:7c:16:81:98:d1:24:81:
                    27:ab:e5:b7:c5:53:1e:47:51:f6:88:fe:62:9f:2c:
                    fe:c1:df:e5:6b:f3:81:64:81:8c:73:48:5a:ec:df:
                    bd:b1:c2:b3:f1:7d:12:53:52:a1:d1:15:3e:66:41:
                    e6:cb:93:8d:ec:0f:62:14:55:6b:34:5d:87:04:97:
                    0d:39:ad:c5:61:ed:01:28:95
                Exponent: 65537 (0x10001)
    Signature Algorithm: sha1WithRSAEncryption
         ab:92:6b:a2:26:33:ee:33:43:52:74:c5:62:cf:cb:b0:2a:58:
         c6:d0:02:d6:8e:51:df:df:bb:21:3b:9c:88:41:79:d5:40:02:
         fe:d1:23:e9:d0:30:f7:8d:88:d6:c0:bd:9e:a2:be:95:99:c7:
         ad:24:cc:82:82:b6:72:4a:fa:1e:31:cd:a8:d8:6c:a2:89:86:
         98:93:ce:eb:fa:ff:82:8c:82:aa:b2:5d:7a:f4:47:96:61:16:
         67:0b:07:9d:76:0a:3a:4b:0b:60:d7:c1:57:c5:9e:90:a2:b5:
         35:82:53:82:03:b0:b0:0c:7a:9e:6a:f2:8d:1a:7e:5e:62:8b:
         e9:ea
-----BEGIN CERTIFICATE-----
MIIB7TCCAVagAwIBAwIBATANBgkqhkiG9w0BAQUFADA3MRAwDgYDVQQDEwdjYS1u
b25lMQswCQYDVQQGEwJCRTEWMBQGA1UEChMNR3JlbXdlbGwgYnZiYTAeFw03MDAx
MDEwMDAwMDBaFw0zODAxMTkwMzE0MDdaMEIxGzAZBgNVBAMTEnR4anNvbnJwYy1w
eXNlcnZlcjELMAkGA1UEBhMCQkUxFjAUBgNVBAoTDUdyZW13ZWxsIGJ2YmEwgZ8w
DQYJKoZIhvcNAQEBBQADgY0AMIGJAoGBAMxvC9Kc2UaL9b4HcpSf3lVyXenFCSmg
HoGVZOqzZm/jEXs9bPIOdYL88ANllzHxZRh8iQl8FoGY0SSBJ6vlt8VTHkdR9oj+
Yp8s/sHf5WvzgWSBjHNIWuzfvbHCs/F9ElNSodEVPmZB5suTjewPYhRVazRdhwSX
DTmtxWHtASiVAgMBAAEwDQYJKoZIhvcNAQEFBQADgYEAq5JroiYz7jNDUnTFYs/L
sCpYxtAC1o5R39+7ITuciEF51UAC/tEj6dAw942I1sC9nqK+lZnHrSTMgoK2ckr6
HjHNqNhsoomGmJPO6/r/goyCqrJdevRHlmEWZwsHnXYKOksLYNfBV8WekKK1NYJT
ggOwsAx6nmryjRp+XmKL6eo=
-----END CERTIFICATE-----
Certificate:
    Data:
        Version: 4 (0x3)
        Serial Number: 1 (0x1)
    Signature Algorithm: sha1WithRSAEncryption
        Issuer: C=BE, CN=txjsonrpc-test-ca
        Validity
            Not Before: Jan  1 00:00:00 1970 GMT
            Not After : Jan 19 03:14:07 2038 GMT
        Subject: CN=ca-none, C=BE, O=Gremwell bvba
        Subject Public Key Info:
            Public Key Algorithm: rsaEncryption
                Public-Key: (1024 bit)
                Modulus:
                    00:d2:34:76:8a:6a:7b:f7:a2:25:a0:2a:6b:3d:e2:
                    b3:c0:a7:ef:15:8d:7c:bf:d6:58:62:de:ff:99:ae:
                    9d:6e:92:d7:4d:27:44:a1:8c:80:c7:2c:89:47:03:
                    08:38:f1:fb:bd:1d:68:d0:f1:c9:86:9d:14:54:b5:
                    8a:4c:44:ab:27:70:6c:b0:70:53:71:0b:88:3c:9c:
                    f5:09:63:77:f7:b6:81:04:82:21:18:23:cb:77:8d:
                    a4:29:3d:1a:92:cf:7c:f4:2e:5f:28:60:e3:05:18:
                    98:15:bd:0e:fb:9b:c6:5f:7a:1a:e8:ec:89:86:bd:
                    d7:47:fb:0c:13:db:c7:94:4f
                Exponent: 65537 (0x10001)
    Signature Algorithm: sha1WithRSAEncryption
         26:9d:eb:d9:4c:2b:22:db:ba:89:69:45:ff:60:48:93:3d:c0:
         2c:1e:60:ed:91:a3:dc:8b:4e:d2:39:d2:05:58:6c:62:0f:5d:
         fd:86:83:63:bb:01:94:dd:57:83:98:28:9f:67:d1:7b:d8:b8:
         f1:b9:7a:e4:9e:e9:65:28:3a:b6:12:6b:72:d6:fb:c5:ea:e3:
         18:08:92:15:da:ec:93:18:72:e7:a7:7b:e5:6f:1b:c1:1d:6c:
         24:d0:68:ca:96:88:79:9c:72:1d:ee:9f:09:1e:bc:a4:0b:11:
         20:8f:d3:14:db:ab:56:d5:03:9b:61:16:ca:c6:43:0e:65:59:
         98:8a:e4:22:12:da:83:a7:a3:9d:f8:65:80:7d:80:79:f9:4e:
         d9:53:37:b6:c5:73:49:ee:3c:61:e2:96:13:a9:40:20:74:57:
         d2:86:95:de:a7:47:e5:cf:c9:bf:c6:64:ff:51:7b:60:4b:c2:
         44:41:8d:da:aa:17:af:1f:f7:8a:82:94:0b:a2:80:d6:f3:79:
         ea:38:85:e0:29:48:c1:84:6c:9d:71:30:4a:a1:41:4d:6e:66:
         51:7e:73:69:bb:24:fe:ab:18:9f:c9:40:39:b7:ed:7c:42:cf:
         0e:7a:40:5c:7e:09:39:17:8e:3f:e2:bb:ea:42:08:5a:d5:66:
         32:2a:60:3b:b6:6a:78:51:aa:a4:f8:e4:e9:95:05:f8:78:bf:
         48:4d:5a:0f:17:fe:4d:c4:f6:7f:5c:aa:ad:a6:15:4e:2c:65:
         b8:ef:5a:9b:88:05:ef:32:64:ed:89:c8:74:36:08:ac:9b:49:
         18:10:08:21:57:d5:37:71:ae:25:0a:84:e4:be:41:90:86:4d:
         3c:90:b4:70:4f:2e:0e:1e:f7:bb:15:03:87:94:57:0e:13:ec:
         51:20:ff:65:c0:32:ec:c6:22:e5:95:a6:3c:44:ef:bc:68:c2:
         0d:70:56:b5:30:e1:c4:a7:5a:aa:d4:5b:f1:cd:42:b3:dc:9b:
         90:75:de:c4:50:09:88:5a:81:b8:1c:c4:be:39:2c:4c:8d:f2:
         fe:69:36:8e:32:26:18:89:58:13:3a:5b:ee:05:c9:9d:e8:81:
         f5:6e:17:13:b4:2a:b7:96:1f:3a:f2:19:1c:f5:6d:82:d5:35:
         a3:b4:4b:a2:36:41:ea:fd:3c:f4:63:48:36:d6:11:e5:5d:be:
         ba:8e:36:82:c7:4c:34:95:b7:58:54:c4:4b:6c:cd:02:a8:a6:
         51:99:43:33:33:f8:49:44:32:d6:bd:8d:5c:91:74:40:c0:65:
         61:bf:6c:e4:24:8a:60:e7:77:0b:d3:40:87:bf:ad:17:c1:88:
         46:ee:25:54:cb:16:f4:26
-----BEGIN CERTIFICATE-----
MIIDVTCCAT2gAwIBAwIBATANBgkqhkiG9w0BAQUFADApMQswCQYDVQQGEwJCRTEa
MBgGA1UEAxMRdHhqc29ucnBjLXRlc3QtY2EwHhcNNzAwMTAxMDAwMDAwWhcNMzgw
MTE5MDMxNDA3WjA3MRAwDgYDVQQDEwdjYS1ub25lMQswCQYDVQQGEwJCRTEWMBQG
A1UEChMNR3JlbXdlbGwgYnZiYTCBnzANBgkqhkiG9w0BAQEFAAOBjQAwgYkCgYEA
0jR2imp796IloCprPeKzwKfvFY18v9ZYYt7/ma6dbpLXTSdEoYyAxyyJRwMIOPH7
vR1o0PHJhp0UVLWKTESrJ3BssHBTcQuIPJz1CWN397aBBIIhGCPLd42kKT0aks98
9C5fKGDjBRiYFb0O+5vGX3oa6OyJhr3XR/sME9vHlE8CAwEAATANBgkqhkiG9w0B
AQUFAAOCAgEAJp3r2UwrItu6iWlF/2BIkz3ALB5g7ZGj3ItO0jnSBVhsYg9d/YaD
Y7sBlN1Xg5gon2fRe9i48bl65J7pZSg6thJrctb7xerjGAiSFdrskxhy56d75W8b
wR1sJNBoypaIeZxyHe6fCR68pAsRII/TFNurVtUDm2EWysZDDmVZmIrkIhLag6ej
nfhlgH2AeflO2VM3tsVzSe48YeKWE6lAIHRX0oaV3qdH5c/Jv8Zk/1F7YEvCREGN
2qoXrx/3ioKUC6KA1vN56jiF4ClIwYRsnXEwSqFBTW5mUX5zabsk/qsYn8lAObft
fELPDnpAXH4JOReOP+K76kIIWtVmMipgO7ZqeFGqpPjk6ZUF+Hi/SE1aDxf+TcT2
f1yqraYVTixluO9am4gF7zJk7YnIdDYIrJtJGBAIIVfVN3GuJQqE5L5BkIZNPJC0
cE8uDh73uxUDh5RXDhPsUSD/ZcAy7MYi5ZWmPETvvGjCDXBWtTDhxKdaqtRb8c1C
s9ybkHXexFAJiFqBuBzEvjksTI3y/mk2jjImGIlYEzpb7gXJneiB9W4XE7Qqt5Yf
OvIZHPVtgtU1o7RLojZB6v089GNINtYR5V2+uo42gsdMNJW3WFTES2zNAqimUZlD
MzP4SUQy1r2NXJF0QMBlYb9s5CSKYOd3C9NAh7+tF8GIRu4lVMsW9CY=
-----END CERTIFICATE-----
