Certificate:
    Data:
        Version: 3 (0x2)
        Serial Number: 1 (0x1)
    Signature Algorithm: sha1WithRSAEncryption
        Issuer: C=BE, CN=txjsonrpc-test-ca
        Validity
            Not Before: Jun 23 15:47:38 2012 GMT
            Not After : Jun 23 15:47:38 2013 GMT
        Subject: C=BE, CN=txjsonrpc-pyserver
        Subject Public Key Info:
            Public Key Algorithm: rsaEncryption
                Public-Key: (4096 bit)
                Modulus:
                    00:a4:55:0e:3b:fd:34:78:17:66:9b:bc:3e:1e:81:
                    69:e0:1a:5f:2e:b4:3d:84:64:00:74:c1:30:eb:17:
                    1f:aa:d3:c0:4c:7e:42:38:90:b3:bf:ea:ff:6d:40:
                    c7:cb:41:55:9f:83:31:c4:df:80:a1:77:e6:52:f1:
                    12:a0:89:e2:71:e4:12:5c:33:3f:3d:34:fb:44:5c:
                    13:30:9c:0b:ac:cc:eb:f7:20:d6:bb:6f:f2:8b:fe:
                    cc:85:e8:94:4f:4d:ef:09:b7:f0:5c:00:03:c3:d4:
                    f3:d2:77:09:66:4a:a4:14:cd:3a:00:e5:62:68:2a:
                    66:6c:9b:12:b7:2f:cc:a1:b4:54:38:72:1a:d9:d5:
                    3c:eb:12:30:64:79:a5:42:10:32:f3:9e:d8:d7:52:
                    2f:09:b9:1d:44:7d:74:05:3e:17:38:28:1a:e0:4f:
                    80:7f:ba:98:9b:6e:21:b9:f8:0f:fd:c6:d9:88:ba:
                    fa:ec:e1:19:05:37:20:ee:31:8c:3a:49:85:a5:5c:
                    3d:67:64:7b:08:f4:66:71:be:cb:3b:2d:6a:89:9f:
                    b0:12:e8:bc:22:57:7c:ca:4d:3b:b6:58:57:d5:a3:
                    e0:57:b5:e9:36:f6:90:28:af:77:9a:31:d8:e0:b9:
                    4c:36:cd:57:61:cd:4e:ea:5c:41:6a:19:df:ba:f8:
                    d6:86:c3:2d:d3:33:5c:d8:33:89:22:f0:33:9f:e4:
                    df:4a:e8:76:59:1a:2e:d7:ad:cf:63:e2:2a:76:e7:
                    3d:aa:be:94:98:0c:2b:bf:7f:31:c6:36:21:6c:0d:
                    1e:9f:2f:24:30:23:32:c2:c3:7b:3a:a6:ba:cf:fe:
                    ed:78:23:80:8a:9f:8a:50:cc:77:14:d4:3c:84:cc:
                    26:e7:6b:ef:7e:28:1a:98:71:8c:86:5c:2a:09:e0:
                    5b:63:4d:e8:ce:c8:69:97:ae:7a:1d:99:15:08:cf:
                    1d:a0:07:bb:11:b4:02:c4:73:b5:e2:09:7c:e5:91:
                    3d:1f:54:b9:e5:45:01:a0:75:f5:55:f0:d7:c6:c6:
                    9b:7c:46:4e:90:58:e2:0e:62:67:5f:f1:10:01:ec:
                    00:86:d6:ca:00:13:9a:32:84:7e:a4:39:3c:b2:5e:
                    23:c7:ae:c5:e3:4e:84:86:1c:e1:ed:c4:55:34:df:
                    49:81:48:a9:80:19:5a:1f:cb:c6:1e:a3:8d:bb:2a:
                    b2:03:e0:1c:20:98:65:c6:37:9e:85:d1:fc:2c:22:
                    4e:2c:f0:f0:e2:41:d3:e0:14:ce:d1:1a:64:6b:be:
                    04:0a:44:be:5e:6a:a8:c1:46:cd:af:18:31:ca:77:
                    56:ba:1f:b2:12:7f:b7:f6:4e:a1:8f:cd:96:61:35:
                    0b:2a:4d
                Exponent: 65537 (0x10001)
    Signature Algorithm: sha1WithRSAEncryption
         6e:16:84:c6:fa:49:98:5c:27:09:4c:18:2f:26:ac:bf:1b:37:
         1e:6d:dd:e7:81:e8:8a:1d:55:af:1d:36:e8:88:ba:40:c1:58:
         b0:ed:bb:1d:80:2e:b6:7f:36:fe:d2:5a:55:25:eb:c4:27:67:
         8d:d1:31:f3:f6:6d:91:10:09:70:f6:ff:7b:ea:3a:cd:6d:19:
         de:02:a1:ef:0f:30:52:ef:b1:90:e8:d2:f5:73:45:8d:9d:b0:
         e5:49:e3:85:27:59:9e:9a:38:0e:37:b8:01:85:a5:a5:87:95:
         8a:22:be:9f:bc:8b:89:d8:96:1d:30:69:64:86:71:30:b3:cb:
         6d:df:0c:04:b3:b7:e5:99:5a:ec:a7:21:14:e5:39:23:c0:ba:
         80:c1:c5:9b:af:60:19:ba:d8:2f:82:45:5f:81:81:94:b0:f8:
         f4:1c:35:41:2a:cb:d6:80:cf:b5:b4:4e:be:97:c2:df:af:46:
         10:6e:77:b1:de:ec:90:3a:10:e3:6a:79:2c:5d:74:a5:27:58:
         f8:d8:c5:ea:71:d2:e1:da:34:40:af:32:fb:fa:46:03:04:5b:
         79:a6:9d:84:fd:6b:96:00:f9:0d:bc:88:23:0e:6a:a5:d1:53:
         78:cd:af:ae:8a:11:ab:15:cd:f1:a2:f2:fc:c0:46:a3:ae:3c:
         3c:9d:7b:d9:ba:d7:1b:25:8b:e5:96:4c:60:7e:f7:a5:19:de:
         be:8b:bd:1b:52:81:29:3e:74:86:d5:f7:95:bc:62:00:ea:95:
         32:d7:39:5e:9e:d1:99:80:c1:58:18:32:17:69:7b:c9:f9:0a:
         ed:7c:ba:b3:99:d8:4e:3e:63:cf:0f:ae:2c:87:5e:5f:bf:81:
         fc:86:33:50:54:51:e6:7a:12:3c:d4:14:d6:a7:10:a8:96:b2:
         af:4d:c1:f4:c5:d0:ee:10:17:64:91:a5:c6:d8:c5:43:c2:0c:
         6a:23:88:16:f0:da:47:24:f4:c0:22:67:fc:75:16:54:08:2d:
         ce:27:e6:18:7a:fa:b2:45:54:da:3c:31:9e:c5:4f:ac:57:2b:
         ed:1e:fc:eb:fb:e2:dd:bf:56:08:60:56:fd:68:85:0b:94:86:
         4c:62:b4:4a:eb:3f:1b:f0:bf:b0:23:94:19:3f:8a:6b:3b:9f:
         87:ad:7a:c1:b5:44:9c:bd:2e:01:79:a8:cf:42:c9:83:a5:c2:
         f7:c2:f9:de:1a:12:b7:8d:d6:04:28:3b:14:9e:94:3e:08:26:
         bc:a8:82:d1:fb:f3:93:f1:3d:9f:c8:80:c3:f0:ab:bb:c7:52:
         5b:55:a6:d6:9c:f2:17:ce:5b:7e:0e:25:ac:83:91:ae:11:bd:
         23:57:dd:8e:5e:52:61:40
-----BEGIN CERTIFICATE-----
MIIEzDCCArSgAwIBAgIBATANBgkqhkiG9w0BAQUFADApMQswCQYDVQQGEwJCRTEa
MBgGA1UEAxMRdHhqc29ucnBjLXRlc3QtY2EwHhcNMTIwNjIzMTU0NzM4WhcNMTMw
NjIzMTU0NzM4WjAqMQswCQYDVQQGEwJCRTEbMBkGA1UEAxMSdHhqc29ucnBjLXB5
c2VydmVyMIICIjANBgkqhkiG9w0BAQEFAAOCAg8AMIICCgKCAgEApFUOO/00eBdm
m7w+HoFp4BpfLrQ9hGQAdMEw6xcfqtPATH5COJCzv+r/bUDHy0FVn4MxxN+AoXfm
UvESoIniceQSXDM/PTT7RFwTMJwLrMzr9yDWu2/yi/7MheiUT03vCbfwXAADw9Tz
0ncJZkqkFM06AOViaCpmbJsSty/MobRUOHIa2dU86xIwZHmlQhAy857Y11IvCbkd
RH10BT4XOCga4E+Af7qYm24hufgP/cbZiLr67OEZBTcg7jGMOkmFpVw9Z2R7CPRm
cb7LOy1qiZ+wEui8Ild8yk07tlhX1aPgV7XpNvaQKK93mjHY4LlMNs1XYc1O6lxB
ahnfuvjWhsMt0zNc2DOJIvAzn+TfSuh2WRou163PY+Iqduc9qr6UmAwrv38xxjYh
bA0eny8kMCMywsN7Oqa6z/7teCOAip+KUMx3FNQ8hMwm52vvfigamHGMhlwqCeBb
Y03ozshpl656HZkVCM8doAe7EbQCxHO14gl85ZE9H1S55UUBoHX1VfDXxsabfEZO
kFjiDmJnX/EQAewAhtbKABOaMoR+pDk8sl4jx67F406Ehhzh7cRVNN9JgUipgBla
H8vGHqONuyqyA+AcIJhlxjeehdH8LCJOLPDw4kHT4BTO0Rpka74ECkS+XmqowUbN
rxgxyndWuh+yEn+39k6hj82WYTULKk0CAwEAATANBgkqhkiG9w0BAQUFAAOCAgEA
bhaExvpJmFwnCUwYLyasvxs3Hm3d54Hoih1Vrx026Ii6QMFYsO27HYAutn82/tJa
VSXrxCdnjdEx8/ZtkRAJcPb/e+o6zW0Z3gKh7w8wUu+xkOjS9XNFjZ2w5UnjhSdZ
npo4Dje4AYWlpYeViiK+n7yLidiWHTBpZIZxMLPLbd8MBLO35Zla7KchFOU5I8C6
gMHFm69gGbrYL4JFX4GBlLD49Bw1QSrL1oDPtbROvpfC369GEG53sd7skDoQ42p5
LF10pSdY+NjF6nHS4do0QK8y+/pGAwRbeaadhP1rlgD5DbyIIw5qpdFTeM2vrooR
qxXN8aLy/MBGo648PJ172brXGyWL5ZZMYH73pRnevou9G1KBKT50htX3lbxiAOqV
Mtc5Xp7RmYDBWBgyF2l7yfkK7Xy6s5nYTj5jzw+uLIdeX7+B/IYzUFRR5noSPNQU
1qcQqJayr03B9MXQ7hAXZJGlxtjFQ8IMaiOIFvDaRyT0wCJn/HUWVAgtzifmGHr6
skVU2jwxnsVPrFcr7R786/vi3b9WCGBW/WiFC5SGTGK0Sus/G/C/sCOUGT+Kazuf
h616wbVEnL0uAXmoz0LJg6XC98L53hoSt43WBCg7FJ6UPggmvKiC0fvzk/E9n8iA
w/Cru8dSW1Wm1pzyF85bfg4lrIORrhG9I1fdjl5SYUA=
-----END CERTIFICATE-----
Certificate:
    Data:
        Version: 3 (0x2)
        Serial Number: 10219423159405941259 (0x8dd2af37f9ca920b)
    Signature Algorithm: sha1WithRSAEncryption
        Issuer: C=BE, CN=txjsonrpc-test-ca
        Validity
            Not Before: Jun 23 15:46:37 2012 GMT
            Not After : Jun 21 15:46:37 2022 GMT
        Subject: C=BE, CN=txjsonrpc-test-ca
        Subject Public Key Info:
            Public Key Algorithm: rsaEncryption
                Public-Key: (4096 bit)
                Modulus:
                    00:d1:25:af:77:c5:a8:72:cf:90:b9:39:10:fb:7b:
                    75:2c:a1:da:6a:95:e5:44:0c:d6:25:4b:58:7f:bb:
                    07:82:59:49:58:32:85:24:cc:3e:77:db:e1:a7:4f:
                    c8:b5:cb:ee:45:38:bd:bc:fb:e3:76:3b:88:04:ca:
                    ab:3a:a3:96:3b:5f:93:9c:28:a6:61:97:dc:a2:3f:
                    a0:93:2b:56:6c:cf:d3:4f:6a:9e:05:d3:1c:cd:ef:
                    75:80:1a:98:b7:92:49:14:33:b8:c4:7c:73:8c:7e:
                    83:a5:81:a2:59:8c:8b:a3:51:36:6d:68:ac:f2:f1:
                    ed:6f:49:d9:af:7a:63:c1:43:31:42:b6:c7:cd:b9:
                    78:b7:33:98:70:92:6c:9e:04:7a:7b:f0:6d:38:87:
                    eb:00:13:17:b9:d9:ec:b4:66:bb:51:d3:fd:81:e3:
                    0e:88:71:23:d2:80:2a:61:de:ab:25:02:47:a9:c1:
                    6b:c9:69:ae:da:47:b6:49:74:ac:a6:e1:c1:76:ba:
                    6d:b1:d9:68:6e:1c:37:a8:e2:18:60:37:b6:58:13:
                    6c:c7:92:7c:c6:45:8c:ef:c3:81:73:10:dc:2f:31:
                    e2:b9:05:5a:9e:28:70:5a:3e:1d:b8:68:71:81:c9:
                    e8:fe:1f:c3:a0:13:f8:e4:24:12:ba:91:8e:15:d2:
                    03:f1:8c:b0:aa:e2:34:e4:6b:f8:06:f6:23:8a:92:
                    43:a6:05:dc:e9:c7:a5:a8:06:d7:6e:91:52:72:47:
                    ab:ae:87:fe:b3:0f:04:87:6f:4b:22:29:e9:a9:06:
                    52:58:7d:03:16:d7:d5:31:44:b4:f1:51:44:a7:2a:
                    ba:5e:09:19:ec:4c:a2:e0:58:fe:0d:4e:b7:90:4d:
                    02:ac:2a:ad:99:14:65:3b:0a:3c:73:45:56:b2:0f:
                    10:25:24:51:79:57:1a:34:1a:10:6f:60:e0:fc:81:
                    db:ca:c2:e2:85:1b:4c:72:13:5c:9d:76:cc:d0:21:
                    33:31:56:82:8f:c5:57:b9:44:fd:8b:76:c1:b6:e4:
                    21:8b:35:9a:ee:54:74:9f:72:6b:19:84:d7:a2:3c:
                    a5:6e:11:0a:f1:93:04:2e:dd:7c:4c:7d:62:10:d4:
                    1b:8b:87:f6:ed:bf:12:b1:8b:f0:9a:7a:ee:02:94:
                    e1:3c:46:2b:7f:9c:54:fb:2e:61:c9:1c:ef:fc:de:
                    25:bc:2d:75:1b:1f:49:5e:44:3b:15:93:ad:c4:89:
                    d9:ae:3c:da:54:ef:d9:af:3a:16:cb:94:1b:6a:14:
                    e4:42:f9:75:33:46:6e:fb:40:bc:f8:82:36:cf:60:
                    f5:c2:a2:98:23:a7:2a:ae:c1:aa:22:f8:87:da:b7:
                    9c:a4:cf
                Exponent: 65537 (0x10001)
        X509v3 extensions:
            X509v3 Subject Key Identifier: 
                9D:8F:84:76:94:CD:07:FE:A3:E8:8B:D7:F9:D9:6E:EF:CA:75:51:7B
            X509v3 Authority Key Identifier: 
                keyid:9D:8F:84:76:94:CD:07:FE:A3:E8:8B:D7:F9:D9:6E:EF:CA:75:51:7B
                DirName:/C=BE/CN=txjsonrpc-test-ca
                serial:8D:D2:AF:37:F9:CA:92:0B

            X509v3 Basic Constraints: critical
                CA:TRUE
            Netscape Cert Type: 
                SSL CA, S/MIME CA
            X509v3 Issuer Alternative Name: 
                <EMPTY>

            Netscape Comment: 
                Test CA for txjsonrcp
            X509v3 Subject Alternative Name: 
                <EMPTY>

            X509v3 Key Usage: critical
                Certificate Sign, CRL Sign
    Signature Algorithm: sha1WithRSAEncryption
         06:82:86:81:a9:1b:7e:2d:ef:f5:fc:cc:d2:9d:d6:82:ad:d0:
         6f:7e:3d:b9:5c:b2:0f:3a:64:21:9a:fb:53:b2:93:81:dc:1a:
         24:fc:b8:30:57:a2:c7:71:0d:9c:1a:0b:8a:6c:89:52:8b:8a:
         f5:af:95:3e:b8:08:39:ee:36:50:ac:60:4d:df:2b:49:a2:72:
         f1:3f:12:3c:d9:55:56:a4:9a:77:2b:77:fa:16:b5:76:d9:f4:
         c4:51:6b:b9:fe:2f:a3:52:e8:64:80:49:22:6d:05:42:87:af:
         9d:85:6c:fa:c9:9b:48:39:7b:89:f5:a0:1e:ff:11:d3:9c:78:
         b1:b2:f6:4d:b1:e8:b3:98:23:2c:d4:20:e1:a1:01:3e:26:0a:
         5b:8e:eb:58:45:22:cf:e1:94:ad:84:40:b0:fb:ff:25:5f:31:
         9a:49:0b:36:ad:c6:1a:b0:42:60:40:e2:a2:3c:5a:36:41:89:
         fc:10:c4:60:ea:d4:85:7b:36:84:df:aa:81:cc:69:e7:52:ca:
         c1:46:b1:79:93:51:4f:24:84:42:14:3a:20:a0:6c:27:76:40:
         0f:96:7e:4e:c3:0c:37:b3:e3:73:49:86:58:31:00:1e:e7:0f:
         87:74:b6:4e:6e:1c:7d:87:a4:33:04:c9:76:ec:e5:3a:85:5f:
         a8:d1:ad:21:64:5e:c5:6a:df:b1:02:6e:65:a4:87:72:06:07:
         da:e5:f2:af:2b:a5:eb:18:80:67:83:a5:3c:e6:ed:d1:58:f9:
         90:5c:d6:e9:2f:76:c1:58:13:b8:bd:88:8a:f3:04:48:bb:42:
         8f:7f:c6:db:b4:30:3f:bb:6c:d5:47:e5:ae:8d:4b:da:92:a5:
         db:d3:6e:a8:9b:c2:6b:56:af:34:63:82:e6:78:f8:1f:54:d7:
         41:aa:a3:c9:7c:a6:83:41:bf:6e:33:7c:ae:e6:92:bd:da:27:
         b4:bc:e2:90:4f:33:1b:01:a1:cd:02:13:7a:31:ef:00:d6:9a:
         6e:38:6b:a7:cb:70:98:a8:0f:ff:1c:56:a8:b7:e6:d2:42:5a:
         bb:f4:78:27:71:13:d0:e8:43:eb:bc:2d:4f:e4:ea:4d:4f:76:
         7f:53:38:34:eb:13:e2:3d:c6:14:98:86:1c:ab:2c:0e:b7:68:
         2e:bd:63:a9:6a:8f:d5:22:2d:ab:13:d7:62:54:51:ff:5c:37:
         08:04:27:da:f9:57:77:05:18:73:88:5f:b0:c1:65:50:36:09:
         d6:c7:f5:ae:6e:3f:04:d1:84:3c:21:74:1d:bd:0a:fb:76:d0:
         13:2b:62:bb:24:48:43:89:d0:18:5c:b4:ad:ea:98:af:6d:fc:
         1c:6b:1f:06:64:54:23:88
-----BEGIN CERTIFICATE-----
MIIFwzCCA6ugAwIBAgIJAI3Srzf5ypILMA0GCSqGSIb3DQEBBQUAMCkxCzAJBgNV
BAYTAkJFMRowGAYDVQQDExF0eGpzb25ycGMtdGVzdC1jYTAeFw0xMjA2MjMxNTQ2
MzdaFw0yMjA2MjExNTQ2MzdaMCkxCzAJBgNVBAYTAkJFMRowGAYDVQQDExF0eGpz
b25ycGMtdGVzdC1jYTCCAiIwDQYJKoZIhvcNAQEBBQADggIPADCCAgoCggIBANEl
r3fFqHLPkLk5EPt7dSyh2mqV5UQM1iVLWH+7B4JZSVgyhSTMPnfb4adPyLXL7kU4
vbz743Y7iATKqzqjljtfk5wopmGX3KI/oJMrVmzP009qngXTHM3vdYAamLeSSRQz
uMR8c4x+g6WBolmMi6NRNm1orPLx7W9J2a96Y8FDMUK2x825eLczmHCSbJ4Eenvw
bTiH6wATF7nZ7LRmu1HT/YHjDohxI9KAKmHeqyUCR6nBa8lprtpHtkl0rKbhwXa6
bbHZaG4cN6jiGGA3tlgTbMeSfMZFjO/DgXMQ3C8x4rkFWp4ocFo+HbhocYHJ6P4f
w6AT+OQkErqRjhXSA/GMsKriNORr+Ab2I4qSQ6YF3OnHpagG126RUnJHq66H/rMP
BIdvSyIp6akGUlh9AxbX1TFEtPFRRKcqul4JGexMouBY/g1Ot5BNAqwqrZkUZTsK
PHNFVrIPECUkUXlXGjQaEG9g4PyB28rC4oUbTHITXJ12zNAhMzFWgo/FV7lE/Yt2
wbbkIYs1mu5UdJ9yaxmE16I8pW4RCvGTBC7dfEx9YhDUG4uH9u2/ErGL8Jp67gKU
4TxGK3+cVPsuYckc7/zeJbwtdRsfSV5EOxWTrcSJ2a482lTv2a86FsuUG2oU5EL5
dTNGbvtAvPiCNs9g9cKimCOnKq7BqiL4h9q3nKTPAgMBAAGjge0wgeowHQYDVR0O
BBYEFJ2PhHaUzQf+o+iL1/nZbu/KdVF7MFkGA1UdIwRSMFCAFJ2PhHaUzQf+o+iL
1/nZbu/KdVF7oS2kKzApMQswCQYDVQQGEwJCRTEaMBgGA1UEAxMRdHhqc29ucnBj
LXRlc3QtY2GCCQCN0q83+cqSCzAPBgNVHRMBAf8EBTADAQH/MBEGCWCGSAGG+EIB
AQQEAwIBBjAJBgNVHRIEAjAAMCQGCWCGSAGG+EIBDQQXFhVUZXN0IENBIGZvciB0
eGpzb25yY3AwCQYDVR0RBAIwADAOBgNVHQ8BAf8EBAMCAQYwDQYJKoZIhvcNAQEF
BQADggIBAAaChoGpG34t7/X8zNKd1oKt0G9+Pblcsg86ZCGa+1Oyk4HcGiT8uDBX
osdxDZwaC4psiVKLivWvlT64CDnuNlCsYE3fK0micvE/EjzZVVakmncrd/oWtXbZ
9MRRa7n+L6NS6GSASSJtBUKHr52FbPrJm0g5e4n1oB7/EdOceLGy9k2x6LOYIyzU
IOGhAT4mCluO61hFIs/hlK2EQLD7/yVfMZpJCzatxhqwQmBA4qI8WjZBifwQxGDq
1IV7NoTfqoHMaedSysFGsXmTUU8khEIUOiCgbCd2QA+Wfk7DDDez43NJhlgxAB7n
D4d0tk5uHH2HpDMEyXbs5TqFX6jRrSFkXsVq37ECbmWkh3IGB9rl8q8rpesYgGeD
pTzm7dFY+ZBc1ukvdsFYE7i9iIrzBEi7Qo9/xtu0MD+7bNVH5a6NS9qSpdvTbqib
wmtWrzRjguZ4+B9U10Gqo8l8poNBv24zfK7mkr3aJ7S84pBPMxsBoc0CE3ox7wDW
mm44a6fLcJioD/8cVqi35tJCWrv0eCdxE9DoQ+u8LU/k6k1Pdn9TODTrE+I9xhSY
hhyrLA63aC69Y6lqj9UiLasT12JUUf9cNwgEJ9r5V3cFGHOIX7DBZVA2CdbH9a5u
PwTRhDwhdB29Cvt20BMrYrskSEOJ0BhctK3qmK9t/BxrHwZkVCOI
-----END CERTIFICATE-----
