Certificate:
    Data:
        Version: 4 (0x3)
        Serial Number: 1 (0x1)
    Signature Algorithm: sha1WithRSAEncryption
        Issuer: CN=txjsonrpc-pyserver, C=BE, O=Gremwell bvba
        Validity
            Not Before: Jan  1 00:00:00 1970 GMT
            Not After : Jan 19 03:14:07 2038 GMT
        Subject: CN=txjsonrpc-pyserver, C=BE, O=Gremwell bvba
        Subject Public Key Info:
            Public Key Algorithm: rsaEncryption
                Public-Key: (1024 bit)
                Modulus:
                    00:cc:6f:0b:d2:9c:d9:46:8b:f5:be:07:72:94:9f:
                    de:55:72:5d:e9:c5:09:29:a0:1e:81:95:64:ea:b3:
                    66:6f:e3:11:7b:3d:6c:f2:0e:75:82:fc:f0:03:65:
                    97:31:f1:65:18:7c:89:09:7c:16:81:98:d1:24:81:
                    27:ab:e5:b7:c5:53:1e:47:51:f6:88:fe:62:9f:2c:
                    fe:c1:df:e5:6b:f3:81:64:81:8c:73:48:5a:ec:df:
                    bd:b1:c2:b3:f1:7d:12:53:52:a1:d1:15:3e:66:41:
                    e6:cb:93:8d:ec:0f:62:14:55:6b:34:5d:87:04:97:
                    0d:39:ad:c5:61:ed:01:28:95
                Exponent: 65537 (0x10001)
    Signature Algorithm: sha1WithRSAEncryption
         49:69:05:7e:5c:d8:c4:44:cc:e4:a8:14:4f:18:18:a0:30:97:
         ea:88:0f:2f:b1:f2:88:c6:61:ba:49:f5:b3:b1:87:c8:e9:b8:
         1a:a3:d2:b2:8a:2d:d2:42:64:01:23:8a:3c:a8:8c:dc:69:91:
         7a:c4:ff:79:9e:5c:d9:a4:91:92:07:82:0e:62:3e:a8:2a:16:
         78:22:85:93:c5:48:8a:14:fe:03:01:d5:50:5b:ad:37:bc:20:
         47:d6:da:7e:61:81:a3:52:fc:03:59:90:a8:6f:3c:9a:aa:f6:
         de:26:bb:e1:fd:ac:6a:72:c7:2c:70:a0:6c:ca:1e:ce:8c:9f:
         64:93
-----BEGIN CERTIFICATE-----
MIIB+DCCAWGgAwIBAwIBATANBgkqhkiG9w0BAQUFADBCMRswGQYDVQQDExJ0eGpz
b25ycGMtcHlzZXJ2ZXIxCzAJBgNVBAYTAkJFMRYwFAYDVQQKEw1HcmVtd2VsbCBi
dmJhMB4XDTcwMDEwMTAwMDAwMFoXDTM4MDExOTAzMTQwN1owQjEbMBkGA1UEAxMS
dHhqc29ucnBjLXB5c2VydmVyMQswCQYDVQQGEwJCRTEWMBQGA1UEChMNR3JlbXdl
bGwgYnZiYTCBnzANBgkqhkiG9w0BAQEFAAOBjQAwgYkCgYEAzG8L0pzZRov1vgdy
lJ/eVXJd6cUJKaAegZVk6rNmb+MRez1s8g51gvzwA2WXMfFlGHyJCXwWgZjRJIEn
q+W3xVMeR1H2iP5inyz+wd/la/OBZIGMc0ha7N+9scKz8X0SU1Kh0RU+ZkHmy5ON
7A9iFFVrNF2HBJcNOa3FYe0BKJUCAwEAATANBgkqhkiG9w0BAQUFAAOBgQBJaQV+
XNjERMzkqBRPGBigMJfqiA8vsfKIxmG6SfWzsYfI6bgao9Kyii3SQmQBI4o8qIzc
aZF6xP95nlzZpJGSB4IOYj6oKhZ4IoWTxUiKFP4DAdVQW603vCBH1tp+YYGjUvwD
WZCobzyaqvbeJrvh/axqcscscKBsyh7OjJ9kkw==
-----END CERTIFICATE-----
