Certificate:
    Data:
        Version: 3 (0x2)
        Serial Number: 1 (0x1)
    Signature Algorithm: sha1WithRSAEncryption
        Issuer: CN=ca-true, C=BE, O=Gremwell bvba
        Validity
            Not Before: Jun 23 15:47:38 2012 GMT
            Not After : Jun 23 15:47:38 2013 GMT
        Subject: C=BE, CN=txjsonrpc-pyserver
        Subject Public Key Info:
            Public Key Algorithm: rsaEncryption
                Public-Key: (4096 bit)
                Modulus:
                    00:a4:55:0e:3b:fd:34:78:17:66:9b:bc:3e:1e:81:
                    69:e0:1a:5f:2e:b4:3d:84:64:00:74:c1:30:eb:17:
                    1f:aa:d3:c0:4c:7e:42:38:90:b3:bf:ea:ff:6d:40:
                    c7:cb:41:55:9f:83:31:c4:df:80:a1:77:e6:52:f1:
                    12:a0:89:e2:71:e4:12:5c:33:3f:3d:34:fb:44:5c:
                    13:30:9c:0b:ac:cc:eb:f7:20:d6:bb:6f:f2:8b:fe:
                    cc:85:e8:94:4f:4d:ef:09:b7:f0:5c:00:03:c3:d4:
                    f3:d2:77:09:66:4a:a4:14:cd:3a:00:e5:62:68:2a:
                    66:6c:9b:12:b7:2f:cc:a1:b4:54:38:72:1a:d9:d5:
                    3c:eb:12:30:64:79:a5:42:10:32:f3:9e:d8:d7:52:
                    2f:09:b9:1d:44:7d:74:05:3e:17:38:28:1a:e0:4f:
                    80:7f:ba:98:9b:6e:21:b9:f8:0f:fd:c6:d9:88:ba:
                    fa:ec:e1:19:05:37:20:ee:31:8c:3a:49:85:a5:5c:
                    3d:67:64:7b:08:f4:66:71:be:cb:3b:2d:6a:89:9f:
                    b0:12:e8:bc:22:57:7c:ca:4d:3b:b6:58:57:d5:a3:
                    e0:57:b5:e9:36:f6:90:28:af:77:9a:31:d8:e0:b9:
                    4c:36:cd:57:61:cd:4e:ea:5c:41:6a:19:df:ba:f8:
                    d6:86:c3:2d:d3:33:5c:d8:33:89:22:f0:33:9f:e4:
                    df:4a:e8:76:59:1a:2e:d7:ad:cf:63:e2:2a:76:e7:
                    3d:aa:be:94:98:0c:2b:bf:7f:31:c6:36:21:6c:0d:
                    1e:9f:2f:24:30:23:32:c2:c3:7b:3a:a6:ba:cf:fe:
                    ed:78:23:80:8a:9f:8a:50:cc:77:14:d4:3c:84:cc:
                    26:e7:6b:ef:7e:28:1a:98:71:8c:86:5c:2a:09:e0:
                    5b:63:4d:e8:ce:c8:69:97:ae:7a:1d:99:15:08:cf:
                    1d:a0:07:bb:11:b4:02:c4:73:b5:e2:09:7c:e5:91:
                    3d:1f:54:b9:e5:45:01:a0:75:f5:55:f0:d7:c6:c6:
                    9b:7c:46:4e:90:58:e2:0e:62:67:5f:f1:10:01:ec:
                    00:86:d6:ca:00:13:9a:32:84:7e:a4:39:3c:b2:5e:
                    23:c7:ae:c5:e3:4e:84:86:1c:e1:ed:c4:55:34:df:
                    49:81:48:a9:80:19:5a:1f:cb:c6:1e:a3:8d:bb:2a:
                    b2:03:e0:1c:20:98:65:c6:37:9e:85:d1:fc:2c:22:
                    4e:2c:f0:f0:e2:41:d3:e0:14:ce:d1:1a:64:6b:be:
                    04:0a:44:be:5e:6a:a8:c1:46:cd:af:18:31:ca:77:
                    56:ba:1f:b2:12:7f:b7:f6:4e:a1:8f:cd:96:61:35:
                    0b:2a:4d
                Exponent: 65537 (0x10001)
    Signature Algorithm: sha1WithRSAEncryption
         5f:49:32:6b:04:1c:91:0e:27:e0:ee:ad:e1:cc:23:33:ee:ca:
         8e:c5:9e:e4:d1:c5:6a:d0:71:99:b8:68:96:66:f2:df:2d:18:
         de:5d:ea:28:19:b2:13:e7:f9:bd:b7:13:39:16:56:0d:e1:bd:
         25:30:a0:05:02:b6:d3:7e:2e:f7:03:2d:59:40:07:a9:fe:48:
         56:13:cd:32:4b:99:c0:27:65:dc:2f:b8:3a:56:4c:f1:14:aa:
         9c:f2:09:13:d0:ad:90:c7:c2:55:df:d6:3b:76:0f:ec:2f:de:
         34:ba:75:97:e8:a4:a1:89:e9:40:0d:4b:e5:cf:21:1c:49:db:
         9d:b5
-----BEGIN CERTIFICATE-----
MIIDWTCCAsKgAwIBAgIBATANBgkqhkiG9w0BAQUFADA3MRAwDgYDVQQDEwdjYS10
cnVlMQswCQYDVQQGEwJCRTEWMBQGA1UEChMNR3JlbXdlbGwgYnZiYTAeFw0xMjA2
MjMxNTQ3MzhaFw0xMzA2MjMxNTQ3MzhaMCoxCzAJBgNVBAYTAkJFMRswGQYDVQQD
ExJ0eGpzb25ycGMtcHlzZXJ2ZXIwggIiMA0GCSqGSIb3DQEBAQUAA4ICDwAwggIK
AoICAQCkVQ47/TR4F2abvD4egWngGl8utD2EZAB0wTDrFx+q08BMfkI4kLO/6v9t
QMfLQVWfgzHE34Chd+ZS8RKgieJx5BJcMz89NPtEXBMwnAuszOv3INa7b/KL/syF
6JRPTe8Jt/BcAAPD1PPSdwlmSqQUzToA5WJoKmZsmxK3L8yhtFQ4chrZ1TzrEjBk
eaVCEDLzntjXUi8JuR1EfXQFPhc4KBrgT4B/upibbiG5+A/9xtmIuvrs4RkFNyDu
MYw6SYWlXD1nZHsI9GZxvss7LWqJn7AS6LwiV3zKTTu2WFfVo+BXtek29pAor3ea
MdjguUw2zVdhzU7qXEFqGd+6+NaGwy3TM1zYM4ki8DOf5N9K6HZZGi7Xrc9j4ip2
5z2qvpSYDCu/fzHGNiFsDR6fLyQwIzLCw3s6prrP/u14I4CKn4pQzHcU1DyEzCbn
a+9+KBqYcYyGXCoJ4FtjTejOyGmXrnodmRUIzx2gB7sRtALEc7XiCXzlkT0fVLnl
RQGgdfVV8NfGxpt8Rk6QWOIOYmdf8RAB7ACG1soAE5oyhH6kOTyyXiPHrsXjToSG
HOHtxFU030mBSKmAGVofy8Yeo427KrID4BwgmGXGN56F0fwsIk4s8PDiQdPgFM7R
GmRrvgQKRL5eaqjBRs2vGDHKd1a6H7ISf7f2TqGPzZZhNQsqTQIDAQABMA0GCSqG
SIb3DQEBBQUAA4GBAF9JMmsEHJEOJ+DureHMIzPuyo7FnuTRxWrQcZm4aJZm8t8t
GN5d6igZshPn+b23EzkWVg3hvSUwoAUCttN+LvcDLVlAB6n+SFYTzTJLmcAnZdwv
uDpWTPEUqpzyCRPQrZDHwlXf1jt2D+wv3jS6dZfopKGJ6UANS+XPIRxJ2521
-----END CERTIFICATE-----
Certificate:
    Data:
        Version: 4 (0x3)
        Serial Number: 1 (0x1)
    Signature Algorithm: sha1WithRSAEncryption
        Issuer: C=BE, CN=txjsonrpc-test-ca
        Validity
            Not Before: Jan  1 00:00:00 1970 GMT
            Not After : Jan 19 03:14:07 2038 GMT
        Subject: CN=ca-true, C=BE, O=Gremwell bvba
        Subject Public Key Info:
            Public Key Algorithm: rsaEncryption
                Public-Key: (1024 bit)
                Modulus:
                    00:a2:84:5f:13:96:6c:13:65:9a:83:ec:4a:f7:c1:
                    41:b0:0a:98:6b:45:5d:f7:69:4c:01:2b:49:31:75:
                    48:37:69:72:35:52:ae:e1:23:39:b0:b5:d4:a6:8f:
                    b1:b0:1e:20:d9:44:45:14:64:92:b6:24:66:c8:1b:
                    eb:23:ac:c7:e8:1f:42:8e:a5:71:1b:20:fe:32:a1:
                    a0:a4:af:18:e4:b9:25:0f:75:78:2a:40:ff:29:f1:
                    9c:6d:90:81:bc:00:88:05:3a:07:fb:3d:dc:9f:09:
                    0a:3c:b7:91:f3:ae:36:0f:af:6a:f5:ef:e4:54:57:
                    97:ef:6c:9b:c2:f8:c0:be:c5
                Exponent: 65537 (0x10001)
        X509v3 extensions:
            X509v3 Basic Constraints: critical
                CA:TRUE
    Signature Algorithm: sha1WithRSAEncryption
         81:50:9d:db:56:45:1b:64:12:2e:68:5c:53:92:88:3b:78:77:
         99:91:99:51:2d:d9:5e:13:10:75:d3:f9:48:54:3e:d1:bb:0d:
         18:27:eb:2c:a9:89:ef:21:51:c2:06:b5:45:bd:1e:4e:a0:6b:
         a8:f3:b8:4c:91:09:ca:fa:2c:7e:b5:00:40:0a:5c:5f:1f:f3:
         bc:19:78:f5:0d:e8:e7:b2:ea:54:80:01:a4:53:46:07:52:a7:
         6c:e2:b9:f3:cb:e8:82:10:59:60:7d:23:af:50:07:2b:1d:34:
         55:f6:db:78:8b:88:44:30:39:7d:7e:d1:9a:90:02:79:af:9b:
         15:63:e8:ae:20:ee:27:dd:38:54:ee:3f:b9:ee:fb:c5:a9:2d:
         ae:03:1e:bf:7e:49:e1:9f:88:c1:19:66:b8:b1:f8:56:9c:52:
         5d:29:bd:47:9b:e3:53:a6:40:8e:b8:a0:a4:98:c4:8c:3b:96:
         25:e0:dd:b1:c2:0d:ba:30:96:80:04:10:a6:ad:ac:82:67:1f:
         2b:4d:4a:98:58:9b:8e:4e:7c:b3:a3:fe:70:ca:a6:17:aa:4e:
         2e:b1:ff:19:e4:63:61:8e:d8:75:e1:a7:f4:3c:c4:d3:5c:e4:
         bb:56:39:2e:a3:85:6d:d0:f0:41:32:0d:c3:58:d0:d9:2a:33:
         cc:38:18:4b:f3:47:03:46:c9:bd:dc:82:87:5b:db:38:4d:ce:
         c0:66:3d:fc:14:e7:b3:cf:4f:fd:32:1d:66:b4:6f:ab:8d:1d:
         22:70:da:82:e2:51:21:04:ab:f7:09:9a:85:c2:2f:e4:2e:c2:
         d8:c0:b8:ce:20:67:14:7e:35:e8:0b:e0:d6:2b:56:34:3b:0e:
         fc:31:e2:f7:5b:2b:e6:cd:10:02:60:28:aa:75:54:74:09:ca:
         0e:c5:d0:d8:59:d1:e1:ca:f8:1d:a5:a0:f2:71:4e:b4:fe:af:
         a8:58:78:a0:56:20:07:82:b6:11:e8:0c:9c:5c:da:b7:69:0f:
         52:bc:7d:ec:88:8c:3f:c8:5e:76:11:7b:52:e6:26:00:da:02:
         eb:7b:61:92:25:e4:81:48:7c:ab:5b:c1:71:1f:ea:95:ac:0b:
         c9:70:ae:aa:a7:b2:b4:ab:a2:f7:d8:c8:0d:ca:c1:43:ec:a4:
         90:0d:51:63:3d:9a:68:0b:51:26:89:5e:b0:be:7f:08:2f:7f:
         3e:c3:7a:65:0d:65:84:da:84:8d:d5:5b:08:38:ce:69:f9:a6:
         c7:88:75:8e:b4:a4:b1:dc:fa:41:f5:b1:79:97:91:43:7a:0a:
         02:75:34:84:c1:b8:e1:a1:a6:77:23:e0:0a:ee:d7:cd:5f:3d:
         ad:6d:b5:7b:5d:e1:1e:58
-----BEGIN CERTIFICATE-----
MIIDajCCAVKgAwIBAwIBATANBgkqhkiG9w0BAQUFADApMQswCQYDVQQGEwJCRTEa
MBgGA1UEAxMRdHhqc29ucnBjLXRlc3QtY2EwHhcNNzAwMTAxMDAwMDAwWhcNMzgw
MTE5MDMxNDA3WjA3MRAwDgYDVQQDEwdjYS10cnVlMQswCQYDVQQGEwJCRTEWMBQG
A1UEChMNR3JlbXdlbGwgYnZiYTCBnzANBgkqhkiG9w0BAQEFAAOBjQAwgYkCgYEA
ooRfE5ZsE2Wag+xK98FBsAqYa0Vd92lMAStJMXVIN2lyNVKu4SM5sLXUpo+xsB4g
2URFFGSStiRmyBvrI6zH6B9CjqVxGyD+MqGgpK8Y5LklD3V4KkD/KfGcbZCBvACI
BToH+z3cnwkKPLeR8642D69q9e/kVFeX72ybwvjAvsUCAwEAAaMTMBEwDwYDVR0T
AQH/BAUwAwEB/zANBgkqhkiG9w0BAQUFAAOCAgEAgVCd21ZFG2QSLmhcU5KIO3h3
mZGZUS3ZXhMQddP5SFQ+0bsNGCfrLKmJ7yFRwga1Rb0eTqBrqPO4TJEJyvosfrUA
QApcXx/zvBl49Q3o57LqVIABpFNGB1KnbOK588voghBZYH0jr1AHKx00VfbbeIuI
RDA5fX7RmpACea+bFWPoriDuJ904VO4/ue77xaktrgMev35J4Z+IwRlmuLH4VpxS
XSm9R5vjU6ZAjrigpJjEjDuWJeDdscINujCWgAQQpq2sgmcfK01KmFibjk58s6P+
cMqmF6pOLrH/GeRjYY7YdeGn9DzE01zku1Y5LqOFbdDwQTINw1jQ2SozzDgYS/NH
A0bJvdyCh1vbOE3OwGY9/BTns89P/TIdZrRvq40dInDaguJRIQSr9wmahcIv5C7C
2MC4ziBnFH416Avg1itWNDsO/DHi91sr5s0QAmAoqnVUdAnKDsXQ2FnR4cr4HaWg
8nFOtP6vqFh4oFYgB4K2EegMnFzat2kPUrx97IiMP8hedhF7UuYmANoC63thkiXk
gUh8q1vBcR/qlawLyXCuqqeytKui99jIDcrBQ+ykkA1RYz2aaAtRJolesL5/CC9/
PsN6ZQ1lhNqEjdVbCDjOafmmx4h1jrSksdz6QfWxeZeRQ3oKAnU0hMG44aGmdyPg
Cu7XzV89rW21e13hHlg=
-----END CERTIFICATE-----
