Certificate:
    Data:
        Version: 4 (0x3)
        Serial Number: 1 (0x1)
    Signature Algorithm: sha1WithRSAEncryption
        Issuer: CN=ca-true, C=BE, O=Gremwell bvba
        Validity
            Not Before: Jan  1 00:00:00 1970 GMT
            Not After : Jan 19 03:14:07 2038 GMT
        Subject: CN=www.example.com, C=BE, O=Gremwell bvba
        Subject Public Key Info:
            Public Key Algorithm: rsaEncryption
                Public-Key: (1024 bit)
                Modulus:
                    00:ac:06:89:10:82:4f:4e:9e:3f:37:55:fd:9f:de:
                    22:41:77:98:06:88:20:26:41:69:8f:f6:76:d6:f8:
                    a1:9b:37:fc:d8:48:db:67:9c:c8:5d:01:a5:57:92:
                    4d:fc:5b:bd:4c:6d:7d:b8:a3:a1:66:01:0c:b7:da:
                    49:1b:31:f4:11:00:a8:56:22:3c:ae:b3:ef:30:3f:
                    76:34:19:63:30:09:c9:e9:64:f1:a1:f4:b5:3a:cc:
                    ca:e5:df:3b:13:5c:49:8d:9a:43:78:64:e7:db:2e:
                    49:bf:c4:12:c8:c4:55:1a:13:5e:88:3e:11:d4:8d:
                    a1:d7:f9:b6:16:66:fc:aa:cf
                Exponent: 65537 (0x10001)
    Signature Algorithm: sha1WithRSAEncryption
         03:83:11:45:41:cd:47:51:e2:84:3a:be:c7:1e:70:fb:4d:f5:
         e4:10:7a:a6:82:0e:d7:76:75:30:7c:88:63:23:2f:60:d4:f1:
         d5:c3:3d:02:a5:8f:c9:fe:d7:8d:26:39:bd:c9:b4:ff:86:27:
         88:87:f2:21:d4:99:e8:43:d1:b9:34:2d:84:6e:b6:bf:bb:cf:
         af:6b:d8:4b:a7:05:f7:29:cf:bc:86:f5:2d:c7:a4:7d:22:d5:
         70:5c:c9:c3:14:0e:06:14:be:68:e5:33:d1:50:b2:53:89:29:
         18:72:1d:d7:03:1f:97:d7:77:d5:b6:d4:48:3f:2a:49:58:b3:
         81:80
-----BEGIN CERTIFICATE-----
MIIB6jCCAVOgAwIBAwIBATANBgkqhkiG9w0BAQUFADA3MRAwDgYDVQQDEwdjYS10
cnVlMQswCQYDVQQGEwJCRTEWMBQGA1UEChMNR3JlbXdlbGwgYnZiYTAeFw03MDAx
MDEwMDAwMDBaFw0zODAxMTkwMzE0MDdaMD8xGDAWBgNVBAMTD3d3dy5leGFtcGxl
LmNvbTELMAkGA1UEBhMCQkUxFjAUBgNVBAoTDUdyZW13ZWxsIGJ2YmEwgZ8wDQYJ
KoZIhvcNAQEBBQADgY0AMIGJAoGBAKwGiRCCT06ePzdV/Z/eIkF3mAaIICZBaY/2
dtb4oZs3/NhI22ecyF0BpVeSTfxbvUxtfbijoWYBDLfaSRsx9BEAqFYiPK6z7zA/
djQZYzAJyelk8aH0tTrMyuXfOxNcSY2aQ3hk59suSb/EEsjEVRoTXog+EdSNodf5
thZm/KrPAgMBAAEwDQYJKoZIhvcNAQEFBQADgYEAA4MRRUHNR1HihDq+xx5w+031
5BB6poIO13Z1MHyIYyMvYNTx1cM9AqWPyf7XjSY5vcm0/4YniIfyIdSZ6EPRuTQt
hG62v7vPr2vYS6cF9ynPvIb1LcekfSLVcFzJwxQOBhS+aOUz0VCyU4kpGHId1wMf
l9d31bbUSD8qSVizgYA=
-----END CERTIFICATE-----
Certificate:
    Data:
        Version: 4 (0x3)
        Serial Number: 1 (0x1)
    Signature Algorithm: sha1WithRSAEncryption
        Issuer: C=BE, CN=txjsonrpc-test-ca
        Validity
            Not Before: Jan  1 00:00:00 1970 GMT
            Not After : Jan 19 03:14:07 2038 GMT
        Subject: CN=ca-true, C=BE, O=Gremwell bvba
        Subject Public Key Info:
            Public Key Algorithm: rsaEncryption
                Public-Key: (1024 bit)
                Modulus:
                    00:b9:32:89:05:e8:fd:9c:8f:c6:90:ea:27:ef:ad:
                    c1:7b:5d:ad:31:91:28:1a:45:a0:ca:cc:b7:a4:44:
                    c0:47:dc:b9:d2:88:f9:10:96:8b:dd:17:e1:66:5f:
                    b9:e5:d2:0f:b8:90:00:5e:81:b2:66:5b:ff:31:5e:
                    b4:2a:39:7a:76:0d:a2:ab:70:4a:c5:5d:69:f9:56:
                    0e:23:cc:98:38:ae:9c:4b:7a:b1:f4:99:02:7c:cb:
                    e9:e9:c2:7c:bb:40:00:1f:db:23:0a:f6:48:3e:d9:
                    69:fc:59:d7:01:b2:1d:10:e2:4d:a0:19:d6:d9:6c:
                    ef:8a:b1:10:8e:7d:e9:20:89
                Exponent: 65537 (0x10001)
        X509v3 extensions:
            X509v3 Basic Constraints: critical
                CA:TRUE
    Signature Algorithm: sha1WithRSAEncryption
         39:5a:3d:13:52:4d:f9:59:28:8d:2f:b9:3e:45:51:d4:81:70:
         ad:3e:44:03:b4:51:49:bb:c9:73:4a:94:9d:2e:ca:63:50:70:
         4c:7e:ec:05:26:01:45:a8:4b:07:df:ec:61:fa:08:35:42:3d:
         4a:5c:52:1a:91:c4:a7:6b:9e:2c:58:36:be:85:31:7e:8b:74:
         f6:fb:fa:bd:2f:02:87:ae:60:be:de:74:29:a0:ec:9d:1d:9e:
         08:c1:e3:3e:9d:6a:a2:9b:12:31:5c:4b:aa:56:20:ce:5a:25:
         ca:e1:80:c4:b3:dd:18:5c:63:dd:a1:7a:b8:d8:4f:26:2d:b9:
         f6:fd:1e:14:b9:aa:78:39:4a:17:7e:2d:48:31:a5:0d:85:64:
         49:4f:ec:0f:16:fd:5d:4c:ba:85:1d:ff:26:55:b2:17:a6:16:
         42:0c:fa:5b:10:54:61:7c:04:c0:3a:f2:7c:c2:0a:80:a3:86:
         f0:09:34:32:3a:97:52:30:1e:31:5e:8d:66:94:88:51:f1:18:
         76:cc:f2:73:7b:4b:73:d1:a6:e2:a9:f8:40:0e:ec:f5:47:94:
         c8:b2:03:95:68:8f:58:98:74:ad:21:fc:4c:84:47:32:99:74:
         00:92:cf:7c:7f:5c:a6:b0:a8:d9:06:21:b3:38:af:76:56:53:
         02:1f:84:5a:00:62:9b:15:8a:62:c0:2f:60:72:d6:77:55:f8:
         fd:09:d8:88:72:03:38:fd:1a:91:84:01:73:5d:28:f6:58:86:
         44:90:09:85:0d:f8:ba:ef:f5:f9:ed:2d:80:2b:91:66:97:bf:
         a8:18:48:c5:f9:d4:3a:cd:f0:51:da:87:cc:35:88:69:8c:c4:
         be:1f:ff:65:f3:a5:0e:3f:49:85:67:94:d4:91:7c:1c:82:9f:
         27:95:5d:11:29:74:ea:25:73:62:3b:ee:8d:c6:68:89:f4:53:
         ed:6d:7b:f5:4f:6d:79:56:94:8f:79:51:7f:48:94:b5:5e:0e:
         71:39:87:9e:2d:d1:0b:19:89:3d:a5:37:c2:c5:99:52:1e:89:
         20:92:54:72:12:96:61:b1:b5:9f:94:8b:18:b0:cf:fe:a8:fe:
         70:88:10:88:55:8f:70:bb:9d:54:03:45:b4:8a:e2:d1:92:a4:
         f8:0d:42:b4:19:5c:62:8d:61:7f:ad:d4:ef:b8:37:44:14:d9:
         b7:ef:35:4a:03:d6:25:bc:76:cb:69:b1:2d:09:3f:91:ab:7e:
         71:27:23:60:15:83:5f:f0:a3:01:79:d4:e1:3a:fe:9b:25:4a:
         8d:08:e2:5b:b3:71:cf:27:81:2a:ec:c1:11:a5:5a:9c:2d:22:
         da:70:f5:58:e1:e8:c3:59
-----BEGIN CERTIFICATE-----
MIIDajCCAVKgAwIBAwIBATANBgkqhkiG9w0BAQUFADApMQswCQYDVQQGEwJCRTEa
MBgGA1UEAxMRdHhqc29ucnBjLXRlc3QtY2EwHhcNNzAwMTAxMDAwMDAwWhcNMzgw
MTE5MDMxNDA3WjA3MRAwDgYDVQQDEwdjYS10cnVlMQswCQYDVQQGEwJCRTEWMBQG
A1UEChMNR3JlbXdlbGwgYnZiYTCBnzANBgkqhkiG9w0BAQEFAAOBjQAwgYkCgYEA
uTKJBej9nI/GkOon763Be12tMZEoGkWgysy3pETAR9y50oj5EJaL3RfhZl+55dIP
uJAAXoGyZlv/MV60Kjl6dg2iq3BKxV1p+VYOI8yYOK6cS3qx9JkCfMvp6cJ8u0AA
H9sjCvZIPtlp/FnXAbIdEOJNoBnW2WzvirEQjn3pIIkCAwEAAaMTMBEwDwYDVR0T
AQH/BAUwAwEB/zANBgkqhkiG9w0BAQUFAAOCAgEAOVo9E1JN+VkojS+5PkVR1IFw
rT5EA7RRSbvJc0qUnS7KY1BwTH7sBSYBRahLB9/sYfoINUI9SlxSGpHEp2ueLFg2
voUxfot09vv6vS8Ch65gvt50KaDsnR2eCMHjPp1qopsSMVxLqlYgzlolyuGAxLPd
GFxj3aF6uNhPJi259v0eFLmqeDlKF34tSDGlDYVkSU/sDxb9XUy6hR3/JlWyF6YW
Qgz6WxBUYXwEwDryfMIKgKOG8Ak0MjqXUjAeMV6NZpSIUfEYdszyc3tLc9Gm4qn4
QA7s9UeUyLIDlWiPWJh0rSH8TIRHMpl0AJLPfH9cprCo2QYhszivdlZTAh+EWgBi
mxWKYsAvYHLWd1X4/QnYiHIDOP0akYQBc10o9liGRJAJhQ34uu/1+e0tgCuRZpe/
qBhIxfnUOs3wUdqHzDWIaYzEvh//ZfOlDj9JhWeU1JF8HIKfJ5VdESl06iVzYjvu
jcZoifRT7W179U9teVaUj3lRf0iUtV4OcTmHni3RCxmJPaU3wsWZUh6JIJJUchKW
YbG1n5SLGLDP/qj+cIgQiFWPcLudVANFtIri0ZKk+A1CtBlcYo1hf63U77g3RBTZ
t+81SgPWJbx2y2mxLQk/kat+cScjYBWDX/CjAXnU4Tr+myVKjQjiW7NxzyeBKuzB
EaVanC0i2nD1WOHow1k=
-----END CERTIFICATE-----
