Certificate:
    Data:
        Version: 4 (0x3)
        Serial Number: 1 (0x1)
    Signature Algorithm: sha1WithRSAEncryption
        Issuer: C=BE, CN=txjsonrpc-test-ca
        Validity
            Not Before: Jan  1 00:00:00 1970 GMT
            Not After : Jan 19 03:14:07 2038 GMT
        Subject: CN=ca-false, C=BE, O=Gremwell bvba
        Subject Public Key Info:
            Public Key Algorithm: rsaEncryption
                Public-Key: (1024 bit)
                Modulus:
                    00:d1:59:19:85:35:24:59:4a:97:84:92:ae:98:86:
                    65:a3:ac:4b:cc:ad:e5:2b:a8:d1:7f:5e:ed:8f:3e:
                    ac:57:02:c6:6c:84:70:dd:54:06:0d:1d:aa:ae:8a:
                    71:1d:d2:55:c8:e2:51:6b:8c:4e:b3:e8:18:75:b6:
                    84:a7:a5:cc:8e:da:5d:83:42:30:51:73:9e:2d:5a:
                    35:84:53:b9:64:20:79:7b:ef:2c:44:17:70:c0:1d:
                    fa:54:cf:8f:02:49:9b:73:57:19:b5:8e:12:cd:24:
                    c8:9b:21:d5:b7:22:09:be:8c:c0:4b:9b:b0:0b:18:
                    9a:45:07:ad:68:9a:cf:b0:39
                Exponent: 65537 (0x10001)
        X509v3 extensions:
            X509v3 Basic Constraints: critical
                CA:FALSE
    Signature Algorithm: sha1WithRSAEncryption
         45:66:51:4f:b5:44:4b:e8:d7:52:c2:cc:7b:2c:68:0d:18:ae:
         0f:86:7f:cd:63:c4:78:f2:b2:0d:ae:04:32:86:0e:ab:18:11:
         11:c5:7e:f0:65:b9:e1:d4:ae:ae:7b:ec:45:e1:a5:be:c9:35:
         c8:96:58:24:09:cb:ab:bd:4d:8d:9f:60:f8:67:2a:e4:11:e0:
         83:d9:f0:c0:f6:9e:84:bc:eb:a7:e0:06:74:f1:6b:dc:ed:a9:
         cf:0d:8b:c8:fa:d7:f9:d4:2d:c1:52:48:a2:43:7a:1e:04:2b:
         f9:58:80:f5:a5:84:b1:f6:13:e0:b7:7d:f1:6e:5a:d2:99:85:
         17:d3:96:85:fd:be:f5:a7:7b:4c:3a:b5:d4:c8:71:ce:7b:8a:
         11:9f:aa:b3:93:ef:f2:57:79:db:4d:34:87:f3:96:4b:d4:f9:
         d9:1c:9a:22:74:9a:ea:9a:52:0a:a0:5e:6d:cb:f8:7f:7a:6f:
         fa:f1:2c:86:c3:26:bd:3d:de:12:34:ee:7f:7a:18:bb:3a:c5:
         93:ff:b2:fb:72:c2:14:86:14:0f:1f:1d:62:d1:c9:e3:9d:db:
         68:a3:f1:1a:b7:09:12:84:27:51:ae:64:2c:86:20:36:8d:c7:
         4b:47:84:2a:b4:2d:d0:34:54:46:ee:33:f6:98:3a:d3:a5:76:
         a8:5f:fd:e4:1d:49:df:9a:27:b4:97:69:c7:2d:29:ab:cf:36:
         83:c1:ea:42:87:29:58:60:18:b7:19:37:0e:bb:83:27:f3:27:
         e1:c6:77:96:81:28:63:0e:2e:08:1c:5a:ad:7a:53:cf:40:4d:
         84:ba:41:6e:98:2d:9d:d8:27:12:5c:dd:6a:1c:03:f9:d5:b8:
         a7:9b:0a:45:b7:3f:a6:5d:78:9b:b6:e7:b6:97:20:03:8e:66:
         1b:e2:c8:83:b1:5b:0c:25:e5:a6:7d:06:b4:11:61:37:70:9a:
         8e:1c:91:84:76:c5:5f:47:1e:6f:fe:22:2e:38:78:3f:8b:44:
         ed:b7:ea:15:12:93:78:d9:9b:41:7e:0c:0c:5f:c2:29:f7:0f:
         89:fe:26:73:b5:83:9a:14:eb:0c:9f:4e:b5:7c:76:8c:92:d4:
         b6:3f:f6:0a:57:53:93:1a:9e:8f:25:d7:80:3a:82:09:b5:1d:
         40:de:03:d8:83:e0:fe:6a:5c:d1:02:1a:59:79:60:c3:6c:6b:
         69:12:f5:2b:64:58:17:ca:4e:28:9d:9b:92:68:26:b3:73:e8:
         ec:8e:c9:a8:4f:d9:f8:08:70:3f:4f:c5:28:94:15:0f:a5:f5:
         d3:9a:9d:7b:40:b1:39:68:9e:79:30:96:39:9a:23:e1:22:8c:
         fe:0d:73:33:db:bc:d0:12
-----BEGIN CERTIFICATE-----
MIIDaDCCAVCgAwIBAwIBATANBgkqhkiG9w0BAQUFADApMQswCQYDVQQGEwJCRTEa
MBgGA1UEAxMRdHhqc29ucnBjLXRlc3QtY2EwHhcNNzAwMTAxMDAwMDAwWhcNMzgw
MTE5MDMxNDA3WjA4MREwDwYDVQQDEwhjYS1mYWxzZTELMAkGA1UEBhMCQkUxFjAU
BgNVBAoTDUdyZW13ZWxsIGJ2YmEwgZ8wDQYJKoZIhvcNAQEBBQADgY0AMIGJAoGB
ANFZGYU1JFlKl4SSrpiGZaOsS8yt5Suo0X9e7Y8+rFcCxmyEcN1UBg0dqq6KcR3S
VcjiUWuMTrPoGHW2hKelzI7aXYNCMFFzni1aNYRTuWQgeXvvLEQXcMAd+lTPjwJJ
m3NXGbWOEs0kyJsh1bciCb6MwEubsAsYmkUHrWiaz7A5AgMBAAGjEDAOMAwGA1Ud
EwEB/wQCMAAwDQYJKoZIhvcNAQEFBQADggIBAEVmUU+1REvo11LCzHssaA0Yrg+G
f81jxHjysg2uBDKGDqsYERHFfvBlueHUrq577EXhpb7JNciWWCQJy6u9TY2fYPhn
KuQR4IPZ8MD2noS866fgBnTxa9ztqc8Ni8j61/nULcFSSKJDeh4EK/lYgPWlhLH2
E+C3ffFuWtKZhRfTloX9vvWne0w6tdTIcc57ihGfqrOT7/JXedtNNIfzlkvU+dkc
miJ0muqaUgqgXm3L+H96b/rxLIbDJr093hI07n96GLs6xZP/svtywhSGFA8fHWLR
yeOd22ij8Rq3CRKEJ1GuZCyGIDaNx0tHhCq0LdA0VEbuM/aYOtOldqhf/eQdSd+a
J7SXacctKavPNoPB6kKHKVhgGLcZNw67gyfzJ+HGd5aBKGMOLggcWq16U89ATYS6
QW6YLZ3YJxJc3WocA/nVuKebCkW3P6ZdeJu257aXIAOOZhviyIOxWwwl5aZ9BrQR
YTdwmo4ckYR2xV9HHm/+Ii44eD+LRO236hUSk3jZm0F+DAxfwin3D4n+JnO1g5oU
6wyfTrV8doyS1LY/9gpXU5Mano8l14A6ggm1HUDeA9iD4P5qXNECGll5YMNsa2kS
9StkWBfKTiidm5JoJrNz6OyOyahP2fgIcD9PxSiUFQ+l9dOanXtAsTlonnkwljma
I+EijP4NczPbvNAS
-----END CERTIFICATE-----
Certificate:
    Data:
        Version: 3 (0x2)
        Serial Number: 10219423159405941259 (0x8dd2af37f9ca920b)
    Signature Algorithm: sha1WithRSAEncryption
        Issuer: C=BE, CN=txjsonrpc-test-ca
        Validity
            Not Before: Jun 23 15:46:37 2012 GMT
            Not After : Jun 21 15:46:37 2022 GMT
        Subject: C=BE, CN=txjsonrpc-test-ca
        Subject Public Key Info:
            Public Key Algorithm: rsaEncryption
                Public-Key: (4096 bit)
                Modulus:
                    00:d1:25:af:77:c5:a8:72:cf:90:b9:39:10:fb:7b:
                    75:2c:a1:da:6a:95:e5:44:0c:d6:25:4b:58:7f:bb:
                    07:82:59:49:58:32:85:24:cc:3e:77:db:e1:a7:4f:
                    c8:b5:cb:ee:45:38:bd:bc:fb:e3:76:3b:88:04:ca:
                    ab:3a:a3:96:3b:5f:93:9c:28:a6:61:97:dc:a2:3f:
                    a0:93:2b:56:6c:cf:d3:4f:6a:9e:05:d3:1c:cd:ef:
                    75:80:1a:98:b7:92:49:14:33:b8:c4:7c:73:8c:7e:
                    83:a5:81:a2:59:8c:8b:a3:51:36:6d:68:ac:f2:f1:
                    ed:6f:49:d9:af:7a:63:c1:43:31:42:b6:c7:cd:b9:
                    78:b7:33:98:70:92:6c:9e:04:7a:7b:f0:6d:38:87:
                    eb:00:13:17:b9:d9:ec:b4:66:bb:51:d3:fd:81:e3:
                    0e:88:71:23:d2:80:2a:61:de:ab:25:02:47:a9:c1:
                    6b:c9:69:ae:da:47:b6:49:74:ac:a6:e1:c1:76:ba:
                    6d:b1:d9:68:6e:1c:37:a8:e2:18:60:37:b6:58:13:
                    6c:c7:92:7c:c6:45:8c:ef:c3:81:73:10:dc:2f:31:
                    e2:b9:05:5a:9e:28:70:5a:3e:1d:b8:68:71:81:c9:
                    e8:fe:1f:c3:a0:13:f8:e4:24:12:ba:91:8e:15:d2:
                    03:f1:8c:b0:aa:e2:34:e4:6b:f8:06:f6:23:8a:92:
                    43:a6:05:dc:e9:c7:a5:a8:06:d7:6e:91:52:72:47:
                    ab:ae:87:fe:b3:0f:04:87:6f:4b:22:29:e9:a9:06:
                    52:58:7d:03:16:d7:d5:31:44:b4:f1:51:44:a7:2a:
                    ba:5e:09:19:ec:4c:a2:e0:58:fe:0d:4e:b7:90:4d:
                    02:ac:2a:ad:99:14:65:3b:0a:3c:73:45:56:b2:0f:
                    10:25:24:51:79:57:1a:34:1a:10:6f:60:e0:fc:81:
                    db:ca:c2:e2:85:1b:4c:72:13:5c:9d:76:cc:d0:21:
                    33:31:56:82:8f:c5:57:b9:44:fd:8b:76:c1:b6:e4:
                    21:8b:35:9a:ee:54:74:9f:72:6b:19:84:d7:a2:3c:
                    a5:6e:11:0a:f1:93:04:2e:dd:7c:4c:7d:62:10:d4:
                    1b:8b:87:f6:ed:bf:12:b1:8b:f0:9a:7a:ee:02:94:
                    e1:3c:46:2b:7f:9c:54:fb:2e:61:c9:1c:ef:fc:de:
                    25:bc:2d:75:1b:1f:49:5e:44:3b:15:93:ad:c4:89:
                    d9:ae:3c:da:54:ef:d9:af:3a:16:cb:94:1b:6a:14:
                    e4:42:f9:75:33:46:6e:fb:40:bc:f8:82:36:cf:60:
                    f5:c2:a2:98:23:a7:2a:ae:c1:aa:22:f8:87:da:b7:
                    9c:a4:cf
                Exponent: 65537 (0x10001)
        X509v3 extensions:
            X509v3 Subject Key Identifier: 
                9D:8F:84:76:94:CD:07:FE:A3:E8:8B:D7:F9:D9:6E:EF:CA:75:51:7B
            X509v3 Authority Key Identifier: 
                keyid:9D:8F:84:76:94:CD:07:FE:A3:E8:8B:D7:F9:D9:6E:EF:CA:75:51:7B
                DirName:/C=BE/CN=txjsonrpc-test-ca
                serial:8D:D2:AF:37:F9:CA:92:0B

            X509v3 Basic Constraints: critical
                CA:TRUE
            Netscape Cert Type: 
                SSL CA, S/MIME CA
            X509v3 Issuer Alternative Name: 
                <EMPTY>

            Netscape Comment: 
                Test CA for txjsonrcp
            X509v3 Subject Alternative Name: 
                <EMPTY>

            X509v3 Key Usage: critical
                Certificate Sign, CRL Sign
    Signature Algorithm: sha1WithRSAEncryption
         06:82:86:81:a9:1b:7e:2d:ef:f5:fc:cc:d2:9d:d6:82:ad:d0:
         6f:7e:3d:b9:5c:b2:0f:3a:64:21:9a:fb:53:b2:93:81:dc:1a:
         24:fc:b8:30:57:a2:c7:71:0d:9c:1a:0b:8a:6c:89:52:8b:8a:
         f5:af:95:3e:b8:08:39:ee:36:50:ac:60:4d:df:2b:49:a2:72:
         f1:3f:12:3c:d9:55:56:a4:9a:77:2b:77:fa:16:b5:76:d9:f4:
         c4:51:6b:b9:fe:2f:a3:52:e8:64:80:49:22:6d:05:42:87:af:
         9d:85:6c:fa:c9:9b:48:39:7b:89:f5:a0:1e:ff:11:d3:9c:78:
         b1:b2:f6:4d:b1:e8:b3:98:23:2c:d4:20:e1:a1:01:3e:26:0a:
         5b:8e:eb:58:45:22:cf:e1:94:ad:84:40:b0:fb:ff:25:5f:31:
         9a:49:0b:36:ad:c6:1a:b0:42:60:40:e2:a2:3c:5a:36:41:89:
         fc:10:c4:60:ea:d4:85:7b:36:84:df:aa:81:cc:69:e7:52:ca:
         c1:46:b1:79:93:51:4f:24:84:42:14:3a:20:a0:6c:27:76:40:
         0f:96:7e:4e:c3:0c:37:b3:e3:73:49:86:58:31:00:1e:e7:0f:
         87:74:b6:4e:6e:1c:7d:87:a4:33:04:c9:76:ec:e5:3a:85:5f:
         a8:d1:ad:21:64:5e:c5:6a:df:b1:02:6e:65:a4:87:72:06:07:
         da:e5:f2:af:2b:a5:eb:18:80:67:83:a5:3c:e6:ed:d1:58:f9:
         90:5c:d6:e9:2f:76:c1:58:13:b8:bd:88:8a:f3:04:48:bb:42:
         8f:7f:c6:db:b4:30:3f:bb:6c:d5:47:e5:ae:8d:4b:da:92:a5:
         db:d3:6e:a8:9b:c2:6b:56:af:34:63:82:e6:78:f8:1f:54:d7:
         41:aa:a3:c9:7c:a6:83:41:bf:6e:33:7c:ae:e6:92:bd:da:27:
         b4:bc:e2:90:4f:33:1b:01:a1:cd:02:13:7a:31:ef:00:d6:9a:
         6e:38:6b:a7:cb:70:98:a8:0f:ff:1c:56:a8:b7:e6:d2:42:5a:
         bb:f4:78:27:71:13:d0:e8:43:eb:bc:2d:4f:e4:ea:4d:4f:76:
         7f:53:38:34:eb:13:e2:3d:c6:14:98:86:1c:ab:2c:0e:b7:68:
         2e:bd:63:a9:6a:8f:d5:22:2d:ab:13:d7:62:54:51:ff:5c:37:
         08:04:27:da:f9:57:77:05:18:73:88:5f:b0:c1:65:50:36:09:
         d6:c7:f5:ae:6e:3f:04:d1:84:3c:21:74:1d:bd:0a:fb:76:d0:
         13:2b:62:bb:24:48:43:89:d0:18:5c:b4:ad:ea:98:af:6d:fc:
         1c:6b:1f:06:64:54:23:88
-----BEGIN CERTIFICATE-----
MIIFwzCCA6ugAwIBAgIJAI3Srzf5ypILMA0GCSqGSIb3DQEBBQUAMCkxCzAJBgNV
BAYTAkJFMRowGAYDVQQDExF0eGpzb25ycGMtdGVzdC1jYTAeFw0xMjA2MjMxNTQ2
MzdaFw0yMjA2MjExNTQ2MzdaMCkxCzAJBgNVBAYTAkJFMRowGAYDVQQDExF0eGpz
b25ycGMtdGVzdC1jYTCCAiIwDQYJKoZIhvcNAQEBBQADggIPADCCAgoCggIBANEl
r3fFqHLPkLk5EPt7dSyh2mqV5UQM1iVLWH+7B4JZSVgyhSTMPnfb4adPyLXL7kU4
vbz743Y7iATKqzqjljtfk5wopmGX3KI/oJMrVmzP009qngXTHM3vdYAamLeSSRQz
uMR8c4x+g6WBolmMi6NRNm1orPLx7W9J2a96Y8FDMUK2x825eLczmHCSbJ4Eenvw
bTiH6wATF7nZ7LRmu1HT/YHjDohxI9KAKmHeqyUCR6nBa8lprtpHtkl0rKbhwXa6
bbHZaG4cN6jiGGA3tlgTbMeSfMZFjO/DgXMQ3C8x4rkFWp4ocFo+HbhocYHJ6P4f
w6AT+OQkErqRjhXSA/GMsKriNORr+Ab2I4qSQ6YF3OnHpagG126RUnJHq66H/rMP
BIdvSyIp6akGUlh9AxbX1TFEtPFRRKcqul4JGexMouBY/g1Ot5BNAqwqrZkUZTsK
PHNFVrIPECUkUXlXGjQaEG9g4PyB28rC4oUbTHITXJ12zNAhMzFWgo/FV7lE/Yt2
wbbkIYs1mu5UdJ9yaxmE16I8pW4RCvGTBC7dfEx9YhDUG4uH9u2/ErGL8Jp67gKU
4TxGK3+cVPsuYckc7/zeJbwtdRsfSV5EOxWTrcSJ2a482lTv2a86FsuUG2oU5EL5
dTNGbvtAvPiCNs9g9cKimCOnKq7BqiL4h9q3nKTPAgMBAAGjge0wgeowHQYDVR0O
BBYEFJ2PhHaUzQf+o+iL1/nZbu/KdVF7MFkGA1UdIwRSMFCAFJ2PhHaUzQf+o+iL
1/nZbu/KdVF7oS2kKzApMQswCQYDVQQGEwJCRTEaMBgGA1UEAxMRdHhqc29ucnBj
LXRlc3QtY2GCCQCN0q83+cqSCzAPBgNVHRMBAf8EBTADAQH/MBEGCWCGSAGG+EIB
AQQEAwIBBjAJBgNVHRIEAjAAMCQGCWCGSAGG+EIBDQQXFhVUZXN0IENBIGZvciB0
eGpzb25yY3AwCQYDVR0RBAIwADAOBgNVHQ8BAf8EBAMCAQYwDQYJKoZIhvcNAQEF
BQADggIBAAaChoGpG34t7/X8zNKd1oKt0G9+Pblcsg86ZCGa+1Oyk4HcGiT8uDBX
osdxDZwaC4psiVKLivWvlT64CDnuNlCsYE3fK0micvE/EjzZVVakmncrd/oWtXbZ
9MRRa7n+L6NS6GSASSJtBUKHr52FbPrJm0g5e4n1oB7/EdOceLGy9k2x6LOYIyzU
IOGhAT4mCluO61hFIs/hlK2EQLD7/yVfMZpJCzatxhqwQmBA4qI8WjZBifwQxGDq
1IV7NoTfqoHMaedSysFGsXmTUU8khEIUOiCgbCd2QA+Wfk7DDDez43NJhlgxAB7n
D4d0tk5uHH2HpDMEyXbs5TqFX6jRrSFkXsVq37ECbmWkh3IGB9rl8q8rpesYgGeD
pTzm7dFY+ZBc1ukvdsFYE7i9iIrzBEi7Qo9/xtu0MD+7bNVH5a6NS9qSpdvTbqib
wmtWrzRjguZ4+B9U10Gqo8l8poNBv24zfK7mkr3aJ7S84pBPMxsBoc0CE3ox7wDW
mm44a6fLcJioD/8cVqi35tJCWrv0eCdxE9DoQ+u8LU/k6k1Pdn9TODTrE+I9xhSY
hhyrLA63aC69Y6lqj9UiLasT12JUUf9cNwgEJ9r5V3cFGHOIX7DBZVA2CdbH9a5u
PwTRhDwhdB29Cvt20BMrYrskSEOJ0BhctK3qmK9t/BxrHwZkVCOI
-----END CERTIFICATE-----
