Certificate:
    Data:
        Version: 4 (0x3)
        Serial Number: 1 (0x1)
    Signature Algorithm: sha1WithRSAEncryption
        Issuer: C=BE, CN=txjsonrpc-test-ca
        Validity
            Not Before: Jan  1 00:00:00 1970 GMT
            Not After : Jan 19 03:14:07 2038 GMT
        Subject: CN=txjsonrpc-pyserver, C=BE, O=Gremwell bvba
        Subject Public Key Info:
            Public Key Algorithm: rsaEncryption
                Public-Key: (1024 bit)
                Modulus:
                    00:cc:6f:0b:d2:9c:d9:46:8b:f5:be:07:72:94:9f:
                    de:55:72:5d:e9:c5:09:29:a0:1e:81:95:64:ea:b3:
                    66:6f:e3:11:7b:3d:6c:f2:0e:75:82:fc:f0:03:65:
                    97:31:f1:65:18:7c:89:09:7c:16:81:98:d1:24:81:
                    27:ab:e5:b7:c5:53:1e:47:51:f6:88:fe:62:9f:2c:
                    fe:c1:df:e5:6b:f3:81:64:81:8c:73:48:5a:ec:df:
                    bd:b1:c2:b3:f1:7d:12:53:52:a1:d1:15:3e:66:41:
                    e6:cb:93:8d:ec:0f:62:14:55:6b:34:5d:87:04:97:
                    0d:39:ad:c5:61:ed:01:28:95
                Exponent: 65537 (0x10001)
    Signature Algorithm: sha1WithRSAEncryption
         89:a3:14:3c:2d:b3:2d:c6:5c:9e:b3:17:50:51:e6:73:29:c5:
         79:d6:64:0b:cf:02:6d:27:3d:8f:95:1f:db:fb:37:48:79:55:
         dc:05:f4:28:86:a8:bc:c7:43:08:00:64:07:ff:91:4d:2e:fd:
         32:3c:51:b7:7b:7b:d8:87:c0:04:df:b9:1a:e6:b8:94:23:88:
         ba:ea:d7:65:62:19:ed:a3:ca:ea:0b:97:7d:46:08:2d:31:47:
         0b:a2:f3:c9:ae:f1:a6:8b:20:f2:c7:19:52:15:de:9d:1f:17:
         63:cb:ec:95:2c:d0:99:35:27:c4:14:b5:0a:11:69:9b:70:15:
         33:f9:75:3b:38:45:de:79:01:45:12:b7:13:16:90:18:b7:2c:
         95:54:19:1d:af:57:21:68:80:08:12:89:20:97:1b:c0:b8:a5:
         2b:f0:f5:59:0e:b6:1b:38:a3:1f:2d:3c:fd:9b:18:25:71:08:
         08:71:51:a2:01:6c:a8:12:bd:c6:f8:f0:98:2c:50:38:af:0c:
         35:50:84:c6:79:f2:7a:e9:0b:68:38:d4:cb:78:6a:b5:19:6a:
         2e:f0:7e:aa:d3:41:57:80:1f:f4:42:d4:fc:00:61:d6:8e:4c:
         70:cd:70:ef:53:c0:80:1b:ef:5a:26:3f:99:2e:72:79:f9:29:
         5a:bd:cf:f7:11:15:92:f4:4f:f2:77:9b:15:e1:72:87:f2:99:
         28:85:8d:03:67:b1:06:55:2f:96:de:37:84:ec:e8:e8:84:e9:
         65:9a:96:73:77:40:83:c9:f1:b1:dc:9a:78:28:c4:2f:77:55:
         ff:15:8d:70:e9:b2:8e:c3:6d:fd:a0:92:71:7f:f2:3f:67:12:
         d9:bd:14:e4:44:d3:78:d2:a2:a2:82:8c:94:39:cd:2b:95:f1:
         fc:ee:1a:99:57:a1:ab:b7:f0:04:ca:73:a4:2a:f6:23:59:e4:
         d9:5c:4b:cf:15:e1:3d:52:db:73:31:e8:be:ad:24:c5:87:6c:
         61:05:e3:19:d9:ee:88:e0:10:1c:2c:ff:80:57:fc:e1:ef:a8:
         1f:e8:53:3d:b3:3f:67:b6:28:18:0c:25:e2:bb:ff:dd:04:17:
         d4:7a:4e:73:db:82:c1:04:39:1a:f8:27:f3:76:84:86:ab:3b:
         9d:11:e2:56:e6:2e:86:c2:d2:99:c6:88:37:b0:7c:e8:a2:ee:
         35:96:7c:38:60:d9:74:e8:af:69:ca:1d:e6:08:ea:a3:79:ec:
         0a:8c:ba:1a:3d:c8:5b:6f:c9:aa:e2:65:45:eb:f3:13:fa:a2:
         98:c3:31:79:b6:9e:2a:29:c2:01:c1:b8:42:e3:4d:90:83:60:
         62:93:a3:0c:dc:a8:44:04
-----BEGIN CERTIFICATE-----
MIIDYDCCAUigAwIBAwIBATANBgkqhkiG9w0BAQUFADApMQswCQYDVQQGEwJCRTEa
MBgGA1UEAxMRdHhqc29ucnBjLXRlc3QtY2EwHhcNNzAwMTAxMDAwMDAwWhcNMzgw
MTE5MDMxNDA3WjBCMRswGQYDVQQDExJ0eGpzb25ycGMtcHlzZXJ2ZXIxCzAJBgNV
BAYTAkJFMRYwFAYDVQQKEw1HcmVtd2VsbCBidmJhMIGfMA0GCSqGSIb3DQEBAQUA
A4GNADCBiQKBgQDMbwvSnNlGi/W+B3KUn95Vcl3pxQkpoB6BlWTqs2Zv4xF7PWzy
DnWC/PADZZcx8WUYfIkJfBaBmNEkgSer5bfFUx5HUfaI/mKfLP7B3+Vr84FkgYxz
SFrs372xwrPxfRJTUqHRFT5mQebLk43sD2IUVWs0XYcElw05rcVh7QEolQIDAQAB
MA0GCSqGSIb3DQEBBQUAA4ICAQCJoxQ8LbMtxlyesxdQUeZzKcV51mQLzwJtJz2P
lR/b+zdIeVXcBfQohqi8x0MIAGQH/5FNLv0yPFG3e3vYh8AE37ka5riUI4i66tdl
Yhnto8rqC5d9RggtMUcLovPJrvGmiyDyxxlSFd6dHxdjy+yVLNCZNSfEFLUKEWmb
cBUz+XU7OEXeeQFFErcTFpAYtyyVVBkdr1chaIAIEokglxvAuKUr8PVZDrYbOKMf
LTz9mxglcQgIcVGiAWyoEr3G+PCYLFA4rww1UITGefJ66QtoONTLeGq1GWou8H6q
00FXgB/0QtT8AGHWjkxwzXDvU8CAG+9aJj+ZLnJ5+Slavc/3ERWS9E/yd5sV4XKH
8pkohY0DZ7EGVS+W3jeE7OjohOllmpZzd0CDyfGx3Jp4KMQvd1X/FY1w6bKOw239
oJJxf/I/ZxLZvRTkRNN40qKigoyUOc0rlfH87hqZV6Grt/AEynOkKvYjWeTZXEvP
FeE9UttzMei+rSTFh2xhBeMZ2e6I4BAcLP+AV/zh76gf6FM9sz9ntigYDCXiu//d
BBfUek5z24LBBDka+CfzdoSGqzudEeJW5i6GwtKZxog3sHzoou41lnw4YNl06K9p
yh3mCOqjeewKjLoaPchbb8mq4mVF6/MT+qKYwzF5tp4qKcIBwbhC402Qg2Bik6MM
3KhEBA==
-----END CERTIFICATE-----
Certificate:
    Data:
        Version: 3 (0x2)
        Serial Number: 10219423159405941259 (0x8dd2af37f9ca920b)
    Signature Algorithm: sha1WithRSAEncryption
        Issuer: C=BE, CN=txjsonrpc-test-ca
        Validity
            Not Before: Jun 23 15:46:37 2012 GMT
            Not After : Jun 21 15:46:37 2022 GMT
        Subject: C=BE, CN=txjsonrpc-test-ca
        Subject Public Key Info:
            Public Key Algorithm: rsaEncryption
                Public-Key: (4096 bit)
                Modulus:
                    00:d1:25:af:77:c5:a8:72:cf:90:b9:39:10:fb:7b:
                    75:2c:a1:da:6a:95:e5:44:0c:d6:25:4b:58:7f:bb:
                    07:82:59:49:58:32:85:24:cc:3e:77:db:e1:a7:4f:
                    c8:b5:cb:ee:45:38:bd:bc:fb:e3:76:3b:88:04:ca:
                    ab:3a:a3:96:3b:5f:93:9c:28:a6:61:97:dc:a2:3f:
                    a0:93:2b:56:6c:cf:d3:4f:6a:9e:05:d3:1c:cd:ef:
                    75:80:1a:98:b7:92:49:14:33:b8:c4:7c:73:8c:7e:
                    83:a5:81:a2:59:8c:8b:a3:51:36:6d:68:ac:f2:f1:
                    ed:6f:49:d9:af:7a:63:c1:43:31:42:b6:c7:cd:b9:
                    78:b7:33:98:70:92:6c:9e:04:7a:7b:f0:6d:38:87:
                    eb:00:13:17:b9:d9:ec:b4:66:bb:51:d3:fd:81:e3:
                    0e:88:71:23:d2:80:2a:61:de:ab:25:02:47:a9:c1:
                    6b:c9:69:ae:da:47:b6:49:74:ac:a6:e1:c1:76:ba:
                    6d:b1:d9:68:6e:1c:37:a8:e2:18:60:37:b6:58:13:
                    6c:c7:92:7c:c6:45:8c:ef:c3:81:73:10:dc:2f:31:
                    e2:b9:05:5a:9e:28:70:5a:3e:1d:b8:68:71:81:c9:
                    e8:fe:1f:c3:a0:13:f8:e4:24:12:ba:91:8e:15:d2:
                    03:f1:8c:b0:aa:e2:34:e4:6b:f8:06:f6:23:8a:92:
                    43:a6:05:dc:e9:c7:a5:a8:06:d7:6e:91:52:72:47:
                    ab:ae:87:fe:b3:0f:04:87:6f:4b:22:29:e9:a9:06:
                    52:58:7d:03:16:d7:d5:31:44:b4:f1:51:44:a7:2a:
                    ba:5e:09:19:ec:4c:a2:e0:58:fe:0d:4e:b7:90:4d:
                    02:ac:2a:ad:99:14:65:3b:0a:3c:73:45:56:b2:0f:
                    10:25:24:51:79:57:1a:34:1a:10:6f:60:e0:fc:81:
                    db:ca:c2:e2:85:1b:4c:72:13:5c:9d:76:cc:d0:21:
                    33:31:56:82:8f:c5:57:b9:44:fd:8b:76:c1:b6:e4:
                    21:8b:35:9a:ee:54:74:9f:72:6b:19:84:d7:a2:3c:
                    a5:6e:11:0a:f1:93:04:2e:dd:7c:4c:7d:62:10:d4:
                    1b:8b:87:f6:ed:bf:12:b1:8b:f0:9a:7a:ee:02:94:
                    e1:3c:46:2b:7f:9c:54:fb:2e:61:c9:1c:ef:fc:de:
                    25:bc:2d:75:1b:1f:49:5e:44:3b:15:93:ad:c4:89:
                    d9:ae:3c:da:54:ef:d9:af:3a:16:cb:94:1b:6a:14:
                    e4:42:f9:75:33:46:6e:fb:40:bc:f8:82:36:cf:60:
                    f5:c2:a2:98:23:a7:2a:ae:c1:aa:22:f8:87:da:b7:
                    9c:a4:cf
                Exponent: 65537 (0x10001)
        X509v3 extensions:
            X509v3 Subject Key Identifier: 
                9D:8F:84:76:94:CD:07:FE:A3:E8:8B:D7:F9:D9:6E:EF:CA:75:51:7B
            X509v3 Authority Key Identifier: 
                keyid:9D:8F:84:76:94:CD:07:FE:A3:E8:8B:D7:F9:D9:6E:EF:CA:75:51:7B
                DirName:/C=BE/CN=txjsonrpc-test-ca
                serial:8D:D2:AF:37:F9:CA:92:0B

            X509v3 Basic Constraints: critical
                CA:TRUE
            Netscape Cert Type: 
                SSL CA, S/MIME CA
            X509v3 Issuer Alternative Name: 
                <EMPTY>

            Netscape Comment: 
                Test CA for txjsonrcp
            X509v3 Subject Alternative Name: 
                <EMPTY>

            X509v3 Key Usage: critical
                Certificate Sign, CRL Sign
    Signature Algorithm: sha1WithRSAEncryption
         06:82:86:81:a9:1b:7e:2d:ef:f5:fc:cc:d2:9d:d6:82:ad:d0:
         6f:7e:3d:b9:5c:b2:0f:3a:64:21:9a:fb:53:b2:93:81:dc:1a:
         24:fc:b8:30:57:a2:c7:71:0d:9c:1a:0b:8a:6c:89:52:8b:8a:
         f5:af:95:3e:b8:08:39:ee:36:50:ac:60:4d:df:2b:49:a2:72:
         f1:3f:12:3c:d9:55:56:a4:9a:77:2b:77:fa:16:b5:76:d9:f4:
         c4:51:6b:b9:fe:2f:a3:52:e8:64:80:49:22:6d:05:42:87:af:
         9d:85:6c:fa:c9:9b:48:39:7b:89:f5:a0:1e:ff:11:d3:9c:78:
         b1:b2:f6:4d:b1:e8:b3:98:23:2c:d4:20:e1:a1:01:3e:26:0a:
         5b:8e:eb:58:45:22:cf:e1:94:ad:84:40:b0:fb:ff:25:5f:31:
         9a:49:0b:36:ad:c6:1a:b0:42:60:40:e2:a2:3c:5a:36:41:89:
         fc:10:c4:60:ea:d4:85:7b:36:84:df:aa:81:cc:69:e7:52:ca:
         c1:46:b1:79:93:51:4f:24:84:42:14:3a:20:a0:6c:27:76:40:
         0f:96:7e:4e:c3:0c:37:b3:e3:73:49:86:58:31:00:1e:e7:0f:
         87:74:b6:4e:6e:1c:7d:87:a4:33:04:c9:76:ec:e5:3a:85:5f:
         a8:d1:ad:21:64:5e:c5:6a:df:b1:02:6e:65:a4:87:72:06:07:
         da:e5:f2:af:2b:a5:eb:18:80:67:83:a5:3c:e6:ed:d1:58:f9:
         90:5c:d6:e9:2f:76:c1:58:13:b8:bd:88:8a:f3:04:48:bb:42:
         8f:7f:c6:db:b4:30:3f:bb:6c:d5:47:e5:ae:8d:4b:da:92:a5:
         db:d3:6e:a8:9b:c2:6b:56:af:34:63:82:e6:78:f8:1f:54:d7:
         41:aa:a3:c9:7c:a6:83:41:bf:6e:33:7c:ae:e6:92:bd:da:27:
         b4:bc:e2:90:4f:33:1b:01:a1:cd:02:13:7a:31:ef:00:d6:9a:
         6e:38:6b:a7:cb:70:98:a8:0f:ff:1c:56:a8:b7:e6:d2:42:5a:
         bb:f4:78:27:71:13:d0:e8:43:eb:bc:2d:4f:e4:ea:4d:4f:76:
         7f:53:38:34:eb:13:e2:3d:c6:14:98:86:1c:ab:2c:0e:b7:68:
         2e:bd:63:a9:6a:8f:d5:22:2d:ab:13:d7:62:54:51:ff:5c:37:
         08:04:27:da:f9:57:77:05:18:73:88:5f:b0:c1:65:50:36:09:
         d6:c7:f5:ae:6e:3f:04:d1:84:3c:21:74:1d:bd:0a:fb:76:d0:
         13:2b:62:bb:24:48:43:89:d0:18:5c:b4:ad:ea:98:af:6d:fc:
         1c:6b:1f:06:64:54:23:88
-----BEGIN CERTIFICATE-----
MIIFwzCCA6ugAwIBAgIJAI3Srzf5ypILMA0GCSqGSIb3DQEBBQUAMCkxCzAJBgNV
BAYTAkJFMRowGAYDVQQDExF0eGpzb25ycGMtdGVzdC1jYTAeFw0xMjA2MjMxNTQ2
MzdaFw0yMjA2MjExNTQ2MzdaMCkxCzAJBgNVBAYTAkJFMRowGAYDVQQDExF0eGpz
b25ycGMtdGVzdC1jYTCCAiIwDQYJKoZIhvcNAQEBBQADggIPADCCAgoCggIBANEl
r3fFqHLPkLk5EPt7dSyh2mqV5UQM1iVLWH+7B4JZSVgyhSTMPnfb4adPyLXL7kU4
vbz743Y7iATKqzqjljtfk5wopmGX3KI/oJMrVmzP009qngXTHM3vdYAamLeSSRQz
uMR8c4x+g6WBolmMi6NRNm1orPLx7W9J2a96Y8FDMUK2x825eLczmHCSbJ4Eenvw
bTiH6wATF7nZ7LRmu1HT/YHjDohxI9KAKmHeqyUCR6nBa8lprtpHtkl0rKbhwXa6
bbHZaG4cN6jiGGA3tlgTbMeSfMZFjO/DgXMQ3C8x4rkFWp4ocFo+HbhocYHJ6P4f
w6AT+OQkErqRjhXSA/GMsKriNORr+Ab2I4qSQ6YF3OnHpagG126RUnJHq66H/rMP
BIdvSyIp6akGUlh9AxbX1TFEtPFRRKcqul4JGexMouBY/g1Ot5BNAqwqrZkUZTsK
PHNFVrIPECUkUXlXGjQaEG9g4PyB28rC4oUbTHITXJ12zNAhMzFWgo/FV7lE/Yt2
wbbkIYs1mu5UdJ9yaxmE16I8pW4RCvGTBC7dfEx9YhDUG4uH9u2/ErGL8Jp67gKU
4TxGK3+cVPsuYckc7/zeJbwtdRsfSV5EOxWTrcSJ2a482lTv2a86FsuUG2oU5EL5
dTNGbvtAvPiCNs9g9cKimCOnKq7BqiL4h9q3nKTPAgMBAAGjge0wgeowHQYDVR0O
BBYEFJ2PhHaUzQf+o+iL1/nZbu/KdVF7MFkGA1UdIwRSMFCAFJ2PhHaUzQf+o+iL
1/nZbu/KdVF7oS2kKzApMQswCQYDVQQGEwJCRTEaMBgGA1UEAxMRdHhqc29ucnBj
LXRlc3QtY2GCCQCN0q83+cqSCzAPBgNVHRMBAf8EBTADAQH/MBEGCWCGSAGG+EIB
AQQEAwIBBjAJBgNVHRIEAjAAMCQGCWCGSAGG+EIBDQQXFhVUZXN0IENBIGZvciB0
eGpzb25yY3AwCQYDVR0RBAIwADAOBgNVHQ8BAf8EBAMCAQYwDQYJKoZIhvcNAQEF
BQADggIBAAaChoGpG34t7/X8zNKd1oKt0G9+Pblcsg86ZCGa+1Oyk4HcGiT8uDBX
osdxDZwaC4psiVKLivWvlT64CDnuNlCsYE3fK0micvE/EjzZVVakmncrd/oWtXbZ
9MRRa7n+L6NS6GSASSJtBUKHr52FbPrJm0g5e4n1oB7/EdOceLGy9k2x6LOYIyzU
IOGhAT4mCluO61hFIs/hlK2EQLD7/yVfMZpJCzatxhqwQmBA4qI8WjZBifwQxGDq
1IV7NoTfqoHMaedSysFGsXmTUU8khEIUOiCgbCd2QA+Wfk7DDDez43NJhlgxAB7n
D4d0tk5uHH2HpDMEyXbs5TqFX6jRrSFkXsVq37ECbmWkh3IGB9rl8q8rpesYgGeD
pTzm7dFY+ZBc1ukvdsFYE7i9iIrzBEi7Qo9/xtu0MD+7bNVH5a6NS9qSpdvTbqib
wmtWrzRjguZ4+B9U10Gqo8l8poNBv24zfK7mkr3aJ7S84pBPMxsBoc0CE3ox7wDW
mm44a6fLcJioD/8cVqi35tJCWrv0eCdxE9DoQ+u8LU/k6k1Pdn9TODTrE+I9xhSY
hhyrLA63aC69Y6lqj9UiLasT12JUUf9cNwgEJ9r5V3cFGHOIX7DBZVA2CdbH9a5u
PwTRhDwhdB29Cvt20BMrYrskSEOJ0BhctK3qmK9t/BxrHwZkVCOI
-----END CERTIFICATE-----
