Certificate:
    Data:
        Version: 4 (0x3)
        Serial Number: 1 (0x1)
    Signature Algorithm: sha1WithRSAEncryption
        Issuer: CN=ca-false, C=BE, O=Gremwell bvba
        Validity
            Not Before: Jan  1 00:00:00 1970 GMT
            Not After : Jan 19 03:14:07 2038 GMT
        Subject: CN=txjsonrpc-pyserver, C=BE, O=Gremwell bvba
        Subject Public Key Info:
            Public Key Algorithm: rsaEncryption
                Public-Key: (1024 bit)
                Modulus:
                    00:cc:6f:0b:d2:9c:d9:46:8b:f5:be:07:72:94:9f:
                    de:55:72:5d:e9:c5:09:29:a0:1e:81:95:64:ea:b3:
                    66:6f:e3:11:7b:3d:6c:f2:0e:75:82:fc:f0:03:65:
                    97:31:f1:65:18:7c:89:09:7c:16:81:98:d1:24:81:
                    27:ab:e5:b7:c5:53:1e:47:51:f6:88:fe:62:9f:2c:
                    fe:c1:df:e5:6b:f3:81:64:81:8c:73:48:5a:ec:df:
                    bd:b1:c2:b3:f1:7d:12:53:52:a1:d1:15:3e:66:41:
                    e6:cb:93:8d:ec:0f:62:14:55:6b:34:5d:87:04:97:
                    0d:39:ad:c5:61:ed:01:28:95
                Exponent: 65537 (0x10001)
    Signature Algorithm: sha1WithRSAEncryption
         68:31:b0:1c:fb:5f:42:79:02:86:86:ba:cd:b9:53:8f:d5:f4:
         f2:8b:af:8c:2d:58:60:d9:4b:e2:40:d1:8a:e3:4f:bc:de:1b:
         db:31:7d:b5:80:f7:99:2b:9e:5a:d1:87:5a:e3:0b:f7:7b:10:
         f1:d8:a6:62:60:21:c9:94:47:5e:e0:a9:b8:37:df:b6:e0:b2:
         83:b6:1d:e3:0b:5e:04:7d:c5:62:42:4b:d8:65:34:58:7f:f2:
         ed:a7:4d:f6:37:99:4a:e7:26:fe:e0:74:1e:8a:b9:da:79:64:
         45:c2:c7:f9:82:b4:09:41:22:ef:f3:06:b8:85:2a:c3:92:7b:
         e2:1c
-----BEGIN CERTIFICATE-----
MIIB7jCCAVegAwIBAwIBATANBgkqhkiG9w0BAQUFADA4MREwDwYDVQQDEwhjYS1m
YWxzZTELMAkGA1UEBhMCQkUxFjAUBgNVBAoTDUdyZW13ZWxsIGJ2YmEwHhcNNzAw
MTAxMDAwMDAwWhcNMzgwMTE5MDMxNDA3WjBCMRswGQYDVQQDExJ0eGpzb25ycGMt
cHlzZXJ2ZXIxCzAJBgNVBAYTAkJFMRYwFAYDVQQKEw1HcmVtd2VsbCBidmJhMIGf
MA0GCSqGSIb3DQEBAQUAA4GNADCBiQKBgQDMbwvSnNlGi/W+B3KUn95Vcl3pxQkp
oB6BlWTqs2Zv4xF7PWzyDnWC/PADZZcx8WUYfIkJfBaBmNEkgSer5bfFUx5HUfaI
/mKfLP7B3+Vr84FkgYxzSFrs372xwrPxfRJTUqHRFT5mQebLk43sD2IUVWs0XYcE
lw05rcVh7QEolQIDAQABMA0GCSqGSIb3DQEBBQUAA4GBAGgxsBz7X0J5AoaGus25
U4/V9PKLr4wtWGDZS+JA0YrjT7zeG9sxfbWA95krnlrRh1rjC/d7EPHYpmJgIcmU
R17gqbg337bgsoO2HeMLXgR9xWJCS9hlNFh/8u2nTfY3mUrnJv7gdB6Kudp5ZEXC
x/mCtAlBIu/zBriFKsOSe+Ic
-----END CERTIFICATE-----
Certificate:
    Data:
        Version: 4 (0x3)
        Serial Number: 1 (0x1)
    Signature Algorithm: sha1WithRSAEncryption
        Issuer: C=BE, CN=txjsonrpc-test-ca
        Validity
            Not Before: Jan  1 00:00:00 1970 GMT
            Not After : Jan 19 03:14:07 2038 GMT
        Subject: CN=ca-false, C=BE, O=Gremwell bvba
        Subject Public Key Info:
            Public Key Algorithm: rsaEncryption
                Public-Key: (1024 bit)
                Modulus:
                    00:cb:84:f1:e7:d1:4b:67:c8:b9:e0:9e:b7:68:a7:
                    62:6b:2b:81:be:31:48:39:86:7b:c2:74:ef:43:e8:
                    0e:e4:19:78:c8:7b:4c:0d:6a:fd:be:6b:76:92:82:
                    bf:01:8f:f1:9d:3f:af:c5:66:50:78:51:db:d6:ba:
                    80:11:4d:f2:ac:40:a7:dc:ee:3c:e1:2c:9f:11:42:
                    63:df:0b:41:e7:d4:93:49:f6:e2:66:b3:e7:18:d7:
                    0f:a5:6b:37:7f:75:8b:42:5f:f0:38:39:24:cd:ef:
                    73:53:9c:93:cc:a8:8f:83:27:93:1e:74:26:b5:25:
                    7f:b7:32:bc:2c:2b:a8:7b:59
                Exponent: 65537 (0x10001)
        X509v3 extensions:
            X509v3 Basic Constraints: critical
                CA:FALSE
    Signature Algorithm: sha1WithRSAEncryption
         16:65:8e:67:7f:79:5f:cf:81:f2:10:7f:58:1a:aa:24:89:b2:
         e5:bf:af:e5:0f:d3:8f:57:c3:7d:3b:d3:cd:c2:0f:de:3d:b7:
         3a:12:e4:20:e4:d3:75:24:51:fd:85:2a:4d:1b:87:4b:5d:81:
         b2:ae:9b:ad:63:eb:dc:8e:b0:bc:9b:65:1c:49:9f:31:1f:6d:
         e2:5a:79:c3:49:24:e4:f8:ea:37:e6:24:07:1e:d5:88:dd:70:
         ad:1b:cf:4e:c7:c9:e3:92:7e:97:f1:5e:6d:63:5a:d7:69:d6:
         84:51:aa:dd:3a:ee:82:f1:47:f4:57:55:c0:fc:19:02:3d:8b:
         ce:07:f9:d8:16:e1:89:9f:6e:81:90:de:99:d5:76:92:fd:e1:
         2f:90:74:7b:10:e8:e7:55:03:8f:6a:82:23:3a:fa:6e:50:9b:
         cd:1f:0c:76:6f:88:4f:55:bb:a1:0a:84:be:3f:6e:da:e7:59:
         81:d8:a4:6c:d1:7e:48:b9:8a:49:3b:fb:66:d5:3a:88:eb:15:
         fc:33:eb:19:5c:73:c1:1a:49:39:bc:a3:51:1b:1d:9b:08:c0:
         98:f8:f6:e1:55:0e:03:c8:33:57:7b:84:fa:3e:11:73:22:e6:
         d0:23:6e:8b:0b:09:fb:7a:f1:92:e4:7f:4e:0a:e5:1d:58:aa:
         db:c2:ae:51:a4:25:7b:46:d6:12:f1:b6:57:26:51:cf:1e:85:
         d3:5d:ec:0e:fc:17:43:95:a3:a8:1a:d8:e1:19:f7:51:0d:e7:
         3e:ac:3a:f5:ab:60:9d:5c:9b:62:e0:fc:f5:05:f5:99:59:bf:
         9b:9a:14:73:79:2a:b2:22:ac:0b:52:37:11:62:a0:88:fb:e1:
         b7:dc:ba:1c:c7:ff:8d:ff:ed:71:0e:fa:97:41:16:23:92:99:
         b1:c2:7c:29:27:a6:4c:e0:3c:14:73:24:61:c8:b2:b6:49:c6:
         27:13:63:35:a3:c6:b4:cb:41:b5:2f:b2:5a:06:c3:f1:5c:9b:
         68:29:40:b1:ef:22:90:a9:bb:a8:99:8b:50:16:a1:46:f7:7a:
         c4:61:92:4e:fc:4a:22:d8:35:d6:0b:52:d5:95:a9:02:25:cd:
         54:61:db:99:4a:aa:fa:7b:93:27:7c:52:5c:66:bd:14:26:66:
         45:ad:51:14:30:13:3b:96:6b:bb:eb:6e:49:d6:e6:2a:95:31:
         0a:40:eb:11:53:7c:ff:b5:de:32:f7:05:8d:b7:4f:73:1b:2a:
         fe:e8:df:61:71:7d:3e:b6:9f:45:e1:3c:05:00:2f:2b:6d:c9:
         c2:41:92:9c:7e:3f:99:4e:8f:72:9f:5d:9c:6e:b1:96:d3:48:
         47:21:04:8c:55:0f:6e:a8
-----BEGIN CERTIFICATE-----
MIIDaDCCAVCgAwIBAwIBATANBgkqhkiG9w0BAQUFADApMQswCQYDVQQGEwJCRTEa
MBgGA1UEAxMRdHhqc29ucnBjLXRlc3QtY2EwHhcNNzAwMTAxMDAwMDAwWhcNMzgw
MTE5MDMxNDA3WjA4MREwDwYDVQQDEwhjYS1mYWxzZTELMAkGA1UEBhMCQkUxFjAU
BgNVBAoTDUdyZW13ZWxsIGJ2YmEwgZ8wDQYJKoZIhvcNAQEBBQADgY0AMIGJAoGB
AMuE8efRS2fIueCet2inYmsrgb4xSDmGe8J070PoDuQZeMh7TA1q/b5rdpKCvwGP
8Z0/r8VmUHhR29a6gBFN8qxAp9zuPOEsnxFCY98LQefUk0n24maz5xjXD6VrN391
i0Jf8Dg5JM3vc1Ock8yoj4Mnkx50JrUlf7cyvCwrqHtZAgMBAAGjEDAOMAwGA1Ud
EwEB/wQCMAAwDQYJKoZIhvcNAQEFBQADggIBABZljmd/eV/PgfIQf1gaqiSJsuW/
r+UP049Xw307083CD949tzoS5CDk03UkUf2FKk0bh0tdgbKum61j69yOsLybZRxJ
nzEfbeJaecNJJOT46jfmJAce1YjdcK0bz07HyeOSfpfxXm1jWtdp1oRRqt067oLx
R/RXVcD8GQI9i84H+dgW4YmfboGQ3pnVdpL94S+QdHsQ6OdVA49qgiM6+m5Qm80f
DHZviE9Vu6EKhL4/btrnWYHYpGzRfki5ikk7+2bVOojrFfwz6xlcc8EaSTm8o1Eb
HZsIwJj49uFVDgPIM1d7hPo+EXMi5tAjbosLCft68ZLkf04K5R1YqtvCrlGkJXtG
1hLxtlcmUc8ehdNd7A78F0OVo6ga2OEZ91EN5z6sOvWrYJ1cm2Lg/PUF9ZlZv5ua
FHN5KrIirAtSNxFioIj74bfcuhzH/43/7XEO+pdBFiOSmbHCfCknpkzgPBRzJGHI
srZJxicTYzWjxrTLQbUvsloGw/Fcm2gpQLHvIpCpu6iZi1AWoUb3esRhkk78SiLY
NdYLUtWVqQIlzVRh25lKqvp7kyd8UlxmvRQmZkWtURQwEzuWa7vrbknW5iqVMQpA
6xFTfP+13jL3BY23T3MbKv7o32FxfT62n0XhPAUALyttycJBkpx+P5lOj3KfXZxu
sZbTSEchBIxVD26o
-----END CERTIFICATE-----
