Certificate:
    Data:
        Version: 3 (0x2)
        Serial Number: 1 (0x1)
    Signature Algorithm: sha1WithRSAEncryption
        Issuer: CN=ca-none, C=BE, O=Gremwell bvba
        Validity
            Not Before: Jun 23 15:47:38 2012 GMT
            Not After : Jun 23 15:47:38 2013 GMT
        Subject: C=BE, CN=txjsonrpc-pyserver
        Subject Public Key Info:
            Public Key Algorithm: rsaEncryption
                Public-Key: (4096 bit)
                Modulus:
                    00:a4:55:0e:3b:fd:34:78:17:66:9b:bc:3e:1e:81:
                    69:e0:1a:5f:2e:b4:3d:84:64:00:74:c1:30:eb:17:
                    1f:aa:d3:c0:4c:7e:42:38:90:b3:bf:ea:ff:6d:40:
                    c7:cb:41:55:9f:83:31:c4:df:80:a1:77:e6:52:f1:
                    12:a0:89:e2:71:e4:12:5c:33:3f:3d:34:fb:44:5c:
                    13:30:9c:0b:ac:cc:eb:f7:20:d6:bb:6f:f2:8b:fe:
                    cc:85:e8:94:4f:4d:ef:09:b7:f0:5c:00:03:c3:d4:
                    f3:d2:77:09:66:4a:a4:14:cd:3a:00:e5:62:68:2a:
                    66:6c:9b:12:b7:2f:cc:a1:b4:54:38:72:1a:d9:d5:
                    3c:eb:12:30:64:79:a5:42:10:32:f3:9e:d8:d7:52:
                    2f:09:b9:1d:44:7d:74:05:3e:17:38:28:1a:e0:4f:
                    80:7f:ba:98:9b:6e:21:b9:f8:0f:fd:c6:d9:88:ba:
                    fa:ec:e1:19:05:37:20:ee:31:8c:3a:49:85:a5:5c:
                    3d:67:64:7b:08:f4:66:71:be:cb:3b:2d:6a:89:9f:
                    b0:12:e8:bc:22:57:7c:ca:4d:3b:b6:58:57:d5:a3:
                    e0:57:b5:e9:36:f6:90:28:af:77:9a:31:d8:e0:b9:
                    4c:36:cd:57:61:cd:4e:ea:5c:41:6a:19:df:ba:f8:
                    d6:86:c3:2d:d3:33:5c:d8:33:89:22:f0:33:9f:e4:
                    df:4a:e8:76:59:1a:2e:d7:ad:cf:63:e2:2a:76:e7:
                    3d:aa:be:94:98:0c:2b:bf:7f:31:c6:36:21:6c:0d:
                    1e:9f:2f:24:30:23:32:c2:c3:7b:3a:a6:ba:cf:fe:
                    ed:78:23:80:8a:9f:8a:50:cc:77:14:d4:3c:84:cc:
                    26:e7:6b:ef:7e:28:1a:98:71:8c:86:5c:2a:09:e0:
                    5b:63:4d:e8:ce:c8:69:97:ae:7a:1d:99:15:08:cf:
                    1d:a0:07:bb:11:b4:02:c4:73:b5:e2:09:7c:e5:91:
                    3d:1f:54:b9:e5:45:01:a0:75:f5:55:f0:d7:c6:c6:
                    9b:7c:46:4e:90:58:e2:0e:62:67:5f:f1:10:01:ec:
                    00:86:d6:ca:00:13:9a:32:84:7e:a4:39:3c:b2:5e:
                    23:c7:ae:c5:e3:4e:84:86:1c:e1:ed:c4:55:34:df:
                    49:81:48:a9:80:19:5a:1f:cb:c6:1e:a3:8d:bb:2a:
                    b2:03:e0:1c:20:98:65:c6:37:9e:85:d1:fc:2c:22:
                    4e:2c:f0:f0:e2:41:d3:e0:14:ce:d1:1a:64:6b:be:
                    04:0a:44:be:5e:6a:a8:c1:46:cd:af:18:31:ca:77:
                    56:ba:1f:b2:12:7f:b7:f6:4e:a1:8f:cd:96:61:35:
                    0b:2a:4d
                Exponent: 65537 (0x10001)
    Signature Algorithm: sha1WithRSAEncryption
         7c:63:83:24:ec:61:73:c0:58:05:41:b2:47:14:f3:24:fb:3d:
         9b:de:87:29:1c:41:a4:f8:45:a4:69:e9:bc:25:51:81:ad:1b:
         7a:54:59:f9:51:10:13:3c:4e:8e:5d:51:d4:db:af:03:12:da:
         b9:99:30:7e:69:b7:bf:72:a1:08:b5:0e:88:fb:61:24:c6:ac:
         97:31:f0:56:9e:f3:4c:13:b6:be:92:0c:55:10:66:4c:f9:8d:
         1c:5d:9c:39:b0:f2:75:84:1c:d2:da:27:4c:04:e4:5f:bf:fd:
         86:cc:8d:d1:bd:eb:d8:4a:a8:21:62:e2:8d:04:87:f0:be:fd:
         b3:81
-----BEGIN CERTIFICATE-----
MIIDWTCCAsKgAwIBAgIBATANBgkqhkiG9w0BAQUFADA3MRAwDgYDVQQDEwdjYS1u
b25lMQswCQYDVQQGEwJCRTEWMBQGA1UEChMNR3JlbXdlbGwgYnZiYTAeFw0xMjA2
MjMxNTQ3MzhaFw0xMzA2MjMxNTQ3MzhaMCoxCzAJBgNVBAYTAkJFMRswGQYDVQQD
ExJ0eGpzb25ycGMtcHlzZXJ2ZXIwggIiMA0GCSqGSIb3DQEBAQUAA4ICDwAwggIK
AoICAQCkVQ47/TR4F2abvD4egWngGl8utD2EZAB0wTDrFx+q08BMfkI4kLO/6v9t
QMfLQVWfgzHE34Chd+ZS8RKgieJx5BJcMz89NPtEXBMwnAuszOv3INa7b/KL/syF
6JRPTe8Jt/BcAAPD1PPSdwlmSqQUzToA5WJoKmZsmxK3L8yhtFQ4chrZ1TzrEjBk
eaVCEDLzntjXUi8JuR1EfXQFPhc4KBrgT4B/upibbiG5+A/9xtmIuvrs4RkFNyDu
MYw6SYWlXD1nZHsI9GZxvss7LWqJn7AS6LwiV3zKTTu2WFfVo+BXtek29pAor3ea
MdjguUw2zVdhzU7qXEFqGd+6+NaGwy3TM1zYM4ki8DOf5N9K6HZZGi7Xrc9j4ip2
5z2qvpSYDCu/fzHGNiFsDR6fLyQwIzLCw3s6prrP/u14I4CKn4pQzHcU1DyEzCbn
a+9+KBqYcYyGXCoJ4FtjTejOyGmXrnodmRUIzx2gB7sRtALEc7XiCXzlkT0fVLnl
RQGgdfVV8NfGxpt8Rk6QWOIOYmdf8RAB7ACG1soAE5oyhH6kOTyyXiPHrsXjToSG
HOHtxFU030mBSKmAGVofy8Yeo427KrID4BwgmGXGN56F0fwsIk4s8PDiQdPgFM7R
GmRrvgQKRL5eaqjBRs2vGDHKd1a6H7ISf7f2TqGPzZZhNQsqTQIDAQABMA0GCSqG
SIb3DQEBBQUAA4GBAHxjgyTsYXPAWAVBskcU8yT7PZvehykcQaT4RaRp6bwlUYGt
G3pUWflREBM8To5dUdTbrwMS2rmZMH5pt79yoQi1Doj7YSTGrJcx8Fae80wTtr6S
DFUQZkz5jRxdnDmw8nWEHNLaJ0wE5F+//YbMjdG969hKqCFi4o0Eh/C+/bOB
-----END CERTIFICATE-----
Certificate:
    Data:
        Version: 4 (0x3)
        Serial Number: 1 (0x1)
    Signature Algorithm: sha1WithRSAEncryption
        Issuer: C=BE, CN=txjsonrpc-test-ca
        Validity
            Not Before: Jan  1 00:00:00 1970 GMT
            Not After : Jan 19 03:14:07 2038 GMT
        Subject: CN=ca-none, C=BE, O=Gremwell bvba
        Subject Public Key Info:
            Public Key Algorithm: rsaEncryption
                Public-Key: (1024 bit)
                Modulus:
                    00:b4:b7:af:ed:fc:1c:e5:d5:20:d3:a9:46:d2:1a:
                    d8:73:21:4c:7c:fc:dc:62:84:65:be:7b:cb:6a:3b:
                    65:0d:ba:cd:c3:4d:44:e1:d4:2e:1d:f5:f8:9a:22:
                    8f:dd:7a:c8:f4:8a:18:9a:89:1a:72:c2:d4:fd:f8:
                    c7:0e:aa:98:8e:a9:fa:3a:0e:cf:8e:e6:f4:43:b9:
                    99:d1:59:04:37:5c:b3:86:c5:7e:66:cf:2e:5d:ce:
                    3c:1b:02:d4:8a:78:05:96:a9:9e:29:1c:98:79:25:
                    d0:13:a3:63:05:09:68:94:d8:1f:15:dc:c2:d7:7a:
                    c2:6b:4e:4f:6d:00:b6:4e:5b
                Exponent: 65537 (0x10001)
    Signature Algorithm: sha1WithRSAEncryption
         87:db:16:bf:c0:f9:f4:c6:51:ef:8a:15:0a:d7:71:1d:63:c8:
         51:e9:5d:b4:b8:68:eb:22:5e:3b:53:2f:19:da:08:f5:34:f6:
         3f:23:59:1f:ff:1e:02:80:1d:1e:5b:ef:4b:99:81:cc:24:d9:
         18:b3:8d:f5:47:28:d0:8c:f0:c5:3a:20:a9:52:84:dc:40:a6:
         c2:6d:bf:e6:68:19:c8:e0:46:6a:6b:fb:38:66:b7:db:25:eb:
         19:5f:65:7a:c7:53:05:f6:41:79:4b:66:39:c4:8f:e6:c7:52:
         08:d9:cf:7a:c0:e6:5e:12:28:6f:34:86:f7:22:bd:11:d1:c8:
         b3:37:91:da:60:83:91:cf:84:72:0f:ff:68:b7:b0:1f:82:65:
         c7:d1:83:4b:43:bd:c2:2a:8f:73:54:56:34:21:ad:89:0f:06:
         ef:74:e7:c2:4f:3e:e9:28:d6:70:94:67:24:a3:8a:bc:db:78:
         05:ef:8d:36:15:48:d3:a9:93:70:d3:08:41:0b:1e:c8:97:36:
         ad:06:ff:9b:a3:d5:a7:4f:d3:10:b4:52:dd:83:ed:2f:b9:f1:
         ed:81:68:d9:1a:b1:0a:c8:ad:0b:af:be:1b:36:8e:dc:7f:e5:
         89:a1:44:28:ed:e0:99:60:3d:47:de:18:30:8b:da:f8:eb:da:
         a8:9f:0d:1f:45:d6:1e:6e:44:0f:e2:38:dc:9c:d7:c7:6a:df:
         d1:91:f6:59:e5:8a:28:fd:a1:a1:5f:13:29:13:b7:76:bb:60:
         48:99:6d:a6:99:9d:c0:0c:11:ae:41:f4:37:a3:88:58:8d:13:
         3e:ab:e5:6d:96:6d:b0:10:f7:bc:c4:23:3b:ed:f0:e9:68:f3:
         78:f7:e3:50:e8:fa:97:03:8f:8a:5f:ab:ac:d6:aa:e3:e9:4e:
         3f:99:e2:79:2b:c6:49:8f:5a:a2:28:b4:ef:65:3e:60:c1:ff:
         e8:86:a2:b8:45:b3:4c:f4:76:6a:1e:56:b2:a6:9e:04:c4:71:
         59:f0:0c:35:6e:10:91:2b:04:50:96:33:6a:88:8a:5b:29:19:
         a6:f0:3b:3f:89:77:73:38:cb:a1:c9:6b:65:5d:ca:b3:2e:8c:
         4a:7e:62:a1:bf:b7:30:75:f4:b7:c3:00:67:49:69:19:eb:1a:
         83:0f:3e:40:0e:ce:69:c7:0f:92:63:30:7f:d9:94:59:72:36:
         1e:44:59:3f:4c:3a:32:93:fb:06:59:82:e5:a7:fb:9a:83:d5:
         6a:75:4a:27:ff:cf:0c:22:96:4c:00:ab:5f:68:99:9f:24:a8:
         ea:93:d5:9b:1d:9b:3e:df:e1:2c:9e:26:af:80:ef:1e:dd:f7:
         d8:b6:77:bd:2a:a5:1e:7f
-----BEGIN CERTIFICATE-----
MIIDVTCCAT2gAwIBAwIBATANBgkqhkiG9w0BAQUFADApMQswCQYDVQQGEwJCRTEa
MBgGA1UEAxMRdHhqc29ucnBjLXRlc3QtY2EwHhcNNzAwMTAxMDAwMDAwWhcNMzgw
MTE5MDMxNDA3WjA3MRAwDgYDVQQDEwdjYS1ub25lMQswCQYDVQQGEwJCRTEWMBQG
A1UEChMNR3JlbXdlbGwgYnZiYTCBnzANBgkqhkiG9w0BAQEFAAOBjQAwgYkCgYEA
tLev7fwc5dUg06lG0hrYcyFMfPzcYoRlvnvLajtlDbrNw01E4dQuHfX4miKP3XrI
9IoYmokacsLU/fjHDqqYjqn6Og7Pjub0Q7mZ0VkEN1yzhsV+Zs8uXc48GwLUingF
lqmeKRyYeSXQE6NjBQlolNgfFdzC13rCa05PbQC2TlsCAwEAATANBgkqhkiG9w0B
AQUFAAOCAgEAh9sWv8D59MZR74oVCtdxHWPIUeldtLho6yJeO1MvGdoI9TT2PyNZ
H/8eAoAdHlvvS5mBzCTZGLON9Uco0IzwxTogqVKE3ECmwm2/5mgZyOBGamv7OGa3
2yXrGV9lesdTBfZBeUtmOcSP5sdSCNnPesDmXhIobzSG9yK9EdHIszeR2mCDkc+E
cg//aLewH4Jlx9GDS0O9wiqPc1RWNCGtiQ8G73Tnwk8+6SjWcJRnJKOKvNt4Be+N
NhVI06mTcNMIQQseyJc2rQb/m6PVp0/TELRS3YPtL7nx7YFo2RqxCsitC6++GzaO
3H/liaFEKO3gmWA9R94YMIva+OvaqJ8NH0XWHm5ED+I43JzXx2rf0ZH2WeWKKP2h
oV8TKRO3drtgSJltppmdwAwRrkH0N6OIWI0TPqvlbZZtsBD3vMQjO+3w6WjzePfj
UOj6lwOPil+rrNaq4+lOP5nieSvGSY9aoii072U+YMH/6IaiuEWzTPR2ah5Wsqae
BMRxWfAMNW4QkSsEUJYzaoiKWykZpvA7P4l3czjLoclrZV3Ksy6MSn5iob+3MHX0
t8MAZ0lpGesagw8+QA7OaccPkmMwf9mUWXI2HkRZP0w6MpP7BlmC5af7moPVanVK
J//PDCKWTACrX2iZnySo6pPVmx2bPt/hLJ4mr4DvHt332LZ3vSqlHn8=
-----END CERTIFICATE-----
