Certificate:
    Data:
        Version: 4 (0x3)
        Serial Number: 1 (0x1)
    Signature Algorithm: sha1WithRSAEncryption
        Issuer: CN=ca-false, C=BE, O=Gremwell bvba
        Validity
            Not Before: Jan  1 00:00:00 1970 GMT
            Not After : Jan 19 03:14:07 2038 GMT
        Subject: CN=www.example.com, C=BE, O=Gremwell bvba
        Subject Public Key Info:
            Public Key Algorithm: rsaEncryption
                Public-Key: (1024 bit)
                Modulus:
                    00:ac:06:89:10:82:4f:4e:9e:3f:37:55:fd:9f:de:
                    22:41:77:98:06:88:20:26:41:69:8f:f6:76:d6:f8:
                    a1:9b:37:fc:d8:48:db:67:9c:c8:5d:01:a5:57:92:
                    4d:fc:5b:bd:4c:6d:7d:b8:a3:a1:66:01:0c:b7:da:
                    49:1b:31:f4:11:00:a8:56:22:3c:ae:b3:ef:30:3f:
                    76:34:19:63:30:09:c9:e9:64:f1:a1:f4:b5:3a:cc:
                    ca:e5:df:3b:13:5c:49:8d:9a:43:78:64:e7:db:2e:
                    49:bf:c4:12:c8:c4:55:1a:13:5e:88:3e:11:d4:8d:
                    a1:d7:f9:b6:16:66:fc:aa:cf
                Exponent: 65537 (0x10001)
    Signature Algorithm: sha1WithRSAEncryption
         25:5b:78:66:40:89:f5:58:b1:9c:23:4e:34:ea:f8:d9:ef:11:
         48:8f:a1:20:bd:b7:08:47:f2:88:c5:f8:74:58:87:8d:52:ee:
         53:25:e8:b2:ea:ee:fc:eb:5e:5f:e3:06:3a:4f:50:c6:59:37:
         27:e6:80:83:d1:2e:69:85:7d:d0:6a:13:b5:02:de:06:54:7b:
         e3:f7:23:dc:3f:16:94:8b:e8:66:b3:c4:00:e8:26:43:d8:fb:
         03:9f:db:ca:a2:16:c3:d1:5c:71:47:e1:e3:da:0f:65:08:ea:
         b6:97:96:58:19:4e:96:16:14:05:c2:44:11:9c:47:aa:20:ce:
         82:0d
-----BEGIN CERTIFICATE-----
MIIB6zCCAVSgAwIBAwIBATANBgkqhkiG9w0BAQUFADA4MREwDwYDVQQDEwhjYS1m
YWxzZTELMAkGA1UEBhMCQkUxFjAUBgNVBAoTDUdyZW13ZWxsIGJ2YmEwHhcNNzAw
MTAxMDAwMDAwWhcNMzgwMTE5MDMxNDA3WjA/MRgwFgYDVQQDEw93d3cuZXhhbXBs
ZS5jb20xCzAJBgNVBAYTAkJFMRYwFAYDVQQKEw1HcmVtd2VsbCBidmJhMIGfMA0G
CSqGSIb3DQEBAQUAA4GNADCBiQKBgQCsBokQgk9Onj83Vf2f3iJBd5gGiCAmQWmP
9nbW+KGbN/zYSNtnnMhdAaVXkk38W71MbX24o6FmAQy32kkbMfQRAKhWIjyus+8w
P3Y0GWMwCcnpZPGh9LU6zMrl3zsTXEmNmkN4ZOfbLkm/xBLIxFUaE16IPhHUjaHX
+bYWZvyqzwIDAQABMA0GCSqGSIb3DQEBBQUAA4GBACVbeGZAifVYsZwjTjTq+Nnv
EUiPoSC9twhH8ojF+HRYh41S7lMl6LLq7vzrXl/jBjpPUMZZNyfmgIPRLmmFfdBq
E7UC3gZUe+P3I9w/FpSL6GazxADoJkPY+wOf28qiFsPRXHFH4ePaD2UI6raXllgZ
TpYWFAXCRBGcR6ogzoIN
-----END CERTIFICATE-----
Certificate:
    Data:
        Version: 4 (0x3)
        Serial Number: 1 (0x1)
    Signature Algorithm: sha1WithRSAEncryption
        Issuer: C=BE, CN=txjsonrpc-test-ca
        Validity
            Not Before: Jan  1 00:00:00 1970 GMT
            Not After : Jan 19 03:14:07 2038 GMT
        Subject: CN=ca-false, C=BE, O=Gremwell bvba
        Subject Public Key Info:
            Public Key Algorithm: rsaEncryption
                Public-Key: (1024 bit)
                Modulus:
                    00:a4:5c:1d:96:a4:54:ab:7b:c4:6a:65:01:32:8e:
                    0f:ef:3c:14:7e:14:b9:65:1c:06:cd:12:08:2e:31:
                    1e:83:bf:2c:89:b8:90:0b:1f:3a:c3:f8:46:e0:a4:
                    97:1c:55:fa:db:90:a0:08:05:91:ed:4f:c5:2f:16:
                    3a:d2:b3:ab:9d:7b:c8:eb:bb:30:eb:a5:88:1a:e5:
                    67:07:f1:52:c6:e6:27:5b:65:30:4b:2d:ea:0c:69:
                    c2:b6:df:92:26:e8:e7:e5:e3:b9:27:9b:cd:ff:88:
                    54:08:31:5b:2f:b9:3c:9f:69:1a:88:f1:e9:80:f4:
                    49:47:ab:81:c4:28:ad:5a:87
                Exponent: 65537 (0x10001)
        X509v3 extensions:
            X509v3 Basic Constraints: critical
                CA:FALSE
    Signature Algorithm: sha1WithRSAEncryption
         40:61:23:85:c4:e1:e2:b6:2f:89:63:a6:d7:b6:b0:1d:b1:11:
         a2:fd:04:03:0f:5c:f8:1f:a9:17:24:02:87:9d:13:aa:96:36:
         4c:9e:80:3e:ec:3c:e7:ab:8f:83:99:7d:54:bb:f8:79:90:45:
         86:ef:2d:db:21:ea:b6:d4:8c:9e:19:af:2e:c2:81:56:5d:dc:
         a2:a2:5a:71:69:48:2d:40:8b:e1:ce:10:cd:3a:2c:f1:5e:36:
         8a:c3:4a:c0:af:7e:ca:3f:16:e9:0f:05:ca:c2:37:f8:33:35:
         c3:68:49:56:a1:07:8f:97:df:56:23:e2:ed:aa:48:dd:bd:b1:
         8e:c3:99:24:f5:ac:4a:eb:82:2e:ad:6f:59:b8:9a:fc:25:14:
         83:3c:16:dc:fc:db:73:32:a8:b2:dd:47:81:62:60:64:d2:25:
         b7:ad:9a:b3:ad:a3:91:1a:4b:02:6a:26:6b:a1:6e:31:09:c6:
         1e:a4:98:76:63:a6:b5:48:65:b4:81:73:71:3a:fb:a4:07:ad:
         dc:28:44:e2:21:c4:d8:34:00:30:8d:4e:92:8c:12:83:28:c3:
         05:ce:47:42:a4:83:6d:70:c0:85:ef:64:e6:af:a0:77:74:6b:
         33:ef:7c:25:84:6f:c7:eb:43:43:92:00:1a:d8:9e:22:23:72:
         02:bc:2f:fd:62:11:08:b0:ad:67:ca:47:e7:29:42:52:04:aa:
         45:c0:e4:33:0a:a1:9d:4b:17:50:97:b7:e1:18:4f:96:ce:cd:
         27:b2:10:df:8b:f8:49:1a:6a:d2:2b:cd:fa:cf:53:23:69:e9:
         2e:ea:7a:75:0f:7c:15:bd:8d:e5:ae:6c:5e:89:d5:df:d6:73:
         2a:99:4e:00:bd:5b:04:44:0e:c2:3c:b6:e0:7d:9d:43:aa:f9:
         4f:a0:cf:4c:da:c1:94:de:b6:f8:56:c1:76:bb:e1:aa:85:03:
         44:03:be:a8:a7:59:67:34:1c:f2:0b:5a:e6:bc:a8:c7:90:ef:
         ad:c3:63:87:46:5e:e8:62:85:34:45:1c:21:42:09:89:99:fb:
         9d:8f:7b:ee:4c:45:44:30:3c:53:0d:77:bd:fc:bd:6d:ed:b9:
         82:85:e0:2a:2a:23:68:4b:f8:ab:0d:b0:72:db:f5:e1:f8:12:
         83:53:97:dc:1c:37:33:32:b8:71:a9:7b:c1:f4:1a:56:df:81:
         eb:bd:c4:77:d5:0d:a0:8b:a7:20:d2:1a:b4:12:25:9e:71:c1:
         a3:53:07:0f:8c:fb:40:a0:6c:9a:86:da:82:97:6b:12:d9:79:
         05:ad:c2:42:a6:53:21:70:f9:d4:05:83:83:da:1f:d6:c0:e0:
         3b:91:ca:22:24:9f:bf:f5
-----BEGIN CERTIFICATE-----
MIIDaDCCAVCgAwIBAwIBATANBgkqhkiG9w0BAQUFADApMQswCQYDVQQGEwJCRTEa
MBgGA1UEAxMRdHhqc29ucnBjLXRlc3QtY2EwHhcNNzAwMTAxMDAwMDAwWhcNMzgw
MTE5MDMxNDA3WjA4MREwDwYDVQQDEwhjYS1mYWxzZTELMAkGA1UEBhMCQkUxFjAU
BgNVBAoTDUdyZW13ZWxsIGJ2YmEwgZ8wDQYJKoZIhvcNAQEBBQADgY0AMIGJAoGB
AKRcHZakVKt7xGplATKOD+88FH4UuWUcBs0SCC4xHoO/LIm4kAsfOsP4RuCklxxV
+tuQoAgFke1PxS8WOtKzq517yOu7MOuliBrlZwfxUsbmJ1tlMEst6gxpwrbfkibo
5+XjuSebzf+IVAgxWy+5PJ9pGojx6YD0SUergcQorVqHAgMBAAGjEDAOMAwGA1Ud
EwEB/wQCMAAwDQYJKoZIhvcNAQEFBQADggIBAEBhI4XE4eK2L4ljpte2sB2xEaL9
BAMPXPgfqRckAoedE6qWNkyegD7sPOerj4OZfVS7+HmQRYbvLdsh6rbUjJ4Zry7C
gVZd3KKiWnFpSC1Ai+HOEM06LPFeNorDSsCvfso/FukPBcrCN/gzNcNoSVahB4+X
31Yj4u2qSN29sY7DmST1rErrgi6tb1m4mvwlFIM8Ftz823MyqLLdR4FiYGTSJbet
mrOto5EaSwJqJmuhbjEJxh6kmHZjprVIZbSBc3E6+6QHrdwoROIhxNg0ADCNTpKM
EoMowwXOR0Kkg21wwIXvZOavoHd0azPvfCWEb8frQ0OSABrYniIjcgK8L/1iEQiw
rWfKR+cpQlIEqkXA5DMKoZ1LF1CXt+EYT5bOzSeyEN+L+EkaatIrzfrPUyNp6S7q
enUPfBW9jeWubF6J1d/WcyqZTgC9WwREDsI8tuB9nUOq+U+gz0zawZTetvhWwXa7
4aqFA0QDvqinWWc0HPILWua8qMeQ763DY4dGXuhihTRFHCFCCYmZ+52Pe+5MRUQw
PFMNd738vW3tuYKF4CoqI2hL+KsNsHLb9eH4EoNTl9wcNzMyuHGpe8H0Glbfgeu9
xHfVDaCLpyDSGrQSJZ5xwaNTBw+M+0CgbJqG2oKXaxLZeQWtwkKmUyFw+dQFg4Pa
H9bA4DuRyiIkn7/1
-----END CERTIFICATE-----
