Certificate:
    Data:
        Version: 4 (0x3)
        Serial Number: 1 (0x1)
    Signature Algorithm: sha1WithRSAEncryption
        Issuer: CN=ca-true, C=BE, O=Gremwell bvba
        Validity
            Not Before: Jan  1 00:00:00 1970 GMT
            Not After : Jan 19 03:14:07 2038 GMT
        Subject: CN=www.example.com, C=BE, O=Gremwell bvba
        Subject Public Key Info:
            Public Key Algorithm: rsaEncryption
                Public-Key: (1024 bit)
                Modulus:
                    00:a7:85:f3:a5:1a:ca:0f:ca:51:11:c7:d4:85:ad:
                    e5:9c:ea:2f:11:93:fd:cd:82:f3:18:69:18:92:62:
                    93:b8:bb:75:6a:0c:52:2c:32:20:14:83:a9:54:42:
                    64:60:7d:79:e3:d2:0f:9d:63:0c:34:ff:b2:51:a3:
                    15:1e:00:bf:1c:1d:81:05:b4:bb:79:6e:35:1d:11:
                    39:f0:97:01:cd:b5:ff:b5:af:50:2a:16:a7:a8:5d:
                    44:ae:a5:db:36:ea:f9:32:56:8f:fd:f0:89:06:14:
                    00:9d:0a:d4:41:fc:f5:d6:4d:ff:6b:ce:e5:a5:18:
                    d1:53:bd:a8:eb:7a:54:9f:a1
                Exponent: 65537 (0x10001)
    Signature Algorithm: sha1WithRSAEncryption
         33:f7:4e:16:cc:61:0a:dc:db:ca:22:a3:42:d5:d7:33:c6:52:
         2c:4a:23:a7:9e:69:2a:50:f4:fd:69:9d:0a:2b:d7:99:f9:50:
         e9:d8:f1:f8:b1:07:27:90:eb:63:ab:fd:18:60:a1:e6:bf:b6:
         eb:93:04:06:a3:c0:8b:df:ed:c3:71:b1:3d:9c:26:08:9d:ad:
         41:9c:9c:e0:ad:9b:56:44:9c:f5:b5:ae:66:1d:d9:db:2c:48:
         2c:bc:4b:b7:08:ee:dd:38:31:77:a9:e0:32:3d:55:a8:41:c6:
         bc:94:05:ad:23:25:17:81:4d:31:5b:35:6c:0e:e2:12:0b:5e:
         60:70
-----BEGIN CERTIFICATE-----
MIIB6jCCAVOgAwIBAwIBATANBgkqhkiG9w0BAQUFADA3MRAwDgYDVQQDEwdjYS10
cnVlMQswCQYDVQQGEwJCRTEWMBQGA1UEChMNR3JlbXdlbGwgYnZiYTAeFw03MDAx
MDEwMDAwMDBaFw0zODAxMTkwMzE0MDdaMD8xGDAWBgNVBAMTD3d3dy5leGFtcGxl
LmNvbTELMAkGA1UEBhMCQkUxFjAUBgNVBAoTDUdyZW13ZWxsIGJ2YmEwgZ8wDQYJ
KoZIhvcNAQEBBQADgY0AMIGJAoGBAKeF86Uayg/KURHH1IWt5ZzqLxGT/c2C8xhp
GJJik7i7dWoMUiwyIBSDqVRCZGB9eePSD51jDDT/slGjFR4AvxwdgQW0u3luNR0R
OfCXAc21/7WvUCoWp6hdRK6l2zbq+TJWj/3wiQYUAJ0K1EH89dZN/2vO5aUY0VO9
qOt6VJ+hAgMBAAEwDQYJKoZIhvcNAQEFBQADgYEAM/dOFsxhCtzbyiKjQtXXM8ZS
LEojp55pKlD0/WmdCivXmflQ6djx+LEHJ5DrY6v9GGCh5r+265MEBqPAi9/tw3Gx
PZwmCJ2tQZyc4K2bVkSc9bWuZh3Z2yxILLxLtwju3Tgxd6ngMj1VqEHGvJQFrSMl
F4FNMVs1bA7iEgteYHA=
-----END CERTIFICATE-----
Certificate:
    Data:
        Version: 4 (0x3)
        Serial Number: 1 (0x1)
    Signature Algorithm: sha1WithRSAEncryption
        Issuer: C=BE, CN=txjsonrpc-test-ca
        Validity
            Not Before: Jan  1 00:00:00 1970 GMT
            Not After : Jan 19 03:14:07 2038 GMT
        Subject: CN=ca-true, C=BE, O=Gremwell bvba
        Subject Public Key Info:
            Public Key Algorithm: rsaEncryption
                Public-Key: (1024 bit)
                Modulus:
                    00:cf:83:7f:d8:f0:a0:93:4a:bb:14:05:77:76:70:
                    da:8c:b7:ff:9f:8e:1c:fb:d9:d5:0a:79:58:c6:0d:
                    39:1a:62:71:43:cf:f8:42:da:b2:6a:45:1f:c6:5f:
                    4a:3c:f8:3f:c5:ef:6d:91:0c:8b:bc:a2:83:6c:df:
                    ed:40:90:85:d8:af:cb:ad:af:ca:95:47:3f:25:f5:
                    8e:a3:b1:df:d2:b7:34:86:79:6d:29:aa:1c:ea:bf:
                    65:e0:e1:da:90:bd:d2:ea:4a:c0:49:e5:fb:f0:98:
                    0a:eb:d2:97:99:bf:10:c3:6d:ad:04:b6:b7:e3:e8:
                    6c:eb:4e:2c:e3:87:5d:1b:29
                Exponent: 65537 (0x10001)
        X509v3 extensions:
            X509v3 Basic Constraints: critical
                CA:TRUE
    Signature Algorithm: sha1WithRSAEncryption
         31:1f:35:ad:6c:c9:e7:0a:b0:cd:17:b4:d3:8e:94:26:eb:ab:
         86:f6:1a:87:2b:bc:3a:e1:83:8d:71:e2:05:e6:03:a7:89:70:
         b7:e8:59:4b:bc:2c:58:ce:a6:37:c8:62:40:ac:94:24:18:4b:
         1b:e9:a2:90:16:28:82:bc:71:34:dd:55:2d:06:81:44:48:12:
         24:06:22:e2:37:5f:c1:9c:94:e3:89:41:c3:ae:d2:91:87:63:
         4d:35:a5:e6:72:e8:5d:c9:c5:85:f5:15:5e:ce:6a:9d:61:61:
         43:12:d5:53:33:a7:ed:0f:a6:5f:74:46:02:44:1f:4b:91:cb:
         bb:f1:6c:b0:a7:d0:34:9c:e9:1e:54:51:85:9f:2a:5f:d3:17:
         12:fb:0c:7d:c4:e3:67:f0:77:e6:5f:70:50:84:40:a2:10:82:
         6c:b4:27:d0:3f:80:fd:60:1d:c1:85:28:0f:71:d4:4c:96:bc:
         0b:32:13:09:af:f7:f3:f5:74:91:b8:6d:61:89:d6:f6:bc:1b:
         e1:95:c2:2c:dd:e7:7a:25:83:b2:0e:d2:ec:fe:91:62:65:12:
         18:9c:dd:85:bf:a1:9c:f6:4e:7f:81:02:13:10:78:ee:79:95:
         f3:9d:bb:27:fd:96:15:3c:30:12:54:d5:5a:30:68:61:6d:13:
         6b:a4:3b:10:4e:9f:66:6f:65:f1:d9:c0:d2:52:8a:0d:75:ef:
         02:88:cf:8e:c9:71:b2:2b:d9:62:57:9f:1d:64:22:c9:68:80:
         bf:b8:bb:a8:c6:0b:e9:8e:99:45:da:64:74:ad:10:44:7d:97:
         0c:da:04:e6:fe:68:0f:c8:a3:35:4e:a1:0e:ce:0d:65:6a:10:
         46:09:11:f2:88:b7:39:cd:2a:f0:04:ff:a1:bf:61:8a:3d:98:
         a2:e3:65:5d:6f:7e:b0:a4:a3:0f:61:ca:ac:c0:03:a8:f4:e9:
         d8:19:d5:21:2d:81:ce:00:99:b4:3e:55:a7:ad:36:19:74:8b:
         bd:b5:70:8b:86:4a:81:49:ca:7b:9d:70:ab:6b:92:d7:c1:37:
         d3:cb:54:94:0d:55:c5:fd:66:7d:95:d5:4b:f5:81:15:24:80:
         86:02:5b:d9:23:20:88:26:5f:1a:56:c1:15:7b:f6:db:6a:f7:
         fe:af:a2:81:5f:19:ab:ba:f2:a2:36:ed:51:25:35:d7:51:ad:
         23:9d:34:d6:66:25:2d:21:cc:29:04:d2:23:d6:1b:b7:0e:9a:
         ba:23:63:4d:39:8c:57:a9:17:87:39:89:b5:89:7d:65:5c:f9:
         aa:78:48:9c:21:02:33:32:60:f9:a3:4f:b3:7e:e2:68:04:6e:
         02:de:47:35:c9:ec:27:30
-----BEGIN CERTIFICATE-----
MIIDajCCAVKgAwIBAwIBATANBgkqhkiG9w0BAQUFADApMQswCQYDVQQGEwJCRTEa
MBgGA1UEAxMRdHhqc29ucnBjLXRlc3QtY2EwHhcNNzAwMTAxMDAwMDAwWhcNMzgw
MTE5MDMxNDA3WjA3MRAwDgYDVQQDEwdjYS10cnVlMQswCQYDVQQGEwJCRTEWMBQG
A1UEChMNR3JlbXdlbGwgYnZiYTCBnzANBgkqhkiG9w0BAQEFAAOBjQAwgYkCgYEA
z4N/2PCgk0q7FAV3dnDajLf/n44c+9nVCnlYxg05GmJxQ8/4QtqyakUfxl9KPPg/
xe9tkQyLvKKDbN/tQJCF2K/Lra/KlUc/JfWOo7Hf0rc0hnltKaoc6r9l4OHakL3S
6krASeX78JgK69KXmb8Qw22tBLa34+hs604s44ddGykCAwEAAaMTMBEwDwYDVR0T
AQH/BAUwAwEB/zANBgkqhkiG9w0BAQUFAAOCAgEAMR81rWzJ5wqwzRe0046UJuur
hvYahyu8OuGDjXHiBeYDp4lwt+hZS7wsWM6mN8hiQKyUJBhLG+mikBYogrxxNN1V
LQaBREgSJAYi4jdfwZyU44lBw67SkYdjTTWl5nLoXcnFhfUVXs5qnWFhQxLVUzOn
7Q+mX3RGAkQfS5HLu/FssKfQNJzpHlRRhZ8qX9MXEvsMfcTjZ/B35l9wUIRAohCC
bLQn0D+A/WAdwYUoD3HUTJa8CzITCa/38/V0kbhtYYnW9rwb4ZXCLN3neiWDsg7S
7P6RYmUSGJzdhb+hnPZOf4ECExB47nmV8527J/2WFTwwElTVWjBoYW0Ta6Q7EE6f
Zm9l8dnA0lKKDXXvAojPjslxsivZYlefHWQiyWiAv7i7qMYL6Y6ZRdpkdK0QRH2X
DNoE5v5oD8ijNU6hDs4NZWoQRgkR8oi3Oc0q8AT/ob9hij2YouNlXW9+sKSjD2HK
rMADqPTp2BnVIS2BzgCZtD5Vp602GXSLvbVwi4ZKgUnKe51wq2uS18E308tUlA1V
xf1mfZXVS/WBFSSAhgJb2SMgiCZfGlbBFXv222r3/q+igV8Zq7ryojbtUSU111Gt
I5001mYlLSHMKQTSI9Ybtw6auiNjTTmMV6kXhzmJtYl9ZVz5qnhInCECMzJg+aNP
s37iaARuAt5HNcnsJzA=
-----END CERTIFICATE-----
