Certificate:
    Data:
        Version: 3 (0x2)
        Serial Number: 1 (0x1)
    Signature Algorithm: sha1WithRSAEncryption
        Issuer: CN=ca-false, C=BE, O=Gremwell bvba
        Validity
            Not Before: Jun 23 15:47:38 2012 GMT
            Not After : Jun 23 15:47:38 2013 GMT
        Subject: C=BE, CN=txjsonrpc-pyserver
        Subject Public Key Info:
            Public Key Algorithm: rsaEncryption
                Public-Key: (4096 bit)
                Modulus:
                    00:97:0a:b1:ca:cb:50:6b:25:e0:cb:4e:4e:f0:40:
                    92:e6:0a:df:a2:0d:e8:eb:bc:b0:d6:5f:0a:56:42:
                    e6:b4:0a:20:63:1a:b3:4d:61:41:2f:1d:c7:aa:bb:
                    22:a1:9f:ea:64:5a:35:91:c3:9c:42:d8:40:21:a4:
                    aa:4d:a3:4c:a3:52:f9:76:59:60:f3:6e:11:36:cd:
                    a9:9a:9f:db:7f:03:5c:76:c5:1f:87:74:40:4e:e5:
                    fd:1a:47:c0:62:84:fd:03:65:5c:8f:f7:39:69:9c:
                    b1:dc:f7:2d:fe:e6:d8:eb:22:9e:cf:02:1a:e6:e1:
                    28:9b:7e:47:23:91:a3:e2:41:e3:de:ce:4d:91:43:
                    ee:c2:c6:0a:a9:d8:47:8e:b7:cf:9b:d1:ee:a0:68:
                    a2:20:ed:f3:6b:8d:5e:ef:f5:a3:42:29:bb:7b:a3:
                    cf:11:6f:c0:f5:36:c9:38:0d:6e:8d:4e:81:d4:c4:
                    60:30:3c:29:ed:44:9a:6f:0f:61:5c:18:74:68:d2:
                    8e:5d:ec:4e:14:18:d2:f5:f1:08:60:c3:c8:13:36:
                    78:73:3e:44:e3:58:3d:68:57:c3:17:73:4f:45:46:
                    66:5c:a9:81:ad:be:48:e1:14:1e:97:56:8a:64:07:
                    a7:89:f6:21:24:b4:f0:69:45:ed:b6:e5:09:01:03:
                    94:fb:5f:d2:81:37:dd:64:88:a7:fc:8d:ca:33:fc:
                    c1:1e:ac:13:5e:21:93:85:5d:99:cc:85:d9:34:1e:
                    1d:30:57:d9:2b:03:cd:69:74:67:46:57:e4:fc:1c:
                    43:84:a7:ea:91:d0:df:4c:c0:15:08:4a:a6:fd:93:
                    49:b1:2d:27:ed:f1:4e:05:50:b9:3d:75:f9:a4:73:
                    70:4a:cb:34:f6:bb:ea:57:6f:c6:08:53:4b:70:ab:
                    76:b0:92:37:ee:d0:0f:31:9b:7c:53:8d:bc:1d:b9:
                    48:dc:e9:d2:52:23:07:cf:45:b0:f8:10:d5:e4:c9:
                    6a:6d:9a:fc:59:07:f7:6a:00:9a:27:0b:8e:8c:fc:
                    42:3e:66:a1:51:21:ab:0d:46:5c:fe:f2:65:4f:78:
                    09:46:cb:54:0c:11:e0:3b:27:83:c1:cf:9c:61:f2:
                    ce:7e:d4:69:76:8f:8d:c3:46:b3:9f:48:90:cc:de:
                    4c:cc:73:d9:cb:be:be:9f:bf:a0:64:6d:7d:b9:d9:
                    88:21:ab:cc:77:09:4a:f9:e5:89:4b:c6:6d:c2:e6:
                    cc:20:d0:c3:6e:f6:6a:35:55:f4:bc:5c:ab:7a:99:
                    49:48:28:a3:74:b9:9b:56:ed:9b:8d:5b:73:f8:0d:
                    b5:b8:52:cb:eb:c1:43:04:58:9d:bd:6f:48:8d:cd:
                    9d:f4:11
                Exponent: 65537 (0x10001)
        X509v3 extensions:
            X509v3 Basic Constraints: 
                CA:FALSE
            Netscape Cert Type: 
                SSL Server
            Netscape Comment: 
                TinyCA Generated Certificate
            X509v3 Subject Key Identifier: 
                26:8C:A5:F9:A6:4A:FE:4C:E8:0F:04:33:7E:04:26:28:BF:4C:92:F3
            X509v3 Authority Key Identifier: 
                keyid:9D:8F:84:76:94:CD:07:FE:A3:E8:8B:D7:F9:D9:6E:EF:CA:75:51:7B
                DirName:/C=BE/CN=txjsonrpc-test-ca
                serial:8D:D2:AF:37:F9:CA:92:0B

            X509v3 Issuer Alternative Name: 
                <EMPTY>

            X509v3 Subject Alternative Name: 
                <EMPTY>

    Signature Algorithm: sha1WithRSAEncryption
         58:6a:47:b1:b8:b2:31:49:e6:1a:2d:1f:1a:6e:66:04:04:58:
         3d:4f:80:df:3e:c0:44:1a:fe:64:82:e3:b0:4b:ba:20:78:c0:
         6e:8c:32:0b:de:71:26:2f:c0:4a:66:64:d4:4f:cc:8a:25:37:
         ff:1c:51:8d:77:57:58:bf:2f:34:f8:63:4b:75:0b:d5:a8:7b:
         f1:48:32:0a:ae:56:97:63:f0:44:bd:12:af:d0:ba:39:77:71:
         57:a9:b0:2c:08:9b:0a:fb:2f:11:e0:d3:eb:4c:f0:9d:6c:48:
         2d:e7:e7:93:d1:4a:6d:20:6e:62:be:9e:21:5a:5a:4f:d9:9b:
         ad:92
-----BEGIN CERTIFICATE-----
MIIEOzCCA6SgAwIBAgIBATANBgkqhkiG9w0BAQUFADA4MREwDwYDVQQDEwhjYS1m
YWxzZTELMAkGA1UEBhMCQkUxFjAUBgNVBAoTDUdyZW13ZWxsIGJ2YmEwHhcNMTIw
NjIzMTU0NzM4WhcNMTMwNjIzMTU0NzM4WjAqMQswCQYDVQQGEwJCRTEbMBkGA1UE
AxMSdHhqc29ucnBjLXB5c2VydmVyMIICIjANBgkqhkiG9w0BAQEFAAOCAg8AMIIC
CgKCAgEAlwqxystQayXgy05O8ECS5grfog3o67yw1l8KVkLmtAogYxqzTWFBLx3H
qrsioZ/qZFo1kcOcQthAIaSqTaNMo1L5dllg824RNs2pmp/bfwNcdsUfh3RATuX9
GkfAYoT9A2Vcj/c5aZyx3Pct/ubY6yKezwIa5uEom35HI5Gj4kHj3s5NkUPuwsYK
qdhHjrfPm9HuoGiiIO3za41e7/WjQim7e6PPEW/A9TbJOA1ujU6B1MRgMDwp7USa
bw9hXBh0aNKOXexOFBjS9fEIYMPIEzZ4cz5E41g9aFfDF3NPRUZmXKmBrb5I4RQe
l1aKZAenifYhJLTwaUXttuUJAQOU+1/SgTfdZIin/I3KM/zBHqwTXiGThV2ZzIXZ
NB4dMFfZKwPNaXRnRlfk/BxDhKfqkdDfTMAVCEqm/ZNJsS0n7fFOBVC5PXX5pHNw
Sss09rvqV2/GCFNLcKt2sJI37tAPMZt8U428HblI3OnSUiMHz0Ww+BDV5MlqbZr8
WQf3agCaJwuOjPxCPmahUSGrDUZc/vJlT3gJRstUDBHgOyeDwc+cYfLOftRpdo+N
w0azn0iQzN5MzHPZy76+n7+gZG19udmIIavMdwlK+eWJS8ZtwubMINDDbvZqNVX0
vFyreplJSCijdLmbVu2bjVtz+A21uFLL68FDBFidvW9Ijc2d9BECAwEAAaOB3jCB
2zAJBgNVHRMEAjAAMBEGCWCGSAGG+EIBAQQEAwIGQDArBglghkgBhvhCAQ0EHhYc
VGlueUNBIEdlbmVyYXRlZCBDZXJ0aWZpY2F0ZTAdBgNVHQ4EFgQUJoyl+aZK/kzo
DwQzfgQmKL9MkvMwWQYDVR0jBFIwUIAUnY+EdpTNB/6j6IvX+dlu78p1UXuhLaQr
MCkxCzAJBgNVBAYTAkJFMRowGAYDVQQDExF0eGpzb25ycGMtdGVzdC1jYYIJAI3S
rzf5ypILMAkGA1UdEgQCMAAwCQYDVR0RBAIwADANBgkqhkiG9w0BAQUFAAOBgQBY
akexuLIxSeYaLR8abmYEBFg9T4DfPsBEGv5kguOwS7ogeMBujDIL3nEmL8BKZmTU
T8yKJTf/HFGNd1dYvy80+GNLdQvVqHvxSDIKrlaXY/BEvRKv0Lo5d3FXqbAsCJsK
+y8R4NPrTPCdbEgt5+eT0UptIG5ivp4hWlpP2Zutkg==
-----END CERTIFICATE-----
Certificate:
    Data:
        Version: 4 (0x3)
        Serial Number: 1 (0x1)
    Signature Algorithm: sha1WithRSAEncryption
        Issuer: C=BE, CN=txjsonrpc-test-ca
        Validity
            Not Before: Jan  1 00:00:00 1970 GMT
            Not After : Jan 19 03:14:07 2038 GMT
        Subject: CN=ca-false, C=BE, O=Gremwell bvba
        Subject Public Key Info:
            Public Key Algorithm: rsaEncryption
                Public-Key: (1024 bit)
                Modulus:
                    00:c4:92:44:e5:e5:31:e0:33:7f:6d:52:26:a9:1f:
                    7b:a7:4d:ee:bf:88:4f:94:50:64:0a:ac:71:e4:f1:
                    c7:90:33:4d:78:3e:01:60:39:71:7b:f0:02:6b:e3:
                    1c:1f:98:a6:9a:3d:99:9d:8b:2e:63:f7:c7:08:47:
                    79:ba:70:14:84:8d:16:4e:d1:73:83:9a:d5:de:4f:
                    5c:f1:ab:1f:1d:04:36:f0:5e:e3:df:d5:a5:40:6a:
                    cc:9b:b7:c7:2a:aa:c7:37:67:cd:ec:bc:e3:a7:53:
                    84:d8:ca:26:85:e3:66:8e:58:2c:61:d2:3d:eb:32:
                    ac:9d:5d:ff:1b:33:4f:b6:8b
                Exponent: 65537 (0x10001)
        X509v3 extensions:
            X509v3 Basic Constraints: critical
                CA:FALSE
    Signature Algorithm: sha1WithRSAEncryption
         14:e5:56:4c:56:a6:6a:5f:0c:53:9d:d8:aa:0e:50:cb:a4:11:
         4e:09:90:cd:9d:f8:93:b2:92:e7:62:22:f1:20:af:d0:d8:f1:
         60:d8:39:98:4f:89:f9:8b:dd:48:33:6c:c1:06:11:67:97:83:
         d6:a5:cd:e1:a0:7f:10:80:8d:d8:54:92:86:3b:02:0b:90:53:
         0e:d9:3a:33:51:f2:a4:89:a4:ec:52:8d:7e:b9:95:88:02:27:
         a8:8f:84:bd:b0:35:7c:e6:7d:9d:88:af:50:21:33:93:a9:c5:
         8a:ab:38:2d:3c:29:90:a5:48:22:66:4a:34:12:40:f6:d8:5a:
         0f:9d:33:48:b8:e4:c1:28:d2:db:34:2e:4a:a7:02:9d:4e:9f:
         b3:f8:dc:9c:db:6d:ab:2f:9b:92:bb:f0:f1:77:9d:b8:9e:6d:
         fa:7d:e3:9a:a8:a6:53:00:13:79:2a:bf:c7:b8:b7:8d:77:18:
         2f:79:13:93:0c:41:ac:64:e4:59:a3:06:db:80:16:dc:25:1b:
         91:d2:05:72:ea:11:55:b5:a9:c0:3c:88:6a:41:86:6f:2c:e6:
         c6:ba:5c:6a:a6:1e:31:ce:43:6f:10:ad:c9:64:a6:1a:ea:63:
         74:c1:eb:0d:7a:61:65:f2:6b:13:61:46:64:54:25:15:6b:93:
         41:82:8b:dd:63:cf:de:e4:aa:f8:62:1e:2c:1d:10:c2:a7:a3:
         b2:77:70:48:38:96:df:a3:98:d0:25:19:d6:20:04:34:a5:54:
         6a:de:d8:8d:51:de:13:df:ff:53:7d:ac:4b:9b:0e:85:48:1f:
         6e:08:ec:68:46:11:b2:b1:d5:c0:2d:8d:67:c6:5b:a2:ff:88:
         72:2d:47:df:e1:44:d8:1a:3e:aa:1f:b1:6a:cd:37:1d:0c:23:
         49:07:8f:e8:55:27:69:c9:b7:ea:59:70:b7:e7:d7:4b:f2:ce:
         94:51:b4:07:28:34:2a:db:b3:0b:c0:e4:c1:2e:ee:59:cd:c0:
         6c:c6:c2:c0:36:0f:ab:22:cc:ec:7f:46:f2:e6:81:61:34:be:
         e0:07:c1:b5:10:28:73:a5:8b:40:59:3c:69:49:ac:66:aa:2e:
         b2:f6:98:fa:8a:5e:2e:ff:9b:b4:10:24:a2:fe:ef:6a:71:8c:
         44:ee:d9:f7:ca:91:08:e2:6e:3b:90:64:b7:b5:e6:a3:74:54:
         32:56:82:ff:be:78:ac:85:9b:3c:14:4b:11:d0:01:9a:25:9c:
         9b:d7:e0:2d:bd:ca:95:d9:4b:aa:c5:cd:e0:66:ad:0a:7b:2f:
         7b:e9:e5:86:5f:97:a7:29:a5:0f:4e:c2:d1:56:98:8f:63:b3:
         a8:bf:95:e6:ee:33:66:c7
-----BEGIN CERTIFICATE-----
MIIDaDCCAVCgAwIBAwIBATANBgkqhkiG9w0BAQUFADApMQswCQYDVQQGEwJCRTEa
MBgGA1UEAxMRdHhqc29ucnBjLXRlc3QtY2EwHhcNNzAwMTAxMDAwMDAwWhcNMzgw
MTE5MDMxNDA3WjA4MREwDwYDVQQDEwhjYS1mYWxzZTELMAkGA1UEBhMCQkUxFjAU
BgNVBAoTDUdyZW13ZWxsIGJ2YmEwgZ8wDQYJKoZIhvcNAQEBBQADgY0AMIGJAoGB
AMSSROXlMeAzf21SJqkfe6dN7r+IT5RQZAqsceTxx5AzTXg+AWA5cXvwAmvjHB+Y
ppo9mZ2LLmP3xwhHebpwFISNFk7Rc4Oa1d5PXPGrHx0ENvBe49/VpUBqzJu3xyqq
xzdnzey846dThNjKJoXjZo5YLGHSPesyrJ1d/xszT7aLAgMBAAGjEDAOMAwGA1Ud
EwEB/wQCMAAwDQYJKoZIhvcNAQEFBQADggIBABTlVkxWpmpfDFOd2KoOUMukEU4J
kM2d+JOykudiIvEgr9DY8WDYOZhPifmL3UgzbMEGEWeXg9alzeGgfxCAjdhUkoY7
AguQUw7ZOjNR8qSJpOxSjX65lYgCJ6iPhL2wNXzmfZ2Ir1AhM5OpxYqrOC08KZCl
SCJmSjQSQPbYWg+dM0i45MEo0ts0LkqnAp1On7P43Jzbbasvm5K78PF3nbiebfp9
45qoplMAE3kqv8e4t413GC95E5MMQaxk5FmjBtuAFtwlG5HSBXLqEVW1qcA8iGpB
hm8s5sa6XGqmHjHOQ28QrclkphrqY3TB6w16YWXyaxNhRmRUJRVrk0GCi91jz97k
qvhiHiwdEMKno7J3cEg4lt+jmNAlGdYgBDSlVGre2I1R3hPf/1N9rEubDoVIH24I
7GhGEbKx1cAtjWfGW6L/iHItR9/hRNgaPqofsWrNNx0MI0kHj+hVJ2nJt+pZcLfn
10vyzpRRtAcoNCrbswvA5MEu7lnNwGzGwsA2D6sizOx/RvLmgWE0vuAHwbUQKHOl
i0BZPGlJrGaqLrL2mPqKXi7/m7QQJKL+72pxjETu2ffKkQjibjuQZLe15qN0VDJW
gv++eKyFmzwUSxHQAZolnJvX4C29ypXZS6rFzeBmrQp7L3vp5YZfl6cppQ9OwtFW
mI9js6i/lebuM2bH
-----END CERTIFICATE-----
