Certificate:
    Data:
        Version: 3 (0x2)
        Serial Number: 1 (0x1)
    Signature Algorithm: sha1WithRSAEncryption
        Issuer: C=BE, CN=txjsonrpc-test-ca
        Validity
            Not Before: Jun 23 15:47:38 2012 GMT
            Not After : Jun 23 15:47:38 2013 GMT
        Subject: C=BE, CN=txjsonrpc-pyserver
        Subject Public Key Info:
            Public Key Algorithm: rsaEncryption
                Public-Key: (4096 bit)
                Modulus:
                    00:97:0a:b1:ca:cb:50:6b:25:e0:cb:4e:4e:f0:40:
                    92:e6:0a:df:a2:0d:e8:eb:bc:b0:d6:5f:0a:56:42:
                    e6:b4:0a:20:63:1a:b3:4d:61:41:2f:1d:c7:aa:bb:
                    22:a1:9f:ea:64:5a:35:91:c3:9c:42:d8:40:21:a4:
                    aa:4d:a3:4c:a3:52:f9:76:59:60:f3:6e:11:36:cd:
                    a9:9a:9f:db:7f:03:5c:76:c5:1f:87:74:40:4e:e5:
                    fd:1a:47:c0:62:84:fd:03:65:5c:8f:f7:39:69:9c:
                    b1:dc:f7:2d:fe:e6:d8:eb:22:9e:cf:02:1a:e6:e1:
                    28:9b:7e:47:23:91:a3:e2:41:e3:de:ce:4d:91:43:
                    ee:c2:c6:0a:a9:d8:47:8e:b7:cf:9b:d1:ee:a0:68:
                    a2:20:ed:f3:6b:8d:5e:ef:f5:a3:42:29:bb:7b:a3:
                    cf:11:6f:c0:f5:36:c9:38:0d:6e:8d:4e:81:d4:c4:
                    60:30:3c:29:ed:44:9a:6f:0f:61:5c:18:74:68:d2:
                    8e:5d:ec:4e:14:18:d2:f5:f1:08:60:c3:c8:13:36:
                    78:73:3e:44:e3:58:3d:68:57:c3:17:73:4f:45:46:
                    66:5c:a9:81:ad:be:48:e1:14:1e:97:56:8a:64:07:
                    a7:89:f6:21:24:b4:f0:69:45:ed:b6:e5:09:01:03:
                    94:fb:5f:d2:81:37:dd:64:88:a7:fc:8d:ca:33:fc:
                    c1:1e:ac:13:5e:21:93:85:5d:99:cc:85:d9:34:1e:
                    1d:30:57:d9:2b:03:cd:69:74:67:46:57:e4:fc:1c:
                    43:84:a7:ea:91:d0:df:4c:c0:15:08:4a:a6:fd:93:
                    49:b1:2d:27:ed:f1:4e:05:50:b9:3d:75:f9:a4:73:
                    70:4a:cb:34:f6:bb:ea:57:6f:c6:08:53:4b:70:ab:
                    76:b0:92:37:ee:d0:0f:31:9b:7c:53:8d:bc:1d:b9:
                    48:dc:e9:d2:52:23:07:cf:45:b0:f8:10:d5:e4:c9:
                    6a:6d:9a:fc:59:07:f7:6a:00:9a:27:0b:8e:8c:fc:
                    42:3e:66:a1:51:21:ab:0d:46:5c:fe:f2:65:4f:78:
                    09:46:cb:54:0c:11:e0:3b:27:83:c1:cf:9c:61:f2:
                    ce:7e:d4:69:76:8f:8d:c3:46:b3:9f:48:90:cc:de:
                    4c:cc:73:d9:cb:be:be:9f:bf:a0:64:6d:7d:b9:d9:
                    88:21:ab:cc:77:09:4a:f9:e5:89:4b:c6:6d:c2:e6:
                    cc:20:d0:c3:6e:f6:6a:35:55:f4:bc:5c:ab:7a:99:
                    49:48:28:a3:74:b9:9b:56:ed:9b:8d:5b:73:f8:0d:
                    b5:b8:52:cb:eb:c1:43:04:58:9d:bd:6f:48:8d:cd:
                    9d:f4:11
                Exponent: 65537 (0x10001)
        X509v3 extensions:
            X509v3 Basic Constraints: 
                CA:FALSE
            Netscape Cert Type: 
                SSL Server
            Netscape Comment: 
                TinyCA Generated Certificate
            X509v3 Subject Key Identifier: 
                26:8C:A5:F9:A6:4A:FE:4C:E8:0F:04:33:7E:04:26:28:BF:4C:92:F3
            X509v3 Authority Key Identifier: 
                keyid:9D:8F:84:76:94:CD:07:FE:A3:E8:8B:D7:F9:D9:6E:EF:CA:75:51:7B
                DirName:/C=BE/CN=txjsonrpc-test-ca
                serial:8D:D2:AF:37:F9:CA:92:0B

            X509v3 Issuer Alternative Name: 
                <EMPTY>

            X509v3 Subject Alternative Name: 
                <EMPTY>

    Signature Algorithm: sha1WithRSAEncryption
         6c:8e:73:3f:18:7c:9b:8b:42:a1:0b:f4:1d:10:bd:bd:98:db:
         03:5a:17:c9:cd:c7:b1:06:30:c9:25:5f:fa:9d:95:a3:08:73:
         92:2e:4d:81:66:73:fc:cf:6e:1a:1e:59:0e:c6:a6:6a:53:ed:
         a9:71:15:90:47:65:2b:80:12:8a:39:b9:3f:c4:44:a5:9f:29:
         6f:50:53:36:6a:60:3e:f1:46:18:e2:96:f9:2b:b6:7c:85:94:
         3f:d3:d7:2b:fe:78:31:3e:b7:1e:a0:7e:12:4a:ec:d9:6c:6f:
         3e:04:7a:79:92:e8:d4:74:81:0a:a2:a9:4b:d2:67:01:16:ae:
         77:74:62:00:69:63:ca:d9:c5:5e:4b:bb:14:4e:a8:81:ce:a8:
         6a:9a:94:50:7b:67:88:93:06:f8:b1:0d:36:30:da:0c:2b:01:
         a8:10:b2:a4:25:d2:50:1e:3f:e9:2e:29:c6:4b:f3:ea:99:95:
         d1:2a:d5:99:66:92:fb:27:b1:ce:b0:58:bd:a7:e3:31:2e:c5:
         3a:9a:43:50:ac:f7:86:17:d8:2b:15:20:d2:69:22:f7:d4:f1:
         2b:a8:be:79:72:b6:a7:ae:6e:e3:c9:36:20:63:38:ae:54:6a:
         1f:b0:a6:b6:2d:fa:09:20:66:4b:57:1a:c5:ca:a9:59:15:63:
         20:ea:8f:24:d0:a7:61:16:75:ff:b8:1d:4c:92:33:88:66:47:
         f3:51:1e:dd:fc:f1:7b:8f:1f:e3:ba:f6:b0:64:27:ee:9b:73:
         b6:2b:92:65:2f:51:86:d4:57:64:68:a3:46:4c:47:0f:d8:3b:
         16:8e:90:4b:69:6c:82:b5:17:f7:4c:7b:75:84:95:ba:8e:8a:
         70:6a:18:31:8d:18:3e:9b:2e:09:ad:89:82:0c:c2:9d:60:3c:
         98:14:01:9a:f7:ac:28:19:e5:43:94:39:82:b6:05:b9:68:c1:
         a0:26:b6:04:39:55:af:ed:17:d0:a9:4a:ca:3a:93:a4:32:62:
         64:6b:8d:6a:f4:0e:db:bc:b1:49:41:37:a8:10:83:15:01:f8:
         d2:d1:9a:aa:ab:a5:2a:b9:7a:cb:28:37:37:7d:5e:bc:fa:b7:
         d5:02:42:13:cd:cd:00:fa:16:57:e1:22:8f:b6:cf:75:70:a8:
         eb:e6:a0:b6:e4:63:21:a6:fa:de:85:37:26:ec:73:33:fb:fe:
         7b:3c:32:25:18:2d:2a:95:f6:c5:0b:99:7a:9f:07:ae:50:4a:
         e0:e1:86:b0:62:cb:ab:b4:81:49:a0:b4:c5:17:e1:73:ae:3e:
         18:6b:5b:cc:45:26:77:24:6a:8c:c2:09:69:d8:b8:fd:86:2f:
         ab:d6:41:e6:87:da:da:65
-----BEGIN CERTIFICATE-----
MIIFrTCCA5WgAwIBAgIBATANBgkqhkiG9w0BAQUFADApMQswCQYDVQQGEwJCRTEa
MBgGA1UEAxMRdHhqc29ucnBjLXRlc3QtY2EwHhcNMTIwNjIzMTU0NzM4WhcNMTMw
NjIzMTU0NzM4WjAqMQswCQYDVQQGEwJCRTEbMBkGA1UEAxMSdHhqc29ucnBjLXB5
c2VydmVyMIICIjANBgkqhkiG9w0BAQEFAAOCAg8AMIICCgKCAgEAlwqxystQayXg
y05O8ECS5grfog3o67yw1l8KVkLmtAogYxqzTWFBLx3HqrsioZ/qZFo1kcOcQthA
IaSqTaNMo1L5dllg824RNs2pmp/bfwNcdsUfh3RATuX9GkfAYoT9A2Vcj/c5aZyx
3Pct/ubY6yKezwIa5uEom35HI5Gj4kHj3s5NkUPuwsYKqdhHjrfPm9HuoGiiIO3z
a41e7/WjQim7e6PPEW/A9TbJOA1ujU6B1MRgMDwp7USabw9hXBh0aNKOXexOFBjS
9fEIYMPIEzZ4cz5E41g9aFfDF3NPRUZmXKmBrb5I4RQel1aKZAenifYhJLTwaUXt
tuUJAQOU+1/SgTfdZIin/I3KM/zBHqwTXiGThV2ZzIXZNB4dMFfZKwPNaXRnRlfk
/BxDhKfqkdDfTMAVCEqm/ZNJsS0n7fFOBVC5PXX5pHNwSss09rvqV2/GCFNLcKt2
sJI37tAPMZt8U428HblI3OnSUiMHz0Ww+BDV5MlqbZr8WQf3agCaJwuOjPxCPmah
USGrDUZc/vJlT3gJRstUDBHgOyeDwc+cYfLOftRpdo+Nw0azn0iQzN5MzHPZy76+
n7+gZG19udmIIavMdwlK+eWJS8ZtwubMINDDbvZqNVX0vFyreplJSCijdLmbVu2b
jVtz+A21uFLL68FDBFidvW9Ijc2d9BECAwEAAaOB3jCB2zAJBgNVHRMEAjAAMBEG
CWCGSAGG+EIBAQQEAwIGQDArBglghkgBhvhCAQ0EHhYcVGlueUNBIEdlbmVyYXRl
ZCBDZXJ0aWZpY2F0ZTAdBgNVHQ4EFgQUJoyl+aZK/kzoDwQzfgQmKL9MkvMwWQYD
VR0jBFIwUIAUnY+EdpTNB/6j6IvX+dlu78p1UXuhLaQrMCkxCzAJBgNVBAYTAkJF
MRowGAYDVQQDExF0eGpzb25ycGMtdGVzdC1jYYIJAI3Srzf5ypILMAkGA1UdEgQC
MAAwCQYDVR0RBAIwADANBgkqhkiG9w0BAQUFAAOCAgEAbI5zPxh8m4tCoQv0HRC9
vZjbA1oXyc3HsQYwySVf+p2Vowhzki5NgWZz/M9uGh5ZDsamalPtqXEVkEdlK4AS
ijm5P8REpZ8pb1BTNmpgPvFGGOKW+Su2fIWUP9PXK/54MT63HqB+Ekrs2WxvPgR6
eZLo1HSBCqKpS9JnARaud3RiAGljytnFXku7FE6ogc6oapqUUHtniJMG+LENNjDa
DCsBqBCypCXSUB4/6S4pxkvz6pmV0SrVmWaS+yexzrBYvafjMS7FOppDUKz3hhfY
KxUg0mki99TxK6i+eXK2p65u48k2IGM4rlRqH7Cmti36CSBmS1caxcqpWRVjIOqP
JNCnYRZ1/7gdTJIziGZH81Ee3fzxe48f47r2sGQn7ptztiuSZS9RhtRXZGijRkxH
D9g7Fo6QS2lsgrUX90x7dYSVuo6KcGoYMY0YPpsuCa2JggzCnWA8mBQBmvesKBnl
Q5Q5grYFuWjBoCa2BDlVr+0X0KlKyjqTpDJiZGuNavQO27yxSUE3qBCDFQH40tGa
qqulKrl6yyg3N31evPq31QJCE83NAPoWV+Eij7bPdXCo6+agtuRjIab63oU3Juxz
M/v+ezwyJRgtKpX2xQuZep8HrlBK4OGGsGLLq7SBSaC0xRfhc64+GGtbzEUmdyRq
jMIJadi4/YYvq9ZB5ofa2mU=
-----END CERTIFICATE-----
Certificate:
    Data:
        Version: 3 (0x2)
        Serial Number: 10219423159405941259 (0x8dd2af37f9ca920b)
    Signature Algorithm: sha1WithRSAEncryption
        Issuer: C=BE, CN=txjsonrpc-test-ca
        Validity
            Not Before: Jun 23 15:46:37 2012 GMT
            Not After : Jun 21 15:46:37 2022 GMT
        Subject: C=BE, CN=txjsonrpc-test-ca
        Subject Public Key Info:
            Public Key Algorithm: rsaEncryption
                Public-Key: (4096 bit)
                Modulus:
                    00:d1:25:af:77:c5:a8:72:cf:90:b9:39:10:fb:7b:
                    75:2c:a1:da:6a:95:e5:44:0c:d6:25:4b:58:7f:bb:
                    07:82:59:49:58:32:85:24:cc:3e:77:db:e1:a7:4f:
                    c8:b5:cb:ee:45:38:bd:bc:fb:e3:76:3b:88:04:ca:
                    ab:3a:a3:96:3b:5f:93:9c:28:a6:61:97:dc:a2:3f:
                    a0:93:2b:56:6c:cf:d3:4f:6a:9e:05:d3:1c:cd:ef:
                    75:80:1a:98:b7:92:49:14:33:b8:c4:7c:73:8c:7e:
                    83:a5:81:a2:59:8c:8b:a3:51:36:6d:68:ac:f2:f1:
                    ed:6f:49:d9:af:7a:63:c1:43:31:42:b6:c7:cd:b9:
                    78:b7:33:98:70:92:6c:9e:04:7a:7b:f0:6d:38:87:
                    eb:00:13:17:b9:d9:ec:b4:66:bb:51:d3:fd:81:e3:
                    0e:88:71:23:d2:80:2a:61:de:ab:25:02:47:a9:c1:
                    6b:c9:69:ae:da:47:b6:49:74:ac:a6:e1:c1:76:ba:
                    6d:b1:d9:68:6e:1c:37:a8:e2:18:60:37:b6:58:13:
                    6c:c7:92:7c:c6:45:8c:ef:c3:81:73:10:dc:2f:31:
                    e2:b9:05:5a:9e:28:70:5a:3e:1d:b8:68:71:81:c9:
                    e8:fe:1f:c3:a0:13:f8:e4:24:12:ba:91:8e:15:d2:
                    03:f1:8c:b0:aa:e2:34:e4:6b:f8:06:f6:23:8a:92:
                    43:a6:05:dc:e9:c7:a5:a8:06:d7:6e:91:52:72:47:
                    ab:ae:87:fe:b3:0f:04:87:6f:4b:22:29:e9:a9:06:
                    52:58:7d:03:16:d7:d5:31:44:b4:f1:51:44:a7:2a:
                    ba:5e:09:19:ec:4c:a2:e0:58:fe:0d:4e:b7:90:4d:
                    02:ac:2a:ad:99:14:65:3b:0a:3c:73:45:56:b2:0f:
                    10:25:24:51:79:57:1a:34:1a:10:6f:60:e0:fc:81:
                    db:ca:c2:e2:85:1b:4c:72:13:5c:9d:76:cc:d0:21:
                    33:31:56:82:8f:c5:57:b9:44:fd:8b:76:c1:b6:e4:
                    21:8b:35:9a:ee:54:74:9f:72:6b:19:84:d7:a2:3c:
                    a5:6e:11:0a:f1:93:04:2e:dd:7c:4c:7d:62:10:d4:
                    1b:8b:87:f6:ed:bf:12:b1:8b:f0:9a:7a:ee:02:94:
                    e1:3c:46:2b:7f:9c:54:fb:2e:61:c9:1c:ef:fc:de:
                    25:bc:2d:75:1b:1f:49:5e:44:3b:15:93:ad:c4:89:
                    d9:ae:3c:da:54:ef:d9:af:3a:16:cb:94:1b:6a:14:
                    e4:42:f9:75:33:46:6e:fb:40:bc:f8:82:36:cf:60:
                    f5:c2:a2:98:23:a7:2a:ae:c1:aa:22:f8:87:da:b7:
                    9c:a4:cf
                Exponent: 65537 (0x10001)
        X509v3 extensions:
            X509v3 Subject Key Identifier: 
                9D:8F:84:76:94:CD:07:FE:A3:E8:8B:D7:F9:D9:6E:EF:CA:75:51:7B
            X509v3 Authority Key Identifier: 
                keyid:9D:8F:84:76:94:CD:07:FE:A3:E8:8B:D7:F9:D9:6E:EF:CA:75:51:7B
                DirName:/C=BE/CN=txjsonrpc-test-ca
                serial:8D:D2:AF:37:F9:CA:92:0B

            X509v3 Basic Constraints: critical
                CA:TRUE
            Netscape Cert Type: 
                SSL CA, S/MIME CA
            X509v3 Issuer Alternative Name: 
                <EMPTY>

            Netscape Comment: 
                Test CA for txjsonrcp
            X509v3 Subject Alternative Name: 
                <EMPTY>

            X509v3 Key Usage: critical
                Certificate Sign, CRL Sign
    Signature Algorithm: sha1WithRSAEncryption
         06:82:86:81:a9:1b:7e:2d:ef:f5:fc:cc:d2:9d:d6:82:ad:d0:
         6f:7e:3d:b9:5c:b2:0f:3a:64:21:9a:fb:53:b2:93:81:dc:1a:
         24:fc:b8:30:57:a2:c7:71:0d:9c:1a:0b:8a:6c:89:52:8b:8a:
         f5:af:95:3e:b8:08:39:ee:36:50:ac:60:4d:df:2b:49:a2:72:
         f1:3f:12:3c:d9:55:56:a4:9a:77:2b:77:fa:16:b5:76:d9:f4:
         c4:51:6b:b9:fe:2f:a3:52:e8:64:80:49:22:6d:05:42:87:af:
         9d:85:6c:fa:c9:9b:48:39:7b:89:f5:a0:1e:ff:11:d3:9c:78:
         b1:b2:f6:4d:b1:e8:b3:98:23:2c:d4:20:e1:a1:01:3e:26:0a:
         5b:8e:eb:58:45:22:cf:e1:94:ad:84:40:b0:fb:ff:25:5f:31:
         9a:49:0b:36:ad:c6:1a:b0:42:60:40:e2:a2:3c:5a:36:41:89:
         fc:10:c4:60:ea:d4:85:7b:36:84:df:aa:81:cc:69:e7:52:ca:
         c1:46:b1:79:93:51:4f:24:84:42:14:3a:20:a0:6c:27:76:40:
         0f:96:7e:4e:c3:0c:37:b3:e3:73:49:86:58:31:00:1e:e7:0f:
         87:74:b6:4e:6e:1c:7d:87:a4:33:04:c9:76:ec:e5:3a:85:5f:
         a8:d1:ad:21:64:5e:c5:6a:df:b1:02:6e:65:a4:87:72:06:07:
         da:e5:f2:af:2b:a5:eb:18:80:67:83:a5:3c:e6:ed:d1:58:f9:
         90:5c:d6:e9:2f:76:c1:58:13:b8:bd:88:8a:f3:04:48:bb:42:
         8f:7f:c6:db:b4:30:3f:bb:6c:d5:47:e5:ae:8d:4b:da:92:a5:
         db:d3:6e:a8:9b:c2:6b:56:af:34:63:82:e6:78:f8:1f:54:d7:
         41:aa:a3:c9:7c:a6:83:41:bf:6e:33:7c:ae:e6:92:bd:da:27:
         b4:bc:e2:90:4f:33:1b:01:a1:cd:02:13:7a:31:ef:00:d6:9a:
         6e:38:6b:a7:cb:70:98:a8:0f:ff:1c:56:a8:b7:e6:d2:42:5a:
         bb:f4:78:27:71:13:d0:e8:43:eb:bc:2d:4f:e4:ea:4d:4f:76:
         7f:53:38:34:eb:13:e2:3d:c6:14:98:86:1c:ab:2c:0e:b7:68:
         2e:bd:63:a9:6a:8f:d5:22:2d:ab:13:d7:62:54:51:ff:5c:37:
         08:04:27:da:f9:57:77:05:18:73:88:5f:b0:c1:65:50:36:09:
         d6:c7:f5:ae:6e:3f:04:d1:84:3c:21:74:1d:bd:0a:fb:76:d0:
         13:2b:62:bb:24:48:43:89:d0:18:5c:b4:ad:ea:98:af:6d:fc:
         1c:6b:1f:06:64:54:23:88
-----BEGIN CERTIFICATE-----
MIIFwzCCA6ugAwIBAgIJAI3Srzf5ypILMA0GCSqGSIb3DQEBBQUAMCkxCzAJBgNV
BAYTAkJFMRowGAYDVQQDExF0eGpzb25ycGMtdGVzdC1jYTAeFw0xMjA2MjMxNTQ2
MzdaFw0yMjA2MjExNTQ2MzdaMCkxCzAJBgNVBAYTAkJFMRowGAYDVQQDExF0eGpz
b25ycGMtdGVzdC1jYTCCAiIwDQYJKoZIhvcNAQEBBQADggIPADCCAgoCggIBANEl
r3fFqHLPkLk5EPt7dSyh2mqV5UQM1iVLWH+7B4JZSVgyhSTMPnfb4adPyLXL7kU4
vbz743Y7iATKqzqjljtfk5wopmGX3KI/oJMrVmzP009qngXTHM3vdYAamLeSSRQz
uMR8c4x+g6WBolmMi6NRNm1orPLx7W9J2a96Y8FDMUK2x825eLczmHCSbJ4Eenvw
bTiH6wATF7nZ7LRmu1HT/YHjDohxI9KAKmHeqyUCR6nBa8lprtpHtkl0rKbhwXa6
bbHZaG4cN6jiGGA3tlgTbMeSfMZFjO/DgXMQ3C8x4rkFWp4ocFo+HbhocYHJ6P4f
w6AT+OQkErqRjhXSA/GMsKriNORr+Ab2I4qSQ6YF3OnHpagG126RUnJHq66H/rMP
BIdvSyIp6akGUlh9AxbX1TFEtPFRRKcqul4JGexMouBY/g1Ot5BNAqwqrZkUZTsK
PHNFVrIPECUkUXlXGjQaEG9g4PyB28rC4oUbTHITXJ12zNAhMzFWgo/FV7lE/Yt2
wbbkIYs1mu5UdJ9yaxmE16I8pW4RCvGTBC7dfEx9YhDUG4uH9u2/ErGL8Jp67gKU
4TxGK3+cVPsuYckc7/zeJbwtdRsfSV5EOxWTrcSJ2a482lTv2a86FsuUG2oU5EL5
dTNGbvtAvPiCNs9g9cKimCOnKq7BqiL4h9q3nKTPAgMBAAGjge0wgeowHQYDVR0O
BBYEFJ2PhHaUzQf+o+iL1/nZbu/KdVF7MFkGA1UdIwRSMFCAFJ2PhHaUzQf+o+iL
1/nZbu/KdVF7oS2kKzApMQswCQYDVQQGEwJCRTEaMBgGA1UEAxMRdHhqc29ucnBj
LXRlc3QtY2GCCQCN0q83+cqSCzAPBgNVHRMBAf8EBTADAQH/MBEGCWCGSAGG+EIB
AQQEAwIBBjAJBgNVHRIEAjAAMCQGCWCGSAGG+EIBDQQXFhVUZXN0IENBIGZvciB0
eGpzb25yY3AwCQYDVR0RBAIwADAOBgNVHQ8BAf8EBAMCAQYwDQYJKoZIhvcNAQEF
BQADggIBAAaChoGpG34t7/X8zNKd1oKt0G9+Pblcsg86ZCGa+1Oyk4HcGiT8uDBX
osdxDZwaC4psiVKLivWvlT64CDnuNlCsYE3fK0micvE/EjzZVVakmncrd/oWtXbZ
9MRRa7n+L6NS6GSASSJtBUKHr52FbPrJm0g5e4n1oB7/EdOceLGy9k2x6LOYIyzU
IOGhAT4mCluO61hFIs/hlK2EQLD7/yVfMZpJCzatxhqwQmBA4qI8WjZBifwQxGDq
1IV7NoTfqoHMaedSysFGsXmTUU8khEIUOiCgbCd2QA+Wfk7DDDez43NJhlgxAB7n
D4d0tk5uHH2HpDMEyXbs5TqFX6jRrSFkXsVq37ECbmWkh3IGB9rl8q8rpesYgGeD
pTzm7dFY+ZBc1ukvdsFYE7i9iIrzBEi7Qo9/xtu0MD+7bNVH5a6NS9qSpdvTbqib
wmtWrzRjguZ4+B9U10Gqo8l8poNBv24zfK7mkr3aJ7S84pBPMxsBoc0CE3ox7wDW
mm44a6fLcJioD/8cVqi35tJCWrv0eCdxE9DoQ+u8LU/k6k1Pdn9TODTrE+I9xhSY
hhyrLA63aC69Y6lqj9UiLasT12JUUf9cNwgEJ9r5V3cFGHOIX7DBZVA2CdbH9a5u
PwTRhDwhdB29Cvt20BMrYrskSEOJ0BhctK3qmK9t/BxrHwZkVCOI
-----END CERTIFICATE-----
