Certificate:
    Data:
        Version: 4 (0x3)
        Serial Number: 1 (0x1)
    Signature Algorithm: sha1WithRSAEncryption
        Issuer: C=BE, CN=txjsonrpc-test-ca
        Validity
            Not Before: Jan  1 00:00:00 1970 GMT
            Not After : Jan 19 03:14:07 2038 GMT
        Subject: CN=www.example.com, C=BE, O=Gremwell bvba
        Subject Public Key Info:
            Public Key Algorithm: rsaEncryption
                Public-Key: (1024 bit)
                Modulus:
                    00:a7:85:f3:a5:1a:ca:0f:ca:51:11:c7:d4:85:ad:
                    e5:9c:ea:2f:11:93:fd:cd:82:f3:18:69:18:92:62:
                    93:b8:bb:75:6a:0c:52:2c:32:20:14:83:a9:54:42:
                    64:60:7d:79:e3:d2:0f:9d:63:0c:34:ff:b2:51:a3:
                    15:1e:00:bf:1c:1d:81:05:b4:bb:79:6e:35:1d:11:
                    39:f0:97:01:cd:b5:ff:b5:af:50:2a:16:a7:a8:5d:
                    44:ae:a5:db:36:ea:f9:32:56:8f:fd:f0:89:06:14:
                    00:9d:0a:d4:41:fc:f5:d6:4d:ff:6b:ce:e5:a5:18:
                    d1:53:bd:a8:eb:7a:54:9f:a1
                Exponent: 65537 (0x10001)
    Signature Algorithm: sha1WithRSAEncryption
         6f:4f:c0:63:12:ff:e9:e0:de:df:8c:a4:2b:4b:29:95:fc:1c:
         fb:c2:ef:ca:f7:54:c8:f6:a7:ab:b0:b1:55:c4:f9:30:b1:d3:
         16:17:5f:d4:e4:03:9b:d3:3d:55:8b:a2:2f:f1:59:bb:1b:92:
         f8:cc:48:27:61:48:b9:4c:41:5c:3d:29:1e:f3:dd:43:ab:54:
         ef:e6:69:4c:2b:0c:b5:dc:3c:7d:53:b1:23:72:9f:35:a8:19:
         3d:5e:4d:3e:29:e4:93:87:2f:ac:9c:91:ae:ca:77:bc:3e:5a:
         c7:c8:66:0e:6f:14:8f:a6:a3:e6:92:80:3a:13:42:c3:e8:19:
         93:59:25:be:a8:ec:61:21:27:25:2d:e0:d5:35:25:fc:8d:f0:
         34:ef:26:3a:13:00:5c:83:8d:78:28:d7:63:2e:2d:f4:44:34:
         88:c9:c4:d9:d6:88:4a:06:16:4d:62:03:2f:01:19:90:dc:12:
         0a:a6:a3:73:89:85:c4:cb:be:dc:ac:8b:cc:a9:77:ea:b6:3d:
         9d:2e:78:f8:44:06:5c:1d:90:ee:f6:60:88:0a:58:e1:34:8c:
         3f:1f:84:24:c7:5a:4f:09:ca:e9:7b:b0:b4:fe:6b:f4:26:da:
         39:fd:a8:eb:4c:ba:85:66:f0:03:ef:86:4b:47:ac:c7:65:96:
         37:8d:c2:67:98:f8:89:71:a7:78:2c:f7:da:5c:c3:96:54:60:
         4e:66:91:34:a3:12:5f:e6:e9:48:c1:09:89:f3:b8:8e:d8:38:
         94:38:dd:1e:c7:bc:a7:76:05:e2:b3:dd:d6:8e:19:6a:1e:bc:
         d4:86:c9:75:87:de:29:c7:80:dc:1a:59:d8:ff:2c:4d:9a:6e:
         f3:38:e9:27:16:32:66:8b:a8:7b:9f:d9:01:39:66:d6:98:40:
         17:9c:3a:98:42:98:5c:f5:49:5a:20:9d:33:6b:84:05:d7:af:
         60:7a:c9:20:d2:25:f4:90:11:f6:bf:f7:c1:45:f1:7e:17:ae:
         02:5a:ae:cf:93:0a:46:74:f0:ae:90:51:8d:a0:d6:47:0c:65:
         be:5e:8b:43:d4:62:8f:89:bd:cc:74:4e:3f:fe:3c:2c:47:a4:
         f9:c5:50:e5:e3:cc:7f:fb:1b:6f:26:36:ea:5e:92:19:27:f5:
         4c:b8:f7:c6:e2:6e:c8:8d:2c:87:b1:38:bb:4a:c8:53:4a:51:
         71:f6:28:5e:02:15:15:85:27:a3:24:ac:8a:cc:26:29:b8:3e:
         d1:85:a4:03:f1:3d:84:5e:a4:4d:e3:69:c2:4b:bb:ef:76:b4:
         32:5f:94:4d:07:82:26:23:bf:79:1c:d4:71:9f:a9:03:cb:c9:
         94:24:9c:99:00:19:10:fa
-----BEGIN CERTIFICATE-----
MIIDXTCCAUWgAwIBAwIBATANBgkqhkiG9w0BAQUFADApMQswCQYDVQQGEwJCRTEa
MBgGA1UEAxMRdHhqc29ucnBjLXRlc3QtY2EwHhcNNzAwMTAxMDAwMDAwWhcNMzgw
MTE5MDMxNDA3WjA/MRgwFgYDVQQDEw93d3cuZXhhbXBsZS5jb20xCzAJBgNVBAYT
AkJFMRYwFAYDVQQKEw1HcmVtd2VsbCBidmJhMIGfMA0GCSqGSIb3DQEBAQUAA4GN
ADCBiQKBgQCnhfOlGsoPylERx9SFreWc6i8Rk/3NgvMYaRiSYpO4u3VqDFIsMiAU
g6lUQmRgfXnj0g+dYww0/7JRoxUeAL8cHYEFtLt5bjUdETnwlwHNtf+1r1AqFqeo
XUSupds26vkyVo/98IkGFACdCtRB/PXWTf9rzuWlGNFTvajrelSfoQIDAQABMA0G
CSqGSIb3DQEBBQUAA4ICAQBvT8BjEv/p4N7fjKQrSymV/Bz7wu/K91TI9qersLFV
xPkwsdMWF1/U5AOb0z1Vi6Iv8Vm7G5L4zEgnYUi5TEFcPSke891Dq1Tv5mlMKwy1
3Dx9U7Ejcp81qBk9Xk0+KeSThy+snJGuyne8PlrHyGYObxSPpqPmkoA6E0LD6BmT
WSW+qOxhISclLeDVNSX8jfA07yY6EwBcg414KNdjLi30RDSIycTZ1ohKBhZNYgMv
ARmQ3BIKpqNziYXEy77crIvMqXfqtj2dLnj4RAZcHZDu9mCICljhNIw/H4Qkx1pP
Ccrpe7C0/mv0Jto5/ajrTLqFZvAD74ZLR6zHZZY3jcJnmPiJcad4LPfaXMOWVGBO
ZpE0oxJf5ulIwQmJ87iO2DiUON0ex7yndgXis93WjhlqHrzUhsl1h94px4DcGlnY
/yxNmm7zOOknFjJmi6h7n9kBOWbWmEAXnDqYQphc9UlaIJ0za4QF169geskg0iX0
kBH2v/fBRfF+F64CWq7PkwpGdPCukFGNoNZHDGW+XotD1GKPib3MdE4//jwsR6T5
xVDl48x/+xtvJjbqXpIZJ/VMuPfG4m7IjSyHsTi7SshTSlFx9iheAhUVhSejJKyK
zCYpuD7RhaQD8T2EXqRN42nCS7vvdrQyX5RNB4ImI795HNRxn6kDy8mUJJyZABkQ
+g==
-----END CERTIFICATE-----
Certificate:
    Data:
        Version: 3 (0x2)
        Serial Number: 10219423159405941259 (0x8dd2af37f9ca920b)
    Signature Algorithm: sha1WithRSAEncryption
        Issuer: C=BE, CN=txjsonrpc-test-ca
        Validity
            Not Before: Jun 23 15:46:37 2012 GMT
            Not After : Jun 21 15:46:37 2022 GMT
        Subject: C=BE, CN=txjsonrpc-test-ca
        Subject Public Key Info:
            Public Key Algorithm: rsaEncryption
                Public-Key: (4096 bit)
                Modulus:
                    00:d1:25:af:77:c5:a8:72:cf:90:b9:39:10:fb:7b:
                    75:2c:a1:da:6a:95:e5:44:0c:d6:25:4b:58:7f:bb:
                    07:82:59:49:58:32:85:24:cc:3e:77:db:e1:a7:4f:
                    c8:b5:cb:ee:45:38:bd:bc:fb:e3:76:3b:88:04:ca:
                    ab:3a:a3:96:3b:5f:93:9c:28:a6:61:97:dc:a2:3f:
                    a0:93:2b:56:6c:cf:d3:4f:6a:9e:05:d3:1c:cd:ef:
                    75:80:1a:98:b7:92:49:14:33:b8:c4:7c:73:8c:7e:
                    83:a5:81:a2:59:8c:8b:a3:51:36:6d:68:ac:f2:f1:
                    ed:6f:49:d9:af:7a:63:c1:43:31:42:b6:c7:cd:b9:
                    78:b7:33:98:70:92:6c:9e:04:7a:7b:f0:6d:38:87:
                    eb:00:13:17:b9:d9:ec:b4:66:bb:51:d3:fd:81:e3:
                    0e:88:71:23:d2:80:2a:61:de:ab:25:02:47:a9:c1:
                    6b:c9:69:ae:da:47:b6:49:74:ac:a6:e1:c1:76:ba:
                    6d:b1:d9:68:6e:1c:37:a8:e2:18:60:37:b6:58:13:
                    6c:c7:92:7c:c6:45:8c:ef:c3:81:73:10:dc:2f:31:
                    e2:b9:05:5a:9e:28:70:5a:3e:1d:b8:68:71:81:c9:
                    e8:fe:1f:c3:a0:13:f8:e4:24:12:ba:91:8e:15:d2:
                    03:f1:8c:b0:aa:e2:34:e4:6b:f8:06:f6:23:8a:92:
                    43:a6:05:dc:e9:c7:a5:a8:06:d7:6e:91:52:72:47:
                    ab:ae:87:fe:b3:0f:04:87:6f:4b:22:29:e9:a9:06:
                    52:58:7d:03:16:d7:d5:31:44:b4:f1:51:44:a7:2a:
                    ba:5e:09:19:ec:4c:a2:e0:58:fe:0d:4e:b7:90:4d:
                    02:ac:2a:ad:99:14:65:3b:0a:3c:73:45:56:b2:0f:
                    10:25:24:51:79:57:1a:34:1a:10:6f:60:e0:fc:81:
                    db:ca:c2:e2:85:1b:4c:72:13:5c:9d:76:cc:d0:21:
                    33:31:56:82:8f:c5:57:b9:44:fd:8b:76:c1:b6:e4:
                    21:8b:35:9a:ee:54:74:9f:72:6b:19:84:d7:a2:3c:
                    a5:6e:11:0a:f1:93:04:2e:dd:7c:4c:7d:62:10:d4:
                    1b:8b:87:f6:ed:bf:12:b1:8b:f0:9a:7a:ee:02:94:
                    e1:3c:46:2b:7f:9c:54:fb:2e:61:c9:1c:ef:fc:de:
                    25:bc:2d:75:1b:1f:49:5e:44:3b:15:93:ad:c4:89:
                    d9:ae:3c:da:54:ef:d9:af:3a:16:cb:94:1b:6a:14:
                    e4:42:f9:75:33:46:6e:fb:40:bc:f8:82:36:cf:60:
                    f5:c2:a2:98:23:a7:2a:ae:c1:aa:22:f8:87:da:b7:
                    9c:a4:cf
                Exponent: 65537 (0x10001)
        X509v3 extensions:
            X509v3 Subject Key Identifier: 
                9D:8F:84:76:94:CD:07:FE:A3:E8:8B:D7:F9:D9:6E:EF:CA:75:51:7B
            X509v3 Authority Key Identifier: 
                keyid:9D:8F:84:76:94:CD:07:FE:A3:E8:8B:D7:F9:D9:6E:EF:CA:75:51:7B
                DirName:/C=BE/CN=txjsonrpc-test-ca
                serial:8D:D2:AF:37:F9:CA:92:0B

            X509v3 Basic Constraints: critical
                CA:TRUE
            Netscape Cert Type: 
                SSL CA, S/MIME CA
            X509v3 Issuer Alternative Name: 
                <EMPTY>

            Netscape Comment: 
                Test CA for txjsonrcp
            X509v3 Subject Alternative Name: 
                <EMPTY>

            X509v3 Key Usage: critical
                Certificate Sign, CRL Sign
    Signature Algorithm: sha1WithRSAEncryption
         06:82:86:81:a9:1b:7e:2d:ef:f5:fc:cc:d2:9d:d6:82:ad:d0:
         6f:7e:3d:b9:5c:b2:0f:3a:64:21:9a:fb:53:b2:93:81:dc:1a:
         24:fc:b8:30:57:a2:c7:71:0d:9c:1a:0b:8a:6c:89:52:8b:8a:
         f5:af:95:3e:b8:08:39:ee:36:50:ac:60:4d:df:2b:49:a2:72:
         f1:3f:12:3c:d9:55:56:a4:9a:77:2b:77:fa:16:b5:76:d9:f4:
         c4:51:6b:b9:fe:2f:a3:52:e8:64:80:49:22:6d:05:42:87:af:
         9d:85:6c:fa:c9:9b:48:39:7b:89:f5:a0:1e:ff:11:d3:9c:78:
         b1:b2:f6:4d:b1:e8:b3:98:23:2c:d4:20:e1:a1:01:3e:26:0a:
         5b:8e:eb:58:45:22:cf:e1:94:ad:84:40:b0:fb:ff:25:5f:31:
         9a:49:0b:36:ad:c6:1a:b0:42:60:40:e2:a2:3c:5a:36:41:89:
         fc:10:c4:60:ea:d4:85:7b:36:84:df:aa:81:cc:69:e7:52:ca:
         c1:46:b1:79:93:51:4f:24:84:42:14:3a:20:a0:6c:27:76:40:
         0f:96:7e:4e:c3:0c:37:b3:e3:73:49:86:58:31:00:1e:e7:0f:
         87:74:b6:4e:6e:1c:7d:87:a4:33:04:c9:76:ec:e5:3a:85:5f:
         a8:d1:ad:21:64:5e:c5:6a:df:b1:02:6e:65:a4:87:72:06:07:
         da:e5:f2:af:2b:a5:eb:18:80:67:83:a5:3c:e6:ed:d1:58:f9:
         90:5c:d6:e9:2f:76:c1:58:13:b8:bd:88:8a:f3:04:48:bb:42:
         8f:7f:c6:db:b4:30:3f:bb:6c:d5:47:e5:ae:8d:4b:da:92:a5:
         db:d3:6e:a8:9b:c2:6b:56:af:34:63:82:e6:78:f8:1f:54:d7:
         41:aa:a3:c9:7c:a6:83:41:bf:6e:33:7c:ae:e6:92:bd:da:27:
         b4:bc:e2:90:4f:33:1b:01:a1:cd:02:13:7a:31:ef:00:d6:9a:
         6e:38:6b:a7:cb:70:98:a8:0f:ff:1c:56:a8:b7:e6:d2:42:5a:
         bb:f4:78:27:71:13:d0:e8:43:eb:bc:2d:4f:e4:ea:4d:4f:76:
         7f:53:38:34:eb:13:e2:3d:c6:14:98:86:1c:ab:2c:0e:b7:68:
         2e:bd:63:a9:6a:8f:d5:22:2d:ab:13:d7:62:54:51:ff:5c:37:
         08:04:27:da:f9:57:77:05:18:73:88:5f:b0:c1:65:50:36:09:
         d6:c7:f5:ae:6e:3f:04:d1:84:3c:21:74:1d:bd:0a:fb:76:d0:
         13:2b:62:bb:24:48:43:89:d0:18:5c:b4:ad:ea:98:af:6d:fc:
         1c:6b:1f:06:64:54:23:88
-----BEGIN CERTIFICATE-----
MIIFwzCCA6ugAwIBAgIJAI3Srzf5ypILMA0GCSqGSIb3DQEBBQUAMCkxCzAJBgNV
BAYTAkJFMRowGAYDVQQDExF0eGpzb25ycGMtdGVzdC1jYTAeFw0xMjA2MjMxNTQ2
MzdaFw0yMjA2MjExNTQ2MzdaMCkxCzAJBgNVBAYTAkJFMRowGAYDVQQDExF0eGpz
b25ycGMtdGVzdC1jYTCCAiIwDQYJKoZIhvcNAQEBBQADggIPADCCAgoCggIBANEl
r3fFqHLPkLk5EPt7dSyh2mqV5UQM1iVLWH+7B4JZSVgyhSTMPnfb4adPyLXL7kU4
vbz743Y7iATKqzqjljtfk5wopmGX3KI/oJMrVmzP009qngXTHM3vdYAamLeSSRQz
uMR8c4x+g6WBolmMi6NRNm1orPLx7W9J2a96Y8FDMUK2x825eLczmHCSbJ4Eenvw
bTiH6wATF7nZ7LRmu1HT/YHjDohxI9KAKmHeqyUCR6nBa8lprtpHtkl0rKbhwXa6
bbHZaG4cN6jiGGA3tlgTbMeSfMZFjO/DgXMQ3C8x4rkFWp4ocFo+HbhocYHJ6P4f
w6AT+OQkErqRjhXSA/GMsKriNORr+Ab2I4qSQ6YF3OnHpagG126RUnJHq66H/rMP
BIdvSyIp6akGUlh9AxbX1TFEtPFRRKcqul4JGexMouBY/g1Ot5BNAqwqrZkUZTsK
PHNFVrIPECUkUXlXGjQaEG9g4PyB28rC4oUbTHITXJ12zNAhMzFWgo/FV7lE/Yt2
wbbkIYs1mu5UdJ9yaxmE16I8pW4RCvGTBC7dfEx9YhDUG4uH9u2/ErGL8Jp67gKU
4TxGK3+cVPsuYckc7/zeJbwtdRsfSV5EOxWTrcSJ2a482lTv2a86FsuUG2oU5EL5
dTNGbvtAvPiCNs9g9cKimCOnKq7BqiL4h9q3nKTPAgMBAAGjge0wgeowHQYDVR0O
BBYEFJ2PhHaUzQf+o+iL1/nZbu/KdVF7MFkGA1UdIwRSMFCAFJ2PhHaUzQf+o+iL
1/nZbu/KdVF7oS2kKzApMQswCQYDVQQGEwJCRTEaMBgGA1UEAxMRdHhqc29ucnBj
LXRlc3QtY2GCCQCN0q83+cqSCzAPBgNVHRMBAf8EBTADAQH/MBEGCWCGSAGG+EIB
AQQEAwIBBjAJBgNVHRIEAjAAMCQGCWCGSAGG+EIBDQQXFhVUZXN0IENBIGZvciB0
eGpzb25yY3AwCQYDVR0RBAIwADAOBgNVHQ8BAf8EBAMCAQYwDQYJKoZIhvcNAQEF
BQADggIBAAaChoGpG34t7/X8zNKd1oKt0G9+Pblcsg86ZCGa+1Oyk4HcGiT8uDBX
osdxDZwaC4psiVKLivWvlT64CDnuNlCsYE3fK0micvE/EjzZVVakmncrd/oWtXbZ
9MRRa7n+L6NS6GSASSJtBUKHr52FbPrJm0g5e4n1oB7/EdOceLGy9k2x6LOYIyzU
IOGhAT4mCluO61hFIs/hlK2EQLD7/yVfMZpJCzatxhqwQmBA4qI8WjZBifwQxGDq
1IV7NoTfqoHMaedSysFGsXmTUU8khEIUOiCgbCd2QA+Wfk7DDDez43NJhlgxAB7n
D4d0tk5uHH2HpDMEyXbs5TqFX6jRrSFkXsVq37ECbmWkh3IGB9rl8q8rpesYgGeD
pTzm7dFY+ZBc1ukvdsFYE7i9iIrzBEi7Qo9/xtu0MD+7bNVH5a6NS9qSpdvTbqib
wmtWrzRjguZ4+B9U10Gqo8l8poNBv24zfK7mkr3aJ7S84pBPMxsBoc0CE3ox7wDW
mm44a6fLcJioD/8cVqi35tJCWrv0eCdxE9DoQ+u8LU/k6k1Pdn9TODTrE+I9xhSY
hhyrLA63aC69Y6lqj9UiLasT12JUUf9cNwgEJ9r5V3cFGHOIX7DBZVA2CdbH9a5u
PwTRhDwhdB29Cvt20BMrYrskSEOJ0BhctK3qmK9t/BxrHwZkVCOI
-----END CERTIFICATE-----
