Certificate:
    Data:
        Version: 3 (0x2)
        Serial Number: 1 (0x1)
    Signature Algorithm: sha1WithRSAEncryption
        Issuer: CN=ca-none, C=BE, O=Gremwell bvba
        Validity
            Not Before: Jun 23 15:47:38 2012 GMT
            Not After : Jun 23 15:47:38 2013 GMT
        Subject: C=BE, CN=txjsonrpc-pyserver
        Subject Public Key Info:
            Public Key Algorithm: rsaEncryption
                Public-Key: (4096 bit)
                Modulus:
                    00:97:0a:b1:ca:cb:50:6b:25:e0:cb:4e:4e:f0:40:
                    92:e6:0a:df:a2:0d:e8:eb:bc:b0:d6:5f:0a:56:42:
                    e6:b4:0a:20:63:1a:b3:4d:61:41:2f:1d:c7:aa:bb:
                    22:a1:9f:ea:64:5a:35:91:c3:9c:42:d8:40:21:a4:
                    aa:4d:a3:4c:a3:52:f9:76:59:60:f3:6e:11:36:cd:
                    a9:9a:9f:db:7f:03:5c:76:c5:1f:87:74:40:4e:e5:
                    fd:1a:47:c0:62:84:fd:03:65:5c:8f:f7:39:69:9c:
                    b1:dc:f7:2d:fe:e6:d8:eb:22:9e:cf:02:1a:e6:e1:
                    28:9b:7e:47:23:91:a3:e2:41:e3:de:ce:4d:91:43:
                    ee:c2:c6:0a:a9:d8:47:8e:b7:cf:9b:d1:ee:a0:68:
                    a2:20:ed:f3:6b:8d:5e:ef:f5:a3:42:29:bb:7b:a3:
                    cf:11:6f:c0:f5:36:c9:38:0d:6e:8d:4e:81:d4:c4:
                    60:30:3c:29:ed:44:9a:6f:0f:61:5c:18:74:68:d2:
                    8e:5d:ec:4e:14:18:d2:f5:f1:08:60:c3:c8:13:36:
                    78:73:3e:44:e3:58:3d:68:57:c3:17:73:4f:45:46:
                    66:5c:a9:81:ad:be:48:e1:14:1e:97:56:8a:64:07:
                    a7:89:f6:21:24:b4:f0:69:45:ed:b6:e5:09:01:03:
                    94:fb:5f:d2:81:37:dd:64:88:a7:fc:8d:ca:33:fc:
                    c1:1e:ac:13:5e:21:93:85:5d:99:cc:85:d9:34:1e:
                    1d:30:57:d9:2b:03:cd:69:74:67:46:57:e4:fc:1c:
                    43:84:a7:ea:91:d0:df:4c:c0:15:08:4a:a6:fd:93:
                    49:b1:2d:27:ed:f1:4e:05:50:b9:3d:75:f9:a4:73:
                    70:4a:cb:34:f6:bb:ea:57:6f:c6:08:53:4b:70:ab:
                    76:b0:92:37:ee:d0:0f:31:9b:7c:53:8d:bc:1d:b9:
                    48:dc:e9:d2:52:23:07:cf:45:b0:f8:10:d5:e4:c9:
                    6a:6d:9a:fc:59:07:f7:6a:00:9a:27:0b:8e:8c:fc:
                    42:3e:66:a1:51:21:ab:0d:46:5c:fe:f2:65:4f:78:
                    09:46:cb:54:0c:11:e0:3b:27:83:c1:cf:9c:61:f2:
                    ce:7e:d4:69:76:8f:8d:c3:46:b3:9f:48:90:cc:de:
                    4c:cc:73:d9:cb:be:be:9f:bf:a0:64:6d:7d:b9:d9:
                    88:21:ab:cc:77:09:4a:f9:e5:89:4b:c6:6d:c2:e6:
                    cc:20:d0:c3:6e:f6:6a:35:55:f4:bc:5c:ab:7a:99:
                    49:48:28:a3:74:b9:9b:56:ed:9b:8d:5b:73:f8:0d:
                    b5:b8:52:cb:eb:c1:43:04:58:9d:bd:6f:48:8d:cd:
                    9d:f4:11
                Exponent: 65537 (0x10001)
        X509v3 extensions:
            X509v3 Basic Constraints: 
                CA:FALSE
            Netscape Cert Type: 
                SSL Server
            Netscape Comment: 
                TinyCA Generated Certificate
            X509v3 Subject Key Identifier: 
                26:8C:A5:F9:A6:4A:FE:4C:E8:0F:04:33:7E:04:26:28:BF:4C:92:F3
            X509v3 Authority Key Identifier: 
                keyid:9D:8F:84:76:94:CD:07:FE:A3:E8:8B:D7:F9:D9:6E:EF:CA:75:51:7B
                DirName:/C=BE/CN=txjsonrpc-test-ca
                serial:8D:D2:AF:37:F9:CA:92:0B

            X509v3 Issuer Alternative Name: 
                <EMPTY>

            X509v3 Subject Alternative Name: 
                <EMPTY>

    Signature Algorithm: sha1WithRSAEncryption
         46:97:7c:5b:86:35:9f:98:41:d6:06:18:e8:dc:9e:f2:87:76:
         d5:c4:da:3c:7b:2d:ea:f3:5f:b8:c1:f4:da:b7:20:2b:05:f5:
         ac:fc:bc:9b:a4:22:a8:df:f4:fe:1f:1c:5d:ea:cf:25:4e:07:
         8f:fe:48:e9:87:ea:c4:1c:c8:78:f8:5e:8f:ce:95:d7:2d:4e:
         80:bb:ee:c7:f8:87:ec:1b:71:e6:cf:78:27:c1:2c:5c:7c:96:
         7b:2d:ce:d9:fe:f4:b0:49:9d:00:74:47:0f:aa:92:86:68:f8:
         5b:fa:f4:a1:be:f8:e2:55:27:8c:76:f6:0d:ee:53:96:54:2d:
         7d:cf
-----BEGIN CERTIFICATE-----
MIIEOjCCA6OgAwIBAgIBATANBgkqhkiG9w0BAQUFADA3MRAwDgYDVQQDEwdjYS1u
b25lMQswCQYDVQQGEwJCRTEWMBQGA1UEChMNR3JlbXdlbGwgYnZiYTAeFw0xMjA2
MjMxNTQ3MzhaFw0xMzA2MjMxNTQ3MzhaMCoxCzAJBgNVBAYTAkJFMRswGQYDVQQD
ExJ0eGpzb25ycGMtcHlzZXJ2ZXIwggIiMA0GCSqGSIb3DQEBAQUAA4ICDwAwggIK
AoICAQCXCrHKy1BrJeDLTk7wQJLmCt+iDejrvLDWXwpWQua0CiBjGrNNYUEvHceq
uyKhn+pkWjWRw5xC2EAhpKpNo0yjUvl2WWDzbhE2zaman9t/A1x2xR+HdEBO5f0a
R8BihP0DZVyP9zlpnLHc9y3+5tjrIp7PAhrm4SibfkcjkaPiQePezk2RQ+7Cxgqp
2EeOt8+b0e6gaKIg7fNrjV7v9aNCKbt7o88Rb8D1Nsk4DW6NToHUxGAwPCntRJpv
D2FcGHRo0o5d7E4UGNL18Qhgw8gTNnhzPkTjWD1oV8MXc09FRmZcqYGtvkjhFB6X
VopkB6eJ9iEktPBpRe225QkBA5T7X9KBN91kiKf8jcoz/MEerBNeIZOFXZnMhdk0
Hh0wV9krA81pdGdGV+T8HEOEp+qR0N9MwBUISqb9k0mxLSft8U4FULk9dfmkc3BK
yzT2u+pXb8YIU0twq3awkjfu0A8xm3xTjbwduUjc6dJSIwfPRbD4ENXkyWptmvxZ
B/dqAJonC46M/EI+ZqFRIasNRlz+8mVPeAlGy1QMEeA7J4PBz5xh8s5+1Gl2j43D
RrOfSJDM3kzMc9nLvr6fv6BkbX252Yghq8x3CUr55YlLxm3C5swg0MNu9mo1VfS8
XKt6mUlIKKN0uZtW7ZuNW3P4DbW4UsvrwUMEWJ29b0iNzZ30EQIDAQABo4HeMIHb
MAkGA1UdEwQCMAAwEQYJYIZIAYb4QgEBBAQDAgZAMCsGCWCGSAGG+EIBDQQeFhxU
aW55Q0EgR2VuZXJhdGVkIENlcnRpZmljYXRlMB0GA1UdDgQWBBQmjKX5pkr+TOgP
BDN+BCYov0yS8zBZBgNVHSMEUjBQgBSdj4R2lM0H/qPoi9f52W7vynVRe6EtpCsw
KTELMAkGA1UEBhMCQkUxGjAYBgNVBAMTEXR4anNvbnJwYy10ZXN0LWNhggkAjdKv
N/nKkgswCQYDVR0SBAIwADAJBgNVHREEAjAAMA0GCSqGSIb3DQEBBQUAA4GBAEaX
fFuGNZ+YQdYGGOjcnvKHdtXE2jx7LerzX7jB9Nq3ICsF9az8vJukIqjf9P4fHF3q
zyVOB4/+SOmH6sQcyHj4Xo/OldctToC77sf4h+wbcebPeCfBLFx8lnstztn+9LBJ
nQB0Rw+qkoZo+Fv69KG++OJVJ4x29g3uU5ZULX3P
-----END CERTIFICATE-----
Certificate:
    Data:
        Version: 4 (0x3)
        Serial Number: 1 (0x1)
    Signature Algorithm: sha1WithRSAEncryption
        Issuer: C=BE, CN=txjsonrpc-test-ca
        Validity
            Not Before: Jan  1 00:00:00 1970 GMT
            Not After : Jan 19 03:14:07 2038 GMT
        Subject: CN=ca-none, C=BE, O=Gremwell bvba
        Subject Public Key Info:
            Public Key Algorithm: rsaEncryption
                Public-Key: (1024 bit)
                Modulus:
                    00:b5:f6:11:e9:df:ae:5e:d1:5d:5f:a2:cc:80:86:
                    48:63:f7:02:f3:0a:70:0a:3b:a4:d5:e0:88:86:5f:
                    9f:ba:e6:52:70:3f:0d:08:69:fb:82:ab:51:67:fa:
                    44:b3:e1:c6:83:5d:da:dd:b2:aa:46:53:c7:cb:95:
                    ab:df:6a:e8:df:46:6b:64:53:e4:9c:54:9b:16:f1:
                    3b:38:d2:ee:6d:e6:a3:6e:74:e5:18:b8:38:02:fa:
                    20:44:26:d3:0c:14:16:a6:81:a9:cc:c4:78:f5:3e:
                    9d:8f:a0:aa:10:b1:a9:1e:3d:f9:b8:fe:e4:c5:a4:
                    55:f3:bd:26:bc:dd:62:b8:4b
                Exponent: 65537 (0x10001)
    Signature Algorithm: sha1WithRSAEncryption
         34:e2:59:27:77:3b:ed:da:13:d4:e0:66:68:cb:45:d7:c3:82:
         2a:cb:09:81:60:3f:af:27:20:2e:f8:40:e8:c7:fc:7d:83:d4:
         84:97:0d:fe:a5:c6:d4:af:0d:eb:c2:7e:7e:61:d2:af:28:ac:
         6a:d2:50:be:a4:84:93:92:f1:bd:af:a4:60:d4:f2:0d:41:b3:
         f6:10:63:b6:db:87:ae:cb:ee:2f:cb:2b:d8:00:8b:3a:f1:f5:
         6c:34:3a:c6:3d:4f:aa:12:ed:73:5a:e2:2b:19:5e:3a:b8:6d:
         2b:63:59:51:ea:c9:53:33:75:db:27:26:0b:96:b0:49:73:44:
         d2:4d:fb:fb:34:9e:c9:57:66:4f:52:02:21:b1:4e:00:bc:f1:
         f5:77:e8:e4:8a:4a:eb:ad:70:88:eb:42:de:67:b8:e1:b1:d8:
         d0:81:d7:c6:bd:fe:01:09:f2:ef:51:40:d9:25:25:cb:c3:de:
         8d:86:fa:91:f8:b4:36:d8:43:6e:7f:3b:ff:45:0c:12:54:d9:
         b9:17:fe:31:f2:d4:3b:bd:74:63:f5:88:12:e3:48:00:49:2f:
         ff:87:5d:0f:69:01:eb:ba:c2:28:4c:29:44:c4:62:28:51:cf:
         c8:37:54:a8:b2:fb:7d:e1:b6:7a:bc:d2:9a:65:f6:27:10:45:
         a8:9a:38:ed:b4:39:7c:7a:5b:ba:c1:47:4b:34:5a:ba:7b:8f:
         fb:d8:e2:4f:9c:c9:92:c9:9e:00:83:30:90:16:07:e1:0a:a2:
         fd:fb:1e:55:87:20:b6:ee:92:60:76:ab:d6:12:91:12:c8:26:
         e8:ec:a7:fe:c7:3a:b0:0c:e3:e5:15:e0:5b:bb:5b:63:15:2a:
         9c:4a:a0:af:63:86:e8:58:ea:1d:29:f9:cd:7a:0a:a8:34:e0:
         7d:68:7f:36:0a:36:ae:37:87:f3:ec:89:31:12:27:23:b8:a8:
         50:5c:a7:e4:b5:67:97:f3:fd:2c:5e:1c:40:0a:05:8c:6f:ea:
         31:35:bd:7a:59:00:7f:e2:43:7d:df:9e:4e:4b:a2:96:c7:17:
         2d:a3:05:16:8a:4f:a9:a0:5b:81:08:60:92:43:4d:08:18:30:
         01:44:ec:13:d8:3e:d3:68:1b:fd:02:6b:34:b1:b5:f1:e0:af:
         8c:df:be:7b:b8:cf:6e:e6:dd:5f:3e:36:72:01:8a:c8:13:9a:
         af:73:1c:30:9a:bf:f9:e2:4d:59:2e:3d:dd:a2:76:3c:13:47:
         24:b6:00:6f:f7:e7:51:e6:4e:4f:af:81:49:7b:6e:0f:b8:96:
         e3:98:95:52:b3:1a:76:b0:b2:5f:3f:2a:49:35:c2:e5:01:6e:
         6f:10:af:48:99:3c:e4:ea
-----BEGIN CERTIFICATE-----
MIIDVTCCAT2gAwIBAwIBATANBgkqhkiG9w0BAQUFADApMQswCQYDVQQGEwJCRTEa
MBgGA1UEAxMRdHhqc29ucnBjLXRlc3QtY2EwHhcNNzAwMTAxMDAwMDAwWhcNMzgw
MTE5MDMxNDA3WjA3MRAwDgYDVQQDEwdjYS1ub25lMQswCQYDVQQGEwJCRTEWMBQG
A1UEChMNR3JlbXdlbGwgYnZiYTCBnzANBgkqhkiG9w0BAQEFAAOBjQAwgYkCgYEA
tfYR6d+uXtFdX6LMgIZIY/cC8wpwCjuk1eCIhl+fuuZScD8NCGn7gqtRZ/pEs+HG
g13a3bKqRlPHy5Wr32ro30ZrZFPknFSbFvE7ONLubeajbnTlGLg4AvogRCbTDBQW
poGpzMR49T6dj6CqELGpHj35uP7kxaRV870mvN1iuEsCAwEAATANBgkqhkiG9w0B
AQUFAAOCAgEANOJZJ3c77doT1OBmaMtF18OCKssJgWA/rycgLvhA6Mf8fYPUhJcN
/qXG1K8N68J+fmHSryisatJQvqSEk5Lxva+kYNTyDUGz9hBjttuHrsvuL8sr2ACL
OvH1bDQ6xj1PqhLtc1riKxleOrhtK2NZUerJUzN12ycmC5awSXNE0k37+zSeyVdm
T1ICIbFOALzx9Xfo5IpK661wiOtC3me44bHY0IHXxr3+AQny71FA2SUly8PejYb6
kfi0NthDbn87/0UMElTZuRf+MfLUO710Y/WIEuNIAEkv/4ddD2kB67rCKEwpRMRi
KFHPyDdUqLL7feG2erzSmmX2JxBFqJo47bQ5fHpbusFHSzRaunuP+9jiT5zJksme
AIMwkBYH4Qqi/fseVYcgtu6SYHar1hKREsgm6Oyn/sc6sAzj5RXgW7tbYxUqnEqg
r2OG6FjqHSn5zXoKqDTgfWh/Ngo2rjeH8+yJMRInI7ioUFyn5LVnl/P9LF4cQAoF
jG/qMTW9elkAf+JDfd+eTkuilscXLaMFFopPqaBbgQhgkkNNCBgwAUTsE9g+02gb
/QJrNLG18eCvjN++e7jPbubdXz42cgGKyBOar3McMJq/+eJNWS493aJ2PBNHJLYA
b/fnUeZOT6+BSXtuD7iW45iVUrMadrCyXz8qSTXC5QFubxCvSJk85Oo=
-----END CERTIFICATE-----
