Certificate:
    Data:
        Version: 4 (0x3)
        Serial Number: 1 (0x1)
    Signature Algorithm: sha1WithRSAEncryption
        Issuer: C=BE, CN=txjsonrpc-test-ca
        Validity
            Not Before: Jan  1 00:00:00 1970 GMT
            Not After : Jan 19 03:14:07 2038 GMT
        Subject: CN=ca-none, C=BE, O=Gremwell bvba
        Subject Public Key Info:
            Public Key Algorithm: rsaEncryption
                Public-Key: (1024 bit)
                Modulus:
                    00:b5:f6:11:e9:df:ae:5e:d1:5d:5f:a2:cc:80:86:
                    48:63:f7:02:f3:0a:70:0a:3b:a4:d5:e0:88:86:5f:
                    9f:ba:e6:52:70:3f:0d:08:69:fb:82:ab:51:67:fa:
                    44:b3:e1:c6:83:5d:da:dd:b2:aa:46:53:c7:cb:95:
                    ab:df:6a:e8:df:46:6b:64:53:e4:9c:54:9b:16:f1:
                    3b:38:d2:ee:6d:e6:a3:6e:74:e5:18:b8:38:02:fa:
                    20:44:26:d3:0c:14:16:a6:81:a9:cc:c4:78:f5:3e:
                    9d:8f:a0:aa:10:b1:a9:1e:3d:f9:b8:fe:e4:c5:a4:
                    55:f3:bd:26:bc:dd:62:b8:4b
                Exponent: 65537 (0x10001)
    Signature Algorithm: sha1WithRSAEncryption
         34:e2:59:27:77:3b:ed:da:13:d4:e0:66:68:cb:45:d7:c3:82:
         2a:cb:09:81:60:3f:af:27:20:2e:f8:40:e8:c7:fc:7d:83:d4:
         84:97:0d:fe:a5:c6:d4:af:0d:eb:c2:7e:7e:61:d2:af:28:ac:
         6a:d2:50:be:a4:84:93:92:f1:bd:af:a4:60:d4:f2:0d:41:b3:
         f6:10:63:b6:db:87:ae:cb:ee:2f:cb:2b:d8:00:8b:3a:f1:f5:
         6c:34:3a:c6:3d:4f:aa:12:ed:73:5a:e2:2b:19:5e:3a:b8:6d:
         2b:63:59:51:ea:c9:53:33:75:db:27:26:0b:96:b0:49:73:44:
         d2:4d:fb:fb:34:9e:c9:57:66:4f:52:02:21:b1:4e:00:bc:f1:
         f5:77:e8:e4:8a:4a:eb:ad:70:88:eb:42:de:67:b8:e1:b1:d8:
         d0:81:d7:c6:bd:fe:01:09:f2:ef:51:40:d9:25:25:cb:c3:de:
         8d:86:fa:91:f8:b4:36:d8:43:6e:7f:3b:ff:45:0c:12:54:d9:
         b9:17:fe:31:f2:d4:3b:bd:74:63:f5:88:12:e3:48:00:49:2f:
         ff:87:5d:0f:69:01:eb:ba:c2:28:4c:29:44:c4:62:28:51:cf:
         c8:37:54:a8:b2:fb:7d:e1:b6:7a:bc:d2:9a:65:f6:27:10:45:
         a8:9a:38:ed:b4:39:7c:7a:5b:ba:c1:47:4b:34:5a:ba:7b:8f:
         fb:d8:e2:4f:9c:c9:92:c9:9e:00:83:30:90:16:07:e1:0a:a2:
         fd:fb:1e:55:87:20:b6:ee:92:60:76:ab:d6:12:91:12:c8:26:
         e8:ec:a7:fe:c7:3a:b0:0c:e3:e5:15:e0:5b:bb:5b:63:15:2a:
         9c:4a:a0:af:63:86:e8:58:ea:1d:29:f9:cd:7a:0a:a8:34:e0:
         7d:68:7f:36:0a:36:ae:37:87:f3:ec:89:31:12:27:23:b8:a8:
         50:5c:a7:e4:b5:67:97:f3:fd:2c:5e:1c:40:0a:05:8c:6f:ea:
         31:35:bd:7a:59:00:7f:e2:43:7d:df:9e:4e:4b:a2:96:c7:17:
         2d:a3:05:16:8a:4f:a9:a0:5b:81:08:60:92:43:4d:08:18:30:
         01:44:ec:13:d8:3e:d3:68:1b:fd:02:6b:34:b1:b5:f1:e0:af:
         8c:df:be:7b:b8:cf:6e:e6:dd:5f:3e:36:72:01:8a:c8:13:9a:
         af:73:1c:30:9a:bf:f9:e2:4d:59:2e:3d:dd:a2:76:3c:13:47:
         24:b6:00:6f:f7:e7:51:e6:4e:4f:af:81:49:7b:6e:0f:b8:96:
         e3:98:95:52:b3:1a:76:b0:b2:5f:3f:2a:49:35:c2:e5:01:6e:
         6f:10:af:48:99:3c:e4:ea
-----BEGIN CERTIFICATE-----
MIIDVTCCAT2gAwIBAwIBATANBgkqhkiG9w0BAQUFADApMQswCQYDVQQGEwJCRTEa
MBgGA1UEAxMRdHhqc29ucnBjLXRlc3QtY2EwHhcNNzAwMTAxMDAwMDAwWhcNMzgw
MTE5MDMxNDA3WjA3MRAwDgYDVQQDEwdjYS1ub25lMQswCQYDVQQGEwJCRTEWMBQG
A1UEChMNR3JlbXdlbGwgYnZiYTCBnzANBgkqhkiG9w0BAQEFAAOBjQAwgYkCgYEA
tfYR6d+uXtFdX6LMgIZIY/cC8wpwCjuk1eCIhl+fuuZScD8NCGn7gqtRZ/pEs+HG
g13a3bKqRlPHy5Wr32ro30ZrZFPknFSbFvE7ONLubeajbnTlGLg4AvogRCbTDBQW
poGpzMR49T6dj6CqELGpHj35uP7kxaRV870mvN1iuEsCAwEAATANBgkqhkiG9w0B
AQUFAAOCAgEANOJZJ3c77doT1OBmaMtF18OCKssJgWA/rycgLvhA6Mf8fYPUhJcN
/qXG1K8N68J+fmHSryisatJQvqSEk5Lxva+kYNTyDUGz9hBjttuHrsvuL8sr2ACL
OvH1bDQ6xj1PqhLtc1riKxleOrhtK2NZUerJUzN12ycmC5awSXNE0k37+zSeyVdm
T1ICIbFOALzx9Xfo5IpK661wiOtC3me44bHY0IHXxr3+AQny71FA2SUly8PejYb6
kfi0NthDbn87/0UMElTZuRf+MfLUO710Y/WIEuNIAEkv/4ddD2kB67rCKEwpRMRi
KFHPyDdUqLL7feG2erzSmmX2JxBFqJo47bQ5fHpbusFHSzRaunuP+9jiT5zJksme
AIMwkBYH4Qqi/fseVYcgtu6SYHar1hKREsgm6Oyn/sc6sAzj5RXgW7tbYxUqnEqg
r2OG6FjqHSn5zXoKqDTgfWh/Ngo2rjeH8+yJMRInI7ioUFyn5LVnl/P9LF4cQAoF
jG/qMTW9elkAf+JDfd+eTkuilscXLaMFFopPqaBbgQhgkkNNCBgwAUTsE9g+02gb
/QJrNLG18eCvjN++e7jPbubdXz42cgGKyBOar3McMJq/+eJNWS493aJ2PBNHJLYA
b/fnUeZOT6+BSXtuD7iW45iVUrMadrCyXz8qSTXC5QFubxCvSJk85Oo=
-----END CERTIFICATE-----
Certificate:
    Data:
        Version: 3 (0x2)
        Serial Number: 10219423159405941259 (0x8dd2af37f9ca920b)
    Signature Algorithm: sha1WithRSAEncryption
        Issuer: C=BE, CN=txjsonrpc-test-ca
        Validity
            Not Before: Jun 23 15:46:37 2012 GMT
            Not After : Jun 21 15:46:37 2022 GMT
        Subject: C=BE, CN=txjsonrpc-test-ca
        Subject Public Key Info:
            Public Key Algorithm: rsaEncryption
                Public-Key: (4096 bit)
                Modulus:
                    00:d1:25:af:77:c5:a8:72:cf:90:b9:39:10:fb:7b:
                    75:2c:a1:da:6a:95:e5:44:0c:d6:25:4b:58:7f:bb:
                    07:82:59:49:58:32:85:24:cc:3e:77:db:e1:a7:4f:
                    c8:b5:cb:ee:45:38:bd:bc:fb:e3:76:3b:88:04:ca:
                    ab:3a:a3:96:3b:5f:93:9c:28:a6:61:97:dc:a2:3f:
                    a0:93:2b:56:6c:cf:d3:4f:6a:9e:05:d3:1c:cd:ef:
                    75:80:1a:98:b7:92:49:14:33:b8:c4:7c:73:8c:7e:
                    83:a5:81:a2:59:8c:8b:a3:51:36:6d:68:ac:f2:f1:
                    ed:6f:49:d9:af:7a:63:c1:43:31:42:b6:c7:cd:b9:
                    78:b7:33:98:70:92:6c:9e:04:7a:7b:f0:6d:38:87:
                    eb:00:13:17:b9:d9:ec:b4:66:bb:51:d3:fd:81:e3:
                    0e:88:71:23:d2:80:2a:61:de:ab:25:02:47:a9:c1:
                    6b:c9:69:ae:da:47:b6:49:74:ac:a6:e1:c1:76:ba:
                    6d:b1:d9:68:6e:1c:37:a8:e2:18:60:37:b6:58:13:
                    6c:c7:92:7c:c6:45:8c:ef:c3:81:73:10:dc:2f:31:
                    e2:b9:05:5a:9e:28:70:5a:3e:1d:b8:68:71:81:c9:
                    e8:fe:1f:c3:a0:13:f8:e4:24:12:ba:91:8e:15:d2:
                    03:f1:8c:b0:aa:e2:34:e4:6b:f8:06:f6:23:8a:92:
                    43:a6:05:dc:e9:c7:a5:a8:06:d7:6e:91:52:72:47:
                    ab:ae:87:fe:b3:0f:04:87:6f:4b:22:29:e9:a9:06:
                    52:58:7d:03:16:d7:d5:31:44:b4:f1:51:44:a7:2a:
                    ba:5e:09:19:ec:4c:a2:e0:58:fe:0d:4e:b7:90:4d:
                    02:ac:2a:ad:99:14:65:3b:0a:3c:73:45:56:b2:0f:
                    10:25:24:51:79:57:1a:34:1a:10:6f:60:e0:fc:81:
                    db:ca:c2:e2:85:1b:4c:72:13:5c:9d:76:cc:d0:21:
                    33:31:56:82:8f:c5:57:b9:44:fd:8b:76:c1:b6:e4:
                    21:8b:35:9a:ee:54:74:9f:72:6b:19:84:d7:a2:3c:
                    a5:6e:11:0a:f1:93:04:2e:dd:7c:4c:7d:62:10:d4:
                    1b:8b:87:f6:ed:bf:12:b1:8b:f0:9a:7a:ee:02:94:
                    e1:3c:46:2b:7f:9c:54:fb:2e:61:c9:1c:ef:fc:de:
                    25:bc:2d:75:1b:1f:49:5e:44:3b:15:93:ad:c4:89:
                    d9:ae:3c:da:54:ef:d9:af:3a:16:cb:94:1b:6a:14:
                    e4:42:f9:75:33:46:6e:fb:40:bc:f8:82:36:cf:60:
                    f5:c2:a2:98:23:a7:2a:ae:c1:aa:22:f8:87:da:b7:
                    9c:a4:cf
                Exponent: 65537 (0x10001)
        X509v3 extensions:
            X509v3 Subject Key Identifier: 
                9D:8F:84:76:94:CD:07:FE:A3:E8:8B:D7:F9:D9:6E:EF:CA:75:51:7B
            X509v3 Authority Key Identifier: 
                keyid:9D:8F:84:76:94:CD:07:FE:A3:E8:8B:D7:F9:D9:6E:EF:CA:75:51:7B
                DirName:/C=BE/CN=txjsonrpc-test-ca
                serial:8D:D2:AF:37:F9:CA:92:0B

            X509v3 Basic Constraints: critical
                CA:TRUE
            Netscape Cert Type: 
                SSL CA, S/MIME CA
            X509v3 Issuer Alternative Name: 
                <EMPTY>

            Netscape Comment: 
                Test CA for txjsonrcp
            X509v3 Subject Alternative Name: 
                <EMPTY>

            X509v3 Key Usage: critical
                Certificate Sign, CRL Sign
    Signature Algorithm: sha1WithRSAEncryption
         06:82:86:81:a9:1b:7e:2d:ef:f5:fc:cc:d2:9d:d6:82:ad:d0:
         6f:7e:3d:b9:5c:b2:0f:3a:64:21:9a:fb:53:b2:93:81:dc:1a:
         24:fc:b8:30:57:a2:c7:71:0d:9c:1a:0b:8a:6c:89:52:8b:8a:
         f5:af:95:3e:b8:08:39:ee:36:50:ac:60:4d:df:2b:49:a2:72:
         f1:3f:12:3c:d9:55:56:a4:9a:77:2b:77:fa:16:b5:76:d9:f4:
         c4:51:6b:b9:fe:2f:a3:52:e8:64:80:49:22:6d:05:42:87:af:
         9d:85:6c:fa:c9:9b:48:39:7b:89:f5:a0:1e:ff:11:d3:9c:78:
         b1:b2:f6:4d:b1:e8:b3:98:23:2c:d4:20:e1:a1:01:3e:26:0a:
         5b:8e:eb:58:45:22:cf:e1:94:ad:84:40:b0:fb:ff:25:5f:31:
         9a:49:0b:36:ad:c6:1a:b0:42:60:40:e2:a2:3c:5a:36:41:89:
         fc:10:c4:60:ea:d4:85:7b:36:84:df:aa:81:cc:69:e7:52:ca:
         c1:46:b1:79:93:51:4f:24:84:42:14:3a:20:a0:6c:27:76:40:
         0f:96:7e:4e:c3:0c:37:b3:e3:73:49:86:58:31:00:1e:e7:0f:
         87:74:b6:4e:6e:1c:7d:87:a4:33:04:c9:76:ec:e5:3a:85:5f:
         a8:d1:ad:21:64:5e:c5:6a:df:b1:02:6e:65:a4:87:72:06:07:
         da:e5:f2:af:2b:a5:eb:18:80:67:83:a5:3c:e6:ed:d1:58:f9:
         90:5c:d6:e9:2f:76:c1:58:13:b8:bd:88:8a:f3:04:48:bb:42:
         8f:7f:c6:db:b4:30:3f:bb:6c:d5:47:e5:ae:8d:4b:da:92:a5:
         db:d3:6e:a8:9b:c2:6b:56:af:34:63:82:e6:78:f8:1f:54:d7:
         41:aa:a3:c9:7c:a6:83:41:bf:6e:33:7c:ae:e6:92:bd:da:27:
         b4:bc:e2:90:4f:33:1b:01:a1:cd:02:13:7a:31:ef:00:d6:9a:
         6e:38:6b:a7:cb:70:98:a8:0f:ff:1c:56:a8:b7:e6:d2:42:5a:
         bb:f4:78:27:71:13:d0:e8:43:eb:bc:2d:4f:e4:ea:4d:4f:76:
         7f:53:38:34:eb:13:e2:3d:c6:14:98:86:1c:ab:2c:0e:b7:68:
         2e:bd:63:a9:6a:8f:d5:22:2d:ab:13:d7:62:54:51:ff:5c:37:
         08:04:27:da:f9:57:77:05:18:73:88:5f:b0:c1:65:50:36:09:
         d6:c7:f5:ae:6e:3f:04:d1:84:3c:21:74:1d:bd:0a:fb:76:d0:
         13:2b:62:bb:24:48:43:89:d0:18:5c:b4:ad:ea:98:af:6d:fc:
         1c:6b:1f:06:64:54:23:88
-----BEGIN CERTIFICATE-----
MIIFwzCCA6ugAwIBAgIJAI3Srzf5ypILMA0GCSqGSIb3DQEBBQUAMCkxCzAJBgNV
BAYTAkJFMRowGAYDVQQDExF0eGpzb25ycGMtdGVzdC1jYTAeFw0xMjA2MjMxNTQ2
MzdaFw0yMjA2MjExNTQ2MzdaMCkxCzAJBgNVBAYTAkJFMRowGAYDVQQDExF0eGpz
b25ycGMtdGVzdC1jYTCCAiIwDQYJKoZIhvcNAQEBBQADggIPADCCAgoCggIBANEl
r3fFqHLPkLk5EPt7dSyh2mqV5UQM1iVLWH+7B4JZSVgyhSTMPnfb4adPyLXL7kU4
vbz743Y7iATKqzqjljtfk5wopmGX3KI/oJMrVmzP009qngXTHM3vdYAamLeSSRQz
uMR8c4x+g6WBolmMi6NRNm1orPLx7W9J2a96Y8FDMUK2x825eLczmHCSbJ4Eenvw
bTiH6wATF7nZ7LRmu1HT/YHjDohxI9KAKmHeqyUCR6nBa8lprtpHtkl0rKbhwXa6
bbHZaG4cN6jiGGA3tlgTbMeSfMZFjO/DgXMQ3C8x4rkFWp4ocFo+HbhocYHJ6P4f
w6AT+OQkErqRjhXSA/GMsKriNORr+Ab2I4qSQ6YF3OnHpagG126RUnJHq66H/rMP
BIdvSyIp6akGUlh9AxbX1TFEtPFRRKcqul4JGexMouBY/g1Ot5BNAqwqrZkUZTsK
PHNFVrIPECUkUXlXGjQaEG9g4PyB28rC4oUbTHITXJ12zNAhMzFWgo/FV7lE/Yt2
wbbkIYs1mu5UdJ9yaxmE16I8pW4RCvGTBC7dfEx9YhDUG4uH9u2/ErGL8Jp67gKU
4TxGK3+cVPsuYckc7/zeJbwtdRsfSV5EOxWTrcSJ2a482lTv2a86FsuUG2oU5EL5
dTNGbvtAvPiCNs9g9cKimCOnKq7BqiL4h9q3nKTPAgMBAAGjge0wgeowHQYDVR0O
BBYEFJ2PhHaUzQf+o+iL1/nZbu/KdVF7MFkGA1UdIwRSMFCAFJ2PhHaUzQf+o+iL
1/nZbu/KdVF7oS2kKzApMQswCQYDVQQGEwJCRTEaMBgGA1UEAxMRdHhqc29ucnBj
LXRlc3QtY2GCCQCN0q83+cqSCzAPBgNVHRMBAf8EBTADAQH/MBEGCWCGSAGG+EIB
AQQEAwIBBjAJBgNVHRIEAjAAMCQGCWCGSAGG+EIBDQQXFhVUZXN0IENBIGZvciB0
eGpzb25yY3AwCQYDVR0RBAIwADAOBgNVHQ8BAf8EBAMCAQYwDQYJKoZIhvcNAQEF
BQADggIBAAaChoGpG34t7/X8zNKd1oKt0G9+Pblcsg86ZCGa+1Oyk4HcGiT8uDBX
osdxDZwaC4psiVKLivWvlT64CDnuNlCsYE3fK0micvE/EjzZVVakmncrd/oWtXbZ
9MRRa7n+L6NS6GSASSJtBUKHr52FbPrJm0g5e4n1oB7/EdOceLGy9k2x6LOYIyzU
IOGhAT4mCluO61hFIs/hlK2EQLD7/yVfMZpJCzatxhqwQmBA4qI8WjZBifwQxGDq
1IV7NoTfqoHMaedSysFGsXmTUU8khEIUOiCgbCd2QA+Wfk7DDDez43NJhlgxAB7n
D4d0tk5uHH2HpDMEyXbs5TqFX6jRrSFkXsVq37ECbmWkh3IGB9rl8q8rpesYgGeD
pTzm7dFY+ZBc1ukvdsFYE7i9iIrzBEi7Qo9/xtu0MD+7bNVH5a6NS9qSpdvTbqib
wmtWrzRjguZ4+B9U10Gqo8l8poNBv24zfK7mkr3aJ7S84pBPMxsBoc0CE3ox7wDW
mm44a6fLcJioD/8cVqi35tJCWrv0eCdxE9DoQ+u8LU/k6k1Pdn9TODTrE+I9xhSY
hhyrLA63aC69Y6lqj9UiLasT12JUUf9cNwgEJ9r5V3cFGHOIX7DBZVA2CdbH9a5u
PwTRhDwhdB29Cvt20BMrYrskSEOJ0BhctK3qmK9t/BxrHwZkVCOI
-----END CERTIFICATE-----
