Certificate:
    Data:
        Version: 4 (0x3)
        Serial Number: 1 (0x1)
    Signature Algorithm: sha1WithRSAEncryption
        Issuer: C=BE, CN=txjsonrpc-test-ca
        Validity
            Not Before: Jan  1 00:00:00 1970 GMT
            Not After : Jan 19 03:14:07 2038 GMT
        Subject: CN=ca-none, C=BE, O=Gremwell bvba
        Subject Public Key Info:
            Public Key Algorithm: rsaEncryption
                Public-Key: (1024 bit)
                Modulus:
                    00:d5:17:bd:90:8f:fb:17:2f:15:72:9e:53:04:5d:
                    fa:53:a6:8c:b8:d2:49:29:c2:d1:47:10:bd:76:04:
                    45:13:ef:2f:c8:8d:b1:bc:d8:e7:2d:3f:ee:f2:b5:
                    4d:8a:e5:5d:1f:81:82:80:67:da:c4:c2:17:ba:89:
                    5f:36:9e:4e:1a:4b:cf:26:9d:f8:4a:59:cb:1e:11:
                    52:fb:4f:53:49:ac:60:e1:f5:6b:02:7b:dd:ec:db:
                    f3:a9:7c:ec:72:30:f3:0e:44:a0:f5:35:41:a8:a9:
                    24:e8:b4:89:79:29:62:be:29:c7:f8:f9:3c:b0:2a:
                    d0:67:76:e4:a2:4f:9e:0b:eb
                Exponent: 65537 (0x10001)
    Signature Algorithm: sha1WithRSAEncryption
         95:ce:c3:9e:c8:37:8d:1f:8c:46:ef:4d:bc:5a:1c:87:ba:bc:
         a8:dc:5b:7d:35:1a:41:29:24:98:69:35:7c:68:c3:0c:fe:44:
         a0:35:e3:57:15:1c:17:a4:57:af:e0:c9:e1:b3:8b:33:20:e3:
         40:eb:b5:48:f2:57:de:60:83:82:0c:9b:7f:68:62:66:48:80:
         08:b7:62:ca:4e:d3:2e:0a:08:24:ce:99:7c:54:72:ec:6a:01:
         d5:77:60:e3:87:f0:06:da:b6:b6:00:fb:55:0e:c9:88:5b:ef:
         2a:29:2c:aa:25:f7:88:20:dc:3b:27:6f:c4:0e:f1:d4:b2:6c:
         68:d8:79:a7:5e:dd:c2:17:b9:e5:a4:94:0f:06:fa:2a:e0:42:
         4d:d0:75:8b:b0:a7:78:50:70:45:76:97:e4:37:cc:79:05:6a:
         c9:e6:d5:9e:9e:2f:6d:30:5e:b3:cf:cb:7c:66:6f:b6:95:61:
         29:d3:c5:eb:70:41:db:8a:ad:66:68:fe:3a:9b:99:6c:71:31:
         d2:f0:3b:44:38:18:2d:4d:47:5c:3f:be:c8:24:22:18:35:31:
         ba:ad:db:d0:e3:9d:54:67:97:db:05:b2:9f:57:14:35:7d:40:
         0e:72:d2:8d:ac:b7:29:84:11:46:31:ee:d6:ad:ca:eb:53:89:
         5e:9c:73:9f:99:68:10:b5:4e:46:f4:a8:dd:14:87:a9:bb:09:
         5f:6b:e3:6a:d2:53:7b:62:9f:08:5f:41:39:2d:0b:b8:a1:47:
         61:2a:72:83:1d:e0:ba:20:c3:1e:de:6b:3b:99:8e:fb:62:42:
         09:26:b6:57:1b:66:c5:86:61:a6:c3:90:d4:cf:9f:b1:f4:1e:
         a7:ca:55:55:52:6b:a0:50:57:b1:40:eb:2d:29:7e:62:03:e9:
         88:e0:25:20:65:92:52:ea:70:5f:af:6f:4e:20:2d:b8:51:a9:
         67:5f:df:94:0d:45:f0:e8:32:45:e2:65:14:d0:e4:53:19:1c:
         c3:92:3b:5f:1f:f2:b4:b3:4d:d1:12:c6:6b:86:92:aa:47:65:
         3c:95:b6:c6:98:ac:fe:ff:d8:79:d3:63:c0:16:f5:d1:21:2f:
         76:e8:3b:e6:9e:87:2d:b4:d4:0a:2e:e9:1b:ef:16:56:97:20:
         3f:23:e8:e0:ad:4e:98:4a:eb:3c:35:84:11:16:03:6e:a6:e7:
         45:6f:77:2d:f5:eb:e2:a4:60:20:9b:da:7d:d7:83:ed:91:51:
         45:ea:f1:8f:cb:87:d8:d8:49:14:f8:02:89:ef:4b:89:49:85:
         85:86:fa:cc:9b:7d:f4:8f:1b:ce:d9:13:6f:48:6f:bd:d2:5a:
         7c:ed:cc:4c:2e:7c:74:4c
-----BEGIN CERTIFICATE-----
MIIDVTCCAT2gAwIBAwIBATANBgkqhkiG9w0BAQUFADApMQswCQYDVQQGEwJCRTEa
MBgGA1UEAxMRdHhqc29ucnBjLXRlc3QtY2EwHhcNNzAwMTAxMDAwMDAwWhcNMzgw
MTE5MDMxNDA3WjA3MRAwDgYDVQQDEwdjYS1ub25lMQswCQYDVQQGEwJCRTEWMBQG
A1UEChMNR3JlbXdlbGwgYnZiYTCBnzANBgkqhkiG9w0BAQEFAAOBjQAwgYkCgYEA
1Re9kI/7Fy8Vcp5TBF36U6aMuNJJKcLRRxC9dgRFE+8vyI2xvNjnLT/u8rVNiuVd
H4GCgGfaxMIXuolfNp5OGkvPJp34SlnLHhFS+09TSaxg4fVrAnvd7NvzqXzscjDz
DkSg9TVBqKkk6LSJeSlivinH+Pk8sCrQZ3bkok+eC+sCAwEAATANBgkqhkiG9w0B
AQUFAAOCAgEAlc7Dnsg3jR+MRu9NvFoch7q8qNxbfTUaQSkkmGk1fGjDDP5EoDXj
VxUcF6RXr+DJ4bOLMyDjQOu1SPJX3mCDggybf2hiZkiACLdiyk7TLgoIJM6ZfFRy
7GoB1Xdg44fwBtq2tgD7VQ7JiFvvKiksqiX3iCDcOydvxA7x1LJsaNh5p17dwhe5
5aSUDwb6KuBCTdB1i7CneFBwRXaX5DfMeQVqyebVnp4vbTBes8/LfGZvtpVhKdPF
63BB24qtZmj+OpuZbHEx0vA7RDgYLU1HXD++yCQiGDUxuq3b0OOdVGeX2wWyn1cU
NX1ADnLSjay3KYQRRjHu1q3K61OJXpxzn5loELVORvSo3RSHqbsJX2vjatJTe2Kf
CF9BOS0LuKFHYSpygx3guiDDHt5rO5mO+2JCCSa2VxtmxYZhpsOQ1M+fsfQep8pV
VVJroFBXsUDrLSl+YgPpiOAlIGWSUupwX69vTiAtuFGpZ1/flA1F8OgyReJlFNDk
Uxkcw5I7Xx/ytLNN0RLGa4aSqkdlPJW2xpis/v/YedNjwBb10SEvdug75p6HLbTU
Ci7pG+8WVpcgPyPo4K1OmErrPDWEERYDbqbnRW93LfXr4qRgIJvafdeD7ZFRRerx
j8uH2NhJFPgCie9LiUmFhYb6zJt99I8bztkTb0hvvdJafO3MTC58dEw=
-----END CERTIFICATE-----
Certificate:
    Data:
        Version: 3 (0x2)
        Serial Number: 10219423159405941259 (0x8dd2af37f9ca920b)
    Signature Algorithm: sha1WithRSAEncryption
        Issuer: C=BE, CN=txjsonrpc-test-ca
        Validity
            Not Before: Jun 23 15:46:37 2012 GMT
            Not After : Jun 21 15:46:37 2022 GMT
        Subject: C=BE, CN=txjsonrpc-test-ca
        Subject Public Key Info:
            Public Key Algorithm: rsaEncryption
                Public-Key: (4096 bit)
                Modulus:
                    00:d1:25:af:77:c5:a8:72:cf:90:b9:39:10:fb:7b:
                    75:2c:a1:da:6a:95:e5:44:0c:d6:25:4b:58:7f:bb:
                    07:82:59:49:58:32:85:24:cc:3e:77:db:e1:a7:4f:
                    c8:b5:cb:ee:45:38:bd:bc:fb:e3:76:3b:88:04:ca:
                    ab:3a:a3:96:3b:5f:93:9c:28:a6:61:97:dc:a2:3f:
                    a0:93:2b:56:6c:cf:d3:4f:6a:9e:05:d3:1c:cd:ef:
                    75:80:1a:98:b7:92:49:14:33:b8:c4:7c:73:8c:7e:
                    83:a5:81:a2:59:8c:8b:a3:51:36:6d:68:ac:f2:f1:
                    ed:6f:49:d9:af:7a:63:c1:43:31:42:b6:c7:cd:b9:
                    78:b7:33:98:70:92:6c:9e:04:7a:7b:f0:6d:38:87:
                    eb:00:13:17:b9:d9:ec:b4:66:bb:51:d3:fd:81:e3:
                    0e:88:71:23:d2:80:2a:61:de:ab:25:02:47:a9:c1:
                    6b:c9:69:ae:da:47:b6:49:74:ac:a6:e1:c1:76:ba:
                    6d:b1:d9:68:6e:1c:37:a8:e2:18:60:37:b6:58:13:
                    6c:c7:92:7c:c6:45:8c:ef:c3:81:73:10:dc:2f:31:
                    e2:b9:05:5a:9e:28:70:5a:3e:1d:b8:68:71:81:c9:
                    e8:fe:1f:c3:a0:13:f8:e4:24:12:ba:91:8e:15:d2:
                    03:f1:8c:b0:aa:e2:34:e4:6b:f8:06:f6:23:8a:92:
                    43:a6:05:dc:e9:c7:a5:a8:06:d7:6e:91:52:72:47:
                    ab:ae:87:fe:b3:0f:04:87:6f:4b:22:29:e9:a9:06:
                    52:58:7d:03:16:d7:d5:31:44:b4:f1:51:44:a7:2a:
                    ba:5e:09:19:ec:4c:a2:e0:58:fe:0d:4e:b7:90:4d:
                    02:ac:2a:ad:99:14:65:3b:0a:3c:73:45:56:b2:0f:
                    10:25:24:51:79:57:1a:34:1a:10:6f:60:e0:fc:81:
                    db:ca:c2:e2:85:1b:4c:72:13:5c:9d:76:cc:d0:21:
                    33:31:56:82:8f:c5:57:b9:44:fd:8b:76:c1:b6:e4:
                    21:8b:35:9a:ee:54:74:9f:72:6b:19:84:d7:a2:3c:
                    a5:6e:11:0a:f1:93:04:2e:dd:7c:4c:7d:62:10:d4:
                    1b:8b:87:f6:ed:bf:12:b1:8b:f0:9a:7a:ee:02:94:
                    e1:3c:46:2b:7f:9c:54:fb:2e:61:c9:1c:ef:fc:de:
                    25:bc:2d:75:1b:1f:49:5e:44:3b:15:93:ad:c4:89:
                    d9:ae:3c:da:54:ef:d9:af:3a:16:cb:94:1b:6a:14:
                    e4:42:f9:75:33:46:6e:fb:40:bc:f8:82:36:cf:60:
                    f5:c2:a2:98:23:a7:2a:ae:c1:aa:22:f8:87:da:b7:
                    9c:a4:cf
                Exponent: 65537 (0x10001)
        X509v3 extensions:
            X509v3 Subject Key Identifier: 
                9D:8F:84:76:94:CD:07:FE:A3:E8:8B:D7:F9:D9:6E:EF:CA:75:51:7B
            X509v3 Authority Key Identifier: 
                keyid:9D:8F:84:76:94:CD:07:FE:A3:E8:8B:D7:F9:D9:6E:EF:CA:75:51:7B
                DirName:/C=BE/CN=txjsonrpc-test-ca
                serial:8D:D2:AF:37:F9:CA:92:0B

            X509v3 Basic Constraints: critical
                CA:TRUE
            Netscape Cert Type: 
                SSL CA, S/MIME CA
            X509v3 Issuer Alternative Name: 
                <EMPTY>

            Netscape Comment: 
                Test CA for txjsonrcp
            X509v3 Subject Alternative Name: 
                <EMPTY>

            X509v3 Key Usage: critical
                Certificate Sign, CRL Sign
    Signature Algorithm: sha1WithRSAEncryption
         06:82:86:81:a9:1b:7e:2d:ef:f5:fc:cc:d2:9d:d6:82:ad:d0:
         6f:7e:3d:b9:5c:b2:0f:3a:64:21:9a:fb:53:b2:93:81:dc:1a:
         24:fc:b8:30:57:a2:c7:71:0d:9c:1a:0b:8a:6c:89:52:8b:8a:
         f5:af:95:3e:b8:08:39:ee:36:50:ac:60:4d:df:2b:49:a2:72:
         f1:3f:12:3c:d9:55:56:a4:9a:77:2b:77:fa:16:b5:76:d9:f4:
         c4:51:6b:b9:fe:2f:a3:52:e8:64:80:49:22:6d:05:42:87:af:
         9d:85:6c:fa:c9:9b:48:39:7b:89:f5:a0:1e:ff:11:d3:9c:78:
         b1:b2:f6:4d:b1:e8:b3:98:23:2c:d4:20:e1:a1:01:3e:26:0a:
         5b:8e:eb:58:45:22:cf:e1:94:ad:84:40:b0:fb:ff:25:5f:31:
         9a:49:0b:36:ad:c6:1a:b0:42:60:40:e2:a2:3c:5a:36:41:89:
         fc:10:c4:60:ea:d4:85:7b:36:84:df:aa:81:cc:69:e7:52:ca:
         c1:46:b1:79:93:51:4f:24:84:42:14:3a:20:a0:6c:27:76:40:
         0f:96:7e:4e:c3:0c:37:b3:e3:73:49:86:58:31:00:1e:e7:0f:
         87:74:b6:4e:6e:1c:7d:87:a4:33:04:c9:76:ec:e5:3a:85:5f:
         a8:d1:ad:21:64:5e:c5:6a:df:b1:02:6e:65:a4:87:72:06:07:
         da:e5:f2:af:2b:a5:eb:18:80:67:83:a5:3c:e6:ed:d1:58:f9:
         90:5c:d6:e9:2f:76:c1:58:13:b8:bd:88:8a:f3:04:48:bb:42:
         8f:7f:c6:db:b4:30:3f:bb:6c:d5:47:e5:ae:8d:4b:da:92:a5:
         db:d3:6e:a8:9b:c2:6b:56:af:34:63:82:e6:78:f8:1f:54:d7:
         41:aa:a3:c9:7c:a6:83:41:bf:6e:33:7c:ae:e6:92:bd:da:27:
         b4:bc:e2:90:4f:33:1b:01:a1:cd:02:13:7a:31:ef:00:d6:9a:
         6e:38:6b:a7:cb:70:98:a8:0f:ff:1c:56:a8:b7:e6:d2:42:5a:
         bb:f4:78:27:71:13:d0:e8:43:eb:bc:2d:4f:e4:ea:4d:4f:76:
         7f:53:38:34:eb:13:e2:3d:c6:14:98:86:1c:ab:2c:0e:b7:68:
         2e:bd:63:a9:6a:8f:d5:22:2d:ab:13:d7:62:54:51:ff:5c:37:
         08:04:27:da:f9:57:77:05:18:73:88:5f:b0:c1:65:50:36:09:
         d6:c7:f5:ae:6e:3f:04:d1:84:3c:21:74:1d:bd:0a:fb:76:d0:
         13:2b:62:bb:24:48:43:89:d0:18:5c:b4:ad:ea:98:af:6d:fc:
         1c:6b:1f:06:64:54:23:88
-----BEGIN CERTIFICATE-----
MIIFwzCCA6ugAwIBAgIJAI3Srzf5ypILMA0GCSqGSIb3DQEBBQUAMCkxCzAJBgNV
BAYTAkJFMRowGAYDVQQDExF0eGpzb25ycGMtdGVzdC1jYTAeFw0xMjA2MjMxNTQ2
MzdaFw0yMjA2MjExNTQ2MzdaMCkxCzAJBgNVBAYTAkJFMRowGAYDVQQDExF0eGpz
b25ycGMtdGVzdC1jYTCCAiIwDQYJKoZIhvcNAQEBBQADggIPADCCAgoCggIBANEl
r3fFqHLPkLk5EPt7dSyh2mqV5UQM1iVLWH+7B4JZSVgyhSTMPnfb4adPyLXL7kU4
vbz743Y7iATKqzqjljtfk5wopmGX3KI/oJMrVmzP009qngXTHM3vdYAamLeSSRQz
uMR8c4x+g6WBolmMi6NRNm1orPLx7W9J2a96Y8FDMUK2x825eLczmHCSbJ4Eenvw
bTiH6wATF7nZ7LRmu1HT/YHjDohxI9KAKmHeqyUCR6nBa8lprtpHtkl0rKbhwXa6
bbHZaG4cN6jiGGA3tlgTbMeSfMZFjO/DgXMQ3C8x4rkFWp4ocFo+HbhocYHJ6P4f
w6AT+OQkErqRjhXSA/GMsKriNORr+Ab2I4qSQ6YF3OnHpagG126RUnJHq66H/rMP
BIdvSyIp6akGUlh9AxbX1TFEtPFRRKcqul4JGexMouBY/g1Ot5BNAqwqrZkUZTsK
PHNFVrIPECUkUXlXGjQaEG9g4PyB28rC4oUbTHITXJ12zNAhMzFWgo/FV7lE/Yt2
wbbkIYs1mu5UdJ9yaxmE16I8pW4RCvGTBC7dfEx9YhDUG4uH9u2/ErGL8Jp67gKU
4TxGK3+cVPsuYckc7/zeJbwtdRsfSV5EOxWTrcSJ2a482lTv2a86FsuUG2oU5EL5
dTNGbvtAvPiCNs9g9cKimCOnKq7BqiL4h9q3nKTPAgMBAAGjge0wgeowHQYDVR0O
BBYEFJ2PhHaUzQf+o+iL1/nZbu/KdVF7MFkGA1UdIwRSMFCAFJ2PhHaUzQf+o+iL
1/nZbu/KdVF7oS2kKzApMQswCQYDVQQGEwJCRTEaMBgGA1UEAxMRdHhqc29ucnBj
LXRlc3QtY2GCCQCN0q83+cqSCzAPBgNVHRMBAf8EBTADAQH/MBEGCWCGSAGG+EIB
AQQEAwIBBjAJBgNVHRIEAjAAMCQGCWCGSAGG+EIBDQQXFhVUZXN0IENBIGZvciB0
eGpzb25yY3AwCQYDVR0RBAIwADAOBgNVHQ8BAf8EBAMCAQYwDQYJKoZIhvcNAQEF
BQADggIBAAaChoGpG34t7/X8zNKd1oKt0G9+Pblcsg86ZCGa+1Oyk4HcGiT8uDBX
osdxDZwaC4psiVKLivWvlT64CDnuNlCsYE3fK0micvE/EjzZVVakmncrd/oWtXbZ
9MRRa7n+L6NS6GSASSJtBUKHr52FbPrJm0g5e4n1oB7/EdOceLGy9k2x6LOYIyzU
IOGhAT4mCluO61hFIs/hlK2EQLD7/yVfMZpJCzatxhqwQmBA4qI8WjZBifwQxGDq
1IV7NoTfqoHMaedSysFGsXmTUU8khEIUOiCgbCd2QA+Wfk7DDDez43NJhlgxAB7n
D4d0tk5uHH2HpDMEyXbs5TqFX6jRrSFkXsVq37ECbmWkh3IGB9rl8q8rpesYgGeD
pTzm7dFY+ZBc1ukvdsFYE7i9iIrzBEi7Qo9/xtu0MD+7bNVH5a6NS9qSpdvTbqib
wmtWrzRjguZ4+B9U10Gqo8l8poNBv24zfK7mkr3aJ7S84pBPMxsBoc0CE3ox7wDW
mm44a6fLcJioD/8cVqi35tJCWrv0eCdxE9DoQ+u8LU/k6k1Pdn9TODTrE+I9xhSY
hhyrLA63aC69Y6lqj9UiLasT12JUUf9cNwgEJ9r5V3cFGHOIX7DBZVA2CdbH9a5u
PwTRhDwhdB29Cvt20BMrYrskSEOJ0BhctK3qmK9t/BxrHwZkVCOI
-----END CERTIFICATE-----
