Certificate:
    Data:
        Version: 4 (0x3)
        Serial Number: 1 (0x1)
    Signature Algorithm: sha1WithRSAEncryption
        Issuer: CN=www.example.com, C=BE, O=Gremwell bvba
        Validity
            Not Before: Jan  1 00:00:00 1970 GMT
            Not After : Jan 19 03:14:07 2038 GMT
        Subject: CN=www.example.com, C=BE, O=Gremwell bvba
        Subject Public Key Info:
            Public Key Algorithm: rsaEncryption
                Public-Key: (1024 bit)
                Modulus:
                    00:a7:85:f3:a5:1a:ca:0f:ca:51:11:c7:d4:85:ad:
                    e5:9c:ea:2f:11:93:fd:cd:82:f3:18:69:18:92:62:
                    93:b8:bb:75:6a:0c:52:2c:32:20:14:83:a9:54:42:
                    64:60:7d:79:e3:d2:0f:9d:63:0c:34:ff:b2:51:a3:
                    15:1e:00:bf:1c:1d:81:05:b4:bb:79:6e:35:1d:11:
                    39:f0:97:01:cd:b5:ff:b5:af:50:2a:16:a7:a8:5d:
                    44:ae:a5:db:36:ea:f9:32:56:8f:fd:f0:89:06:14:
                    00:9d:0a:d4:41:fc:f5:d6:4d:ff:6b:ce:e5:a5:18:
                    d1:53:bd:a8:eb:7a:54:9f:a1
                Exponent: 65537 (0x10001)
    Signature Algorithm: sha1WithRSAEncryption
         12:a8:95:4e:b9:98:1d:42:91:e9:77:4f:af:45:5f:b4:0c:77:
         ac:0c:d7:23:9b:81:23:6d:71:94:53:13:5a:3a:a8:2b:fc:93:
         bd:c1:fb:5d:48:a7:d1:1a:c1:77:6d:5c:4e:e5:04:4a:32:c2:
         d3:32:5b:82:38:3e:87:fb:bc:ad:72:ee:b6:51:a0:19:ed:1c:
         d5:89:5f:7b:0b:a4:ca:a4:eb:cb:95:c0:e5:4b:a7:dd:c1:18:
         e2:4c:2b:7b:97:99:bb:a2:e2:98:7d:12:1f:46:72:fb:0f:01:
         29:3e:c1:bc:2e:c7:c4:f6:3a:d5:57:73:83:8a:5d:62:bb:23:
         1a:00
-----BEGIN CERTIFICATE-----
MIIB8jCCAVugAwIBAwIBATANBgkqhkiG9w0BAQUFADA/MRgwFgYDVQQDEw93d3cu
ZXhhbXBsZS5jb20xCzAJBgNVBAYTAkJFMRYwFAYDVQQKEw1HcmVtd2VsbCBidmJh
MB4XDTcwMDEwMTAwMDAwMFoXDTM4MDExOTAzMTQwN1owPzEYMBYGA1UEAxMPd3d3
LmV4YW1wbGUuY29tMQswCQYDVQQGEwJCRTEWMBQGA1UEChMNR3JlbXdlbGwgYnZi
YTCBnzANBgkqhkiG9w0BAQEFAAOBjQAwgYkCgYEAp4XzpRrKD8pREcfUha3lnOov
EZP9zYLzGGkYkmKTuLt1agxSLDIgFIOpVEJkYH1549IPnWMMNP+yUaMVHgC/HB2B
BbS7eW41HRE58JcBzbX/ta9QKhanqF1ErqXbNur5MlaP/fCJBhQAnQrUQfz11k3/
a87lpRjRU72o63pUn6ECAwEAATANBgkqhkiG9w0BAQUFAAOBgQASqJVOuZgdQpHp
d0+vRV+0DHesDNcjm4EjbXGUUxNaOqgr/JO9wftdSKfRGsF3bVxO5QRKMsLTMluC
OD6H+7ytcu62UaAZ7RzViV97C6TKpOvLlcDlS6fdwRjiTCt7l5m7ouKYfRIfRnL7
DwEpPsG8LsfE9jrVV3ODil1iuyMaAA==
-----END CERTIFICATE-----
