Certificate:
    Data:
        Version: 4 (0x3)
        Serial Number: 1 (0x1)
    Signature Algorithm: sha1WithRSAEncryption
        Issuer: CN=ca-none, C=BE, O=Gremwell bvba
        Validity
            Not Before: Jan  1 00:00:00 1970 GMT
            Not After : Jan 19 03:14:07 2038 GMT
        Subject: CN=www.example.com, C=BE, O=Gremwell bvba
        Subject Public Key Info:
            Public Key Algorithm: rsaEncryption
                Public-Key: (1024 bit)
                Modulus:
                    00:a7:85:f3:a5:1a:ca:0f:ca:51:11:c7:d4:85:ad:
                    e5:9c:ea:2f:11:93:fd:cd:82:f3:18:69:18:92:62:
                    93:b8:bb:75:6a:0c:52:2c:32:20:14:83:a9:54:42:
                    64:60:7d:79:e3:d2:0f:9d:63:0c:34:ff:b2:51:a3:
                    15:1e:00:bf:1c:1d:81:05:b4:bb:79:6e:35:1d:11:
                    39:f0:97:01:cd:b5:ff:b5:af:50:2a:16:a7:a8:5d:
                    44:ae:a5:db:36:ea:f9:32:56:8f:fd:f0:89:06:14:
                    00:9d:0a:d4:41:fc:f5:d6:4d:ff:6b:ce:e5:a5:18:
                    d1:53:bd:a8:eb:7a:54:9f:a1
                Exponent: 65537 (0x10001)
    Signature Algorithm: sha1WithRSAEncryption
         c8:3b:8d:e9:ba:6d:ef:e1:98:8f:a2:71:44:b3:5a:d9:38:98:
         4c:f3:45:bf:35:57:d2:9e:62:c7:4d:ed:7b:1c:2c:68:88:53:
         79:56:6c:3a:13:b5:81:e2:a8:6d:0c:7d:d2:53:f8:57:81:38:
         09:94:4c:66:d6:5d:d9:56:ab:1c:af:ff:6e:b5:c0:d9:7e:81:
         8c:7d:32:0d:93:6c:1c:a0:6b:a4:9e:9d:19:19:75:3b:89:dc:
         09:f9:82:7a:72:16:5e:4a:cd:3a:0a:5f:bb:f1:b6:cc:b1:63:
         95:e6:53:a1:37:f8:ee:85:8a:0b:4d:4e:7b:b0:2d:ad:b3:f3:
         07:cb
-----BEGIN CERTIFICATE-----
MIIB6jCCAVOgAwIBAwIBATANBgkqhkiG9w0BAQUFADA3MRAwDgYDVQQDEwdjYS1u
b25lMQswCQYDVQQGEwJCRTEWMBQGA1UEChMNR3JlbXdlbGwgYnZiYTAeFw03MDAx
MDEwMDAwMDBaFw0zODAxMTkwMzE0MDdaMD8xGDAWBgNVBAMTD3d3dy5leGFtcGxl
LmNvbTELMAkGA1UEBhMCQkUxFjAUBgNVBAoTDUdyZW13ZWxsIGJ2YmEwgZ8wDQYJ
KoZIhvcNAQEBBQADgY0AMIGJAoGBAKeF86Uayg/KURHH1IWt5ZzqLxGT/c2C8xhp
GJJik7i7dWoMUiwyIBSDqVRCZGB9eePSD51jDDT/slGjFR4AvxwdgQW0u3luNR0R
OfCXAc21/7WvUCoWp6hdRK6l2zbq+TJWj/3wiQYUAJ0K1EH89dZN/2vO5aUY0VO9
qOt6VJ+hAgMBAAEwDQYJKoZIhvcNAQEFBQADgYEAyDuN6bpt7+GYj6JxRLNa2TiY
TPNFvzVX0p5ix03texwsaIhTeVZsOhO1geKobQx90lP4V4E4CZRMZtZd2VarHK//
brXA2X6BjH0yDZNsHKBrpJ6dGRl1O4ncCfmCenIWXkrNOgpfu/G2zLFjleZToTf4
7oWKC01Oe7AtrbPzB8s=
-----END CERTIFICATE-----
Certificate:
    Data:
        Version: 4 (0x3)
        Serial Number: 1 (0x1)
    Signature Algorithm: sha1WithRSAEncryption
        Issuer: C=BE, CN=txjsonrpc-test-ca
        Validity
            Not Before: Jan  1 00:00:00 1970 GMT
            Not After : Jan 19 03:14:07 2038 GMT
        Subject: CN=ca-none, C=BE, O=Gremwell bvba
        Subject Public Key Info:
            Public Key Algorithm: rsaEncryption
                Public-Key: (1024 bit)
                Modulus:
                    00:d5:17:bd:90:8f:fb:17:2f:15:72:9e:53:04:5d:
                    fa:53:a6:8c:b8:d2:49:29:c2:d1:47:10:bd:76:04:
                    45:13:ef:2f:c8:8d:b1:bc:d8:e7:2d:3f:ee:f2:b5:
                    4d:8a:e5:5d:1f:81:82:80:67:da:c4:c2:17:ba:89:
                    5f:36:9e:4e:1a:4b:cf:26:9d:f8:4a:59:cb:1e:11:
                    52:fb:4f:53:49:ac:60:e1:f5:6b:02:7b:dd:ec:db:
                    f3:a9:7c:ec:72:30:f3:0e:44:a0:f5:35:41:a8:a9:
                    24:e8:b4:89:79:29:62:be:29:c7:f8:f9:3c:b0:2a:
                    d0:67:76:e4:a2:4f:9e:0b:eb
                Exponent: 65537 (0x10001)
    Signature Algorithm: sha1WithRSAEncryption
         95:ce:c3:9e:c8:37:8d:1f:8c:46:ef:4d:bc:5a:1c:87:ba:bc:
         a8:dc:5b:7d:35:1a:41:29:24:98:69:35:7c:68:c3:0c:fe:44:
         a0:35:e3:57:15:1c:17:a4:57:af:e0:c9:e1:b3:8b:33:20:e3:
         40:eb:b5:48:f2:57:de:60:83:82:0c:9b:7f:68:62:66:48:80:
         08:b7:62:ca:4e:d3:2e:0a:08:24:ce:99:7c:54:72:ec:6a:01:
         d5:77:60:e3:87:f0:06:da:b6:b6:00:fb:55:0e:c9:88:5b:ef:
         2a:29:2c:aa:25:f7:88:20:dc:3b:27:6f:c4:0e:f1:d4:b2:6c:
         68:d8:79:a7:5e:dd:c2:17:b9:e5:a4:94:0f:06:fa:2a:e0:42:
         4d:d0:75:8b:b0:a7:78:50:70:45:76:97:e4:37:cc:79:05:6a:
         c9:e6:d5:9e:9e:2f:6d:30:5e:b3:cf:cb:7c:66:6f:b6:95:61:
         29:d3:c5:eb:70:41:db:8a:ad:66:68:fe:3a:9b:99:6c:71:31:
         d2:f0:3b:44:38:18:2d:4d:47:5c:3f:be:c8:24:22:18:35:31:
         ba:ad:db:d0:e3:9d:54:67:97:db:05:b2:9f:57:14:35:7d:40:
         0e:72:d2:8d:ac:b7:29:84:11:46:31:ee:d6:ad:ca:eb:53:89:
         5e:9c:73:9f:99:68:10:b5:4e:46:f4:a8:dd:14:87:a9:bb:09:
         5f:6b:e3:6a:d2:53:7b:62:9f:08:5f:41:39:2d:0b:b8:a1:47:
         61:2a:72:83:1d:e0:ba:20:c3:1e:de:6b:3b:99:8e:fb:62:42:
         09:26:b6:57:1b:66:c5:86:61:a6:c3:90:d4:cf:9f:b1:f4:1e:
         a7:ca:55:55:52:6b:a0:50:57:b1:40:eb:2d:29:7e:62:03:e9:
         88:e0:25:20:65:92:52:ea:70:5f:af:6f:4e:20:2d:b8:51:a9:
         67:5f:df:94:0d:45:f0:e8:32:45:e2:65:14:d0:e4:53:19:1c:
         c3:92:3b:5f:1f:f2:b4:b3:4d:d1:12:c6:6b:86:92:aa:47:65:
         3c:95:b6:c6:98:ac:fe:ff:d8:79:d3:63:c0:16:f5:d1:21:2f:
         76:e8:3b:e6:9e:87:2d:b4:d4:0a:2e:e9:1b:ef:16:56:97:20:
         3f:23:e8:e0:ad:4e:98:4a:eb:3c:35:84:11:16:03:6e:a6:e7:
         45:6f:77:2d:f5:eb:e2:a4:60:20:9b:da:7d:d7:83:ed:91:51:
         45:ea:f1:8f:cb:87:d8:d8:49:14:f8:02:89:ef:4b:89:49:85:
         85:86:fa:cc:9b:7d:f4:8f:1b:ce:d9:13:6f:48:6f:bd:d2:5a:
         7c:ed:cc:4c:2e:7c:74:4c
-----BEGIN CERTIFICATE-----
MIIDVTCCAT2gAwIBAwIBATANBgkqhkiG9w0BAQUFADApMQswCQYDVQQGEwJCRTEa
MBgGA1UEAxMRdHhqc29ucnBjLXRlc3QtY2EwHhcNNzAwMTAxMDAwMDAwWhcNMzgw
MTE5MDMxNDA3WjA3MRAwDgYDVQQDEwdjYS1ub25lMQswCQYDVQQGEwJCRTEWMBQG
A1UEChMNR3JlbXdlbGwgYnZiYTCBnzANBgkqhkiG9w0BAQEFAAOBjQAwgYkCgYEA
1Re9kI/7Fy8Vcp5TBF36U6aMuNJJKcLRRxC9dgRFE+8vyI2xvNjnLT/u8rVNiuVd
H4GCgGfaxMIXuolfNp5OGkvPJp34SlnLHhFS+09TSaxg4fVrAnvd7NvzqXzscjDz
DkSg9TVBqKkk6LSJeSlivinH+Pk8sCrQZ3bkok+eC+sCAwEAATANBgkqhkiG9w0B
AQUFAAOCAgEAlc7Dnsg3jR+MRu9NvFoch7q8qNxbfTUaQSkkmGk1fGjDDP5EoDXj
VxUcF6RXr+DJ4bOLMyDjQOu1SPJX3mCDggybf2hiZkiACLdiyk7TLgoIJM6ZfFRy
7GoB1Xdg44fwBtq2tgD7VQ7JiFvvKiksqiX3iCDcOydvxA7x1LJsaNh5p17dwhe5
5aSUDwb6KuBCTdB1i7CneFBwRXaX5DfMeQVqyebVnp4vbTBes8/LfGZvtpVhKdPF
63BB24qtZmj+OpuZbHEx0vA7RDgYLU1HXD++yCQiGDUxuq3b0OOdVGeX2wWyn1cU
NX1ADnLSjay3KYQRRjHu1q3K61OJXpxzn5loELVORvSo3RSHqbsJX2vjatJTe2Kf
CF9BOS0LuKFHYSpygx3guiDDHt5rO5mO+2JCCSa2VxtmxYZhpsOQ1M+fsfQep8pV
VVJroFBXsUDrLSl+YgPpiOAlIGWSUupwX69vTiAtuFGpZ1/flA1F8OgyReJlFNDk
Uxkcw5I7Xx/ytLNN0RLGa4aSqkdlPJW2xpis/v/YedNjwBb10SEvdug75p6HLbTU
Ci7pG+8WVpcgPyPo4K1OmErrPDWEERYDbqbnRW93LfXr4qRgIJvafdeD7ZFRRerx
j8uH2NhJFPgCie9LiUmFhYb6zJt99I8bztkTb0hvvdJafO3MTC58dEw=
-----END CERTIFICATE-----
