Certificate:
    Data:
        Version: 3 (0x2)
        Serial Number: 1 (0x1)
    Signature Algorithm: sha1WithRSAEncryption
        Issuer: CN=ca-true, C=BE, O=Gremwell bvba
        Validity
            Not Before: Jun 23 15:47:38 2012 GMT
            Not After : Jun 23 15:47:38 2013 GMT
        Subject: C=BE, CN=txjsonrpc-pyserver
        Subject Public Key Info:
            Public Key Algorithm: rsaEncryption
                Public-Key: (4096 bit)
                Modulus:
                    00:97:0a:b1:ca:cb:50:6b:25:e0:cb:4e:4e:f0:40:
                    92:e6:0a:df:a2:0d:e8:eb:bc:b0:d6:5f:0a:56:42:
                    e6:b4:0a:20:63:1a:b3:4d:61:41:2f:1d:c7:aa:bb:
                    22:a1:9f:ea:64:5a:35:91:c3:9c:42:d8:40:21:a4:
                    aa:4d:a3:4c:a3:52:f9:76:59:60:f3:6e:11:36:cd:
                    a9:9a:9f:db:7f:03:5c:76:c5:1f:87:74:40:4e:e5:
                    fd:1a:47:c0:62:84:fd:03:65:5c:8f:f7:39:69:9c:
                    b1:dc:f7:2d:fe:e6:d8:eb:22:9e:cf:02:1a:e6:e1:
                    28:9b:7e:47:23:91:a3:e2:41:e3:de:ce:4d:91:43:
                    ee:c2:c6:0a:a9:d8:47:8e:b7:cf:9b:d1:ee:a0:68:
                    a2:20:ed:f3:6b:8d:5e:ef:f5:a3:42:29:bb:7b:a3:
                    cf:11:6f:c0:f5:36:c9:38:0d:6e:8d:4e:81:d4:c4:
                    60:30:3c:29:ed:44:9a:6f:0f:61:5c:18:74:68:d2:
                    8e:5d:ec:4e:14:18:d2:f5:f1:08:60:c3:c8:13:36:
                    78:73:3e:44:e3:58:3d:68:57:c3:17:73:4f:45:46:
                    66:5c:a9:81:ad:be:48:e1:14:1e:97:56:8a:64:07:
                    a7:89:f6:21:24:b4:f0:69:45:ed:b6:e5:09:01:03:
                    94:fb:5f:d2:81:37:dd:64:88:a7:fc:8d:ca:33:fc:
                    c1:1e:ac:13:5e:21:93:85:5d:99:cc:85:d9:34:1e:
                    1d:30:57:d9:2b:03:cd:69:74:67:46:57:e4:fc:1c:
                    43:84:a7:ea:91:d0:df:4c:c0:15:08:4a:a6:fd:93:
                    49:b1:2d:27:ed:f1:4e:05:50:b9:3d:75:f9:a4:73:
                    70:4a:cb:34:f6:bb:ea:57:6f:c6:08:53:4b:70:ab:
                    76:b0:92:37:ee:d0:0f:31:9b:7c:53:8d:bc:1d:b9:
                    48:dc:e9:d2:52:23:07:cf:45:b0:f8:10:d5:e4:c9:
                    6a:6d:9a:fc:59:07:f7:6a:00:9a:27:0b:8e:8c:fc:
                    42:3e:66:a1:51:21:ab:0d:46:5c:fe:f2:65:4f:78:
                    09:46:cb:54:0c:11:e0:3b:27:83:c1:cf:9c:61:f2:
                    ce:7e:d4:69:76:8f:8d:c3:46:b3:9f:48:90:cc:de:
                    4c:cc:73:d9:cb:be:be:9f:bf:a0:64:6d:7d:b9:d9:
                    88:21:ab:cc:77:09:4a:f9:e5:89:4b:c6:6d:c2:e6:
                    cc:20:d0:c3:6e:f6:6a:35:55:f4:bc:5c:ab:7a:99:
                    49:48:28:a3:74:b9:9b:56:ed:9b:8d:5b:73:f8:0d:
                    b5:b8:52:cb:eb:c1:43:04:58:9d:bd:6f:48:8d:cd:
                    9d:f4:11
                Exponent: 65537 (0x10001)
        X509v3 extensions:
            X509v3 Basic Constraints: 
                CA:FALSE
            Netscape Cert Type: 
                SSL Server
            Netscape Comment: 
                TinyCA Generated Certificate
            X509v3 Subject Key Identifier: 
                26:8C:A5:F9:A6:4A:FE:4C:E8:0F:04:33:7E:04:26:28:BF:4C:92:F3
            X509v3 Authority Key Identifier: 
                keyid:9D:8F:84:76:94:CD:07:FE:A3:E8:8B:D7:F9:D9:6E:EF:CA:75:51:7B
                DirName:/C=BE/CN=txjsonrpc-test-ca
                serial:8D:D2:AF:37:F9:CA:92:0B

            X509v3 Issuer Alternative Name: 
                <EMPTY>

            X509v3 Subject Alternative Name: 
                <EMPTY>

    Signature Algorithm: sha1WithRSAEncryption
         8e:4c:3d:5f:d0:e2:ae:d3:f9:64:dc:e2:3f:dc:fb:ea:9f:29:
         50:96:b6:ae:b3:38:0e:15:07:b1:31:ea:61:f5:dc:6f:b4:c6:
         bd:25:0c:c1:b2:06:bf:76:ca:a5:c5:0e:c4:c7:c9:71:92:7e:
         63:b7:5a:f6:14:19:ec:0f:2d:8e:57:97:cd:96:93:c5:86:64:
         e7:ad:16:ee:a0:4d:2c:81:1c:28:24:88:08:4c:9b:c6:84:b0:
         0a:36:87:03:bd:51:f7:63:8a:c1:66:41:6a:e0:a5:f7:b6:a3:
         3b:a3:ab:94:04:9e:f4:97:24:ee:ef:d4:0d:44:76:0c:fb:5e:
         08:27
-----BEGIN CERTIFICATE-----
MIIEOjCCA6OgAwIBAgIBATANBgkqhkiG9w0BAQUFADA3MRAwDgYDVQQDEwdjYS10
cnVlMQswCQYDVQQGEwJCRTEWMBQGA1UEChMNR3JlbXdlbGwgYnZiYTAeFw0xMjA2
MjMxNTQ3MzhaFw0xMzA2MjMxNTQ3MzhaMCoxCzAJBgNVBAYTAkJFMRswGQYDVQQD
ExJ0eGpzb25ycGMtcHlzZXJ2ZXIwggIiMA0GCSqGSIb3DQEBAQUAA4ICDwAwggIK
AoICAQCXCrHKy1BrJeDLTk7wQJLmCt+iDejrvLDWXwpWQua0CiBjGrNNYUEvHceq
uyKhn+pkWjWRw5xC2EAhpKpNo0yjUvl2WWDzbhE2zaman9t/A1x2xR+HdEBO5f0a
R8BihP0DZVyP9zlpnLHc9y3+5tjrIp7PAhrm4SibfkcjkaPiQePezk2RQ+7Cxgqp
2EeOt8+b0e6gaKIg7fNrjV7v9aNCKbt7o88Rb8D1Nsk4DW6NToHUxGAwPCntRJpv
D2FcGHRo0o5d7E4UGNL18Qhgw8gTNnhzPkTjWD1oV8MXc09FRmZcqYGtvkjhFB6X
VopkB6eJ9iEktPBpRe225QkBA5T7X9KBN91kiKf8jcoz/MEerBNeIZOFXZnMhdk0
Hh0wV9krA81pdGdGV+T8HEOEp+qR0N9MwBUISqb9k0mxLSft8U4FULk9dfmkc3BK
yzT2u+pXb8YIU0twq3awkjfu0A8xm3xTjbwduUjc6dJSIwfPRbD4ENXkyWptmvxZ
B/dqAJonC46M/EI+ZqFRIasNRlz+8mVPeAlGy1QMEeA7J4PBz5xh8s5+1Gl2j43D
RrOfSJDM3kzMc9nLvr6fv6BkbX252Yghq8x3CUr55YlLxm3C5swg0MNu9mo1VfS8
XKt6mUlIKKN0uZtW7ZuNW3P4DbW4UsvrwUMEWJ29b0iNzZ30EQIDAQABo4HeMIHb
MAkGA1UdEwQCMAAwEQYJYIZIAYb4QgEBBAQDAgZAMCsGCWCGSAGG+EIBDQQeFhxU
aW55Q0EgR2VuZXJhdGVkIENlcnRpZmljYXRlMB0GA1UdDgQWBBQmjKX5pkr+TOgP
BDN+BCYov0yS8zBZBgNVHSMEUjBQgBSdj4R2lM0H/qPoi9f52W7vynVRe6EtpCsw
KTELMAkGA1UEBhMCQkUxGjAYBgNVBAMTEXR4anNvbnJwYy10ZXN0LWNhggkAjdKv
N/nKkgswCQYDVR0SBAIwADAJBgNVHREEAjAAMA0GCSqGSIb3DQEBBQUAA4GBAI5M
PV/Q4q7T+WTc4j/c++qfKVCWtq6zOA4VB7Ex6mH13G+0xr0lDMGyBr92yqXFDsTH
yXGSfmO3WvYUGewPLY5Xl82Wk8WGZOetFu6gTSyBHCgkiAhMm8aEsAo2hwO9Ufdj
isFmQWrgpfe2ozujq5QEnvSXJO7v1A1Edgz7Xggn
-----END CERTIFICATE-----
Certificate:
    Data:
        Version: 4 (0x3)
        Serial Number: 1 (0x1)
    Signature Algorithm: sha1WithRSAEncryption
        Issuer: C=BE, CN=txjsonrpc-test-ca
        Validity
            Not Before: Jan  1 00:00:00 1970 GMT
            Not After : Jan 19 03:14:07 2038 GMT
        Subject: CN=ca-true, C=BE, O=Gremwell bvba
        Subject Public Key Info:
            Public Key Algorithm: rsaEncryption
                Public-Key: (1024 bit)
                Modulus:
                    00:c2:da:9f:0c:27:47:58:72:93:1c:72:85:31:6c:
                    57:e6:f7:9e:af:cb:42:72:2b:e0:23:4d:2a:69:d4:
                    bf:57:d6:24:89:70:dc:15:6b:48:3d:37:0d:de:02:
                    2e:cf:a0:ce:53:f1:16:d2:02:ca:e4:e7:f6:d7:10:
                    8a:21:ee:60:76:6f:ae:24:5d:f9:3e:fd:de:5a:96:
                    40:32:ef:9c:01:da:f3:5e:62:98:70:cf:e4:fb:10:
                    0b:9f:99:83:89:a5:db:0a:6d:81:11:d0:40:74:67:
                    1b:aa:8f:3b:34:fb:de:d3:f6:f8:b8:61:55:f7:6a:
                    ef:d2:86:34:6a:6a:cb:3a:5f
                Exponent: 65537 (0x10001)
        X509v3 extensions:
            X509v3 Basic Constraints: critical
                CA:TRUE
    Signature Algorithm: sha1WithRSAEncryption
         4b:43:8e:d7:29:b7:0e:72:bd:a9:78:91:44:7e:e6:db:ac:c6:
         8e:7e:21:6f:1f:e7:d5:85:cc:8a:07:dc:cf:35:02:34:1a:f8:
         2f:07:39:73:6e:e9:93:41:3f:83:06:80:4c:7b:4b:cc:96:7a:
         e3:9c:ba:00:82:f3:25:5c:f9:06:e9:64:41:1b:9d:59:99:62:
         85:56:0b:e1:a7:17:86:ea:9b:43:61:a9:ed:ea:1e:ac:e9:6c:
         59:4a:32:4f:51:eb:96:fc:66:67:03:6a:b0:22:83:09:5d:1f:
         0a:8f:03:89:8e:cc:41:7e:91:4c:ef:2a:d8:0e:83:d0:0f:ac:
         09:cf:ad:2f:fe:63:15:3d:54:7f:1e:bb:1c:a3:07:02:99:8c:
         50:3d:fe:63:21:d3:94:38:f3:a2:1a:a4:e1:74:b5:54:17:30:
         18:da:4c:07:08:69:bc:57:e8:a8:9d:9f:75:3c:07:6c:02:cc:
         de:43:38:19:e4:2f:5e:e1:40:e9:35:88:8f:b3:31:77:9a:89:
         e1:04:eb:3d:5f:28:1e:6a:ca:10:dc:0e:a9:97:e7:2c:d3:89:
         39:40:50:e9:f1:cd:77:eb:e3:09:5a:f2:b1:ca:4e:0b:ca:81:
         7d:87:a0:0c:4f:fe:71:be:c5:87:c6:45:2b:e6:de:10:1a:4a:
         ce:45:e3:13:e4:b1:0c:24:a8:1c:2b:00:ec:e0:a3:00:9a:c5:
         7a:42:04:a8:ac:69:bb:e6:cc:41:83:55:4f:92:bf:2e:5e:01:
         2b:5f:a4:d3:72:b0:37:c8:28:fb:63:03:64:14:1c:e3:97:cf:
         6e:19:fc:2f:3d:c5:d5:c2:aa:0c:a4:38:e6:22:99:ee:be:24:
         a3:5f:12:01:21:01:77:38:f5:0d:58:17:05:61:0f:45:7a:97:
         d3:a0:bf:9b:9e:4d:1d:1e:d8:e3:64:fa:40:e1:00:97:34:1a:
         d9:4d:85:ea:13:9d:89:95:83:35:d7:80:2e:13:19:35:19:47:
         f1:39:da:a4:61:7a:e7:91:4c:14:fc:2d:77:8c:13:71:10:b6:
         73:bb:8e:7a:8b:2c:d7:2b:0d:a3:aa:7e:52:2e:96:16:c0:ad:
         ff:0f:aa:cf:69:d5:ec:7c:e6:89:59:ed:76:41:a5:f1:ce:22:
         c3:1c:e0:37:7e:e0:38:77:29:21:7c:c3:a9:6e:7a:7c:15:f7:
         cb:5a:c3:a6:df:e4:6d:ca:19:0e:f8:81:07:aa:de:a1:8e:6f:
         73:31:cb:b7:b8:90:7a:ef:f4:ce:ec:55:27:52:1d:41:43:da:
         b4:43:04:6d:c9:bb:e6:dc:e9:8e:52:ca:7e:b2:8a:28:61:18:
         6d:24:42:64:82:8d:02:19
-----BEGIN CERTIFICATE-----
MIIDajCCAVKgAwIBAwIBATANBgkqhkiG9w0BAQUFADApMQswCQYDVQQGEwJCRTEa
MBgGA1UEAxMRdHhqc29ucnBjLXRlc3QtY2EwHhcNNzAwMTAxMDAwMDAwWhcNMzgw
MTE5MDMxNDA3WjA3MRAwDgYDVQQDEwdjYS10cnVlMQswCQYDVQQGEwJCRTEWMBQG
A1UEChMNR3JlbXdlbGwgYnZiYTCBnzANBgkqhkiG9w0BAQEFAAOBjQAwgYkCgYEA
wtqfDCdHWHKTHHKFMWxX5veer8tCcivgI00qadS/V9YkiXDcFWtIPTcN3gIuz6DO
U/EW0gLK5Of21xCKIe5gdm+uJF35Pv3eWpZAMu+cAdrzXmKYcM/k+xALn5mDiaXb
Cm2BEdBAdGcbqo87NPve0/b4uGFV92rv0oY0amrLOl8CAwEAAaMTMBEwDwYDVR0T
AQH/BAUwAwEB/zANBgkqhkiG9w0BAQUFAAOCAgEAS0OO1ym3DnK9qXiRRH7m26zG
jn4hbx/n1YXMigfczzUCNBr4Lwc5c27pk0E/gwaATHtLzJZ645y6AILzJVz5Bulk
QRudWZlihVYL4acXhuqbQ2Gp7eoerOlsWUoyT1HrlvxmZwNqsCKDCV0fCo8DiY7M
QX6RTO8q2A6D0A+sCc+tL/5jFT1Ufx67HKMHApmMUD3+YyHTlDjzohqk4XS1VBcw
GNpMBwhpvFfoqJ2fdTwHbALM3kM4GeQvXuFA6TWIj7Mxd5qJ4QTrPV8oHmrKENwO
qZfnLNOJOUBQ6fHNd+vjCVryscpOC8qBfYegDE/+cb7Fh8ZFK+beEBpKzkXjE+Sx
DCSoHCsA7OCjAJrFekIEqKxpu+bMQYNVT5K/Ll4BK1+k03KwN8go+2MDZBQc45fP
bhn8Lz3F1cKqDKQ45iKZ7r4ko18SASEBdzj1DVgXBWEPRXqX06C/m55NHR7Y42T6
QOEAlzQa2U2F6hOdiZWDNdeALhMZNRlH8TnapGF655FMFPwtd4wTcRC2c7uOeoss
1ysNo6p+Ui6WFsCt/w+qz2nV7HzmiVntdkGl8c4iwxzgN37gOHcpIXzDqW56fBX3
y1rDpt/kbcoZDviBB6reoY5vczHLt7iQeu/0zuxVJ1IdQUPatEMEbcm75tzpjlLK
frKKKGEYbSRCZIKNAhk=
-----END CERTIFICATE-----
