Certificate:
    Data:
        Version: 3 (0x2)
        Serial Number: 1 (0x1)
    Signature Algorithm: sha1WithRSAEncryption
        Issuer: C=BE, CN=txjsonrpc-pyserver
        Validity
            Not Before: Jun 23 15:47:38 2012 GMT
            Not After : Jun 23 15:47:38 2013 GMT
        Subject: C=BE, CN=txjsonrpc-pyserver
        Subject Public Key Info:
            Public Key Algorithm: rsaEncryption
                Public-Key: (4096 bit)
                Modulus:
                    00:97:0a:b1:ca:cb:50:6b:25:e0:cb:4e:4e:f0:40:
                    92:e6:0a:df:a2:0d:e8:eb:bc:b0:d6:5f:0a:56:42:
                    e6:b4:0a:20:63:1a:b3:4d:61:41:2f:1d:c7:aa:bb:
                    22:a1:9f:ea:64:5a:35:91:c3:9c:42:d8:40:21:a4:
                    aa:4d:a3:4c:a3:52:f9:76:59:60:f3:6e:11:36:cd:
                    a9:9a:9f:db:7f:03:5c:76:c5:1f:87:74:40:4e:e5:
                    fd:1a:47:c0:62:84:fd:03:65:5c:8f:f7:39:69:9c:
                    b1:dc:f7:2d:fe:e6:d8:eb:22:9e:cf:02:1a:e6:e1:
                    28:9b:7e:47:23:91:a3:e2:41:e3:de:ce:4d:91:43:
                    ee:c2:c6:0a:a9:d8:47:8e:b7:cf:9b:d1:ee:a0:68:
                    a2:20:ed:f3:6b:8d:5e:ef:f5:a3:42:29:bb:7b:a3:
                    cf:11:6f:c0:f5:36:c9:38:0d:6e:8d:4e:81:d4:c4:
                    60:30:3c:29:ed:44:9a:6f:0f:61:5c:18:74:68:d2:
                    8e:5d:ec:4e:14:18:d2:f5:f1:08:60:c3:c8:13:36:
                    78:73:3e:44:e3:58:3d:68:57:c3:17:73:4f:45:46:
                    66:5c:a9:81:ad:be:48:e1:14:1e:97:56:8a:64:07:
                    a7:89:f6:21:24:b4:f0:69:45:ed:b6:e5:09:01:03:
                    94:fb:5f:d2:81:37:dd:64:88:a7:fc:8d:ca:33:fc:
                    c1:1e:ac:13:5e:21:93:85:5d:99:cc:85:d9:34:1e:
                    1d:30:57:d9:2b:03:cd:69:74:67:46:57:e4:fc:1c:
                    43:84:a7:ea:91:d0:df:4c:c0:15:08:4a:a6:fd:93:
                    49:b1:2d:27:ed:f1:4e:05:50:b9:3d:75:f9:a4:73:
                    70:4a:cb:34:f6:bb:ea:57:6f:c6:08:53:4b:70:ab:
                    76:b0:92:37:ee:d0:0f:31:9b:7c:53:8d:bc:1d:b9:
                    48:dc:e9:d2:52:23:07:cf:45:b0:f8:10:d5:e4:c9:
                    6a:6d:9a:fc:59:07:f7:6a:00:9a:27:0b:8e:8c:fc:
                    42:3e:66:a1:51:21:ab:0d:46:5c:fe:f2:65:4f:78:
                    09:46:cb:54:0c:11:e0:3b:27:83:c1:cf:9c:61:f2:
                    ce:7e:d4:69:76:8f:8d:c3:46:b3:9f:48:90:cc:de:
                    4c:cc:73:d9:cb:be:be:9f:bf:a0:64:6d:7d:b9:d9:
                    88:21:ab:cc:77:09:4a:f9:e5:89:4b:c6:6d:c2:e6:
                    cc:20:d0:c3:6e:f6:6a:35:55:f4:bc:5c:ab:7a:99:
                    49:48:28:a3:74:b9:9b:56:ed:9b:8d:5b:73:f8:0d:
                    b5:b8:52:cb:eb:c1:43:04:58:9d:bd:6f:48:8d:cd:
                    9d:f4:11
                Exponent: 65537 (0x10001)
        X509v3 extensions:
            X509v3 Basic Constraints: 
                CA:FALSE
            Netscape Cert Type: 
                SSL Server
            Netscape Comment: 
                TinyCA Generated Certificate
            X509v3 Subject Key Identifier: 
                26:8C:A5:F9:A6:4A:FE:4C:E8:0F:04:33:7E:04:26:28:BF:4C:92:F3
            X509v3 Authority Key Identifier: 
                keyid:9D:8F:84:76:94:CD:07:FE:A3:E8:8B:D7:F9:D9:6E:EF:CA:75:51:7B
                DirName:/C=BE/CN=txjsonrpc-test-ca
                serial:8D:D2:AF:37:F9:CA:92:0B

            X509v3 Issuer Alternative Name: 
                <EMPTY>

            X509v3 Subject Alternative Name: 
                <EMPTY>

    Signature Algorithm: sha1WithRSAEncryption
         0e:5f:3d:2d:c2:05:8e:1d:b8:b9:99:00:f8:1a:f0:0d:f9:ba:
         2a:f8:1e:61:21:3c:82:5b:38:f0:77:2f:67:19:4d:76:ee:03:
         14:87:e9:11:ac:ff:df:6b:a3:94:c4:8f:8e:73:3a:4a:e1:19:
         a2:e8:33:d3:b4:ef:8f:bf:d3:40:ba:b2:d6:44:3e:cc:2f:bd:
         23:af:52:31:a9:a7:41:92:da:37:2d:84:1d:d3:ca:63:d6:9d:
         8b:87:f8:dd:71:41:0a:0d:25:46:b6:9c:de:a5:c3:1d:e6:26:
         7a:e1:98:e2:06:ac:c1:8b:f7:98:9b:a0:2c:66:ba:b0:a4:a4:
         e6:7e:f1:40:f8:93:94:26:42:c9:95:2a:28:59:32:da:03:79:
         bc:06:93:ac:8d:2c:95:03:dd:9e:4b:f2:5f:46:84:d1:72:e6:
         94:35:72:53:52:c1:73:cf:cc:d2:36:58:3e:e5:2c:76:cb:76:
         8c:6d:6a:64:3e:ff:4e:6f:3e:63:95:34:3f:90:68:0d:91:77:
         83:f4:05:19:32:61:f7:c5:e3:69:7d:45:ef:6a:74:b2:83:f5:
         61:0d:f9:ac:f0:d4:f4:fa:ff:46:c3:d8:bb:e6:f1:66:37:7a:
         30:b7:25:48:13:16:9c:25:61:ac:73:2b:32:0b:0a:d8:04:74:
         ee:46:c7:46:49:1e:fc:d3:98:1c:c7:9a:7d:f5:90:89:6c:90:
         ba:6b:0c:1c:05:56:fb:46:53:6a:52:aa:54:55:68:bf:4c:72:
         a0:77:77:96:d8:2a:a0:ad:86:24:44:02:5f:eb:d6:eb:c4:c4:
         74:f3:c6:a2:b2:4f:69:d6:7b:6d:fa:db:49:68:b1:40:73:6b:
         70:d0:b6:05:a1:c0:da:0d:e2:f5:5c:3c:b4:74:9d:05:08:a5:
         47:37:ce:2e:71:0b:b2:5c:ac:c3:3a:cb:84:5a:00:fd:ff:f2:
         8d:cb:38:3a:29:33:40:9a:87:7f:d0:a3:e7:43:50:b8:12:f8:
         10:fd:b4:ce:11:fd:87:18:4e:f8:e4:0a:3c:3e:d8:9c:12:d9:
         f3:ae:5a:f2:cd:d6:34:37:91:4a:5d:71:d0:e0:40:18:ec:0d:
         16:14:61:6a:d0:94:f1:44:0d:1a:c7:52:1f:51:a5:6e:78:9f:
         fc:2e:f8:58:61:8e:b3:ad:a1:df:64:f7:5a:15:23:a4:7e:70:
         50:a2:5e:d6:b0:30:61:36:fa:de:5b:85:d5:85:f6:6b:6f:5a:
         83:d8:d5:3d:a8:1d:39:c4:b2:d5:2c:9d:0b:fc:24:99:ee:44:
         5e:56:17:f8:8f:a6:09:49:43:6c:03:a6:f7:44:a8:51:ad:25:
         ad:17:10:cc:5c:4b:be:b8
-----BEGIN CERTIFICATE-----
MIIFrjCCA5agAwIBAgIBATANBgkqhkiG9w0BAQUFADAqMQswCQYDVQQGEwJCRTEb
MBkGA1UEAxMSdHhqc29ucnBjLXB5c2VydmVyMB4XDTEyMDYyMzE1NDczOFoXDTEz
MDYyMzE1NDczOFowKjELMAkGA1UEBhMCQkUxGzAZBgNVBAMTEnR4anNvbnJwYy1w
eXNlcnZlcjCCAiIwDQYJKoZIhvcNAQEBBQADggIPADCCAgoCggIBAJcKscrLUGsl
4MtOTvBAkuYK36IN6Ou8sNZfClZC5rQKIGMas01hQS8dx6q7IqGf6mRaNZHDnELY
QCGkqk2jTKNS+XZZYPNuETbNqZqf238DXHbFH4d0QE7l/RpHwGKE/QNlXI/3OWmc
sdz3Lf7m2Osins8CGubhKJt+RyORo+JB497OTZFD7sLGCqnYR463z5vR7qBooiDt
82uNXu/1o0Ipu3ujzxFvwPU2yTgNbo1OgdTEYDA8Ke1Emm8PYVwYdGjSjl3sThQY
0vXxCGDDyBM2eHM+RONYPWhXwxdzT0VGZlypga2+SOEUHpdWimQHp4n2ISS08GlF
7bblCQEDlPtf0oE33WSIp/yNyjP8wR6sE14hk4VdmcyF2TQeHTBX2SsDzWl0Z0ZX
5PwcQ4Sn6pHQ30zAFQhKpv2TSbEtJ+3xTgVQuT11+aRzcErLNPa76ldvxghTS3Cr
drCSN+7QDzGbfFONvB25SNzp0lIjB89FsPgQ1eTJam2a/FkH92oAmicLjoz8Qj5m
oVEhqw1GXP7yZU94CUbLVAwR4Dsng8HPnGHyzn7UaXaPjcNGs59IkMzeTMxz2cu+
vp+/oGRtfbnZiCGrzHcJSvnliUvGbcLmzCDQw272ajVV9Lxcq3qZSUgoo3S5m1bt
m41bc/gNtbhSy+vBQwRYnb1vSI3NnfQRAgMBAAGjgd4wgdswCQYDVR0TBAIwADAR
BglghkgBhvhCAQEEBAMCBkAwKwYJYIZIAYb4QgENBB4WHFRpbnlDQSBHZW5lcmF0
ZWQgQ2VydGlmaWNhdGUwHQYDVR0OBBYEFCaMpfmmSv5M6A8EM34EJii/TJLzMFkG
A1UdIwRSMFCAFJ2PhHaUzQf+o+iL1/nZbu/KdVF7oS2kKzApMQswCQYDVQQGEwJC
RTEaMBgGA1UEAxMRdHhqc29ucnBjLXRlc3QtY2GCCQCN0q83+cqSCzAJBgNVHRIE
AjAAMAkGA1UdEQQCMAAwDQYJKoZIhvcNAQEFBQADggIBAA5fPS3CBY4duLmZAPga
8A35uir4HmEhPIJbOPB3L2cZTXbuAxSH6RGs/99ro5TEj45zOkrhGaLoM9O074+/
00C6stZEPswvvSOvUjGpp0GS2jcthB3TymPWnYuH+N1xQQoNJUa2nN6lwx3mJnrh
mOIGrMGL95iboCxmurCkpOZ+8UD4k5QmQsmVKihZMtoDebwGk6yNLJUD3Z5L8l9G
hNFy5pQ1clNSwXPPzNI2WD7lLHbLdoxtamQ+/05vPmOVND+QaA2Rd4P0BRkyYffF
42l9Re9qdLKD9WEN+azw1PT6/0bD2Lvm8WY3ejC3JUgTFpwlYaxzKzILCtgEdO5G
x0ZJHvzTmBzHmn31kIlskLprDBwFVvtGU2pSqlRVaL9McqB3d5bYKqCthiREAl/r
1uvExHTzxqKyT2nWe23620losUBza3DQtgWhwNoN4vVcPLR0nQUIpUc3zi5xC7Jc
rMM6y4RaAP3/8o3LODopM0Cah3/Qo+dDULgS+BD9tM4R/YcYTvjkCjw+2JwS2fOu
WvLN1jQ3kUpdcdDgQBjsDRYUYWrQlPFEDRrHUh9RpW54n/wu+FhhjrOtod9k91oV
I6R+cFCiXtawMGE2+t5bhdWF9mtvWoPY1T2oHTnEstUsnQv8JJnuRF5WF/iPpglJ
Q2wDpvdEqFGtJa0XEMxcS764
-----END CERTIFICATE-----
