Certificate:
    Data:
        Version: 4 (0x3)
        Serial Number: 1 (0x1)
    Signature Algorithm: sha1WithRSAEncryption
        Issuer: CN=ca-false, C=BE, O=Gremwell bvba
        Validity
            Not Before: Jan  1 00:00:00 1970 GMT
            Not After : Jan 19 03:14:07 2038 GMT
        Subject: CN=www.example.com, C=BE, O=Gremwell bvba
        Subject Public Key Info:
            Public Key Algorithm: rsaEncryption
                Public-Key: (1024 bit)
                Modulus:
                    00:a7:85:f3:a5:1a:ca:0f:ca:51:11:c7:d4:85:ad:
                    e5:9c:ea:2f:11:93:fd:cd:82:f3:18:69:18:92:62:
                    93:b8:bb:75:6a:0c:52:2c:32:20:14:83:a9:54:42:
                    64:60:7d:79:e3:d2:0f:9d:63:0c:34:ff:b2:51:a3:
                    15:1e:00:bf:1c:1d:81:05:b4:bb:79:6e:35:1d:11:
                    39:f0:97:01:cd:b5:ff:b5:af:50:2a:16:a7:a8:5d:
                    44:ae:a5:db:36:ea:f9:32:56:8f:fd:f0:89:06:14:
                    00:9d:0a:d4:41:fc:f5:d6:4d:ff:6b:ce:e5:a5:18:
                    d1:53:bd:a8:eb:7a:54:9f:a1
                Exponent: 65537 (0x10001)
    Signature Algorithm: sha1WithRSAEncryption
         09:3b:69:a0:43:41:ec:d2:0f:09:01:b5:cf:ef:65:80:13:8d:
         bb:3d:0f:0b:f0:c2:f5:47:f6:d6:e7:1a:8d:94:44:49:81:fc:
         4c:33:74:3b:bd:aa:4c:50:49:2e:30:b2:ea:10:e0:45:8c:8a:
         d7:42:f5:49:44:62:d4:0b:9c:0a:0d:25:4a:18:f0:e0:ad:62:
         12:47:04:16:58:4e:3b:eb:14:ae:d9:c7:c0:7a:a0:9f:8c:7b:
         54:d7:31:15:ba:ff:45:72:4c:aa:0c:3a:af:87:39:77:63:2d:
         ed:ca:44:d3:ab:56:4b:15:53:f1:66:fa:a4:8b:f5:07:fd:54:
         dd:6c
-----BEGIN CERTIFICATE-----
MIIB6zCCAVSgAwIBAwIBATANBgkqhkiG9w0BAQUFADA4MREwDwYDVQQDEwhjYS1m
YWxzZTELMAkGA1UEBhMCQkUxFjAUBgNVBAoTDUdyZW13ZWxsIGJ2YmEwHhcNNzAw
MTAxMDAwMDAwWhcNMzgwMTE5MDMxNDA3WjA/MRgwFgYDVQQDEw93d3cuZXhhbXBs
ZS5jb20xCzAJBgNVBAYTAkJFMRYwFAYDVQQKEw1HcmVtd2VsbCBidmJhMIGfMA0G
CSqGSIb3DQEBAQUAA4GNADCBiQKBgQCnhfOlGsoPylERx9SFreWc6i8Rk/3NgvMY
aRiSYpO4u3VqDFIsMiAUg6lUQmRgfXnj0g+dYww0/7JRoxUeAL8cHYEFtLt5bjUd
ETnwlwHNtf+1r1AqFqeoXUSupds26vkyVo/98IkGFACdCtRB/PXWTf9rzuWlGNFT
vajrelSfoQIDAQABMA0GCSqGSIb3DQEBBQUAA4GBAAk7aaBDQezSDwkBtc/vZYAT
jbs9DwvwwvVH9tbnGo2UREmB/EwzdDu9qkxQSS4wsuoQ4EWMitdC9UlEYtQLnAoN
JUoY8OCtYhJHBBZYTjvrFK7Zx8B6oJ+Me1TXMRW6/0VyTKoMOq+HOXdjLe3KRNOr
VksVU/Fm+qSL9Qf9VN1s
-----END CERTIFICATE-----
Certificate:
    Data:
        Version: 4 (0x3)
        Serial Number: 1 (0x1)
    Signature Algorithm: sha1WithRSAEncryption
        Issuer: C=BE, CN=txjsonrpc-test-ca
        Validity
            Not Before: Jan  1 00:00:00 1970 GMT
            Not After : Jan 19 03:14:07 2038 GMT
        Subject: CN=ca-false, C=BE, O=Gremwell bvba
        Subject Public Key Info:
            Public Key Algorithm: rsaEncryption
                Public-Key: (1024 bit)
                Modulus:
                    00:f3:d1:39:e3:6a:1f:d8:0b:4f:62:45:c7:b0:49:
                    fc:ff:2a:71:69:1d:77:49:bf:dd:2c:91:b6:c9:da:
                    95:df:54:1d:09:2a:20:c3:79:b1:8b:68:dd:f7:2a:
                    11:86:fa:cc:52:86:db:ee:0a:de:f3:bd:17:33:2f:
                    9c:d1:b2:a4:23:88:e2:83:ae:d7:65:21:0c:29:55:
                    e8:5a:2e:90:3b:dc:0f:89:27:fb:4f:15:3a:8d:ce:
                    c2:98:7e:e1:9c:67:71:7e:4a:3c:e5:01:63:2a:c4:
                    74:0e:07:d8:77:1e:e8:45:95:23:fc:48:ea:bf:a5:
                    57:36:4e:d8:82:a4:d1:f3:6d
                Exponent: 65537 (0x10001)
        X509v3 extensions:
            X509v3 Basic Constraints: critical
                CA:FALSE
    Signature Algorithm: sha1WithRSAEncryption
         2f:56:f1:a5:12:21:94:ca:72:3d:5d:9d:15:12:1a:23:32:5f:
         e1:6a:83:46:f0:88:e6:19:87:80:45:91:c7:c4:77:9c:07:36:
         99:1c:35:e6:99:64:81:60:dd:ba:20:7d:7f:42:45:66:a0:43:
         25:8d:e7:e6:f2:03:ce:7e:5b:fe:c5:8c:24:a9:c0:f1:fa:9a:
         ec:a3:12:a9:0a:bf:3d:34:1a:b8:4f:86:cc:75:e8:3b:ed:e1:
         69:58:f5:46:95:22:13:1c:7c:a7:5d:57:30:38:cc:61:65:f2:
         a9:44:94:6d:e2:7f:2c:e7:97:08:c7:45:15:6b:3f:09:f4:dd:
         6b:58:c1:3c:99:23:53:75:aa:b5:1c:7f:1f:1d:25:4c:43:b9:
         d0:be:ac:8d:41:94:2f:e8:f0:3a:29:a5:79:04:65:03:d3:ee:
         81:74:2d:e7:5d:31:64:a1:b2:a5:1c:11:95:20:33:4b:11:9a:
         3d:77:6f:c9:f3:81:4c:0f:69:b4:2b:5a:c2:0e:cb:3e:51:b3:
         2b:d8:6d:a6:95:04:39:df:b5:f7:08:59:d2:34:76:bf:10:75:
         28:9f:db:ac:b9:6e:f4:71:bf:50:65:1b:19:b2:00:ad:66:4e:
         50:75:ad:5b:bb:0a:a9:7c:06:89:b2:61:db:a7:93:ce:a5:69:
         31:0d:21:5b:c7:4f:fd:1b:8c:d7:53:29:09:cf:0b:a7:24:93:
         3f:13:af:2d:d5:8c:49:86:ca:63:38:0a:a6:27:be:d4:d0:b8:
         6f:39:4a:1f:4e:c1:8f:d0:91:34:98:39:ea:7f:55:c2:b5:21:
         f3:a7:11:8c:bb:67:79:79:5d:89:0b:7e:54:b7:42:73:7c:59:
         ec:20:09:82:70:7a:ef:58:01:aa:b8:49:0d:9e:ff:2e:a8:0a:
         30:f7:de:9f:20:f2:5c:12:72:f2:ce:62:7c:13:11:0b:7a:a9:
         1a:81:76:6a:ad:ac:ec:01:ab:ee:86:5b:08:93:59:df:9e:08:
         8a:78:bd:96:61:3e:43:0e:e1:07:f9:3c:16:24:0c:a2:69:4f:
         f3:5b:00:54:e2:8a:60:71:4e:1e:6b:03:24:7e:3c:6d:74:2e:
         d4:6c:b3:20:40:96:38:b8:59:db:e7:dd:16:50:dd:f9:c2:8a:
         9f:01:56:cb:7f:a1:4e:69:53:5f:ff:68:cd:ae:58:ef:12:d7:
         ab:ef:08:7c:a5:9a:4d:d7:f4:d8:1e:ff:1c:49:2e:d2:1b:e8:
         2f:d7:a1:1e:9f:29:36:02:8d:4b:60:16:d3:c2:e9:62:10:5f:
         6f:82:70:46:ea:36:44:71:82:a4:b6:a2:c2:71:a6:2f:35:80:
         47:85:8d:15:03:0a:f6:14
-----BEGIN CERTIFICATE-----
MIIDaDCCAVCgAwIBAwIBATANBgkqhkiG9w0BAQUFADApMQswCQYDVQQGEwJCRTEa
MBgGA1UEAxMRdHhqc29ucnBjLXRlc3QtY2EwHhcNNzAwMTAxMDAwMDAwWhcNMzgw
MTE5MDMxNDA3WjA4MREwDwYDVQQDEwhjYS1mYWxzZTELMAkGA1UEBhMCQkUxFjAU
BgNVBAoTDUdyZW13ZWxsIGJ2YmEwgZ8wDQYJKoZIhvcNAQEBBQADgY0AMIGJAoGB
APPROeNqH9gLT2JFx7BJ/P8qcWkdd0m/3SyRtsnald9UHQkqIMN5sYto3fcqEYb6
zFKG2+4K3vO9FzMvnNGypCOI4oOu12UhDClV6FoukDvcD4kn+08VOo3Owph+4Zxn
cX5KPOUBYyrEdA4H2Hce6EWVI/xI6r+lVzZO2IKk0fNtAgMBAAGjEDAOMAwGA1Ud
EwEB/wQCMAAwDQYJKoZIhvcNAQEFBQADggIBAC9W8aUSIZTKcj1dnRUSGiMyX+Fq
g0bwiOYZh4BFkcfEd5wHNpkcNeaZZIFg3bogfX9CRWagQyWN5+byA85+W/7FjCSp
wPH6muyjEqkKvz00GrhPhsx16Dvt4WlY9UaVIhMcfKddVzA4zGFl8qlElG3ifyzn
lwjHRRVrPwn03WtYwTyZI1N1qrUcfx8dJUxDudC+rI1BlC/o8DoppXkEZQPT7oF0
LeddMWShsqUcEZUgM0sRmj13b8nzgUwPabQrWsIOyz5RsyvYbaaVBDnftfcIWdI0
dr8QdSif26y5bvRxv1BlGxmyAK1mTlB1rVu7Cql8BomyYdunk86laTENIVvHT/0b
jNdTKQnPC6ckkz8Try3VjEmGymM4CqYnvtTQuG85Sh9OwY/QkTSYOep/VcK1IfOn
EYy7Z3l5XYkLflS3QnN8WewgCYJweu9YAaq4SQ2e/y6oCjD33p8g8lwScvLOYnwT
EQt6qRqBdmqtrOwBq+6GWwiTWd+eCIp4vZZhPkMO4Qf5PBYkDKJpT/NbAFTiimBx
Th5rAyR+PG10LtRssyBAlji4Wdvn3RZQ3fnCip8BVst/oU5pU1//aM2uWO8S16vv
CHylmk3X9Nge/xxJLtIb6C/XoR6fKTYCjUtgFtPC6WIQX2+CcEbqNkRxgqS2osJx
pi81gEeFjRUDCvYU
-----END CERTIFICATE-----
