Certificate:
    Data:
        Version: 3 (0x2)
        Serial Number: 1 (0x1)
    Signature Algorithm: sha1WithRSAEncryption
        Issuer: CN=ca-none, C=BE, O=Gremwell bvba
        Validity
            Not Before: Jun 23 15:47:38 2012 GMT
            Not After : Jun 23 15:47:38 2013 GMT
        Subject: C=BE, CN=txjsonrpc-pyserver
        Subject Public Key Info:
            Public Key Algorithm: rsaEncryption
                Public-Key: (4096 bit)
                Modulus:
                    00:d7:f2:de:0d:ae:f9:ea:91:ec:8b:d6:04:15:49:
                    e7:c7:a7:1f:13:e0:82:1a:55:2e:98:fc:59:a3:14:
                    bc:5d:cc:58:83:1b:39:76:ca:1b:2d:db:83:21:a3:
                    a2:fc:52:7f:71:e1:92:91:b6:57:15:bc:e1:db:64:
                    3a:39:c4:84:93:09:f4:3a:33:02:fe:57:1c:5f:fe:
                    32:e8:8d:a5:df:58:5e:0a:43:bd:1a:d8:9b:e2:f2:
                    63:8c:f8:47:03:4e:43:b5:e5:fd:47:ae:ae:d1:6f:
                    95:77:43:c5:48:b9:7b:ee:57:f6:fb:b5:6f:64:88:
                    2b:be:4e:c3:69:9e:72:6d:66:55:ff:a8:cc:72:42:
                    2b:20:0c:c0:bc:d7:95:ed:02:f5:81:e8:77:a6:37:
                    c5:0c:04:89:3e:6c:38:fe:00:80:0f:26:79:7f:de:
                    27:9e:06:94:9b:c2:3e:5c:19:9f:7b:63:cd:e9:30:
                    48:77:94:bd:09:a1:1e:de:4c:4b:ee:de:db:78:0c:
                    6c:1c:52:09:39:ec:ea:05:05:9f:6f:75:68:39:bc:
                    8c:09:16:bc:7a:1a:26:7a:01:5d:b3:5f:a8:81:32:
                    81:66:91:d0:86:f5:d7:97:0d:9b:a6:85:e3:e3:7f:
                    22:6c:98:ac:33:f6:d3:d5:64:02:83:85:a9:be:1f:
                    1f:99:63:98:e2:18:dd:71:ff:10:66:cd:a9:fa:65:
                    3f:39:40:ef:4c:30:ab:7a:c7:f2:0a:36:dc:8a:3b:
                    31:27:0e:f2:b5:a8:1d:ed:4b:5d:14:1e:c2:72:ac:
                    e6:ab:b6:81:0f:8b:84:7b:10:5f:9b:17:ee:fc:f8:
                    e0:ef:b4:50:94:c3:02:dc:0e:3d:e1:8e:b7:76:b5:
                    50:68:4d:15:b6:53:52:81:61:20:21:0f:04:6b:22:
                    a6:f2:04:fe:78:2b:b6:3d:47:bc:cb:55:21:a2:80:
                    36:af:4f:55:f0:bf:bb:68:5a:10:2c:06:8b:93:42:
                    7e:8b:36:66:4e:f5:51:64:17:7e:73:88:3d:b7:ad:
                    c6:1a:73:e1:34:9b:80:b3:58:55:0b:c9:b2:82:de:
                    ea:8e:67:52:b2:e7:2f:60:26:4b:c7:d8:30:2a:1b:
                    dc:fc:2b:1f:c9:af:62:3a:47:6b:07:92:23:60:de:
                    9d:47:ca:dd:8e:fa:96:bb:32:03:e1:a8:e1:9f:2c:
                    37:87:03:fc:f1:f2:fd:cb:2a:6e:0c:0e:13:52:97:
                    58:fe:ac:e8:0a:e2:9a:0e:0c:86:b0:30:b5:cc:9d:
                    7a:cf:8f:be:e5:40:29:29:31:23:a5:95:78:3f:62:
                    7d:d7:4b:58:11:e8:d4:d6:da:6d:26:13:04:a9:85:
                    6c:6f:b9
                Exponent: 65537 (0x10001)
        X509v3 extensions:
            X509v3 Basic Constraints: 
                CA:FALSE
            Netscape Cert Type: 
                SSL Server
            Netscape Comment: 
                TinyCA Generated Certificate
            X509v3 Subject Key Identifier: 
                26:8C:A5:F9:A6:4A:FE:4C:E8:0F:04:33:7E:04:26:28:BF:4C:92:F3
            X509v3 Authority Key Identifier: 
                keyid:9D:8F:84:76:94:CD:07:FE:A3:E8:8B:D7:F9:D9:6E:EF:CA:75:51:7B
                DirName:/C=BE/CN=txjsonrpc-test-ca
                serial:8D:D2:AF:37:F9:CA:92:0B

            X509v3 Issuer Alternative Name: 
                <EMPTY>

            X509v3 Subject Alternative Name: 
                <EMPTY>

    Signature Algorithm: sha1WithRSAEncryption
         ce:61:49:72:b3:b1:b8:c6:ec:ec:f7:c1:f9:44:3a:32:f9:4c:
         8e:98:07:72:e4:db:26:8f:1a:30:7d:10:0a:f9:b4:f8:f1:bd:
         95:b8:aa:ae:75:23:ea:a9:4c:f0:83:68:bf:8c:f7:9f:29:32:
         ac:fd:aa:08:7a:c9:96:a0:3b:18:c2:8f:6f:ef:95:f6:5a:a8:
         c9:37:f3:ce:e5:ae:d4:08:88:73:88:ca:bd:7a:bf:1f:88:d9:
         46:94:4c:98:07:ef:94:29:fa:76:3e:7d:93:65:bc:9e:f4:7b:
         f2:e6:b1:7b:7f:ec:b6:59:1e:d5:79:b2:50:86:08:6b:87:e4:
         70:70
-----BEGIN CERTIFICATE-----
MIIEOjCCA6OgAwIBAgIBATANBgkqhkiG9w0BAQUFADA3MRAwDgYDVQQDEwdjYS1u
b25lMQswCQYDVQQGEwJCRTEWMBQGA1UEChMNR3JlbXdlbGwgYnZiYTAeFw0xMjA2
MjMxNTQ3MzhaFw0xMzA2MjMxNTQ3MzhaMCoxCzAJBgNVBAYTAkJFMRswGQYDVQQD
ExJ0eGpzb25ycGMtcHlzZXJ2ZXIwggIiMA0GCSqGSIb3DQEBAQUAA4ICDwAwggIK
AoICAQDX8t4NrvnqkeyL1gQVSefHpx8T4IIaVS6Y/FmjFLxdzFiDGzl2yhst24Mh
o6L8Un9x4ZKRtlcVvOHbZDo5xISTCfQ6MwL+Vxxf/jLojaXfWF4KQ70a2Jvi8mOM
+EcDTkO15f1Hrq7Rb5V3Q8VIuXvuV/b7tW9kiCu+TsNpnnJtZlX/qMxyQisgDMC8
15XtAvWB6HemN8UMBIk+bDj+AIAPJnl/3ieeBpSbwj5cGZ97Y83pMEh3lL0JoR7e
TEvu3tt4DGwcUgk57OoFBZ9vdWg5vIwJFrx6GiZ6AV2zX6iBMoFmkdCG9deXDZum
hePjfyJsmKwz9tPVZAKDham+Hx+ZY5jiGN1x/xBmzan6ZT85QO9MMKt6x/IKNtyK
OzEnDvK1qB3tS10UHsJyrOartoEPi4R7EF+bF+78+ODvtFCUwwLcDj3hjrd2tVBo
TRW2U1KBYSAhDwRrIqbyBP54K7Y9R7zLVSGigDavT1Xwv7toWhAsBouTQn6LNmZO
9VFkF35ziD23rcYac+E0m4CzWFULybKC3uqOZ1Ky5y9gJkvH2DAqG9z8Kx/Jr2I6
R2sHkiNg3p1Hyt2O+pa7MgPhqOGfLDeHA/zx8v3LKm4MDhNSl1j+rOgK4poODIaw
MLXMnXrPj77lQCkpMSOllXg/Yn3XS1gR6NTW2m0mEwSphWxvuQIDAQABo4HeMIHb
MAkGA1UdEwQCMAAwEQYJYIZIAYb4QgEBBAQDAgZAMCsGCWCGSAGG+EIBDQQeFhxU
aW55Q0EgR2VuZXJhdGVkIENlcnRpZmljYXRlMB0GA1UdDgQWBBQmjKX5pkr+TOgP
BDN+BCYov0yS8zBZBgNVHSMEUjBQgBSdj4R2lM0H/qPoi9f52W7vynVRe6EtpCsw
KTELMAkGA1UEBhMCQkUxGjAYBgNVBAMTEXR4anNvbnJwYy10ZXN0LWNhggkAjdKv
N/nKkgswCQYDVR0SBAIwADAJBgNVHREEAjAAMA0GCSqGSIb3DQEBBQUAA4GBAM5h
SXKzsbjG7Oz3wflEOjL5TI6YB3Lk2yaPGjB9EAr5tPjxvZW4qq51I+qpTPCDaL+M
958pMqz9qgh6yZagOxjCj2/vlfZaqMk3887lrtQIiHOIyr16vx+I2UaUTJgH75Qp
+nY+fZNlvJ70e/LmsXt/7LZZHtV5slCGCGuH5HBw
-----END CERTIFICATE-----
Certificate:
    Data:
        Version: 4 (0x3)
        Serial Number: 1 (0x1)
    Signature Algorithm: sha1WithRSAEncryption
        Issuer: C=BE, CN=txjsonrpc-test-ca
        Validity
            Not Before: Jan  1 00:00:00 1970 GMT
            Not After : Jan 19 03:14:07 2038 GMT
        Subject: CN=ca-none, C=BE, O=Gremwell bvba
        Subject Public Key Info:
            Public Key Algorithm: rsaEncryption
                Public-Key: (1024 bit)
                Modulus:
                    00:e6:bf:4e:20:8f:13:55:df:12:47:99:09:b1:b8:
                    ac:ff:4f:ef:9c:9a:4f:65:66:4c:77:ba:de:82:b4:
                    43:ba:05:93:9d:a3:1f:30:76:ef:09:c7:ef:4d:df:
                    76:22:84:0b:a4:06:90:87:0a:a5:57:6e:9d:b8:73:
                    f5:16:22:5c:e3:46:da:9b:eb:b4:26:28:36:71:5a:
                    14:dc:14:47:9c:8f:dd:ec:e1:69:18:8b:e5:50:3c:
                    6f:99:a7:77:85:3a:19:d0:0d:fe:e8:19:c4:69:4c:
                    2b:73:58:e9:43:78:42:92:f9:3b:1f:0a:91:8e:c7:
                    85:7d:6f:ba:f5:72:f2:94:f9
                Exponent: 65537 (0x10001)
    Signature Algorithm: sha1WithRSAEncryption
         a6:9a:86:d6:46:4c:97:85:bf:2d:14:fa:e5:3f:3c:4d:df:b4:
         d2:9b:aa:b3:e0:6b:2b:9c:95:88:38:c0:e8:1b:f6:73:eb:7a:
         b3:08:ea:1d:3c:10:34:d0:c2:76:8e:f8:23:c2:76:a2:c7:17:
         bd:79:20:f6:48:b5:6b:29:2d:79:91:9f:30:19:1a:73:14:dc:
         e1:ee:f5:05:36:72:06:46:7c:96:b2:b4:fa:4a:8d:29:6c:a3:
         51:d9:1f:59:9d:99:12:e2:83:7e:e5:3d:bd:54:6a:8d:80:63:
         9d:e1:7e:21:fa:57:9b:75:af:db:f4:30:30:a7:0c:73:01:b0:
         c5:b0:fd:27:7b:f7:01:f5:62:10:3f:bd:a4:13:a7:c4:fb:07:
         88:20:b4:2d:68:9f:77:95:1c:54:fc:f8:71:5d:ec:ff:16:10:
         c0:4b:06:82:b6:fd:8c:ed:07:6f:4e:ad:92:81:f4:1f:ff:ac:
         c1:50:1c:8a:2a:0c:8c:83:2f:ad:3c:1a:b5:86:24:a1:10:70:
         14:a3:03:7c:ee:09:f0:0c:dd:f2:c4:aa:42:7a:7e:2e:69:8c:
         c9:58:a6:12:23:d9:eb:c6:18:71:15:77:de:60:d4:43:99:f1:
         8c:c7:75:dc:6d:fe:9a:52:79:ee:6d:1b:dc:d3:91:73:7f:0f:
         fc:c4:aa:d3:21:4b:1a:db:a4:b4:47:cf:56:7e:f3:2d:14:35:
         7a:a0:17:de:71:df:3b:3c:38:70:21:fb:bd:e4:30:51:1c:08:
         c7:2c:f5:44:75:53:49:52:46:d7:b6:9b:f6:e4:f0:69:d3:c6:
         5b:b6:f6:73:d4:bb:85:07:62:e4:52:ff:1c:e8:34:3e:45:68:
         c1:52:89:81:56:87:79:19:4a:c7:e2:e0:99:ab:78:d9:11:5e:
         f3:43:0b:06:74:1c:6d:07:7b:7b:51:27:79:d3:53:7c:85:7f:
         35:4b:bb:fb:98:c9:6d:a9:9c:08:cc:79:20:5f:8c:a8:48:ab:
         5b:ae:15:74:ea:34:8b:b9:a1:d1:58:81:f4:28:f7:c3:1f:38:
         5e:8c:3f:e9:5f:c1:1b:9d:75:ec:a5:e9:ff:51:41:de:e7:d4:
         f5:89:5d:ff:ab:bd:3e:43:e1:54:e8:27:50:10:22:92:e3:1f:
         ad:7c:a3:9b:d7:e2:09:6e:06:49:80:ee:e8:ca:a7:94:a4:73:
         e0:18:82:58:c0:d7:88:24:1c:8e:71:a5:c2:15:c0:d1:cd:43:
         58:aa:11:5a:41:19:08:59:49:50:75:63:b0:15:e4:42:63:44:
         1c:11:54:a4:e4:5d:32:e1:fa:1c:32:09:23:0f:44:3c:74:8b:
         d6:3c:e1:7c:4b:e0:b7:2d
-----BEGIN CERTIFICATE-----
MIIDVTCCAT2gAwIBAwIBATANBgkqhkiG9w0BAQUFADApMQswCQYDVQQGEwJCRTEa
MBgGA1UEAxMRdHhqc29ucnBjLXRlc3QtY2EwHhcNNzAwMTAxMDAwMDAwWhcNMzgw
MTE5MDMxNDA3WjA3MRAwDgYDVQQDEwdjYS1ub25lMQswCQYDVQQGEwJCRTEWMBQG
A1UEChMNR3JlbXdlbGwgYnZiYTCBnzANBgkqhkiG9w0BAQEFAAOBjQAwgYkCgYEA
5r9OII8TVd8SR5kJsbis/0/vnJpPZWZMd7regrRDugWTnaMfMHbvCcfvTd92IoQL
pAaQhwqlV26duHP1FiJc40bam+u0Jig2cVoU3BRHnI/d7OFpGIvlUDxvmad3hToZ
0A3+6BnEaUwrc1jpQ3hCkvk7HwqRjseFfW+69XLylPkCAwEAATANBgkqhkiG9w0B
AQUFAAOCAgEAppqG1kZMl4W/LRT65T88Td+00puqs+BrK5yViDjA6Bv2c+t6swjq
HTwQNNDCdo74I8J2oscXvXkg9ki1aykteZGfMBkacxTc4e71BTZyBkZ8lrK0+kqN
KWyjUdkfWZ2ZEuKDfuU9vVRqjYBjneF+IfpXm3Wv2/QwMKcMcwGwxbD9J3v3AfVi
ED+9pBOnxPsHiCC0LWifd5UcVPz4cV3s/xYQwEsGgrb9jO0Hb06tkoH0H/+swVAc
iioMjIMvrTwatYYkoRBwFKMDfO4J8Azd8sSqQnp+LmmMyVimEiPZ68YYcRV33mDU
Q5nxjMd13G3+mlJ57m0b3NORc38P/MSq0yFLGtuktEfPVn7zLRQ1eqAX3nHfOzw4
cCH7veQwURwIxyz1RHVTSVJG17ab9uTwadPGW7b2c9S7hQdi5FL/HOg0PkVowVKJ
gVaHeRlKx+Lgmat42RFe80MLBnQcbQd7e1EnedNTfIV/NUu7+5jJbamcCMx5IF+M
qEirW64VdOo0i7mh0ViB9Cj3wx84Xow/6V/BG5117KXp/1FB3ufU9Yld/6u9PkPh
VOgnUBAikuMfrXyjm9fiCW4GSYDu6MqnlKRz4BiCWMDXiCQcjnGlwhXA0c1DWKoR
WkEZCFlJUHVjsBXkQmNEHBFUpORdMuH6HDIJIw9EPHSL1jzhfEvgty0=
-----END CERTIFICATE-----
