Certificate:
    Data:
        Version: 3 (0x2)
        Serial Number: 1 (0x1)
    Signature Algorithm: sha1WithRSAEncryption
        Issuer: CN=ca-false, C=BE, O=Gremwell bvba
        Validity
            Not Before: Jun 23 15:47:38 2012 GMT
            Not After : Jun 23 15:47:38 2013 GMT
        Subject: C=BE, CN=txjsonrpc-pyserver
        Subject Public Key Info:
            Public Key Algorithm: rsaEncryption
                Public-Key: (4096 bit)
                Modulus:
                    00:d7:f2:de:0d:ae:f9:ea:91:ec:8b:d6:04:15:49:
                    e7:c7:a7:1f:13:e0:82:1a:55:2e:98:fc:59:a3:14:
                    bc:5d:cc:58:83:1b:39:76:ca:1b:2d:db:83:21:a3:
                    a2:fc:52:7f:71:e1:92:91:b6:57:15:bc:e1:db:64:
                    3a:39:c4:84:93:09:f4:3a:33:02:fe:57:1c:5f:fe:
                    32:e8:8d:a5:df:58:5e:0a:43:bd:1a:d8:9b:e2:f2:
                    63:8c:f8:47:03:4e:43:b5:e5:fd:47:ae:ae:d1:6f:
                    95:77:43:c5:48:b9:7b:ee:57:f6:fb:b5:6f:64:88:
                    2b:be:4e:c3:69:9e:72:6d:66:55:ff:a8:cc:72:42:
                    2b:20:0c:c0:bc:d7:95:ed:02:f5:81:e8:77:a6:37:
                    c5:0c:04:89:3e:6c:38:fe:00:80:0f:26:79:7f:de:
                    27:9e:06:94:9b:c2:3e:5c:19:9f:7b:63:cd:e9:30:
                    48:77:94:bd:09:a1:1e:de:4c:4b:ee:de:db:78:0c:
                    6c:1c:52:09:39:ec:ea:05:05:9f:6f:75:68:39:bc:
                    8c:09:16:bc:7a:1a:26:7a:01:5d:b3:5f:a8:81:32:
                    81:66:91:d0:86:f5:d7:97:0d:9b:a6:85:e3:e3:7f:
                    22:6c:98:ac:33:f6:d3:d5:64:02:83:85:a9:be:1f:
                    1f:99:63:98:e2:18:dd:71:ff:10:66:cd:a9:fa:65:
                    3f:39:40:ef:4c:30:ab:7a:c7:f2:0a:36:dc:8a:3b:
                    31:27:0e:f2:b5:a8:1d:ed:4b:5d:14:1e:c2:72:ac:
                    e6:ab:b6:81:0f:8b:84:7b:10:5f:9b:17:ee:fc:f8:
                    e0:ef:b4:50:94:c3:02:dc:0e:3d:e1:8e:b7:76:b5:
                    50:68:4d:15:b6:53:52:81:61:20:21:0f:04:6b:22:
                    a6:f2:04:fe:78:2b:b6:3d:47:bc:cb:55:21:a2:80:
                    36:af:4f:55:f0:bf:bb:68:5a:10:2c:06:8b:93:42:
                    7e:8b:36:66:4e:f5:51:64:17:7e:73:88:3d:b7:ad:
                    c6:1a:73:e1:34:9b:80:b3:58:55:0b:c9:b2:82:de:
                    ea:8e:67:52:b2:e7:2f:60:26:4b:c7:d8:30:2a:1b:
                    dc:fc:2b:1f:c9:af:62:3a:47:6b:07:92:23:60:de:
                    9d:47:ca:dd:8e:fa:96:bb:32:03:e1:a8:e1:9f:2c:
                    37:87:03:fc:f1:f2:fd:cb:2a:6e:0c:0e:13:52:97:
                    58:fe:ac:e8:0a:e2:9a:0e:0c:86:b0:30:b5:cc:9d:
                    7a:cf:8f:be:e5:40:29:29:31:23:a5:95:78:3f:62:
                    7d:d7:4b:58:11:e8:d4:d6:da:6d:26:13:04:a9:85:
                    6c:6f:b9
                Exponent: 65537 (0x10001)
        X509v3 extensions:
            X509v3 Basic Constraints: 
                CA:FALSE
            Netscape Cert Type: 
                SSL Server
            Netscape Comment: 
                TinyCA Generated Certificate
            X509v3 Subject Key Identifier: 
                26:8C:A5:F9:A6:4A:FE:4C:E8:0F:04:33:7E:04:26:28:BF:4C:92:F3
            X509v3 Authority Key Identifier: 
                keyid:9D:8F:84:76:94:CD:07:FE:A3:E8:8B:D7:F9:D9:6E:EF:CA:75:51:7B
                DirName:/C=BE/CN=txjsonrpc-test-ca
                serial:8D:D2:AF:37:F9:CA:92:0B

            X509v3 Issuer Alternative Name: 
                <EMPTY>

            X509v3 Subject Alternative Name: 
                <EMPTY>

    Signature Algorithm: sha1WithRSAEncryption
         93:7f:78:3e:55:bc:15:59:86:e7:74:50:0d:7a:eb:4e:08:38:
         33:c8:99:fe:80:9b:06:8c:cc:2d:90:f1:dc:9f:20:90:ea:0f:
         d1:de:b5:aa:95:55:77:bc:f6:6d:b6:cb:64:46:3b:1d:e0:13:
         f5:43:8c:c9:5f:7a:30:c1:0b:6b:51:b5:65:a4:b1:36:20:df:
         f3:9e:e3:d6:cf:4e:d5:6b:e4:27:c2:9c:fd:6d:48:50:06:ae:
         fb:95:1c:13:fd:83:81:f4:32:ac:c1:ed:08:a6:b3:fe:d6:e5:
         b5:20:5a:4a:5f:f0:d9:26:b7:93:d5:1d:90:a2:06:d0:68:d0:
         b3:08
-----BEGIN CERTIFICATE-----
MIIEOzCCA6SgAwIBAgIBATANBgkqhkiG9w0BAQUFADA4MREwDwYDVQQDEwhjYS1m
YWxzZTELMAkGA1UEBhMCQkUxFjAUBgNVBAoTDUdyZW13ZWxsIGJ2YmEwHhcNMTIw
NjIzMTU0NzM4WhcNMTMwNjIzMTU0NzM4WjAqMQswCQYDVQQGEwJCRTEbMBkGA1UE
AxMSdHhqc29ucnBjLXB5c2VydmVyMIICIjANBgkqhkiG9w0BAQEFAAOCAg8AMIIC
CgKCAgEA1/LeDa756pHsi9YEFUnnx6cfE+CCGlUumPxZoxS8XcxYgxs5dsobLduD
IaOi/FJ/ceGSkbZXFbzh22Q6OcSEkwn0OjMC/lccX/4y6I2l31heCkO9Gtib4vJj
jPhHA05DteX9R66u0W+Vd0PFSLl77lf2+7VvZIgrvk7DaZ5ybWZV/6jMckIrIAzA
vNeV7QL1geh3pjfFDASJPmw4/gCADyZ5f94nngaUm8I+XBmfe2PN6TBId5S9CaEe
3kxL7t7beAxsHFIJOezqBQWfb3VoObyMCRa8ehomegFds1+ogTKBZpHQhvXXlw2b
poXj438ibJisM/bT1WQCg4Wpvh8fmWOY4hjdcf8QZs2p+mU/OUDvTDCresfyCjbc
ijsxJw7ytagd7UtdFB7Ccqzmq7aBD4uEexBfmxfu/Pjg77RQlMMC3A494Y63drVQ
aE0VtlNSgWEgIQ8EayKm8gT+eCu2PUe8y1UhooA2r09V8L+7aFoQLAaLk0J+izZm
TvVRZBd+c4g9t63GGnPhNJuAs1hVC8mygt7qjmdSsucvYCZLx9gwKhvc/Csfya9i
OkdrB5IjYN6dR8rdjvqWuzID4ajhnyw3hwP88fL9yypuDA4TUpdY/qzoCuKaDgyG
sDC1zJ16z4++5UApKTEjpZV4P2J910tYEejU1tptJhMEqYVsb7kCAwEAAaOB3jCB
2zAJBgNVHRMEAjAAMBEGCWCGSAGG+EIBAQQEAwIGQDArBglghkgBhvhCAQ0EHhYc
VGlueUNBIEdlbmVyYXRlZCBDZXJ0aWZpY2F0ZTAdBgNVHQ4EFgQUJoyl+aZK/kzo
DwQzfgQmKL9MkvMwWQYDVR0jBFIwUIAUnY+EdpTNB/6j6IvX+dlu78p1UXuhLaQr
MCkxCzAJBgNVBAYTAkJFMRowGAYDVQQDExF0eGpzb25ycGMtdGVzdC1jYYIJAI3S
rzf5ypILMAkGA1UdEgQCMAAwCQYDVR0RBAIwADANBgkqhkiG9w0BAQUFAAOBgQCT
f3g+VbwVWYbndFANeutOCDgzyJn+gJsGjMwtkPHcnyCQ6g/R3rWqlVV3vPZttstk
Rjsd4BP1Q4zJX3owwQtrUbVlpLE2IN/znuPWz07Va+Qnwpz9bUhQBq77lRwT/YOB
9DKswe0IprP+1uW1IFpKX/DZJreT1R2QogbQaNCzCA==
-----END CERTIFICATE-----
Certificate:
    Data:
        Version: 4 (0x3)
        Serial Number: 1 (0x1)
    Signature Algorithm: sha1WithRSAEncryption
        Issuer: C=BE, CN=txjsonrpc-test-ca
        Validity
            Not Before: Jan  1 00:00:00 1970 GMT
            Not After : Jan 19 03:14:07 2038 GMT
        Subject: CN=ca-false, C=BE, O=Gremwell bvba
        Subject Public Key Info:
            Public Key Algorithm: rsaEncryption
                Public-Key: (1024 bit)
                Modulus:
                    00:c1:83:72:41:60:c7:93:de:98:4a:f5:4a:0c:2a:
                    bb:cc:7c:17:e8:47:ab:e5:db:9a:dd:62:ce:5d:7d:
                    58:88:54:90:e9:86:7a:66:c5:ee:15:f9:42:55:55:
                    b9:b7:1b:45:57:33:7d:e4:ee:1f:bd:0b:1a:a4:6d:
                    80:16:a7:8f:0a:50:f1:2c:0b:fb:74:19:06:30:0b:
                    d9:06:c1:8f:0c:be:34:ef:09:83:bf:17:06:d8:13:
                    06:e3:4a:ec:4d:09:36:24:95:26:4f:78:8e:24:98:
                    ab:65:96:b9:cc:70:52:59:d4:12:ed:b9:0a:a7:76:
                    3b:9e:d1:31:cb:42:cb:9f:5f
                Exponent: 65537 (0x10001)
        X509v3 extensions:
            X509v3 Basic Constraints: critical
                CA:FALSE
    Signature Algorithm: sha1WithRSAEncryption
         d0:99:f5:91:fe:ae:3e:b6:5e:07:47:d9:f2:b7:be:40:89:3e:
         6d:ea:91:e1:cd:2b:7e:cb:60:df:ae:fb:f8:18:b3:55:85:cf:
         8a:8a:0b:92:10:17:8c:b1:d4:a9:82:cc:03:9b:57:6b:00:fd:
         50:45:42:f9:a8:b9:d2:ca:11:29:66:1e:50:e5:dd:6e:c4:06:
         8d:88:4b:85:6b:6f:bd:36:b1:4c:17:a9:d8:6a:3b:74:d3:0a:
         37:59:3c:88:65:16:71:33:f2:d5:7c:16:a9:56:d0:7b:b1:a1:
         d2:ec:0c:87:51:40:f4:6d:31:4f:dc:ba:c2:5a:e4:fb:72:c7:
         4a:33:aa:f7:c0:52:ea:18:4f:a6:5e:fa:80:56:e6:a3:54:dc:
         05:33:fe:73:23:aa:62:3e:0c:7c:8b:0e:6e:f8:6d:e5:1c:8f:
         fd:f8:13:d8:88:58:f4:41:d8:1f:be:a3:41:e5:ea:ce:30:79:
         9a:7c:66:f0:79:e1:96:1d:64:d0:73:e3:16:a4:8b:b7:2e:8e:
         4b:79:e3:cd:47:e2:6a:6b:f5:46:1b:78:fa:9b:25:30:36:2f:
         e4:9b:f5:27:7d:e1:23:b3:9b:8d:6c:d7:d4:a7:aa:71:97:6e:
         34:ff:46:ff:96:6a:dc:fe:a0:c0:04:12:a3:2c:92:eb:b0:40:
         49:76:8d:75:e9:dd:46:d0:dd:38:21:19:72:cc:9e:ae:43:20:
         e2:48:7b:5e:86:2a:2f:0c:39:77:51:da:f8:62:1a:79:da:90:
         ce:73:1e:da:05:6c:02:56:8f:af:d4:e9:bd:91:cf:6c:04:41:
         9a:35:e4:91:3d:4d:ce:75:b4:90:16:f8:55:ef:98:38:ac:5f:
         58:da:22:2a:ec:52:33:87:d6:af:58:63:cd:79:34:3f:89:50:
         1a:e4:c1:15:4e:0f:c2:19:de:8f:80:d1:16:4c:1e:ef:17:da:
         18:09:0b:1b:89:99:de:42:9f:b2:2a:dd:b2:d3:a0:da:81:4a:
         b0:61:d3:b2:de:ea:95:31:e1:1d:1d:66:aa:35:00:83:3a:b3:
         d1:04:e4:60:fc:61:51:50:b5:3b:be:b6:dd:dc:03:98:6d:ab:
         84:cc:c0:e2:cd:e4:e2:d7:35:a4:3f:88:a8:b8:d4:78:54:10:
         80:bb:54:6f:6c:9d:e7:8b:10:d2:0b:54:97:8d:cf:82:4f:1b:
         41:f3:ef:c1:aa:93:c2:ff:17:84:1c:e8:ee:2c:f5:b0:e7:87:
         f8:13:4a:6a:4c:88:16:e8:66:4e:c7:e9:2b:01:a3:51:d0:28:
         94:c8:e7:62:9c:3c:89:c8:c2:cc:59:0f:e8:22:71:cf:98:22:
         6c:cb:ab:8a:65:52:d4:52
-----BEGIN CERTIFICATE-----
MIIDaDCCAVCgAwIBAwIBATANBgkqhkiG9w0BAQUFADApMQswCQYDVQQGEwJCRTEa
MBgGA1UEAxMRdHhqc29ucnBjLXRlc3QtY2EwHhcNNzAwMTAxMDAwMDAwWhcNMzgw
MTE5MDMxNDA3WjA4MREwDwYDVQQDEwhjYS1mYWxzZTELMAkGA1UEBhMCQkUxFjAU
BgNVBAoTDUdyZW13ZWxsIGJ2YmEwgZ8wDQYJKoZIhvcNAQEBBQADgY0AMIGJAoGB
AMGDckFgx5PemEr1Sgwqu8x8F+hHq+Xbmt1izl19WIhUkOmGembF7hX5QlVVubcb
RVczfeTuH70LGqRtgBanjwpQ8SwL+3QZBjAL2QbBjwy+NO8Jg78XBtgTBuNK7E0J
NiSVJk94jiSYq2WWucxwUlnUEu25Cqd2O57RMctCy59fAgMBAAGjEDAOMAwGA1Ud
EwEB/wQCMAAwDQYJKoZIhvcNAQEFBQADggIBANCZ9ZH+rj62XgdH2fK3vkCJPm3q
keHNK37LYN+u+/gYs1WFz4qKC5IQF4yx1KmCzAObV2sA/VBFQvmoudLKESlmHlDl
3W7EBo2IS4Vrb702sUwXqdhqO3TTCjdZPIhlFnEz8tV8FqlW0HuxodLsDIdRQPRt
MU/cusJa5Ptyx0ozqvfAUuoYT6Ze+oBW5qNU3AUz/nMjqmI+DHyLDm74beUcj/34
E9iIWPRB2B++o0Hl6s4weZp8ZvB54ZYdZNBz4xaki7cujkt5481H4mpr9UYbePqb
JTA2L+Sb9Sd94SOzm41s19SnqnGXbjT/Rv+Watz+oMAEEqMskuuwQEl2jXXp3UbQ
3TghGXLMnq5DIOJIe16GKi8MOXdR2vhiGnnakM5zHtoFbAJWj6/U6b2Rz2wEQZo1
5JE9Tc51tJAW+FXvmDisX1jaIirsUjOH1q9YY815ND+JUBrkwRVOD8IZ3o+A0RZM
Hu8X2hgJCxuJmd5Cn7Iq3bLToNqBSrBh07Le6pUx4R0dZqo1AIM6s9EE5GD8YVFQ
tTu+tt3cA5htq4TMwOLN5OLXNaQ/iKi41HhUEIC7VG9sneeLENILVJeNz4JPG0Hz
78Gqk8L/F4Qc6O4s9bDnh/gTSmpMiBboZk7H6SsBo1HQKJTI52KcPInIwsxZD+gi
cc+YImzLq4plUtRS
-----END CERTIFICATE-----
