Certificate:
    Data:
        Version: 4 (0x3)
        Serial Number: 1 (0x1)
    Signature Algorithm: sha1WithRSAEncryption
        Issuer: CN=ca-false, C=BE, O=Gremwell bvba
        Validity
            Not Before: Jan  1 00:00:00 1970 GMT
            Not After : Jan 19 03:14:07 2038 GMT
        Subject: CN=www.example.com, C=BE, O=Gremwell bvba
        Subject Public Key Info:
            Public Key Algorithm: rsaEncryption
                Public-Key: (1024 bit)
                Modulus:
                    00:c1:95:ab:35:e4:da:6e:87:10:89:ae:a9:ce:6f:
                    bf:fe:4a:da:4b:d2:cf:06:ef:55:c0:3a:84:ba:a7:
                    4b:e5:e0:93:b4:af:5b:32:9d:fd:b4:c7:3b:e1:d8:
                    74:a8:c0:62:59:71:4b:4b:a7:70:28:9a:4c:ec:60:
                    1a:3d:78:5f:a5:ad:23:83:ca:0a:67:04:a5:e0:c8:
                    61:15:17:51:df:8b:22:20:bc:38:e1:c8:70:25:10:
                    a3:b1:89:8d:2b:df:72:e8:39:8d:f9:21:3b:e2:df:
                    5b:f6:d6:62:da:eb:ac:58:8b:90:ab:87:94:61:5b:
                    ad:08:cd:32:47:4b:b9:2a:4b
                Exponent: 65537 (0x10001)
    Signature Algorithm: sha1WithRSAEncryption
         4b:6b:63:2a:32:03:cb:43:c2:5b:35:40:81:b7:70:f7:e0:ea:
         aa:4c:56:20:25:ab:b9:4c:e7:d3:ae:a8:cd:4d:4a:9d:83:a4:
         78:8b:b6:74:0e:b3:00:05:5e:be:7f:c1:b0:b0:f8:21:cc:70:
         00:67:be:f5:4f:0f:8e:0d:e2:fa:ea:3f:61:77:54:04:62:75:
         7b:3a:a0:40:0d:16:9e:86:a3:64:4f:c4:14:ef:54:07:bb:85:
         fa:04:2c:de:ad:d7:a1:c0:92:16:90:24:74:a1:89:82:35:f2:
         35:a7:43:a1:d8:4e:93:17:07:bc:da:3f:3d:96:60:5c:f6:9b:
         6d:ce
-----BEGIN CERTIFICATE-----
MIIB6zCCAVSgAwIBAwIBATANBgkqhkiG9w0BAQUFADA4MREwDwYDVQQDEwhjYS1m
YWxzZTELMAkGA1UEBhMCQkUxFjAUBgNVBAoTDUdyZW13ZWxsIGJ2YmEwHhcNNzAw
MTAxMDAwMDAwWhcNMzgwMTE5MDMxNDA3WjA/MRgwFgYDVQQDEw93d3cuZXhhbXBs
ZS5jb20xCzAJBgNVBAYTAkJFMRYwFAYDVQQKEw1HcmVtd2VsbCBidmJhMIGfMA0G
CSqGSIb3DQEBAQUAA4GNADCBiQKBgQDBlas15NpuhxCJrqnOb7/+StpL0s8G71XA
OoS6p0vl4JO0r1synf20xzvh2HSowGJZcUtLp3AomkzsYBo9eF+lrSODygpnBKXg
yGEVF1HfiyIgvDjhyHAlEKOxiY0r33LoOY35ITvi31v21mLa66xYi5Crh5RhW60I
zTJHS7kqSwIDAQABMA0GCSqGSIb3DQEBBQUAA4GBAEtrYyoyA8tDwls1QIG3cPfg
6qpMViAlq7lM59OuqM1NSp2DpHiLtnQOswAFXr5/wbCw+CHMcABnvvVPD44N4vrq
P2F3VARidXs6oEANFp6Go2RPxBTvVAe7hfoELN6t16HAkhaQJHShiYI18jWnQ6HY
TpMXB7zaPz2WYFz2m23O
-----END CERTIFICATE-----
Certificate:
    Data:
        Version: 4 (0x3)
        Serial Number: 1 (0x1)
    Signature Algorithm: sha1WithRSAEncryption
        Issuer: C=BE, CN=txjsonrpc-test-ca
        Validity
            Not Before: Jan  1 00:00:00 1970 GMT
            Not After : Jan 19 03:14:07 2038 GMT
        Subject: CN=ca-false, C=BE, O=Gremwell bvba
        Subject Public Key Info:
            Public Key Algorithm: rsaEncryption
                Public-Key: (1024 bit)
                Modulus:
                    00:eb:a3:3b:c6:61:8c:c1:45:d7:74:ed:c8:3f:d3:
                    9a:c6:dc:16:66:69:83:7a:fe:a2:b4:8f:f5:10:80:
                    46:4f:4a:de:b6:3e:9c:77:a8:56:6c:12:e9:d4:c1:
                    9d:3a:ff:66:2e:ce:b1:68:62:55:17:5e:4f:4f:28:
                    fa:14:40:ae:b5:9c:83:0f:f8:df:db:fc:ad:a0:61:
                    33:a9:05:54:dd:2b:7f:1e:61:aa:7d:7e:57:91:a2:
                    de:8d:36:f2:f8:01:26:0c:c2:c5:9a:7d:9a:18:57:
                    b4:11:f8:c8:f1:0f:34:9d:10:3d:a7:36:8b:d6:8a:
                    a5:81:cf:25:12:4e:66:ce:e1
                Exponent: 65537 (0x10001)
        X509v3 extensions:
            X509v3 Basic Constraints: critical
                CA:FALSE
    Signature Algorithm: sha1WithRSAEncryption
         8c:bc:54:e8:5f:8f:79:9c:25:51:c1:7f:8a:19:1d:04:15:33:
         9f:0a:cd:58:3d:38:02:52:b1:45:50:52:48:7a:8b:da:84:ac:
         78:14:20:2b:b8:76:ed:2a:22:e2:7a:86:de:01:ef:b3:65:d6:
         ec:f9:68:1d:03:a2:0f:fb:24:77:e8:40:a5:45:9e:66:73:bf:
         66:ca:25:df:09:56:e4:55:ae:29:a6:85:49:ef:3d:6a:d2:66:
         51:2c:ab:3a:0e:99:33:bb:17:3d:79:8d:78:d9:a1:6e:e6:94:
         79:66:67:18:a5:9a:3b:2c:ce:f6:46:f4:ef:e1:53:98:10:56:
         62:ed:4b:86:8c:ce:e5:6b:c4:e1:5b:c6:6b:de:44:62:56:cb:
         d9:e8:c8:00:cd:87:ed:74:bf:b0:4f:dd:b8:4f:56:ba:bb:a7:
         5c:0c:37:50:c1:3f:7d:4a:bd:43:31:30:33:14:a0:be:01:69:
         04:d7:e7:58:9a:cb:59:0b:61:66:18:c6:98:a7:10:90:d6:51:
         64:9f:20:ca:b3:28:b4:7f:2f:62:81:42:86:8d:c2:15:0a:47:
         9d:01:79:13:0a:66:a8:80:74:f1:7b:81:ce:14:cc:0c:f7:83:
         f6:5d:1a:6e:de:0a:08:49:ae:09:d9:06:12:52:3b:f0:c8:3f:
         91:28:05:fd:0b:bf:40:a1:8b:d5:93:aa:3e:72:b1:6f:f4:6d:
         88:6a:04:16:25:19:82:8a:1a:3a:ce:6f:6b:83:d1:d7:4f:72:
         b1:80:52:cf:9b:c8:27:8f:52:1c:b5:ad:90:50:8c:3f:ca:18:
         7e:2e:45:ba:71:d9:e8:dd:01:1b:39:3c:8c:de:ec:0e:5d:70:
         b0:17:9a:be:72:7d:b5:96:cd:82:15:37:38:ef:f0:f1:b8:51:
         5d:c9:5e:b5:64:db:b8:8b:19:90:27:f4:6f:33:2b:e1:0e:a1:
         b7:fc:e6:73:37:ad:d6:32:90:6b:5c:47:fa:3d:43:17:44:8d:
         2c:23:5b:54:0b:ac:c1:32:01:f2:26:67:d3:53:61:aa:98:57:
         73:1b:73:42:ed:95:8c:e3:65:1e:54:be:9e:b6:9c:7f:db:75:
         24:b8:14:23:2f:7f:24:3c:5c:41:5d:7d:74:5f:60:2f:f2:38:
         62:60:4a:24:c0:e1:00:25:3b:d2:85:1f:f5:95:6d:df:2e:43:
         e4:d1:8e:ba:4f:2f:49:7a:5f:02:e6:57:60:15:32:38:51:d4:
         d3:6f:21:c7:97:27:bd:53:6d:7c:7a:c8:83:95:aa:e9:d2:5d:
         94:73:fe:cd:42:34:19:b0:87:7d:0b:c8:88:14:c8:8b:00:00:
         d6:ba:4b:96:2a:30:fd:b9
-----BEGIN CERTIFICATE-----
MIIDaDCCAVCgAwIBAwIBATANBgkqhkiG9w0BAQUFADApMQswCQYDVQQGEwJCRTEa
MBgGA1UEAxMRdHhqc29ucnBjLXRlc3QtY2EwHhcNNzAwMTAxMDAwMDAwWhcNMzgw
MTE5MDMxNDA3WjA4MREwDwYDVQQDEwhjYS1mYWxzZTELMAkGA1UEBhMCQkUxFjAU
BgNVBAoTDUdyZW13ZWxsIGJ2YmEwgZ8wDQYJKoZIhvcNAQEBBQADgY0AMIGJAoGB
AOujO8ZhjMFF13TtyD/TmsbcFmZpg3r+orSP9RCARk9K3rY+nHeoVmwS6dTBnTr/
Zi7OsWhiVRdeT08o+hRArrWcgw/439v8raBhM6kFVN0rfx5hqn1+V5Gi3o028vgB
JgzCxZp9mhhXtBH4yPEPNJ0QPac2i9aKpYHPJRJOZs7hAgMBAAGjEDAOMAwGA1Ud
EwEB/wQCMAAwDQYJKoZIhvcNAQEFBQADggIBAIy8VOhfj3mcJVHBf4oZHQQVM58K
zVg9OAJSsUVQUkh6i9qErHgUICu4du0qIuJ6ht4B77Nl1uz5aB0Dog/7JHfoQKVF
nmZzv2bKJd8JVuRVrimmhUnvPWrSZlEsqzoOmTO7Fz15jXjZoW7mlHlmZxilmjss
zvZG9O/hU5gQVmLtS4aMzuVrxOFbxmveRGJWy9noyADNh+10v7BP3bhPVrq7p1wM
N1DBP31KvUMxMDMUoL4BaQTX51iay1kLYWYYxpinEJDWUWSfIMqzKLR/L2KBQoaN
whUKR50BeRMKZqiAdPF7gc4UzAz3g/ZdGm7eCghJrgnZBhJSO/DIP5EoBf0Lv0Ch
i9WTqj5ysW/0bYhqBBYlGYKKGjrOb2uD0ddPcrGAUs+byCePUhy1rZBQjD/KGH4u
Rbpx2ejdARs5PIze7A5dcLAXmr5yfbWWzYIVNzjv8PG4UV3JXrVk27iLGZAn9G8z
K+EOobf85nM3rdYykGtcR/o9QxdEjSwjW1QLrMEyAfImZ9NTYaqYV3Mbc0LtlYzj
ZR5Uvp62nH/bdSS4FCMvfyQ8XEFdfXRfYC/yOGJgSiTA4QAlO9KFH/WVbd8uQ+TR
jrpPL0l6XwLmV2AVMjhR1NNvIceXJ71TbXx6yIOVqunSXZRz/s1CNBmwh30LyIgU
yIsAANa6S5YqMP25
-----END CERTIFICATE-----
