Certificate:
    Data:
        Version: 4 (0x3)
        Serial Number: 1 (0x1)
    Signature Algorithm: sha1WithRSAEncryption
        Issuer: C=BE, CN=txjsonrpc-test-ca
        Validity
            Not Before: Jan  1 00:00:00 1970 GMT
            Not After : Jan 19 03:14:07 2038 GMT
        Subject: CN=ca-none, C=BE, O=Gremwell bvba
        Subject Public Key Info:
            Public Key Algorithm: rsaEncryption
                Public-Key: (1024 bit)
                Modulus:
                    00:e6:bf:4e:20:8f:13:55:df:12:47:99:09:b1:b8:
                    ac:ff:4f:ef:9c:9a:4f:65:66:4c:77:ba:de:82:b4:
                    43:ba:05:93:9d:a3:1f:30:76:ef:09:c7:ef:4d:df:
                    76:22:84:0b:a4:06:90:87:0a:a5:57:6e:9d:b8:73:
                    f5:16:22:5c:e3:46:da:9b:eb:b4:26:28:36:71:5a:
                    14:dc:14:47:9c:8f:dd:ec:e1:69:18:8b:e5:50:3c:
                    6f:99:a7:77:85:3a:19:d0:0d:fe:e8:19:c4:69:4c:
                    2b:73:58:e9:43:78:42:92:f9:3b:1f:0a:91:8e:c7:
                    85:7d:6f:ba:f5:72:f2:94:f9
                Exponent: 65537 (0x10001)
    Signature Algorithm: sha1WithRSAEncryption
         a6:9a:86:d6:46:4c:97:85:bf:2d:14:fa:e5:3f:3c:4d:df:b4:
         d2:9b:aa:b3:e0:6b:2b:9c:95:88:38:c0:e8:1b:f6:73:eb:7a:
         b3:08:ea:1d:3c:10:34:d0:c2:76:8e:f8:23:c2:76:a2:c7:17:
         bd:79:20:f6:48:b5:6b:29:2d:79:91:9f:30:19:1a:73:14:dc:
         e1:ee:f5:05:36:72:06:46:7c:96:b2:b4:fa:4a:8d:29:6c:a3:
         51:d9:1f:59:9d:99:12:e2:83:7e:e5:3d:bd:54:6a:8d:80:63:
         9d:e1:7e:21:fa:57:9b:75:af:db:f4:30:30:a7:0c:73:01:b0:
         c5:b0:fd:27:7b:f7:01:f5:62:10:3f:bd:a4:13:a7:c4:fb:07:
         88:20:b4:2d:68:9f:77:95:1c:54:fc:f8:71:5d:ec:ff:16:10:
         c0:4b:06:82:b6:fd:8c:ed:07:6f:4e:ad:92:81:f4:1f:ff:ac:
         c1:50:1c:8a:2a:0c:8c:83:2f:ad:3c:1a:b5:86:24:a1:10:70:
         14:a3:03:7c:ee:09:f0:0c:dd:f2:c4:aa:42:7a:7e:2e:69:8c:
         c9:58:a6:12:23:d9:eb:c6:18:71:15:77:de:60:d4:43:99:f1:
         8c:c7:75:dc:6d:fe:9a:52:79:ee:6d:1b:dc:d3:91:73:7f:0f:
         fc:c4:aa:d3:21:4b:1a:db:a4:b4:47:cf:56:7e:f3:2d:14:35:
         7a:a0:17:de:71:df:3b:3c:38:70:21:fb:bd:e4:30:51:1c:08:
         c7:2c:f5:44:75:53:49:52:46:d7:b6:9b:f6:e4:f0:69:d3:c6:
         5b:b6:f6:73:d4:bb:85:07:62:e4:52:ff:1c:e8:34:3e:45:68:
         c1:52:89:81:56:87:79:19:4a:c7:e2:e0:99:ab:78:d9:11:5e:
         f3:43:0b:06:74:1c:6d:07:7b:7b:51:27:79:d3:53:7c:85:7f:
         35:4b:bb:fb:98:c9:6d:a9:9c:08:cc:79:20:5f:8c:a8:48:ab:
         5b:ae:15:74:ea:34:8b:b9:a1:d1:58:81:f4:28:f7:c3:1f:38:
         5e:8c:3f:e9:5f:c1:1b:9d:75:ec:a5:e9:ff:51:41:de:e7:d4:
         f5:89:5d:ff:ab:bd:3e:43:e1:54:e8:27:50:10:22:92:e3:1f:
         ad:7c:a3:9b:d7:e2:09:6e:06:49:80:ee:e8:ca:a7:94:a4:73:
         e0:18:82:58:c0:d7:88:24:1c:8e:71:a5:c2:15:c0:d1:cd:43:
         58:aa:11:5a:41:19:08:59:49:50:75:63:b0:15:e4:42:63:44:
         1c:11:54:a4:e4:5d:32:e1:fa:1c:32:09:23:0f:44:3c:74:8b:
         d6:3c:e1:7c:4b:e0:b7:2d
-----BEGIN CERTIFICATE-----
MIIDVTCCAT2gAwIBAwIBATANBgkqhkiG9w0BAQUFADApMQswCQYDVQQGEwJCRTEa
MBgGA1UEAxMRdHhqc29ucnBjLXRlc3QtY2EwHhcNNzAwMTAxMDAwMDAwWhcNMzgw
MTE5MDMxNDA3WjA3MRAwDgYDVQQDEwdjYS1ub25lMQswCQYDVQQGEwJCRTEWMBQG
A1UEChMNR3JlbXdlbGwgYnZiYTCBnzANBgkqhkiG9w0BAQEFAAOBjQAwgYkCgYEA
5r9OII8TVd8SR5kJsbis/0/vnJpPZWZMd7regrRDugWTnaMfMHbvCcfvTd92IoQL
pAaQhwqlV26duHP1FiJc40bam+u0Jig2cVoU3BRHnI/d7OFpGIvlUDxvmad3hToZ
0A3+6BnEaUwrc1jpQ3hCkvk7HwqRjseFfW+69XLylPkCAwEAATANBgkqhkiG9w0B
AQUFAAOCAgEAppqG1kZMl4W/LRT65T88Td+00puqs+BrK5yViDjA6Bv2c+t6swjq
HTwQNNDCdo74I8J2oscXvXkg9ki1aykteZGfMBkacxTc4e71BTZyBkZ8lrK0+kqN
KWyjUdkfWZ2ZEuKDfuU9vVRqjYBjneF+IfpXm3Wv2/QwMKcMcwGwxbD9J3v3AfVi
ED+9pBOnxPsHiCC0LWifd5UcVPz4cV3s/xYQwEsGgrb9jO0Hb06tkoH0H/+swVAc
iioMjIMvrTwatYYkoRBwFKMDfO4J8Azd8sSqQnp+LmmMyVimEiPZ68YYcRV33mDU
Q5nxjMd13G3+mlJ57m0b3NORc38P/MSq0yFLGtuktEfPVn7zLRQ1eqAX3nHfOzw4
cCH7veQwURwIxyz1RHVTSVJG17ab9uTwadPGW7b2c9S7hQdi5FL/HOg0PkVowVKJ
gVaHeRlKx+Lgmat42RFe80MLBnQcbQd7e1EnedNTfIV/NUu7+5jJbamcCMx5IF+M
qEirW64VdOo0i7mh0ViB9Cj3wx84Xow/6V/BG5117KXp/1FB3ufU9Yld/6u9PkPh
VOgnUBAikuMfrXyjm9fiCW4GSYDu6MqnlKRz4BiCWMDXiCQcjnGlwhXA0c1DWKoR
WkEZCFlJUHVjsBXkQmNEHBFUpORdMuH6HDIJIw9EPHSL1jzhfEvgty0=
-----END CERTIFICATE-----
Certificate:
    Data:
        Version: 3 (0x2)
        Serial Number: 10219423159405941259 (0x8dd2af37f9ca920b)
    Signature Algorithm: sha1WithRSAEncryption
        Issuer: C=BE, CN=txjsonrpc-test-ca
        Validity
            Not Before: Jun 23 15:46:37 2012 GMT
            Not After : Jun 21 15:46:37 2022 GMT
        Subject: C=BE, CN=txjsonrpc-test-ca
        Subject Public Key Info:
            Public Key Algorithm: rsaEncryption
                Public-Key: (4096 bit)
                Modulus:
                    00:d1:25:af:77:c5:a8:72:cf:90:b9:39:10:fb:7b:
                    75:2c:a1:da:6a:95:e5:44:0c:d6:25:4b:58:7f:bb:
                    07:82:59:49:58:32:85:24:cc:3e:77:db:e1:a7:4f:
                    c8:b5:cb:ee:45:38:bd:bc:fb:e3:76:3b:88:04:ca:
                    ab:3a:a3:96:3b:5f:93:9c:28:a6:61:97:dc:a2:3f:
                    a0:93:2b:56:6c:cf:d3:4f:6a:9e:05:d3:1c:cd:ef:
                    75:80:1a:98:b7:92:49:14:33:b8:c4:7c:73:8c:7e:
                    83:a5:81:a2:59:8c:8b:a3:51:36:6d:68:ac:f2:f1:
                    ed:6f:49:d9:af:7a:63:c1:43:31:42:b6:c7:cd:b9:
                    78:b7:33:98:70:92:6c:9e:04:7a:7b:f0:6d:38:87:
                    eb:00:13:17:b9:d9:ec:b4:66:bb:51:d3:fd:81:e3:
                    0e:88:71:23:d2:80:2a:61:de:ab:25:02:47:a9:c1:
                    6b:c9:69:ae:da:47:b6:49:74:ac:a6:e1:c1:76:ba:
                    6d:b1:d9:68:6e:1c:37:a8:e2:18:60:37:b6:58:13:
                    6c:c7:92:7c:c6:45:8c:ef:c3:81:73:10:dc:2f:31:
                    e2:b9:05:5a:9e:28:70:5a:3e:1d:b8:68:71:81:c9:
                    e8:fe:1f:c3:a0:13:f8:e4:24:12:ba:91:8e:15:d2:
                    03:f1:8c:b0:aa:e2:34:e4:6b:f8:06:f6:23:8a:92:
                    43:a6:05:dc:e9:c7:a5:a8:06:d7:6e:91:52:72:47:
                    ab:ae:87:fe:b3:0f:04:87:6f:4b:22:29:e9:a9:06:
                    52:58:7d:03:16:d7:d5:31:44:b4:f1:51:44:a7:2a:
                    ba:5e:09:19:ec:4c:a2:e0:58:fe:0d:4e:b7:90:4d:
                    02:ac:2a:ad:99:14:65:3b:0a:3c:73:45:56:b2:0f:
                    10:25:24:51:79:57:1a:34:1a:10:6f:60:e0:fc:81:
                    db:ca:c2:e2:85:1b:4c:72:13:5c:9d:76:cc:d0:21:
                    33:31:56:82:8f:c5:57:b9:44:fd:8b:76:c1:b6:e4:
                    21:8b:35:9a:ee:54:74:9f:72:6b:19:84:d7:a2:3c:
                    a5:6e:11:0a:f1:93:04:2e:dd:7c:4c:7d:62:10:d4:
                    1b:8b:87:f6:ed:bf:12:b1:8b:f0:9a:7a:ee:02:94:
                    e1:3c:46:2b:7f:9c:54:fb:2e:61:c9:1c:ef:fc:de:
                    25:bc:2d:75:1b:1f:49:5e:44:3b:15:93:ad:c4:89:
                    d9:ae:3c:da:54:ef:d9:af:3a:16:cb:94:1b:6a:14:
                    e4:42:f9:75:33:46:6e:fb:40:bc:f8:82:36:cf:60:
                    f5:c2:a2:98:23:a7:2a:ae:c1:aa:22:f8:87:da:b7:
                    9c:a4:cf
                Exponent: 65537 (0x10001)
        X509v3 extensions:
            X509v3 Subject Key Identifier: 
                9D:8F:84:76:94:CD:07:FE:A3:E8:8B:D7:F9:D9:6E:EF:CA:75:51:7B
            X509v3 Authority Key Identifier: 
                keyid:9D:8F:84:76:94:CD:07:FE:A3:E8:8B:D7:F9:D9:6E:EF:CA:75:51:7B
                DirName:/C=BE/CN=txjsonrpc-test-ca
                serial:8D:D2:AF:37:F9:CA:92:0B

            X509v3 Basic Constraints: critical
                CA:TRUE
            Netscape Cert Type: 
                SSL CA, S/MIME CA
            X509v3 Issuer Alternative Name: 
                <EMPTY>

            Netscape Comment: 
                Test CA for txjsonrcp
            X509v3 Subject Alternative Name: 
                <EMPTY>

            X509v3 Key Usage: critical
                Certificate Sign, CRL Sign
    Signature Algorithm: sha1WithRSAEncryption
         06:82:86:81:a9:1b:7e:2d:ef:f5:fc:cc:d2:9d:d6:82:ad:d0:
         6f:7e:3d:b9:5c:b2:0f:3a:64:21:9a:fb:53:b2:93:81:dc:1a:
         24:fc:b8:30:57:a2:c7:71:0d:9c:1a:0b:8a:6c:89:52:8b:8a:
         f5:af:95:3e:b8:08:39:ee:36:50:ac:60:4d:df:2b:49:a2:72:
         f1:3f:12:3c:d9:55:56:a4:9a:77:2b:77:fa:16:b5:76:d9:f4:
         c4:51:6b:b9:fe:2f:a3:52:e8:64:80:49:22:6d:05:42:87:af:
         9d:85:6c:fa:c9:9b:48:39:7b:89:f5:a0:1e:ff:11:d3:9c:78:
         b1:b2:f6:4d:b1:e8:b3:98:23:2c:d4:20:e1:a1:01:3e:26:0a:
         5b:8e:eb:58:45:22:cf:e1:94:ad:84:40:b0:fb:ff:25:5f:31:
         9a:49:0b:36:ad:c6:1a:b0:42:60:40:e2:a2:3c:5a:36:41:89:
         fc:10:c4:60:ea:d4:85:7b:36:84:df:aa:81:cc:69:e7:52:ca:
         c1:46:b1:79:93:51:4f:24:84:42:14:3a:20:a0:6c:27:76:40:
         0f:96:7e:4e:c3:0c:37:b3:e3:73:49:86:58:31:00:1e:e7:0f:
         87:74:b6:4e:6e:1c:7d:87:a4:33:04:c9:76:ec:e5:3a:85:5f:
         a8:d1:ad:21:64:5e:c5:6a:df:b1:02:6e:65:a4:87:72:06:07:
         da:e5:f2:af:2b:a5:eb:18:80:67:83:a5:3c:e6:ed:d1:58:f9:
         90:5c:d6:e9:2f:76:c1:58:13:b8:bd:88:8a:f3:04:48:bb:42:
         8f:7f:c6:db:b4:30:3f:bb:6c:d5:47:e5:ae:8d:4b:da:92:a5:
         db:d3:6e:a8:9b:c2:6b:56:af:34:63:82:e6:78:f8:1f:54:d7:
         41:aa:a3:c9:7c:a6:83:41:bf:6e:33:7c:ae:e6:92:bd:da:27:
         b4:bc:e2:90:4f:33:1b:01:a1:cd:02:13:7a:31:ef:00:d6:9a:
         6e:38:6b:a7:cb:70:98:a8:0f:ff:1c:56:a8:b7:e6:d2:42:5a:
         bb:f4:78:27:71:13:d0:e8:43:eb:bc:2d:4f:e4:ea:4d:4f:76:
         7f:53:38:34:eb:13:e2:3d:c6:14:98:86:1c:ab:2c:0e:b7:68:
         2e:bd:63:a9:6a:8f:d5:22:2d:ab:13:d7:62:54:51:ff:5c:37:
         08:04:27:da:f9:57:77:05:18:73:88:5f:b0:c1:65:50:36:09:
         d6:c7:f5:ae:6e:3f:04:d1:84:3c:21:74:1d:bd:0a:fb:76:d0:
         13:2b:62:bb:24:48:43:89:d0:18:5c:b4:ad:ea:98:af:6d:fc:
         1c:6b:1f:06:64:54:23:88
-----BEGIN CERTIFICATE-----
MIIFwzCCA6ugAwIBAgIJAI3Srzf5ypILMA0GCSqGSIb3DQEBBQUAMCkxCzAJBgNV
BAYTAkJFMRowGAYDVQQDExF0eGpzb25ycGMtdGVzdC1jYTAeFw0xMjA2MjMxNTQ2
MzdaFw0yMjA2MjExNTQ2MzdaMCkxCzAJBgNVBAYTAkJFMRowGAYDVQQDExF0eGpz
b25ycGMtdGVzdC1jYTCCAiIwDQYJKoZIhvcNAQEBBQADggIPADCCAgoCggIBANEl
r3fFqHLPkLk5EPt7dSyh2mqV5UQM1iVLWH+7B4JZSVgyhSTMPnfb4adPyLXL7kU4
vbz743Y7iATKqzqjljtfk5wopmGX3KI/oJMrVmzP009qngXTHM3vdYAamLeSSRQz
uMR8c4x+g6WBolmMi6NRNm1orPLx7W9J2a96Y8FDMUK2x825eLczmHCSbJ4Eenvw
bTiH6wATF7nZ7LRmu1HT/YHjDohxI9KAKmHeqyUCR6nBa8lprtpHtkl0rKbhwXa6
bbHZaG4cN6jiGGA3tlgTbMeSfMZFjO/DgXMQ3C8x4rkFWp4ocFo+HbhocYHJ6P4f
w6AT+OQkErqRjhXSA/GMsKriNORr+Ab2I4qSQ6YF3OnHpagG126RUnJHq66H/rMP
BIdvSyIp6akGUlh9AxbX1TFEtPFRRKcqul4JGexMouBY/g1Ot5BNAqwqrZkUZTsK
PHNFVrIPECUkUXlXGjQaEG9g4PyB28rC4oUbTHITXJ12zNAhMzFWgo/FV7lE/Yt2
wbbkIYs1mu5UdJ9yaxmE16I8pW4RCvGTBC7dfEx9YhDUG4uH9u2/ErGL8Jp67gKU
4TxGK3+cVPsuYckc7/zeJbwtdRsfSV5EOxWTrcSJ2a482lTv2a86FsuUG2oU5EL5
dTNGbvtAvPiCNs9g9cKimCOnKq7BqiL4h9q3nKTPAgMBAAGjge0wgeowHQYDVR0O
BBYEFJ2PhHaUzQf+o+iL1/nZbu/KdVF7MFkGA1UdIwRSMFCAFJ2PhHaUzQf+o+iL
1/nZbu/KdVF7oS2kKzApMQswCQYDVQQGEwJCRTEaMBgGA1UEAxMRdHhqc29ucnBj
LXRlc3QtY2GCCQCN0q83+cqSCzAPBgNVHRMBAf8EBTADAQH/MBEGCWCGSAGG+EIB
AQQEAwIBBjAJBgNVHRIEAjAAMCQGCWCGSAGG+EIBDQQXFhVUZXN0IENBIGZvciB0
eGpzb25yY3AwCQYDVR0RBAIwADAOBgNVHQ8BAf8EBAMCAQYwDQYJKoZIhvcNAQEF
BQADggIBAAaChoGpG34t7/X8zNKd1oKt0G9+Pblcsg86ZCGa+1Oyk4HcGiT8uDBX
osdxDZwaC4psiVKLivWvlT64CDnuNlCsYE3fK0micvE/EjzZVVakmncrd/oWtXbZ
9MRRa7n+L6NS6GSASSJtBUKHr52FbPrJm0g5e4n1oB7/EdOceLGy9k2x6LOYIyzU
IOGhAT4mCluO61hFIs/hlK2EQLD7/yVfMZpJCzatxhqwQmBA4qI8WjZBifwQxGDq
1IV7NoTfqoHMaedSysFGsXmTUU8khEIUOiCgbCd2QA+Wfk7DDDez43NJhlgxAB7n
D4d0tk5uHH2HpDMEyXbs5TqFX6jRrSFkXsVq37ECbmWkh3IGB9rl8q8rpesYgGeD
pTzm7dFY+ZBc1ukvdsFYE7i9iIrzBEi7Qo9/xtu0MD+7bNVH5a6NS9qSpdvTbqib
wmtWrzRjguZ4+B9U10Gqo8l8poNBv24zfK7mkr3aJ7S84pBPMxsBoc0CE3ox7wDW
mm44a6fLcJioD/8cVqi35tJCWrv0eCdxE9DoQ+u8LU/k6k1Pdn9TODTrE+I9xhSY
hhyrLA63aC69Y6lqj9UiLasT12JUUf9cNwgEJ9r5V3cFGHOIX7DBZVA2CdbH9a5u
PwTRhDwhdB29Cvt20BMrYrskSEOJ0BhctK3qmK9t/BxrHwZkVCOI
-----END CERTIFICATE-----
