Certificate:
    Data:
        Version: 4 (0x3)
        Serial Number: 1 (0x1)
    Signature Algorithm: sha1WithRSAEncryption
        Issuer: CN=ca-true, C=BE, O=Gremwell bvba
        Validity
            Not Before: Jan  1 00:00:00 1970 GMT
            Not After : Jan 19 03:14:07 2038 GMT
        Subject: CN=www.example.com, C=BE, O=Gremwell bvba
        Subject Public Key Info:
            Public Key Algorithm: rsaEncryption
                Public-Key: (1024 bit)
                Modulus:
                    00:c1:95:ab:35:e4:da:6e:87:10:89:ae:a9:ce:6f:
                    bf:fe:4a:da:4b:d2:cf:06:ef:55:c0:3a:84:ba:a7:
                    4b:e5:e0:93:b4:af:5b:32:9d:fd:b4:c7:3b:e1:d8:
                    74:a8:c0:62:59:71:4b:4b:a7:70:28:9a:4c:ec:60:
                    1a:3d:78:5f:a5:ad:23:83:ca:0a:67:04:a5:e0:c8:
                    61:15:17:51:df:8b:22:20:bc:38:e1:c8:70:25:10:
                    a3:b1:89:8d:2b:df:72:e8:39:8d:f9:21:3b:e2:df:
                    5b:f6:d6:62:da:eb:ac:58:8b:90:ab:87:94:61:5b:
                    ad:08:cd:32:47:4b:b9:2a:4b
                Exponent: 65537 (0x10001)
    Signature Algorithm: sha1WithRSAEncryption
         a8:ef:b2:db:5f:dc:a3:1a:30:97:d8:d3:01:d4:16:58:c0:45:
         37:1d:53:f8:f0:e6:16:00:d5:62:f2:74:64:23:57:a7:1f:a2:
         a8:1a:a5:b7:f7:a9:c3:52:5d:6c:d5:dd:29:0b:9f:a6:19:86:
         41:92:e6:af:9f:90:93:1d:31:78:a3:13:43:66:98:f3:1b:72:
         21:0d:42:4b:fd:c9:a8:ba:22:2d:84:e9:87:03:7f:e1:eb:8f:
         0e:e7:0c:ce:71:2c:f6:23:18:fd:f4:1e:33:54:96:92:c1:b6:
         0b:e1:bf:56:d5:f7:df:7d:e3:fb:3e:d0:3d:f3:f3:db:e9:b6:
         19:8b
-----BEGIN CERTIFICATE-----
MIIB6jCCAVOgAwIBAwIBATANBgkqhkiG9w0BAQUFADA3MRAwDgYDVQQDEwdjYS10
cnVlMQswCQYDVQQGEwJCRTEWMBQGA1UEChMNR3JlbXdlbGwgYnZiYTAeFw03MDAx
MDEwMDAwMDBaFw0zODAxMTkwMzE0MDdaMD8xGDAWBgNVBAMTD3d3dy5leGFtcGxl
LmNvbTELMAkGA1UEBhMCQkUxFjAUBgNVBAoTDUdyZW13ZWxsIGJ2YmEwgZ8wDQYJ
KoZIhvcNAQEBBQADgY0AMIGJAoGBAMGVqzXk2m6HEImuqc5vv/5K2kvSzwbvVcA6
hLqnS+Xgk7SvWzKd/bTHO+HYdKjAYllxS0uncCiaTOxgGj14X6WtI4PKCmcEpeDI
YRUXUd+LIiC8OOHIcCUQo7GJjSvfcug5jfkhO+LfW/bWYtrrrFiLkKuHlGFbrQjN
MkdLuSpLAgMBAAEwDQYJKoZIhvcNAQEFBQADgYEAqO+y21/coxowl9jTAdQWWMBF
Nx1T+PDmFgDVYvJ0ZCNXpx+iqBqlt/epw1JdbNXdKQufphmGQZLmr5+Qkx0xeKMT
Q2aY8xtyIQ1CS/3JqLoiLYTphwN/4euPDucMznEs9iMY/fQeM1SWksG2C+G/VtX3
333j+z7QPfPz2+m2GYs=
-----END CERTIFICATE-----
Certificate:
    Data:
        Version: 4 (0x3)
        Serial Number: 1 (0x1)
    Signature Algorithm: sha1WithRSAEncryption
        Issuer: C=BE, CN=txjsonrpc-test-ca
        Validity
            Not Before: Jan  1 00:00:00 1970 GMT
            Not After : Jan 19 03:14:07 2038 GMT
        Subject: CN=ca-true, C=BE, O=Gremwell bvba
        Subject Public Key Info:
            Public Key Algorithm: rsaEncryption
                Public-Key: (1024 bit)
                Modulus:
                    00:d2:de:27:c3:48:e1:e8:19:0d:1f:d7:d6:fb:4e:
                    81:10:d5:7f:f3:46:d2:17:71:9e:00:fc:ee:6f:fb:
                    42:1b:35:cc:ef:87:82:4b:b6:18:4c:61:e1:12:ed:
                    ac:70:8c:81:1f:4e:51:77:78:42:21:0c:dd:5f:9b:
                    19:94:a1:38:a5:26:ce:cb:77:b4:62:5c:99:79:bb:
                    4a:d3:8a:12:03:49:cc:1b:91:5f:d0:df:90:bd:ae:
                    0f:89:98:de:65:e4:c5:0f:4f:76:69:17:a1:44:32:
                    c1:cc:92:f6:83:04:aa:63:0c:76:cc:1d:9a:ce:d9:
                    ce:f9:14:65:5d:c2:7f:6c:df
                Exponent: 65537 (0x10001)
        X509v3 extensions:
            X509v3 Basic Constraints: critical
                CA:TRUE
    Signature Algorithm: sha1WithRSAEncryption
         5d:2d:c1:af:a4:25:ff:5f:15:cf:3b:18:28:a0:71:cd:11:a5:
         79:5a:d8:cd:d7:9c:c6:cc:ce:ed:2a:b9:97:73:7c:d6:12:1b:
         05:fe:79:ef:d4:81:fe:bf:9f:cb:69:0b:7b:e0:13:03:2a:9f:
         11:aa:24:07:cd:87:59:b4:6e:98:62:4f:13:71:ce:17:16:fb:
         95:36:1b:31:81:d0:bd:7d:e3:db:70:d2:5d:4c:00:86:cc:7b:
         04:2d:7f:04:6c:5e:42:9a:e7:d4:f0:be:e0:ae:87:d8:ba:da:
         b7:31:ea:e5:95:e4:c4:a1:2f:e9:b5:83:4c:84:96:14:7e:74:
         df:c1:12:6c:1f:50:8c:ad:79:65:d0:cc:29:a3:be:8c:a9:1d:
         07:b8:2f:4a:31:5f:ed:89:85:fc:1b:ed:00:a5:52:eb:0a:7f:
         49:fe:2a:6c:f0:ef:c8:24:bd:e4:35:e0:fc:e5:6b:d5:7f:97:
         ad:87:ae:20:27:2b:3a:d0:ee:cc:fc:12:14:31:58:f2:b4:90:
         fd:d7:b5:d8:a8:ad:8d:30:89:06:6c:98:75:a8:a3:b9:f6:33:
         5e:aa:0b:2e:c4:5d:ae:ba:57:f4:f7:cc:1e:e4:cd:2b:93:e9:
         64:91:09:ab:18:b0:5d:c9:f7:6e:1c:d4:69:b3:c8:7b:6f:be:
         8c:0c:63:71:af:da:47:51:e1:56:8e:17:d9:b9:86:d3:f0:b1:
         ba:17:e2:db:84:d1:ff:c9:bc:ec:cf:9f:cf:ba:82:ff:5f:7e:
         38:d6:ab:eb:6d:aa:6b:a8:82:34:cd:de:c7:83:df:13:14:dc:
         77:9a:30:53:62:75:7a:d9:86:2d:72:ec:cf:fc:08:19:95:18:
         88:ec:25:99:54:d1:81:58:09:cd:66:41:6a:67:d1:2b:0c:a9:
         7d:dd:cc:47:a0:b6:b4:b3:88:e1:96:9c:83:59:7d:6d:b0:d0:
         aa:d4:c3:52:cf:a1:be:06:ae:c1:08:2e:a1:de:c2:fe:a5:4e:
         f2:75:0b:fd:11:c6:83:6c:99:b2:12:6c:23:a5:58:f4:ac:ce:
         ee:d7:43:39:4b:91:0e:c9:c9:fa:e0:42:d9:0f:18:0c:64:98:
         0a:26:bb:57:1c:47:4a:08:11:10:f5:bb:62:4b:10:60:24:2a:
         5f:cf:55:87:88:8c:56:b5:c9:f6:a1:ac:82:93:38:c5:b7:9f:
         d4:63:fb:34:3a:98:a2:b1:a9:45:42:ab:ed:67:e3:1f:29:aa:
         29:fb:90:63:20:f3:8e:7f:94:e9:49:02:fd:0e:31:1d:45:92:
         e0:b5:ba:a5:79:61:49:44:c6:d0:f1:69:c1:29:cf:20:23:42:
         9a:2f:c9:72:7d:4f:5f:6b
-----BEGIN CERTIFICATE-----
MIIDajCCAVKgAwIBAwIBATANBgkqhkiG9w0BAQUFADApMQswCQYDVQQGEwJCRTEa
MBgGA1UEAxMRdHhqc29ucnBjLXRlc3QtY2EwHhcNNzAwMTAxMDAwMDAwWhcNMzgw
MTE5MDMxNDA3WjA3MRAwDgYDVQQDEwdjYS10cnVlMQswCQYDVQQGEwJCRTEWMBQG
A1UEChMNR3JlbXdlbGwgYnZiYTCBnzANBgkqhkiG9w0BAQEFAAOBjQAwgYkCgYEA
0t4nw0jh6BkNH9fW+06BENV/80bSF3GeAPzub/tCGzXM74eCS7YYTGHhEu2scIyB
H05Rd3hCIQzdX5sZlKE4pSbOy3e0YlyZebtK04oSA0nMG5Ff0N+Qva4PiZjeZeTF
D092aRehRDLBzJL2gwSqYwx2zB2aztnO+RRlXcJ/bN8CAwEAAaMTMBEwDwYDVR0T
AQH/BAUwAwEB/zANBgkqhkiG9w0BAQUFAAOCAgEAXS3Br6Ql/18VzzsYKKBxzRGl
eVrYzdecxszO7Sq5l3N81hIbBf5579SB/r+fy2kLe+ATAyqfEaokB82HWbRumGJP
E3HOFxb7lTYbMYHQvX3j23DSXUwAhsx7BC1/BGxeQprn1PC+4K6H2LratzHq5ZXk
xKEv6bWDTISWFH5038ESbB9QjK15ZdDMKaO+jKkdB7gvSjFf7YmF/BvtAKVS6wp/
Sf4qbPDvyCS95DXg/OVr1X+XrYeuICcrOtDuzPwSFDFY8rSQ/de12KitjTCJBmyY
daijufYzXqoLLsRdrrpX9PfMHuTNK5PpZJEJqxiwXcn3bhzUabPIe2++jAxjca/a
R1HhVo4X2bmG0/Cxuhfi24TR/8m87M+fz7qC/19+ONar622qa6iCNM3ex4PfExTc
d5owU2J1etmGLXLsz/wIGZUYiOwlmVTRgVgJzWZBamfRKwypfd3MR6C2tLOI4Zac
g1l9bbDQqtTDUs+hvgauwQguod7C/qVO8nUL/RHGg2yZshJsI6VY9KzO7tdDOUuR
DsnJ+uBC2Q8YDGSYCia7VxxHSggREPW7YksQYCQqX89Vh4iMVrXJ9qGsgpM4xbef
1GP7NDqYorGpRUKr7WfjHymqKfuQYyDzjn+U6UkC/Q4xHUWS4LW6pXlhSUTG0PFp
wSnPICNCmi/Jcn1PX2s=
-----END CERTIFICATE-----
