Certificate:
    Data:
        Version: 3 (0x2)
        Serial Number: 1 (0x1)
    Signature Algorithm: sha1WithRSAEncryption
        Issuer: C=BE, CN=txjsonrpc-pyserver
        Validity
            Not Before: Jun 23 15:47:38 2012 GMT
            Not After : Jun 23 15:47:38 2013 GMT
        Subject: C=BE, CN=txjsonrpc-pyserver
        Subject Public Key Info:
            Public Key Algorithm: rsaEncryption
                Public-Key: (4096 bit)
                Modulus:
                    00:d7:f2:de:0d:ae:f9:ea:91:ec:8b:d6:04:15:49:
                    e7:c7:a7:1f:13:e0:82:1a:55:2e:98:fc:59:a3:14:
                    bc:5d:cc:58:83:1b:39:76:ca:1b:2d:db:83:21:a3:
                    a2:fc:52:7f:71:e1:92:91:b6:57:15:bc:e1:db:64:
                    3a:39:c4:84:93:09:f4:3a:33:02:fe:57:1c:5f:fe:
                    32:e8:8d:a5:df:58:5e:0a:43:bd:1a:d8:9b:e2:f2:
                    63:8c:f8:47:03:4e:43:b5:e5:fd:47:ae:ae:d1:6f:
                    95:77:43:c5:48:b9:7b:ee:57:f6:fb:b5:6f:64:88:
                    2b:be:4e:c3:69:9e:72:6d:66:55:ff:a8:cc:72:42:
                    2b:20:0c:c0:bc:d7:95:ed:02:f5:81:e8:77:a6:37:
                    c5:0c:04:89:3e:6c:38:fe:00:80:0f:26:79:7f:de:
                    27:9e:06:94:9b:c2:3e:5c:19:9f:7b:63:cd:e9:30:
                    48:77:94:bd:09:a1:1e:de:4c:4b:ee:de:db:78:0c:
                    6c:1c:52:09:39:ec:ea:05:05:9f:6f:75:68:39:bc:
                    8c:09:16:bc:7a:1a:26:7a:01:5d:b3:5f:a8:81:32:
                    81:66:91:d0:86:f5:d7:97:0d:9b:a6:85:e3:e3:7f:
                    22:6c:98:ac:33:f6:d3:d5:64:02:83:85:a9:be:1f:
                    1f:99:63:98:e2:18:dd:71:ff:10:66:cd:a9:fa:65:
                    3f:39:40:ef:4c:30:ab:7a:c7:f2:0a:36:dc:8a:3b:
                    31:27:0e:f2:b5:a8:1d:ed:4b:5d:14:1e:c2:72:ac:
                    e6:ab:b6:81:0f:8b:84:7b:10:5f:9b:17:ee:fc:f8:
                    e0:ef:b4:50:94:c3:02:dc:0e:3d:e1:8e:b7:76:b5:
                    50:68:4d:15:b6:53:52:81:61:20:21:0f:04:6b:22:
                    a6:f2:04:fe:78:2b:b6:3d:47:bc:cb:55:21:a2:80:
                    36:af:4f:55:f0:bf:bb:68:5a:10:2c:06:8b:93:42:
                    7e:8b:36:66:4e:f5:51:64:17:7e:73:88:3d:b7:ad:
                    c6:1a:73:e1:34:9b:80:b3:58:55:0b:c9:b2:82:de:
                    ea:8e:67:52:b2:e7:2f:60:26:4b:c7:d8:30:2a:1b:
                    dc:fc:2b:1f:c9:af:62:3a:47:6b:07:92:23:60:de:
                    9d:47:ca:dd:8e:fa:96:bb:32:03:e1:a8:e1:9f:2c:
                    37:87:03:fc:f1:f2:fd:cb:2a:6e:0c:0e:13:52:97:
                    58:fe:ac:e8:0a:e2:9a:0e:0c:86:b0:30:b5:cc:9d:
                    7a:cf:8f:be:e5:40:29:29:31:23:a5:95:78:3f:62:
                    7d:d7:4b:58:11:e8:d4:d6:da:6d:26:13:04:a9:85:
                    6c:6f:b9
                Exponent: 65537 (0x10001)
        X509v3 extensions:
            X509v3 Basic Constraints: 
                CA:FALSE
            Netscape Cert Type: 
                SSL Server
            Netscape Comment: 
                TinyCA Generated Certificate
            X509v3 Subject Key Identifier: 
                26:8C:A5:F9:A6:4A:FE:4C:E8:0F:04:33:7E:04:26:28:BF:4C:92:F3
            X509v3 Authority Key Identifier: 
                keyid:9D:8F:84:76:94:CD:07:FE:A3:E8:8B:D7:F9:D9:6E:EF:CA:75:51:7B
                DirName:/C=BE/CN=txjsonrpc-test-ca
                serial:8D:D2:AF:37:F9:CA:92:0B

            X509v3 Issuer Alternative Name: 
                <EMPTY>

            X509v3 Subject Alternative Name: 
                <EMPTY>

    Signature Algorithm: sha1WithRSAEncryption
         19:61:d1:24:35:5d:c8:78:b3:31:5d:fb:cd:1e:e4:64:ba:a9:
         c2:5e:05:0d:93:44:42:c2:d9:5c:14:af:68:72:c3:b6:a2:b3:
         75:ac:c2:00:6d:29:f1:d8:a0:b2:e4:a6:9e:3e:c6:3d:f6:52:
         7b:fd:01:95:a2:d2:db:f9:88:f4:2a:16:b0:88:17:ab:79:5c:
         4b:e1:dc:86:ce:bb:8f:99:e1:fc:44:6d:10:50:e1:ab:37:6d:
         52:64:81:47:55:fa:55:c6:5c:89:07:c2:d8:85:4e:c2:c2:0e:
         7c:12:44:67:8a:81:ba:3d:d2:0f:18:81:1a:34:12:30:7f:0e:
         99:d8:a4:36:6b:82:fd:76:08:da:ae:8f:50:e6:ad:63:fe:22:
         ae:c6:2e:eb:f1:1c:ee:88:08:5b:ad:1a:25:4b:13:66:ee:74:
         cc:6b:5a:b0:44:d1:10:3d:18:d3:4b:45:ba:d7:01:49:34:01:
         29:34:50:27:2f:7c:76:91:8e:3d:12:47:0d:57:1b:31:7a:c2:
         29:8f:6a:4e:b1:f5:ff:92:96:46:14:3e:38:6f:cc:5c:2b:60:
         00:19:4c:06:4b:7b:a2:53:fe:24:ea:6c:86:ad:18:63:c5:10:
         f1:3b:d7:39:de:ad:4a:96:73:b7:ca:a8:2d:48:6e:71:5c:ee:
         af:a5:e0:06:25:dd:32:e3:6c:0b:0d:a1:8b:95:48:4d:63:e9:
         6f:5e:46:3e:b7:fe:65:8f:f0:10:4c:6f:94:83:ea:67:13:23:
         ff:63:a2:46:d6:b2:bf:fb:78:c1:29:35:d5:b0:98:c0:28:30:
         bd:a6:24:b1:49:f7:74:20:00:c0:72:59:a8:0f:61:f7:68:73:
         55:6d:f8:1e:84:0a:c4:6b:5f:57:98:15:d4:5b:b7:3c:53:e5:
         90:3a:13:bc:6e:3d:dd:4b:ab:6c:e5:4d:b1:9a:21:df:ab:ad:
         c9:d2:48:7f:ea:1d:49:1e:5a:e7:13:a6:77:e0:4d:06:f1:98:
         d5:b4:67:d0:5f:41:16:8a:e2:f6:be:1c:5f:3f:df:e8:33:8f:
         1c:60:59:46:5f:bc:bd:b0:a2:bc:57:e5:c3:e7:0f:6f:ed:6a:
         77:80:a5:99:30:b0:c1:ff:89:ef:a5:e4:7d:b1:7b:15:f0:e0:
         9d:d9:4a:9c:ec:cf:bd:c4:87:26:40:90:f2:13:6c:1d:86:31:
         94:5d:43:e7:2b:85:81:9f:4e:47:7e:55:32:93:fb:d3:3f:d3:
         ca:7d:c1:64:56:97:bc:92:de:4c:79:7c:5e:6d:b7:58:98:20:
         38:d6:0e:ac:aa:81:f3:f3:ec:8a:a1:4e:22:52:90:e3:8f:20:
         20:21:8e:ec:b0:e5:78:19
-----BEGIN CERTIFICATE-----
MIIFrjCCA5agAwIBAgIBATANBgkqhkiG9w0BAQUFADAqMQswCQYDVQQGEwJCRTEb
MBkGA1UEAxMSdHhqc29ucnBjLXB5c2VydmVyMB4XDTEyMDYyMzE1NDczOFoXDTEz
MDYyMzE1NDczOFowKjELMAkGA1UEBhMCQkUxGzAZBgNVBAMTEnR4anNvbnJwYy1w
eXNlcnZlcjCCAiIwDQYJKoZIhvcNAQEBBQADggIPADCCAgoCggIBANfy3g2u+eqR
7IvWBBVJ58enHxPgghpVLpj8WaMUvF3MWIMbOXbKGy3bgyGjovxSf3HhkpG2VxW8
4dtkOjnEhJMJ9DozAv5XHF/+MuiNpd9YXgpDvRrYm+LyY4z4RwNOQ7Xl/UeurtFv
lXdDxUi5e+5X9vu1b2SIK75Ow2mecm1mVf+ozHJCKyAMwLzXle0C9YHod6Y3xQwE
iT5sOP4AgA8meX/eJ54GlJvCPlwZn3tjzekwSHeUvQmhHt5MS+7e23gMbBxSCTns
6gUFn291aDm8jAkWvHoaJnoBXbNfqIEygWaR0Ib115cNm6aF4+N/ImyYrDP209Vk
AoOFqb4fH5ljmOIY3XH/EGbNqfplPzlA70wwq3rH8go23Io7MScO8rWoHe1LXRQe
wnKs5qu2gQ+LhHsQX5sX7vz44O+0UJTDAtwOPeGOt3a1UGhNFbZTUoFhICEPBGsi
pvIE/ngrtj1HvMtVIaKANq9PVfC/u2haECwGi5NCfos2Zk71UWQXfnOIPbetxhpz
4TSbgLNYVQvJsoLe6o5nUrLnL2AmS8fYMCob3PwrH8mvYjpHaweSI2DenUfK3Y76
lrsyA+Go4Z8sN4cD/PHy/csqbgwOE1KXWP6s6Arimg4MhrAwtcydes+PvuVAKSkx
I6WVeD9ifddLWBHo1NbabSYTBKmFbG+5AgMBAAGjgd4wgdswCQYDVR0TBAIwADAR
BglghkgBhvhCAQEEBAMCBkAwKwYJYIZIAYb4QgENBB4WHFRpbnlDQSBHZW5lcmF0
ZWQgQ2VydGlmaWNhdGUwHQYDVR0OBBYEFCaMpfmmSv5M6A8EM34EJii/TJLzMFkG
A1UdIwRSMFCAFJ2PhHaUzQf+o+iL1/nZbu/KdVF7oS2kKzApMQswCQYDVQQGEwJC
RTEaMBgGA1UEAxMRdHhqc29ucnBjLXRlc3QtY2GCCQCN0q83+cqSCzAJBgNVHRIE
AjAAMAkGA1UdEQQCMAAwDQYJKoZIhvcNAQEFBQADggIBABlh0SQ1Xch4szFd+80e
5GS6qcJeBQ2TRELC2VwUr2hyw7ais3WswgBtKfHYoLLkpp4+xj32Unv9AZWi0tv5
iPQqFrCIF6t5XEvh3IbOu4+Z4fxEbRBQ4as3bVJkgUdV+lXGXIkHwtiFTsLCDnwS
RGeKgbo90g8YgRo0EjB/DpnYpDZrgv12CNquj1DmrWP+Iq7GLuvxHO6ICFutGiVL
E2budMxrWrBE0RA9GNNLRbrXAUk0ASk0UCcvfHaRjj0SRw1XGzF6wimPak6x9f+S
lkYUPjhvzFwrYAAZTAZLe6JT/iTqbIatGGPFEPE71znerUqWc7fKqC1IbnFc7q+l
4AYl3TLjbAsNoYuVSE1j6W9eRj63/mWP8BBMb5SD6mcTI/9jokbWsr/7eMEpNdWw
mMAoML2mJLFJ93QgAMByWagPYfdoc1Vt+B6ECsRrX1eYFdRbtzxT5ZA6E7xuPd1L
q2zlTbGaId+rrcnSSH/qHUkeWucTpnfgTQbxmNW0Z9BfQRaK4va+HF8/3+gzjxxg
WUZfvL2worxX5cPnD2/taneApZkwsMH/ie+l5H2xexXw4J3ZSpzsz73EhyZAkPIT
bB2GMZRdQ+crhYGfTkd+VTKT+9M/08p9wWRWl7yS3kx5fF5tt1iYIDjWDqyqgfPz
7IqhTiJSkOOPICAhjuyw5XgZ
-----END CERTIFICATE-----
