Certificate:
    Data:
        Version: 3 (0x2)
        Serial Number: 1 (0x1)
    Signature Algorithm: sha1WithRSAEncryption
        Issuer: CN=ca-true, C=BE, O=Gremwell bvba
        Validity
            Not Before: Jun 23 15:47:38 2012 GMT
            Not After : Jun 23 15:47:38 2013 GMT
        Subject: C=BE, CN=txjsonrpc-pyserver
        Subject Public Key Info:
            Public Key Algorithm: rsaEncryption
                Public-Key: (4096 bit)
                Modulus:
                    00:d7:f2:de:0d:ae:f9:ea:91:ec:8b:d6:04:15:49:
                    e7:c7:a7:1f:13:e0:82:1a:55:2e:98:fc:59:a3:14:
                    bc:5d:cc:58:83:1b:39:76:ca:1b:2d:db:83:21:a3:
                    a2:fc:52:7f:71:e1:92:91:b6:57:15:bc:e1:db:64:
                    3a:39:c4:84:93:09:f4:3a:33:02:fe:57:1c:5f:fe:
                    32:e8:8d:a5:df:58:5e:0a:43:bd:1a:d8:9b:e2:f2:
                    63:8c:f8:47:03:4e:43:b5:e5:fd:47:ae:ae:d1:6f:
                    95:77:43:c5:48:b9:7b:ee:57:f6:fb:b5:6f:64:88:
                    2b:be:4e:c3:69:9e:72:6d:66:55:ff:a8:cc:72:42:
                    2b:20:0c:c0:bc:d7:95:ed:02:f5:81:e8:77:a6:37:
                    c5:0c:04:89:3e:6c:38:fe:00:80:0f:26:79:7f:de:
                    27:9e:06:94:9b:c2:3e:5c:19:9f:7b:63:cd:e9:30:
                    48:77:94:bd:09:a1:1e:de:4c:4b:ee:de:db:78:0c:
                    6c:1c:52:09:39:ec:ea:05:05:9f:6f:75:68:39:bc:
                    8c:09:16:bc:7a:1a:26:7a:01:5d:b3:5f:a8:81:32:
                    81:66:91:d0:86:f5:d7:97:0d:9b:a6:85:e3:e3:7f:
                    22:6c:98:ac:33:f6:d3:d5:64:02:83:85:a9:be:1f:
                    1f:99:63:98:e2:18:dd:71:ff:10:66:cd:a9:fa:65:
                    3f:39:40:ef:4c:30:ab:7a:c7:f2:0a:36:dc:8a:3b:
                    31:27:0e:f2:b5:a8:1d:ed:4b:5d:14:1e:c2:72:ac:
                    e6:ab:b6:81:0f:8b:84:7b:10:5f:9b:17:ee:fc:f8:
                    e0:ef:b4:50:94:c3:02:dc:0e:3d:e1:8e:b7:76:b5:
                    50:68:4d:15:b6:53:52:81:61:20:21:0f:04:6b:22:
                    a6:f2:04:fe:78:2b:b6:3d:47:bc:cb:55:21:a2:80:
                    36:af:4f:55:f0:bf:bb:68:5a:10:2c:06:8b:93:42:
                    7e:8b:36:66:4e:f5:51:64:17:7e:73:88:3d:b7:ad:
                    c6:1a:73:e1:34:9b:80:b3:58:55:0b:c9:b2:82:de:
                    ea:8e:67:52:b2:e7:2f:60:26:4b:c7:d8:30:2a:1b:
                    dc:fc:2b:1f:c9:af:62:3a:47:6b:07:92:23:60:de:
                    9d:47:ca:dd:8e:fa:96:bb:32:03:e1:a8:e1:9f:2c:
                    37:87:03:fc:f1:f2:fd:cb:2a:6e:0c:0e:13:52:97:
                    58:fe:ac:e8:0a:e2:9a:0e:0c:86:b0:30:b5:cc:9d:
                    7a:cf:8f:be:e5:40:29:29:31:23:a5:95:78:3f:62:
                    7d:d7:4b:58:11:e8:d4:d6:da:6d:26:13:04:a9:85:
                    6c:6f:b9
                Exponent: 65537 (0x10001)
        X509v3 extensions:
            X509v3 Basic Constraints: 
                CA:FALSE
            Netscape Cert Type: 
                SSL Server
            Netscape Comment: 
                TinyCA Generated Certificate
            X509v3 Subject Key Identifier: 
                26:8C:A5:F9:A6:4A:FE:4C:E8:0F:04:33:7E:04:26:28:BF:4C:92:F3
            X509v3 Authority Key Identifier: 
                keyid:9D:8F:84:76:94:CD:07:FE:A3:E8:8B:D7:F9:D9:6E:EF:CA:75:51:7B
                DirName:/C=BE/CN=txjsonrpc-test-ca
                serial:8D:D2:AF:37:F9:CA:92:0B

            X509v3 Issuer Alternative Name: 
                <EMPTY>

            X509v3 Subject Alternative Name: 
                <EMPTY>

    Signature Algorithm: sha1WithRSAEncryption
         b3:41:35:47:95:af:17:da:61:c2:c0:b5:54:73:ad:db:48:09:
         7a:ed:96:df:cd:a6:60:b5:c9:f4:de:f3:6d:71:99:50:28:9c:
         9f:b6:4d:80:06:c5:8a:d9:03:e5:01:52:29:79:bd:d5:31:e8:
         31:9a:fa:20:f8:20:49:b2:ce:35:4a:62:c2:5b:d8:70:b3:42:
         4f:a1:ee:4c:ed:70:37:29:d8:6f:ec:7d:f0:60:e1:f1:0f:72:
         d6:bd:7a:a1:52:25:88:f8:d0:da:bd:cb:95:70:08:45:44:01:
         46:10:35:45:76:d0:de:de:c2:2e:cc:d0:89:f9:0c:af:57:82:
         82:db
-----BEGIN CERTIFICATE-----
MIIEOjCCA6OgAwIBAgIBATANBgkqhkiG9w0BAQUFADA3MRAwDgYDVQQDEwdjYS10
cnVlMQswCQYDVQQGEwJCRTEWMBQGA1UEChMNR3JlbXdlbGwgYnZiYTAeFw0xMjA2
MjMxNTQ3MzhaFw0xMzA2MjMxNTQ3MzhaMCoxCzAJBgNVBAYTAkJFMRswGQYDVQQD
ExJ0eGpzb25ycGMtcHlzZXJ2ZXIwggIiMA0GCSqGSIb3DQEBAQUAA4ICDwAwggIK
AoICAQDX8t4NrvnqkeyL1gQVSefHpx8T4IIaVS6Y/FmjFLxdzFiDGzl2yhst24Mh
o6L8Un9x4ZKRtlcVvOHbZDo5xISTCfQ6MwL+Vxxf/jLojaXfWF4KQ70a2Jvi8mOM
+EcDTkO15f1Hrq7Rb5V3Q8VIuXvuV/b7tW9kiCu+TsNpnnJtZlX/qMxyQisgDMC8
15XtAvWB6HemN8UMBIk+bDj+AIAPJnl/3ieeBpSbwj5cGZ97Y83pMEh3lL0JoR7e
TEvu3tt4DGwcUgk57OoFBZ9vdWg5vIwJFrx6GiZ6AV2zX6iBMoFmkdCG9deXDZum
hePjfyJsmKwz9tPVZAKDham+Hx+ZY5jiGN1x/xBmzan6ZT85QO9MMKt6x/IKNtyK
OzEnDvK1qB3tS10UHsJyrOartoEPi4R7EF+bF+78+ODvtFCUwwLcDj3hjrd2tVBo
TRW2U1KBYSAhDwRrIqbyBP54K7Y9R7zLVSGigDavT1Xwv7toWhAsBouTQn6LNmZO
9VFkF35ziD23rcYac+E0m4CzWFULybKC3uqOZ1Ky5y9gJkvH2DAqG9z8Kx/Jr2I6
R2sHkiNg3p1Hyt2O+pa7MgPhqOGfLDeHA/zx8v3LKm4MDhNSl1j+rOgK4poODIaw
MLXMnXrPj77lQCkpMSOllXg/Yn3XS1gR6NTW2m0mEwSphWxvuQIDAQABo4HeMIHb
MAkGA1UdEwQCMAAwEQYJYIZIAYb4QgEBBAQDAgZAMCsGCWCGSAGG+EIBDQQeFhxU
aW55Q0EgR2VuZXJhdGVkIENlcnRpZmljYXRlMB0GA1UdDgQWBBQmjKX5pkr+TOgP
BDN+BCYov0yS8zBZBgNVHSMEUjBQgBSdj4R2lM0H/qPoi9f52W7vynVRe6EtpCsw
KTELMAkGA1UEBhMCQkUxGjAYBgNVBAMTEXR4anNvbnJwYy10ZXN0LWNhggkAjdKv
N/nKkgswCQYDVR0SBAIwADAJBgNVHREEAjAAMA0GCSqGSIb3DQEBBQUAA4GBALNB
NUeVrxfaYcLAtVRzrdtICXrtlt/NpmC1yfTe821xmVAonJ+2TYAGxYrZA+UBUil5
vdUx6DGa+iD4IEmyzjVKYsJb2HCzQk+h7kztcDcp2G/sffBg4fEPcta9eqFSJYj4
0Nq9y5VwCEVEAUYQNUV20N7ewi7M0In5DK9XgoLb
-----END CERTIFICATE-----
Certificate:
    Data:
        Version: 4 (0x3)
        Serial Number: 1 (0x1)
    Signature Algorithm: sha1WithRSAEncryption
        Issuer: C=BE, CN=txjsonrpc-test-ca
        Validity
            Not Before: Jan  1 00:00:00 1970 GMT
            Not After : Jan 19 03:14:07 2038 GMT
        Subject: CN=ca-true, C=BE, O=Gremwell bvba
        Subject Public Key Info:
            Public Key Algorithm: rsaEncryption
                Public-Key: (1024 bit)
                Modulus:
                    00:b5:2b:bc:77:da:01:22:64:2f:35:e2:65:0e:19:
                    ef:20:6c:79:09:94:90:11:6f:fb:19:a2:fb:e9:e5:
                    74:01:97:a7:61:30:76:50:70:e7:0a:c0:27:ac:dd:
                    ed:c9:3a:b6:41:28:dd:44:35:45:91:59:1d:e5:a1:
                    79:15:18:d3:15:1d:0a:c8:4b:7b:c7:36:3c:38:ea:
                    d0:6a:96:5f:51:93:ab:5a:80:f9:b3:43:e5:a5:20:
                    8c:51:d3:3a:42:b4:dc:98:01:4c:21:62:3b:62:39:
                    b4:ed:9e:74:ad:ee:5e:20:29:b7:9a:8c:7a:98:c7:
                    90:4f:be:b8:50:21:fb:14:a9
                Exponent: 65537 (0x10001)
        X509v3 extensions:
            X509v3 Basic Constraints: critical
                CA:TRUE
    Signature Algorithm: sha1WithRSAEncryption
         29:53:22:e6:54:03:9a:a5:a4:14:d6:12:c9:89:6e:e6:b6:9e:
         77:96:48:29:7d:a8:4a:d2:f5:67:4c:f8:68:c6:7a:34:7c:b1:
         d2:6e:83:a4:ff:ae:47:8f:0d:95:cc:d7:95:ff:77:d2:c8:9f:
         cd:08:99:e6:fa:d8:0b:be:22:57:e2:d5:c3:3e:b4:23:4b:e1:
         ec:96:58:4d:d6:b2:c2:bb:bd:af:ec:8f:09:a2:c1:72:6d:95:
         bf:cc:60:3e:84:55:e0:2f:fe:c5:93:60:40:34:fa:ae:cf:cf:
         de:34:13:4b:ca:16:b1:1c:ac:cc:2c:28:a7:de:a5:c2:7e:17:
         a5:e8:93:8e:b4:7a:9c:06:b7:32:2e:2e:b2:e6:72:18:d9:06:
         93:ce:bd:38:19:57:4e:a7:09:f6:02:9b:82:36:4b:8b:be:53:
         d0:b4:fc:74:bf:a2:cd:d8:1f:1e:f3:6d:6a:b3:7b:4f:2d:79:
         d6:40:79:fa:33:65:1c:98:bb:b3:33:c9:31:40:f9:1a:56:cf:
         41:cb:a6:79:3e:7c:9a:0d:8f:36:a3:04:dd:01:5a:46:78:be:
         0c:65:f6:ba:94:f2:26:d2:76:a5:d7:fb:1b:7f:1b:04:c7:03:
         35:fc:aa:3a:76:fd:f6:75:67:4b:d0:5e:75:f1:c5:a3:11:83:
         61:e1:5a:d8:04:77:d2:f7:d7:9e:03:d6:4e:23:9e:47:9a:c5:
         c4:69:d5:2e:b1:01:a6:9e:97:e3:48:9c:bc:36:f9:94:95:86:
         a7:63:39:cb:41:95:a3:c5:a1:f4:47:1a:ee:35:fc:2e:69:f1:
         ab:14:5e:9a:0b:47:04:d4:1d:87:9e:bc:1d:24:81:20:85:12:
         b4:18:7f:f3:97:34:35:47:22:48:e8:cb:24:0c:23:f3:94:43:
         d1:b2:86:07:3b:af:4d:97:b0:61:6c:e3:f0:f4:93:dc:0a:aa:
         54:f6:5b:36:c2:8b:ce:a6:f4:c4:fd:4e:aa:e3:8e:fb:94:3e:
         06:72:0b:6b:96:1d:bc:48:9e:d2:3f:7c:10:f9:eb:aa:a6:13:
         bd:6e:bc:05:e8:34:eb:0a:6d:e3:cc:b4:02:2c:c4:58:a4:e2:
         ed:4a:30:cb:1b:c7:06:0e:2e:8a:b0:2b:49:eb:39:a0:39:5b:
         34:21:1d:53:1c:76:18:f5:86:77:06:23:57:6b:06:a0:7e:c4:
         73:f8:30:e3:b1:86:d5:e3:4c:17:a5:d4:93:62:1d:e5:3d:67:
         e6:10:57:46:e0:f2:49:f3:9b:c2:03:31:ab:a4:ae:bb:e2:7d:
         73:f2:13:7a:a3:33:66:14:c2:86:15:c8:f2:b9:c8:41:a3:af:
         ea:0c:b9:2c:f8:9e:aa:cf
-----BEGIN CERTIFICATE-----
MIIDajCCAVKgAwIBAwIBATANBgkqhkiG9w0BAQUFADApMQswCQYDVQQGEwJCRTEa
MBgGA1UEAxMRdHhqc29ucnBjLXRlc3QtY2EwHhcNNzAwMTAxMDAwMDAwWhcNMzgw
MTE5MDMxNDA3WjA3MRAwDgYDVQQDEwdjYS10cnVlMQswCQYDVQQGEwJCRTEWMBQG
A1UEChMNR3JlbXdlbGwgYnZiYTCBnzANBgkqhkiG9w0BAQEFAAOBjQAwgYkCgYEA
tSu8d9oBImQvNeJlDhnvIGx5CZSQEW/7GaL76eV0AZenYTB2UHDnCsAnrN3tyTq2
QSjdRDVFkVkd5aF5FRjTFR0KyEt7xzY8OOrQapZfUZOrWoD5s0PlpSCMUdM6QrTc
mAFMIWI7Yjm07Z50re5eICm3mox6mMeQT764UCH7FKkCAwEAAaMTMBEwDwYDVR0T
AQH/BAUwAwEB/zANBgkqhkiG9w0BAQUFAAOCAgEAKVMi5lQDmqWkFNYSyYlu5rae
d5ZIKX2oStL1Z0z4aMZ6NHyx0m6DpP+uR48NlczXlf930sifzQiZ5vrYC74iV+LV
wz60I0vh7JZYTdaywru9r+yPCaLBcm2Vv8xgPoRV4C/+xZNgQDT6rs/P3jQTS8oW
sRyszCwop96lwn4XpeiTjrR6nAa3Mi4usuZyGNkGk869OBlXTqcJ9gKbgjZLi75T
0LT8dL+izdgfHvNtarN7Ty151kB5+jNlHJi7szPJMUD5GlbPQcumeT58mg2PNqME
3QFaRni+DGX2upTyJtJ2pdf7G38bBMcDNfyqOnb99nVnS9BedfHFoxGDYeFa2AR3
0vfXngPWTiOeR5rFxGnVLrEBpp6X40icvDb5lJWGp2M5y0GVo8Wh9Eca7jX8Lmnx
qxRemgtHBNQdh568HSSBIIUStBh/85c0NUciSOjLJAwj85RD0bKGBzuvTZewYWzj
8PST3AqqVPZbNsKLzqb0xP1OquOO+5Q+BnILa5YdvEie0j98EPnrqqYTvW68Beg0
6wpt48y0AizEWKTi7UowyxvHBg4uirArSes5oDlbNCEdUxx2GPWGdwYjV2sGoH7E
c/gw47GG1eNMF6XUk2Id5T1n5hBXRuDySfObwgMxq6Suu+J9c/ITeqMzZhTChhXI
8rnIQaOv6gy5LPieqs8=
-----END CERTIFICATE-----
