Certificate:
    Data:
        Version: 3 (0x2)
        Serial Number: 1 (0x1)
    Signature Algorithm: sha1WithRSAEncryption
        Issuer: C=BE, CN=txjsonrpc-test-ca
        Validity
            Not Before: Jun 23 15:47:38 2012 GMT
            Not After : Jun 23 15:47:38 2013 GMT
        Subject: C=BE, CN=txjsonrpc-pyserver
        Subject Public Key Info:
            Public Key Algorithm: rsaEncryption
                Public-Key: (4096 bit)
                Modulus:
                    00:d7:f2:de:0d:ae:f9:ea:91:ec:8b:d6:04:15:49:
                    e7:c7:a7:1f:13:e0:82:1a:55:2e:98:fc:59:a3:14:
                    bc:5d:cc:58:83:1b:39:76:ca:1b:2d:db:83:21:a3:
                    a2:fc:52:7f:71:e1:92:91:b6:57:15:bc:e1:db:64:
                    3a:39:c4:84:93:09:f4:3a:33:02:fe:57:1c:5f:fe:
                    32:e8:8d:a5:df:58:5e:0a:43:bd:1a:d8:9b:e2:f2:
                    63:8c:f8:47:03:4e:43:b5:e5:fd:47:ae:ae:d1:6f:
                    95:77:43:c5:48:b9:7b:ee:57:f6:fb:b5:6f:64:88:
                    2b:be:4e:c3:69:9e:72:6d:66:55:ff:a8:cc:72:42:
                    2b:20:0c:c0:bc:d7:95:ed:02:f5:81:e8:77:a6:37:
                    c5:0c:04:89:3e:6c:38:fe:00:80:0f:26:79:7f:de:
                    27:9e:06:94:9b:c2:3e:5c:19:9f:7b:63:cd:e9:30:
                    48:77:94:bd:09:a1:1e:de:4c:4b:ee:de:db:78:0c:
                    6c:1c:52:09:39:ec:ea:05:05:9f:6f:75:68:39:bc:
                    8c:09:16:bc:7a:1a:26:7a:01:5d:b3:5f:a8:81:32:
                    81:66:91:d0:86:f5:d7:97:0d:9b:a6:85:e3:e3:7f:
                    22:6c:98:ac:33:f6:d3:d5:64:02:83:85:a9:be:1f:
                    1f:99:63:98:e2:18:dd:71:ff:10:66:cd:a9:fa:65:
                    3f:39:40:ef:4c:30:ab:7a:c7:f2:0a:36:dc:8a:3b:
                    31:27:0e:f2:b5:a8:1d:ed:4b:5d:14:1e:c2:72:ac:
                    e6:ab:b6:81:0f:8b:84:7b:10:5f:9b:17:ee:fc:f8:
                    e0:ef:b4:50:94:c3:02:dc:0e:3d:e1:8e:b7:76:b5:
                    50:68:4d:15:b6:53:52:81:61:20:21:0f:04:6b:22:
                    a6:f2:04:fe:78:2b:b6:3d:47:bc:cb:55:21:a2:80:
                    36:af:4f:55:f0:bf:bb:68:5a:10:2c:06:8b:93:42:
                    7e:8b:36:66:4e:f5:51:64:17:7e:73:88:3d:b7:ad:
                    c6:1a:73:e1:34:9b:80:b3:58:55:0b:c9:b2:82:de:
                    ea:8e:67:52:b2:e7:2f:60:26:4b:c7:d8:30:2a:1b:
                    dc:fc:2b:1f:c9:af:62:3a:47:6b:07:92:23:60:de:
                    9d:47:ca:dd:8e:fa:96:bb:32:03:e1:a8:e1:9f:2c:
                    37:87:03:fc:f1:f2:fd:cb:2a:6e:0c:0e:13:52:97:
                    58:fe:ac:e8:0a:e2:9a:0e:0c:86:b0:30:b5:cc:9d:
                    7a:cf:8f:be:e5:40:29:29:31:23:a5:95:78:3f:62:
                    7d:d7:4b:58:11:e8:d4:d6:da:6d:26:13:04:a9:85:
                    6c:6f:b9
                Exponent: 65537 (0x10001)
        X509v3 extensions:
            X509v3 Basic Constraints: 
                CA:FALSE
            Netscape Cert Type: 
                SSL Server
            Netscape Comment: 
                TinyCA Generated Certificate
            X509v3 Subject Key Identifier: 
                26:8C:A5:F9:A6:4A:FE:4C:E8:0F:04:33:7E:04:26:28:BF:4C:92:F3
            X509v3 Authority Key Identifier: 
                keyid:9D:8F:84:76:94:CD:07:FE:A3:E8:8B:D7:F9:D9:6E:EF:CA:75:51:7B
                DirName:/C=BE/CN=txjsonrpc-test-ca
                serial:8D:D2:AF:37:F9:CA:92:0B

            X509v3 Issuer Alternative Name: 
                <EMPTY>

            X509v3 Subject Alternative Name: 
                <EMPTY>

    Signature Algorithm: sha1WithRSAEncryption
         96:69:d2:cd:99:ab:7e:ee:51:89:a5:c8:c8:1b:c6:aa:3c:07:
         28:1e:ec:56:13:0d:34:09:f3:65:51:08:69:af:7c:67:7e:d7:
         54:a2:fa:85:72:c3:12:38:92:1f:b9:36:a3:a0:c6:08:ad:dc:
         a8:29:eb:22:c4:75:c4:93:81:6a:d7:a4:ae:bd:3c:49:5c:a8:
         a0:67:c1:27:b3:c3:52:aa:6c:14:b0:7d:34:3c:48:74:5e:10:
         3b:5e:a7:c9:05:10:23:78:f1:05:23:b2:e6:3c:9b:05:95:82:
         33:21:f1:bc:a5:ba:b5:f2:2e:f2:15:e5:28:20:27:75:4a:17:
         04:d9:ba:5f:db:5e:e0:62:2b:59:b1:36:0a:b7:84:77:c3:58:
         5a:c0:f7:61:74:b3:d0:d3:d9:11:c0:3c:a8:41:83:8c:53:12:
         5b:e6:13:e2:12:d7:95:22:30:80:d3:e1:97:ed:51:39:de:f8:
         9a:8c:1a:f4:af:1c:4d:4c:e2:6f:04:7e:71:c5:f0:c3:83:dc:
         35:2d:64:99:ce:31:6d:82:2a:7d:37:dd:26:41:c6:ac:9a:e4:
         e5:17:cd:56:cc:af:cf:2c:01:ee:72:73:b2:5c:c9:b9:28:6b:
         30:6b:12:78:54:c6:57:d3:d8:df:66:1c:c3:34:51:d9:23:08:
         ff:e4:b2:0a:55:ea:40:a5:cc:1f:ae:be:d6:3a:8b:a9:80:d6:
         fd:25:5f:15:ab:ae:0f:c6:b9:99:41:76:95:bb:02:04:fe:96:
         c9:5f:01:1a:49:a2:48:3f:27:34:85:e3:72:45:20:b5:05:24:
         ad:c9:91:45:72:e6:fa:be:8d:0e:3c:c4:ad:a6:58:01:0d:fe:
         f8:a3:55:97:17:6c:18:3d:b7:24:4e:78:79:4b:bd:7e:73:ee:
         fa:31:40:9c:25:dd:5d:6d:b3:5c:3f:9f:0f:72:e2:00:28:b4:
         9f:24:db:93:56:ba:09:05:10:de:d5:81:48:c6:3f:6f:81:73:
         3f:5d:47:0c:70:f3:3e:34:a4:d9:3f:75:48:46:ff:f8:9f:c4:
         71:c1:c8:52:4f:c4:59:91:bf:0a:13:0b:47:9f:3f:09:bc:70:
         c1:aa:c9:7c:14:58:e1:83:32:70:e1:f1:8c:ff:26:49:e7:ae:
         2f:10:60:0a:80:aa:d2:e7:cf:41:b0:86:0d:d8:46:1c:79:0e:
         88:e1:04:30:cd:4e:82:5c:3e:24:b6:68:8e:30:3c:7a:c3:af:
         f2:06:75:c6:9d:c8:0f:93:d6:d3:56:ce:db:5b:e3:d2:18:f3:
         ca:86:f1:e1:f2:73:78:b7:c3:79:1e:2f:7d:42:df:e5:d9:ef:
         d1:f8:9f:16:a6:b7:9b:3e
-----BEGIN CERTIFICATE-----
MIIFrTCCA5WgAwIBAgIBATANBgkqhkiG9w0BAQUFADApMQswCQYDVQQGEwJCRTEa
MBgGA1UEAxMRdHhqc29ucnBjLXRlc3QtY2EwHhcNMTIwNjIzMTU0NzM4WhcNMTMw
NjIzMTU0NzM4WjAqMQswCQYDVQQGEwJCRTEbMBkGA1UEAxMSdHhqc29ucnBjLXB5
c2VydmVyMIICIjANBgkqhkiG9w0BAQEFAAOCAg8AMIICCgKCAgEA1/LeDa756pHs
i9YEFUnnx6cfE+CCGlUumPxZoxS8XcxYgxs5dsobLduDIaOi/FJ/ceGSkbZXFbzh
22Q6OcSEkwn0OjMC/lccX/4y6I2l31heCkO9Gtib4vJjjPhHA05DteX9R66u0W+V
d0PFSLl77lf2+7VvZIgrvk7DaZ5ybWZV/6jMckIrIAzAvNeV7QL1geh3pjfFDASJ
Pmw4/gCADyZ5f94nngaUm8I+XBmfe2PN6TBId5S9CaEe3kxL7t7beAxsHFIJOezq
BQWfb3VoObyMCRa8ehomegFds1+ogTKBZpHQhvXXlw2bpoXj438ibJisM/bT1WQC
g4Wpvh8fmWOY4hjdcf8QZs2p+mU/OUDvTDCresfyCjbcijsxJw7ytagd7UtdFB7C
cqzmq7aBD4uEexBfmxfu/Pjg77RQlMMC3A494Y63drVQaE0VtlNSgWEgIQ8EayKm
8gT+eCu2PUe8y1UhooA2r09V8L+7aFoQLAaLk0J+izZmTvVRZBd+c4g9t63GGnPh
NJuAs1hVC8mygt7qjmdSsucvYCZLx9gwKhvc/Csfya9iOkdrB5IjYN6dR8rdjvqW
uzID4ajhnyw3hwP88fL9yypuDA4TUpdY/qzoCuKaDgyGsDC1zJ16z4++5UApKTEj
pZV4P2J910tYEejU1tptJhMEqYVsb7kCAwEAAaOB3jCB2zAJBgNVHRMEAjAAMBEG
CWCGSAGG+EIBAQQEAwIGQDArBglghkgBhvhCAQ0EHhYcVGlueUNBIEdlbmVyYXRl
ZCBDZXJ0aWZpY2F0ZTAdBgNVHQ4EFgQUJoyl+aZK/kzoDwQzfgQmKL9MkvMwWQYD
VR0jBFIwUIAUnY+EdpTNB/6j6IvX+dlu78p1UXuhLaQrMCkxCzAJBgNVBAYTAkJF
MRowGAYDVQQDExF0eGpzb25ycGMtdGVzdC1jYYIJAI3Srzf5ypILMAkGA1UdEgQC
MAAwCQYDVR0RBAIwADANBgkqhkiG9w0BAQUFAAOCAgEAlmnSzZmrfu5RiaXIyBvG
qjwHKB7sVhMNNAnzZVEIaa98Z37XVKL6hXLDEjiSH7k2o6DGCK3cqCnrIsR1xJOB
atekrr08SVyooGfBJ7PDUqpsFLB9NDxIdF4QO16nyQUQI3jxBSOy5jybBZWCMyHx
vKW6tfIu8hXlKCAndUoXBNm6X9te4GIrWbE2CreEd8NYWsD3YXSz0NPZEcA8qEGD
jFMSW+YT4hLXlSIwgNPhl+1ROd74mowa9K8cTUzibwR+ccXww4PcNS1kmc4xbYIq
fTfdJkHGrJrk5RfNVsyvzywB7nJzslzJuShrMGsSeFTGV9PY32YcwzRR2SMI/+Sy
ClXqQKXMH66+1jqLqYDW/SVfFauuD8a5mUF2lbsCBP6WyV8BGkmiSD8nNIXjckUg
tQUkrcmRRXLm+r6NDjzEraZYAQ3++KNVlxdsGD23JE54eUu9fnPu+jFAnCXdXW2z
XD+fD3LiACi0nyTbk1a6CQUQ3tWBSMY/b4FzP11HDHDzPjSk2T91SEb/+J/EccHI
Uk/EWZG/ChMLR58/CbxwwarJfBRY4YMycOHxjP8mSeeuLxBgCoCq0ufPQbCGDdhG
HHkOiOEEMM1Oglw+JLZojjA8esOv8gZ1xp3ID5PW01bO21vj0hjzyobx4fJzeLfD
eR4vfULf5dnv0fifFqa3mz4=
-----END CERTIFICATE-----
Certificate:
    Data:
        Version: 3 (0x2)
        Serial Number: 10219423159405941259 (0x8dd2af37f9ca920b)
    Signature Algorithm: sha1WithRSAEncryption
        Issuer: C=BE, CN=txjsonrpc-test-ca
        Validity
            Not Before: Jun 23 15:46:37 2012 GMT
            Not After : Jun 21 15:46:37 2022 GMT
        Subject: C=BE, CN=txjsonrpc-test-ca
        Subject Public Key Info:
            Public Key Algorithm: rsaEncryption
                Public-Key: (4096 bit)
                Modulus:
                    00:d1:25:af:77:c5:a8:72:cf:90:b9:39:10:fb:7b:
                    75:2c:a1:da:6a:95:e5:44:0c:d6:25:4b:58:7f:bb:
                    07:82:59:49:58:32:85:24:cc:3e:77:db:e1:a7:4f:
                    c8:b5:cb:ee:45:38:bd:bc:fb:e3:76:3b:88:04:ca:
                    ab:3a:a3:96:3b:5f:93:9c:28:a6:61:97:dc:a2:3f:
                    a0:93:2b:56:6c:cf:d3:4f:6a:9e:05:d3:1c:cd:ef:
                    75:80:1a:98:b7:92:49:14:33:b8:c4:7c:73:8c:7e:
                    83:a5:81:a2:59:8c:8b:a3:51:36:6d:68:ac:f2:f1:
                    ed:6f:49:d9:af:7a:63:c1:43:31:42:b6:c7:cd:b9:
                    78:b7:33:98:70:92:6c:9e:04:7a:7b:f0:6d:38:87:
                    eb:00:13:17:b9:d9:ec:b4:66:bb:51:d3:fd:81:e3:
                    0e:88:71:23:d2:80:2a:61:de:ab:25:02:47:a9:c1:
                    6b:c9:69:ae:da:47:b6:49:74:ac:a6:e1:c1:76:ba:
                    6d:b1:d9:68:6e:1c:37:a8:e2:18:60:37:b6:58:13:
                    6c:c7:92:7c:c6:45:8c:ef:c3:81:73:10:dc:2f:31:
                    e2:b9:05:5a:9e:28:70:5a:3e:1d:b8:68:71:81:c9:
                    e8:fe:1f:c3:a0:13:f8:e4:24:12:ba:91:8e:15:d2:
                    03:f1:8c:b0:aa:e2:34:e4:6b:f8:06:f6:23:8a:92:
                    43:a6:05:dc:e9:c7:a5:a8:06:d7:6e:91:52:72:47:
                    ab:ae:87:fe:b3:0f:04:87:6f:4b:22:29:e9:a9:06:
                    52:58:7d:03:16:d7:d5:31:44:b4:f1:51:44:a7:2a:
                    ba:5e:09:19:ec:4c:a2:e0:58:fe:0d:4e:b7:90:4d:
                    02:ac:2a:ad:99:14:65:3b:0a:3c:73:45:56:b2:0f:
                    10:25:24:51:79:57:1a:34:1a:10:6f:60:e0:fc:81:
                    db:ca:c2:e2:85:1b:4c:72:13:5c:9d:76:cc:d0:21:
                    33:31:56:82:8f:c5:57:b9:44:fd:8b:76:c1:b6:e4:
                    21:8b:35:9a:ee:54:74:9f:72:6b:19:84:d7:a2:3c:
                    a5:6e:11:0a:f1:93:04:2e:dd:7c:4c:7d:62:10:d4:
                    1b:8b:87:f6:ed:bf:12:b1:8b:f0:9a:7a:ee:02:94:
                    e1:3c:46:2b:7f:9c:54:fb:2e:61:c9:1c:ef:fc:de:
                    25:bc:2d:75:1b:1f:49:5e:44:3b:15:93:ad:c4:89:
                    d9:ae:3c:da:54:ef:d9:af:3a:16:cb:94:1b:6a:14:
                    e4:42:f9:75:33:46:6e:fb:40:bc:f8:82:36:cf:60:
                    f5:c2:a2:98:23:a7:2a:ae:c1:aa:22:f8:87:da:b7:
                    9c:a4:cf
                Exponent: 65537 (0x10001)
        X509v3 extensions:
            X509v3 Subject Key Identifier: 
                9D:8F:84:76:94:CD:07:FE:A3:E8:8B:D7:F9:D9:6E:EF:CA:75:51:7B
            X509v3 Authority Key Identifier: 
                keyid:9D:8F:84:76:94:CD:07:FE:A3:E8:8B:D7:F9:D9:6E:EF:CA:75:51:7B
                DirName:/C=BE/CN=txjsonrpc-test-ca
                serial:8D:D2:AF:37:F9:CA:92:0B

            X509v3 Basic Constraints: critical
                CA:TRUE
            Netscape Cert Type: 
                SSL CA, S/MIME CA
            X509v3 Issuer Alternative Name: 
                <EMPTY>

            Netscape Comment: 
                Test CA for txjsonrcp
            X509v3 Subject Alternative Name: 
                <EMPTY>

            X509v3 Key Usage: critical
                Certificate Sign, CRL Sign
    Signature Algorithm: sha1WithRSAEncryption
         06:82:86:81:a9:1b:7e:2d:ef:f5:fc:cc:d2:9d:d6:82:ad:d0:
         6f:7e:3d:b9:5c:b2:0f:3a:64:21:9a:fb:53:b2:93:81:dc:1a:
         24:fc:b8:30:57:a2:c7:71:0d:9c:1a:0b:8a:6c:89:52:8b:8a:
         f5:af:95:3e:b8:08:39:ee:36:50:ac:60:4d:df:2b:49:a2:72:
         f1:3f:12:3c:d9:55:56:a4:9a:77:2b:77:fa:16:b5:76:d9:f4:
         c4:51:6b:b9:fe:2f:a3:52:e8:64:80:49:22:6d:05:42:87:af:
         9d:85:6c:fa:c9:9b:48:39:7b:89:f5:a0:1e:ff:11:d3:9c:78:
         b1:b2:f6:4d:b1:e8:b3:98:23:2c:d4:20:e1:a1:01:3e:26:0a:
         5b:8e:eb:58:45:22:cf:e1:94:ad:84:40:b0:fb:ff:25:5f:31:
         9a:49:0b:36:ad:c6:1a:b0:42:60:40:e2:a2:3c:5a:36:41:89:
         fc:10:c4:60:ea:d4:85:7b:36:84:df:aa:81:cc:69:e7:52:ca:
         c1:46:b1:79:93:51:4f:24:84:42:14:3a:20:a0:6c:27:76:40:
         0f:96:7e:4e:c3:0c:37:b3:e3:73:49:86:58:31:00:1e:e7:0f:
         87:74:b6:4e:6e:1c:7d:87:a4:33:04:c9:76:ec:e5:3a:85:5f:
         a8:d1:ad:21:64:5e:c5:6a:df:b1:02:6e:65:a4:87:72:06:07:
         da:e5:f2:af:2b:a5:eb:18:80:67:83:a5:3c:e6:ed:d1:58:f9:
         90:5c:d6:e9:2f:76:c1:58:13:b8:bd:88:8a:f3:04:48:bb:42:
         8f:7f:c6:db:b4:30:3f:bb:6c:d5:47:e5:ae:8d:4b:da:92:a5:
         db:d3:6e:a8:9b:c2:6b:56:af:34:63:82:e6:78:f8:1f:54:d7:
         41:aa:a3:c9:7c:a6:83:41:bf:6e:33:7c:ae:e6:92:bd:da:27:
         b4:bc:e2:90:4f:33:1b:01:a1:cd:02:13:7a:31:ef:00:d6:9a:
         6e:38:6b:a7:cb:70:98:a8:0f:ff:1c:56:a8:b7:e6:d2:42:5a:
         bb:f4:78:27:71:13:d0:e8:43:eb:bc:2d:4f:e4:ea:4d:4f:76:
         7f:53:38:34:eb:13:e2:3d:c6:14:98:86:1c:ab:2c:0e:b7:68:
         2e:bd:63:a9:6a:8f:d5:22:2d:ab:13:d7:62:54:51:ff:5c:37:
         08:04:27:da:f9:57:77:05:18:73:88:5f:b0:c1:65:50:36:09:
         d6:c7:f5:ae:6e:3f:04:d1:84:3c:21:74:1d:bd:0a:fb:76:d0:
         13:2b:62:bb:24:48:43:89:d0:18:5c:b4:ad:ea:98:af:6d:fc:
         1c:6b:1f:06:64:54:23:88
-----BEGIN CERTIFICATE-----
MIIFwzCCA6ugAwIBAgIJAI3Srzf5ypILMA0GCSqGSIb3DQEBBQUAMCkxCzAJBgNV
BAYTAkJFMRowGAYDVQQDExF0eGpzb25ycGMtdGVzdC1jYTAeFw0xMjA2MjMxNTQ2
MzdaFw0yMjA2MjExNTQ2MzdaMCkxCzAJBgNVBAYTAkJFMRowGAYDVQQDExF0eGpz
b25ycGMtdGVzdC1jYTCCAiIwDQYJKoZIhvcNAQEBBQADggIPADCCAgoCggIBANEl
r3fFqHLPkLk5EPt7dSyh2mqV5UQM1iVLWH+7B4JZSVgyhSTMPnfb4adPyLXL7kU4
vbz743Y7iATKqzqjljtfk5wopmGX3KI/oJMrVmzP009qngXTHM3vdYAamLeSSRQz
uMR8c4x+g6WBolmMi6NRNm1orPLx7W9J2a96Y8FDMUK2x825eLczmHCSbJ4Eenvw
bTiH6wATF7nZ7LRmu1HT/YHjDohxI9KAKmHeqyUCR6nBa8lprtpHtkl0rKbhwXa6
bbHZaG4cN6jiGGA3tlgTbMeSfMZFjO/DgXMQ3C8x4rkFWp4ocFo+HbhocYHJ6P4f
w6AT+OQkErqRjhXSA/GMsKriNORr+Ab2I4qSQ6YF3OnHpagG126RUnJHq66H/rMP
BIdvSyIp6akGUlh9AxbX1TFEtPFRRKcqul4JGexMouBY/g1Ot5BNAqwqrZkUZTsK
PHNFVrIPECUkUXlXGjQaEG9g4PyB28rC4oUbTHITXJ12zNAhMzFWgo/FV7lE/Yt2
wbbkIYs1mu5UdJ9yaxmE16I8pW4RCvGTBC7dfEx9YhDUG4uH9u2/ErGL8Jp67gKU
4TxGK3+cVPsuYckc7/zeJbwtdRsfSV5EOxWTrcSJ2a482lTv2a86FsuUG2oU5EL5
dTNGbvtAvPiCNs9g9cKimCOnKq7BqiL4h9q3nKTPAgMBAAGjge0wgeowHQYDVR0O
BBYEFJ2PhHaUzQf+o+iL1/nZbu/KdVF7MFkGA1UdIwRSMFCAFJ2PhHaUzQf+o+iL
1/nZbu/KdVF7oS2kKzApMQswCQYDVQQGEwJCRTEaMBgGA1UEAxMRdHhqc29ucnBj
LXRlc3QtY2GCCQCN0q83+cqSCzAPBgNVHRMBAf8EBTADAQH/MBEGCWCGSAGG+EIB
AQQEAwIBBjAJBgNVHRIEAjAAMCQGCWCGSAGG+EIBDQQXFhVUZXN0IENBIGZvciB0
eGpzb25yY3AwCQYDVR0RBAIwADAOBgNVHQ8BAf8EBAMCAQYwDQYJKoZIhvcNAQEF
BQADggIBAAaChoGpG34t7/X8zNKd1oKt0G9+Pblcsg86ZCGa+1Oyk4HcGiT8uDBX
osdxDZwaC4psiVKLivWvlT64CDnuNlCsYE3fK0micvE/EjzZVVakmncrd/oWtXbZ
9MRRa7n+L6NS6GSASSJtBUKHr52FbPrJm0g5e4n1oB7/EdOceLGy9k2x6LOYIyzU
IOGhAT4mCluO61hFIs/hlK2EQLD7/yVfMZpJCzatxhqwQmBA4qI8WjZBifwQxGDq
1IV7NoTfqoHMaedSysFGsXmTUU8khEIUOiCgbCd2QA+Wfk7DDDez43NJhlgxAB7n
D4d0tk5uHH2HpDMEyXbs5TqFX6jRrSFkXsVq37ECbmWkh3IGB9rl8q8rpesYgGeD
pTzm7dFY+ZBc1ukvdsFYE7i9iIrzBEi7Qo9/xtu0MD+7bNVH5a6NS9qSpdvTbqib
wmtWrzRjguZ4+B9U10Gqo8l8poNBv24zfK7mkr3aJ7S84pBPMxsBoc0CE3ox7wDW
mm44a6fLcJioD/8cVqi35tJCWrv0eCdxE9DoQ+u8LU/k6k1Pdn9TODTrE+I9xhSY
hhyrLA63aC69Y6lqj9UiLasT12JUUf9cNwgEJ9r5V3cFGHOIX7DBZVA2CdbH9a5u
PwTRhDwhdB29Cvt20BMrYrskSEOJ0BhctK3qmK9t/BxrHwZkVCOI
-----END CERTIFICATE-----
