Certificate:
    Data:
        Version: 4 (0x3)
        Serial Number: 1 (0x1)
    Signature Algorithm: sha1WithRSAEncryption
        Issuer: CN=www.example.com, C=BE, O=Gremwell bvba
        Validity
            Not Before: Jan  1 00:00:00 1970 GMT
            Not After : Jan 19 03:14:07 2038 GMT
        Subject: CN=www.example.com, C=BE, O=Gremwell bvba
        Subject Public Key Info:
            Public Key Algorithm: rsaEncryption
                Public-Key: (1024 bit)
                Modulus:
                    00:c1:95:ab:35:e4:da:6e:87:10:89:ae:a9:ce:6f:
                    bf:fe:4a:da:4b:d2:cf:06:ef:55:c0:3a:84:ba:a7:
                    4b:e5:e0:93:b4:af:5b:32:9d:fd:b4:c7:3b:e1:d8:
                    74:a8:c0:62:59:71:4b:4b:a7:70:28:9a:4c:ec:60:
                    1a:3d:78:5f:a5:ad:23:83:ca:0a:67:04:a5:e0:c8:
                    61:15:17:51:df:8b:22:20:bc:38:e1:c8:70:25:10:
                    a3:b1:89:8d:2b:df:72:e8:39:8d:f9:21:3b:e2:df:
                    5b:f6:d6:62:da:eb:ac:58:8b:90:ab:87:94:61:5b:
                    ad:08:cd:32:47:4b:b9:2a:4b
                Exponent: 65537 (0x10001)
    Signature Algorithm: sha1WithRSAEncryption
         3e:70:b9:ca:a9:18:65:3a:74:33:be:ec:65:6d:3e:b5:bd:51:
         8e:97:ba:3f:5b:8e:6c:2b:cc:a0:0f:52:8b:02:7a:c3:8f:8b:
         cf:18:2e:bc:ce:44:0f:96:4d:11:fd:71:c0:85:0d:42:20:6d:
         5f:30:ee:37:eb:9a:d5:26:f6:5e:0f:17:68:64:34:82:d5:06:
         24:11:aa:0f:3e:81:ee:2c:e7:ae:ef:85:c1:0d:42:a6:89:fc:
         14:01:bf:c8:7a:f3:7f:8a:47:cc:9f:97:05:fa:ca:e2:d3:b3:
         2f:0b:17:6e:30:91:99:ac:25:75:d2:8e:c5:4c:b8:0c:0e:da:
         83:ed
-----BEGIN CERTIFICATE-----
MIIB8jCCAVugAwIBAwIBATANBgkqhkiG9w0BAQUFADA/MRgwFgYDVQQDEw93d3cu
ZXhhbXBsZS5jb20xCzAJBgNVBAYTAkJFMRYwFAYDVQQKEw1HcmVtd2VsbCBidmJh
MB4XDTcwMDEwMTAwMDAwMFoXDTM4MDExOTAzMTQwN1owPzEYMBYGA1UEAxMPd3d3
LmV4YW1wbGUuY29tMQswCQYDVQQGEwJCRTEWMBQGA1UEChMNR3JlbXdlbGwgYnZi
YTCBnzANBgkqhkiG9w0BAQEFAAOBjQAwgYkCgYEAwZWrNeTabocQia6pzm+//kra
S9LPBu9VwDqEuqdL5eCTtK9bMp39tMc74dh0qMBiWXFLS6dwKJpM7GAaPXhfpa0j
g8oKZwSl4MhhFRdR34siILw44chwJRCjsYmNK99y6DmN+SE74t9b9tZi2uusWIuQ
q4eUYVutCM0yR0u5KksCAwEAATANBgkqhkiG9w0BAQUFAAOBgQA+cLnKqRhlOnQz
vuxlbT61vVGOl7o/W45sK8ygD1KLAnrDj4vPGC68zkQPlk0R/XHAhQ1CIG1fMO43
65rVJvZeDxdoZDSC1QYkEaoPPoHuLOeu74XBDUKmifwUAb/IevN/ikfMn5cF+sri
07MvCxduMJGZrCV10o7FTLgMDtqD7Q==
-----END CERTIFICATE-----
