Certificate:
    Data:
        Version: 4 (0x3)
        Serial Number: 1 (0x1)
    Signature Algorithm: sha1WithRSAEncryption
        Issuer: CN=ca-none, C=BE, O=Gremwell bvba
        Validity
            Not Before: Jan  1 00:00:00 1970 GMT
            Not After : Jan 19 03:14:07 2038 GMT
        Subject: CN=www.example.com, C=BE, O=Gremwell bvba
        Subject Public Key Info:
            Public Key Algorithm: rsaEncryption
                Public-Key: (1024 bit)
                Modulus:
                    00:c1:95:ab:35:e4:da:6e:87:10:89:ae:a9:ce:6f:
                    bf:fe:4a:da:4b:d2:cf:06:ef:55:c0:3a:84:ba:a7:
                    4b:e5:e0:93:b4:af:5b:32:9d:fd:b4:c7:3b:e1:d8:
                    74:a8:c0:62:59:71:4b:4b:a7:70:28:9a:4c:ec:60:
                    1a:3d:78:5f:a5:ad:23:83:ca:0a:67:04:a5:e0:c8:
                    61:15:17:51:df:8b:22:20:bc:38:e1:c8:70:25:10:
                    a3:b1:89:8d:2b:df:72:e8:39:8d:f9:21:3b:e2:df:
                    5b:f6:d6:62:da:eb:ac:58:8b:90:ab:87:94:61:5b:
                    ad:08:cd:32:47:4b:b9:2a:4b
                Exponent: 65537 (0x10001)
    Signature Algorithm: sha1WithRSAEncryption
         89:93:50:30:0a:88:cb:7b:3e:15:8e:7e:42:89:30:45:60:cd:
         e5:71:0d:4c:ce:b2:b5:81:1d:a6:c5:b4:6b:97:ba:24:91:e9:
         cc:74:5b:45:b8:f0:9d:eb:ae:6f:b1:8b:b3:9a:e8:e2:3a:b5:
         88:f6:5d:58:a9:4c:ef:bf:1e:bc:32:f8:ab:83:36:40:8f:d0:
         02:c3:44:37:19:dc:a9:ed:e5:99:b3:f8:a9:4a:da:2a:20:7e:
         15:10:9c:e0:72:97:5d:10:c5:ac:ff:2d:da:9b:41:ca:2b:5b:
         0d:61:ca:87:40:e6:d1:f5:e8:7f:a9:25:68:1e:aa:34:93:bf:
         ff:86
-----BEGIN CERTIFICATE-----
MIIB6jCCAVOgAwIBAwIBATANBgkqhkiG9w0BAQUFADA3MRAwDgYDVQQDEwdjYS1u
b25lMQswCQYDVQQGEwJCRTEWMBQGA1UEChMNR3JlbXdlbGwgYnZiYTAeFw03MDAx
MDEwMDAwMDBaFw0zODAxMTkwMzE0MDdaMD8xGDAWBgNVBAMTD3d3dy5leGFtcGxl
LmNvbTELMAkGA1UEBhMCQkUxFjAUBgNVBAoTDUdyZW13ZWxsIGJ2YmEwgZ8wDQYJ
KoZIhvcNAQEBBQADgY0AMIGJAoGBAMGVqzXk2m6HEImuqc5vv/5K2kvSzwbvVcA6
hLqnS+Xgk7SvWzKd/bTHO+HYdKjAYllxS0uncCiaTOxgGj14X6WtI4PKCmcEpeDI
YRUXUd+LIiC8OOHIcCUQo7GJjSvfcug5jfkhO+LfW/bWYtrrrFiLkKuHlGFbrQjN
MkdLuSpLAgMBAAEwDQYJKoZIhvcNAQEFBQADgYEAiZNQMAqIy3s+FY5+QokwRWDN
5XENTM6ytYEdpsW0a5e6JJHpzHRbRbjwneuub7GLs5ro4jq1iPZdWKlM778evDL4
q4M2QI/QAsNENxncqe3lmbP4qUraKiB+FRCc4HKXXRDFrP8t2ptByitbDWHKh0Dm
0fXof6klaB6qNJO//4Y=
-----END CERTIFICATE-----
Certificate:
    Data:
        Version: 4 (0x3)
        Serial Number: 1 (0x1)
    Signature Algorithm: sha1WithRSAEncryption
        Issuer: C=BE, CN=txjsonrpc-test-ca
        Validity
            Not Before: Jan  1 00:00:00 1970 GMT
            Not After : Jan 19 03:14:07 2038 GMT
        Subject: CN=ca-none, C=BE, O=Gremwell bvba
        Subject Public Key Info:
            Public Key Algorithm: rsaEncryption
                Public-Key: (1024 bit)
                Modulus:
                    00:9f:04:d7:30:88:ff:2f:09:cc:fa:1c:77:2d:05:
                    40:1b:a6:e1:cd:b9:f2:01:a2:86:72:00:07:49:15:
                    3d:82:b9:73:36:20:0c:06:ca:6f:48:54:71:9b:63:
                    3b:c0:3f:41:7d:5e:62:44:f6:5e:a6:88:4d:a7:58:
                    45:e5:61:ee:62:da:f7:fe:0a:1f:20:66:6a:97:b7:
                    19:2c:47:de:19:41:f1:ce:99:2b:3b:a8:75:15:e0:
                    b3:39:6f:1d:2a:b0:2b:7f:ec:02:73:ae:22:4b:2e:
                    b3:c5:51:0b:15:cb:d2:65:75:a8:be:6e:96:b1:f3:
                    ce:44:14:5c:30:b4:b8:37:d1
                Exponent: 65537 (0x10001)
    Signature Algorithm: sha1WithRSAEncryption
         4a:2c:a4:56:a6:45:e9:cf:12:ca:df:1c:e1:58:18:16:a8:79:
         6d:1a:01:b5:2d:7c:a4:c5:47:87:6b:ce:7f:72:1b:8c:15:5e:
         6c:87:b7:55:67:5c:7d:09:48:77:27:05:82:3c:f6:9d:6b:0a:
         c6:40:23:80:95:c6:e2:47:da:4f:5a:9a:ce:ac:4e:eb:c8:56:
         74:92:5a:1c:a6:85:2d:52:ec:97:0d:eb:69:ae:0a:1f:65:db:
         fb:df:47:28:06:e0:23:fa:bd:24:f9:6b:37:6c:8c:91:df:a5:
         4e:3d:d9:8f:d5:1b:9b:47:20:d9:1b:3f:99:36:a4:62:51:23:
         37:9f:d0:c8:99:ce:25:6a:5c:a7:cb:6a:b8:5c:24:29:7c:65:
         ba:8a:88:5a:b5:b0:64:75:bf:47:bd:ba:7d:0b:d3:c2:b6:c0:
         22:50:18:e1:9c:0b:63:80:a5:32:5f:27:2e:b9:b5:be:fe:4e:
         14:88:32:16:4a:a9:64:11:e5:83:0b:fc:f2:83:c1:e4:13:8b:
         8e:ce:7d:78:2b:d6:2d:da:ad:87:0a:11:0d:93:d7:99:cc:58:
         6e:68:51:e7:8e:31:95:e0:3b:31:6e:f6:54:8e:2c:de:64:70:
         cb:68:8f:db:a7:d0:9d:90:01:e1:25:ff:41:6d:8d:58:b1:7c:
         b0:2a:45:5b:96:b9:43:f2:90:d1:68:87:33:ed:ef:07:6f:51:
         8d:3a:91:e1:da:87:23:2e:4e:18:7b:f6:cd:c7:b1:a7:65:07:
         4b:22:c5:64:09:92:d3:21:02:ef:18:19:20:38:ce:02:f9:3d:
         ac:ef:c3:8e:24:1f:6f:74:d2:9b:ec:b1:58:53:b1:00:9c:38:
         e0:f8:61:04:c8:e3:11:ea:11:1e:1c:dd:23:1a:b7:22:87:4d:
         3b:29:68:03:49:6e:d1:4e:b1:51:bf:17:89:fd:ce:b8:82:38:
         85:e3:8c:6f:64:e2:49:35:c0:80:3e:90:92:70:57:7f:66:82:
         5e:c0:37:e6:db:e1:c7:f1:33:2a:5f:80:17:e3:44:1a:cf:8d:
         03:74:25:89:a0:5d:93:e9:0d:66:25:f2:34:76:89:b7:78:cf:
         ea:cb:48:27:42:d4:1d:5f:e1:31:27:7a:d1:58:3c:b9:aa:26:
         c7:26:da:8e:f1:3b:7a:8d:d9:f8:00:c7:36:6e:14:29:46:98:
         c5:0e:59:99:1a:d8:e8:6d:dd:d8:38:93:65:7f:cc:00:19:50:
         c7:48:d1:46:6c:a4:b1:a3:04:61:d3:8b:f1:83:1a:12:70:74:
         05:57:7b:b7:6d:86:52:1a:cd:89:7c:86:2c:56:f5:53:2e:4f:
         88:5d:cd:59:b4:1e:aa:20
-----BEGIN CERTIFICATE-----
MIIDVTCCAT2gAwIBAwIBATANBgkqhkiG9w0BAQUFADApMQswCQYDVQQGEwJCRTEa
MBgGA1UEAxMRdHhqc29ucnBjLXRlc3QtY2EwHhcNNzAwMTAxMDAwMDAwWhcNMzgw
MTE5MDMxNDA3WjA3MRAwDgYDVQQDEwdjYS1ub25lMQswCQYDVQQGEwJCRTEWMBQG
A1UEChMNR3JlbXdlbGwgYnZiYTCBnzANBgkqhkiG9w0BAQEFAAOBjQAwgYkCgYEA
nwTXMIj/LwnM+hx3LQVAG6bhzbnyAaKGcgAHSRU9grlzNiAMBspvSFRxm2M7wD9B
fV5iRPZepohNp1hF5WHuYtr3/gofIGZql7cZLEfeGUHxzpkrO6h1FeCzOW8dKrAr
f+wCc64iSy6zxVELFcvSZXWovm6WsfPORBRcMLS4N9ECAwEAATANBgkqhkiG9w0B
AQUFAAOCAgEASiykVqZF6c8Syt8c4VgYFqh5bRoBtS18pMVHh2vOf3IbjBVebIe3
VWdcfQlIdycFgjz2nWsKxkAjgJXG4kfaT1qazqxO68hWdJJaHKaFLVLslw3raa4K
H2Xb+99HKAbgI/q9JPlrN2yMkd+lTj3Zj9Ubm0cg2Rs/mTakYlEjN5/QyJnOJWpc
p8tquFwkKXxluoqIWrWwZHW/R726fQvTwrbAIlAY4ZwLY4ClMl8nLrm1vv5OFIgy
FkqpZBHlgwv88oPB5BOLjs59eCvWLdqthwoRDZPXmcxYbmhR544xleA7MW72VI4s
3mRwy2iP26fQnZAB4SX/QW2NWLF8sCpFW5a5Q/KQ0WiHM+3vB29RjTqR4dqHIy5O
GHv2zcexp2UHSyLFZAmS0yEC7xgZIDjOAvk9rO/DjiQfb3TSm+yxWFOxAJw44Phh
BMjjEeoRHhzdIxq3IodNOyloA0lu0U6xUb8Xif3OuII4heOMb2TiSTXAgD6QknBX
f2aCXsA35tvhx/EzKl+AF+NEGs+NA3QliaBdk+kNZiXyNHaJt3jP6stIJ0LUHV/h
MSd60Vg8uaomxybajvE7eo3Z+ADHNm4UKUaYxQ5ZmRrY6G3d2DiTZX/MABlQx0jR
RmyksaMEYdOL8YMaEnB0BVd7t22GUhrNiXyGLFb1Uy5PiF3NWbQeqiA=
-----END CERTIFICATE-----
