Certificate:
    Data:
        Version: 4 (0x3)
        Serial Number: 1 (0x1)
    Signature Algorithm: sha1WithRSAEncryption
        Issuer: C=BE, CN=txjsonrpc-pyserver, O=Gremwell bvba
        Validity
            Not Before: Jun 23 15:47:38 2012 GMT
            Not After : Jun 23 15:47:38 2013 GMT
        Subject: C=BE, CN=txjsonrpc-pyserver, O=Gremwell bvba
        Subject Public Key Info:
            Public Key Algorithm: rsaEncryption
                Public-Key: (4096 bit)
                Modulus:
                    00:c3:11:ed:16:56:dc:ee:be:01:45:48:49:a5:fd:
                    5f:e9:30:6e:98:4f:a4:5b:2d:18:0b:0f:3e:c3:eb:
                    83:31:6f:8f:26:09:94:0f:11:fa:4b:42:d0:c8:22:
                    ff:3a:2c:c9:1f:5a:5e:c4:a3:1b:d6:09:7b:bd:69:
                    f6:4f:b7:a7:2b:d9:7f:32:2a:1e:1b:9f:f1:78:d4:
                    f5:2d:9b:83:a9:74:fd:bb:dc:96:04:c0:a6:43:66:
                    72:b8:68:30:67:3f:a4:a9:48:33:12:d9:8b:ea:8c:
                    99:8a:64:a4:0c:a0:64:f4:42:bf:6d:9b:ce:71:c7:
                    c9:f4:34:19:b5:19:6c:fa:df:2a:c4:38:fc:7a:4b:
                    b3:7d:fd:48:23:b6:bc:51:82:3c:2c:c6:3b:f2:dc:
                    06:6f:1a:ae:5b:01:78:e8:c1:cb:e7:06:a1:60:b1:
                    51:df:b3:17:85:92:24:4d:01:57:d6:d0:9f:8a:c6:
                    c9:1e:7e:c3:ab:3e:4d:78:f2:66:cd:fb:5e:11:31:
                    8e:45:33:fb:99:e7:1f:3d:bc:1a:03:d4:64:7e:11:
                    49:f6:19:5d:b6:e4:6f:ad:d6:c4:4e:5c:d2:6a:44:
                    79:2e:15:6a:cb:7d:e9:8a:b1:a8:34:7e:65:fb:ea:
                    b0:56:ac:17:a7:b5:37:60:72:99:17:04:af:bc:1a:
                    be:e6:2d:c5:1a:13:b9:6d:26:ce:03:db:72:ba:6d:
                    10:ce:c8:e2:a5:f0:1e:09:29:d3:b4:1b:b8:79:28:
                    1e:23:d7:b3:4c:1b:51:c2:cb:24:25:b9:12:0b:7f:
                    67:28:42:8b:7d:cb:b7:e0:99:c9:dd:b0:a4:4d:0a:
                    4d:f2:d3:1c:bf:e0:46:30:e5:73:80:38:a0:3e:f4:
                    95:6c:1e:82:26:b6:89:b5:80:4f:5b:b7:80:48:a2:
                    d4:af:f9:0b:70:05:81:4d:3a:c3:66:80:85:3f:d0:
                    de:4b:48:17:19:93:9f:0d:94:16:7a:56:3a:82:eb:
                    b2:55:f2:11:2a:fa:69:bb:a8:34:bb:3a:cd:0b:ff:
                    e8:84:bb:06:0c:96:f0:0d:02:2e:68:a5:2a:ee:9b:
                    82:3f:8e:01:d9:06:7a:fd:3a:95:09:ea:47:94:9e:
                    e3:c1:55:cc:18:d0:26:ae:d6:aa:4a:8c:38:3d:bf:
                    d7:ef:c7:53:3a:8a:f7:a7:ca:04:dd:63:36:1b:bd:
                    d8:4b:42:bc:76:32:1b:1e:66:e5:90:ff:e9:f7:1e:
                    ce:8b:71:49:f0:d0:23:0e:bd:89:37:b6:64:7e:8d:
                    b2:2e:6e:07:fa:86:16:44:61:76:e1:a9:f0:82:a4:
                    fc:c5:49:dc:46:0d:b6:f7:07:1e:ef:f0:55:8c:4c:
                    bd:ee:51
                Exponent: 65537 (0x10001)
        X509v3 extensions:
            X509v3 Basic Constraints: 
                CA:FALSE
            Netscape Cert Type: 
                SSL Server
            Netscape Comment: 
                TinyCA Generated Certificate
            X509v3 Subject Key Identifier: 
                26:8C:A5:F9:A6:4A:FE:4C:E8:0F:04:33:7E:04:26:28:BF:4C:92:F3
            X509v3 Authority Key Identifier: 
                keyid:9D:8F:84:76:94:CD:07:FE:A3:E8:8B:D7:F9:D9:6E:EF:CA:75:51:7B
                DirName:/C=BE/CN=txjsonrpc-test-ca
                serial:8D:D2:AF:37:F9:CA:92:0B

            X509v3 Issuer Alternative Name: 
                <EMPTY>

            X509v3 Subject Alternative Name: 
                <EMPTY>

    Signature Algorithm: sha1WithRSAEncryption
         3e:5b:2b:d7:14:45:4a:b7:ac:8c:9d:cd:c3:47:97:02:54:8e:
         10:dc:4d:54:cc:79:3a:fd:8e:98:18:f1:b2:9e:dc:69:78:8f:
         a1:0c:6b:41:ef:61:0f:82:4b:b5:2a:d9:3d:f0:9d:58:36:a8:
         20:7a:3f:e1:14:87:3c:3a:98:83:cb:54:8c:9c:bb:c8:a7:1f:
         98:02:3f:a8:9c:a5:b0:b3:3e:bd:d3:e8:3b:36:85:ad:ee:31:
         03:e6:8b:38:d7:45:a0:db:47:42:6e:6a:f1:e1:5d:0a:73:fb:
         cd:5b:50:54:54:ce:19:ee:5c:42:3e:7f:3c:1e:7e:39:a5:ef:
         d1:fc:24:58:a5:8b:be:96:a6:45:b3:3f:b8:d8:51:88:ac:25:
         c9:0b:31:d7:05:8a:1a:b5:fe:78:c4:63:8b:b8:a0:ea:e7:84:
         9d:78:b2:3c:d4:15:f4:8b:d1:aa:20:4b:42:a6:b9:c6:57:7f:
         08:90:9e:56:3f:45:d5:f4:ce:d4:ea:f6:da:c6:ef:a5:90:e2:
         d8:b5:dd:90:0d:53:ec:b6:5a:12:7f:70:f4:43:fe:48:0c:93:
         ac:66:86:68:a2:db:04:34:48:04:62:cd:6e:29:6a:78:60:39:
         81:0c:6a:00:f7:c1:3a:59:f9:1b:ec:7f:39:1a:f1:87:75:31:
         85:a7:f4:20:7d:56:c9:35:7e:da:c0:37:c5:90:fe:c0:c2:c5:
         df:d6:17:ae:87:54:da:e4:a7:e0:8f:e5:86:9b:33:1f:51:a3:
         c1:55:45:e2:ea:30:5e:62:f2:f7:b0:8a:7d:53:5c:7e:c4:40:
         3b:6e:20:2a:01:99:48:e2:09:74:e6:66:a2:af:17:ae:d5:02:
         08:08:d1:13:22:ad:0c:d5:44:49:56:64:5f:0b:2b:08:b2:76:
         13:45:0c:0d:cd:cc:da:d9:59:31:84:56:05:8c:ca:d1:aa:44:
         08:6b:03:b3:f0:5a:39:0d:90:ec:ca:f5:1c:02:1b:02:b4:a9:
         92:54:cc:59:ba:47:3c:98:48:24:99:ba:f0:c4:78:3f:15:e3:
         d0:e5:96:30:4d:c7:5d:de:cd:0d:4b:b2:c0:d1:48:2d:0f:aa:
         09:72:d5:2f:f4:72:b7:16:11:18:41:d0:8a:6a:a9:cf:e8:62:
         05:3f:31:7c:bb:63:6d:65:99:f5:0d:8a:a4:91:10:34:94:e2:
         16:15:f1:66:46:e4:f3:90:22:d8:87:85:39:5b:55:c7:33:8e:
         5e:a1:1d:ae:6d:4c:fe:d6:86:3c:f2:96:c5:c0:0e:71:86:38:
         f9:2d:dc:19:e9:a4:a2:33:78:b2:42:30:79:33:70:2c:d2:4b:
         3b:cd:58:66:9c:1a:d6:21
-----BEGIN CERTIFICATE-----
MIIF3jCCA8agAwIBAwIBATANBgkqhkiG9w0BAQUFADBCMQswCQYDVQQGEwJCRTEb
MBkGA1UEAxMSdHhqc29ucnBjLXB5c2VydmVyMRYwFAYDVQQKEw1HcmVtd2VsbCBi
dmJhMB4XDTEyMDYyMzE1NDczOFoXDTEzMDYyMzE1NDczOFowQjELMAkGA1UEBhMC
QkUxGzAZBgNVBAMTEnR4anNvbnJwYy1weXNlcnZlcjEWMBQGA1UEChMNR3JlbXdl
bGwgYnZiYTCCAiIwDQYJKoZIhvcNAQEBBQADggIPADCCAgoCggIBAMMR7RZW3O6+
AUVISaX9X+kwbphPpFstGAsPPsPrgzFvjyYJlA8R+ktC0Mgi/zosyR9aXsSjG9YJ
e71p9k+3pyvZfzIqHhuf8XjU9S2bg6l0/bvclgTApkNmcrhoMGc/pKlIMxLZi+qM
mYpkpAygZPRCv22bznHHyfQ0GbUZbPrfKsQ4/HpLs339SCO2vFGCPCzGO/LcBm8a
rlsBeOjBy+cGoWCxUd+zF4WSJE0BV9bQn4rGyR5+w6s+TXjyZs37XhExjkUz+5nn
Hz28GgPUZH4RSfYZXbbkb63WxE5c0mpEeS4Vast96YqxqDR+ZfvqsFasF6e1N2By
mRcEr7wavuYtxRoTuW0mzgPbcrptEM7I4qXwHgkp07QbuHkoHiPXs0wbUcLLJCW5
Egt/ZyhCi33Lt+CZyd2wpE0KTfLTHL/gRjDlc4A4oD70lWwegia2ibWAT1u3gEii
1K/5C3AFgU06w2aAhT/Q3ktIFxmTnw2UFnpWOoLrslXyESr6abuoNLs6zQv/6IS7
BgyW8A0CLmilKu6bgj+OAdkGev06lQnqR5Se48FVzBjQJq7WqkqMOD2/1+/HUzqK
96fKBN1jNhu92EtCvHYyGx5m5ZD/6fcezotxSfDQIw69iTe2ZH6Nsi5uB/qGFkRh
duGp8IKk/MVJ3EYNtvcHHu/wVYxMve5RAgMBAAGjgd4wgdswCQYDVR0TBAIwADAR
BglghkgBhvhCAQEEBAMCBkAwKwYJYIZIAYb4QgENBB4WHFRpbnlDQSBHZW5lcmF0
ZWQgQ2VydGlmaWNhdGUwHQYDVR0OBBYEFCaMpfmmSv5M6A8EM34EJii/TJLzMFkG
A1UdIwRSMFCAFJ2PhHaUzQf+o+iL1/nZbu/KdVF7oS2kKzApMQswCQYDVQQGEwJC
RTEaMBgGA1UEAxMRdHhqc29ucnBjLXRlc3QtY2GCCQCN0q83+cqSCzAJBgNVHRIE
AjAAMAkGA1UdEQQCMAAwDQYJKoZIhvcNAQEFBQADggIBAD5bK9cURUq3rIydzcNH
lwJUjhDcTVTMeTr9jpgY8bKe3Gl4j6EMa0HvYQ+CS7Uq2T3wnVg2qCB6P+EUhzw6
mIPLVIycu8inH5gCP6icpbCzPr3T6Ds2ha3uMQPmizjXRaDbR0JuavHhXQpz+81b
UFRUzhnuXEI+fzwefjml79H8JFili76WpkWzP7jYUYisJckLMdcFihq1/njEY4u4
oOrnhJ14sjzUFfSL0aogS0KmucZXfwiQnlY/RdX0ztTq9trG76WQ4ti13ZANU+y2
WhJ/cPRD/kgMk6xmhmii2wQ0SARizW4panhgOYEMagD3wTpZ+Rvsfzka8Yd1MYWn
9CB9Vsk1ftrAN8WQ/sDCxd/WF66HVNrkp+CP5YabMx9Ro8FVReLqMF5i8vewin1T
XH7EQDtuICoBmUjiCXTmZqKvF67VAggI0RMirQzVRElWZF8LKwiydhNFDA3NzNrZ
WTGEVgWMytGqRAhrA7PwWjkNkOzK9RwCGwK0qZJUzFm6RzyYSCSZuvDEeD8V49Dl
ljBNx13ezQ1LssDRSC0Pqgly1S/0crcWERhB0Ipqqc/oYgU/MXy7Y21lmfUNiqSR
EDSU4hYV8WZG5POQItiHhTlbVcczjl6hHa5tTP7WhjzylsXADnGGOPkt3BnppKIz
eLJCMHkzcCzSSzvNWGacGtYh
-----END CERTIFICATE-----
