Certificate:
    Data:
        Version: 4 (0x3)
        Serial Number: 1 (0x1)
    Signature Algorithm: sha1WithRSAEncryption
        Issuer: CN=ca-true, C=BE, O=Gremwell bvba
        Validity
            Not Before: Jun 23 15:47:38 2012 GMT
            Not After : Jun 23 15:47:38 2013 GMT
        Subject: C=BE, CN=txjsonrpc-pyserver, O=Gremwell bvba
        Subject Public Key Info:
            Public Key Algorithm: rsaEncryption
                Public-Key: (4096 bit)
                Modulus:
                    00:c3:11:ed:16:56:dc:ee:be:01:45:48:49:a5:fd:
                    5f:e9:30:6e:98:4f:a4:5b:2d:18:0b:0f:3e:c3:eb:
                    83:31:6f:8f:26:09:94:0f:11:fa:4b:42:d0:c8:22:
                    ff:3a:2c:c9:1f:5a:5e:c4:a3:1b:d6:09:7b:bd:69:
                    f6:4f:b7:a7:2b:d9:7f:32:2a:1e:1b:9f:f1:78:d4:
                    f5:2d:9b:83:a9:74:fd:bb:dc:96:04:c0:a6:43:66:
                    72:b8:68:30:67:3f:a4:a9:48:33:12:d9:8b:ea:8c:
                    99:8a:64:a4:0c:a0:64:f4:42:bf:6d:9b:ce:71:c7:
                    c9:f4:34:19:b5:19:6c:fa:df:2a:c4:38:fc:7a:4b:
                    b3:7d:fd:48:23:b6:bc:51:82:3c:2c:c6:3b:f2:dc:
                    06:6f:1a:ae:5b:01:78:e8:c1:cb:e7:06:a1:60:b1:
                    51:df:b3:17:85:92:24:4d:01:57:d6:d0:9f:8a:c6:
                    c9:1e:7e:c3:ab:3e:4d:78:f2:66:cd:fb:5e:11:31:
                    8e:45:33:fb:99:e7:1f:3d:bc:1a:03:d4:64:7e:11:
                    49:f6:19:5d:b6:e4:6f:ad:d6:c4:4e:5c:d2:6a:44:
                    79:2e:15:6a:cb:7d:e9:8a:b1:a8:34:7e:65:fb:ea:
                    b0:56:ac:17:a7:b5:37:60:72:99:17:04:af:bc:1a:
                    be:e6:2d:c5:1a:13:b9:6d:26:ce:03:db:72:ba:6d:
                    10:ce:c8:e2:a5:f0:1e:09:29:d3:b4:1b:b8:79:28:
                    1e:23:d7:b3:4c:1b:51:c2:cb:24:25:b9:12:0b:7f:
                    67:28:42:8b:7d:cb:b7:e0:99:c9:dd:b0:a4:4d:0a:
                    4d:f2:d3:1c:bf:e0:46:30:e5:73:80:38:a0:3e:f4:
                    95:6c:1e:82:26:b6:89:b5:80:4f:5b:b7:80:48:a2:
                    d4:af:f9:0b:70:05:81:4d:3a:c3:66:80:85:3f:d0:
                    de:4b:48:17:19:93:9f:0d:94:16:7a:56:3a:82:eb:
                    b2:55:f2:11:2a:fa:69:bb:a8:34:bb:3a:cd:0b:ff:
                    e8:84:bb:06:0c:96:f0:0d:02:2e:68:a5:2a:ee:9b:
                    82:3f:8e:01:d9:06:7a:fd:3a:95:09:ea:47:94:9e:
                    e3:c1:55:cc:18:d0:26:ae:d6:aa:4a:8c:38:3d:bf:
                    d7:ef:c7:53:3a:8a:f7:a7:ca:04:dd:63:36:1b:bd:
                    d8:4b:42:bc:76:32:1b:1e:66:e5:90:ff:e9:f7:1e:
                    ce:8b:71:49:f0:d0:23:0e:bd:89:37:b6:64:7e:8d:
                    b2:2e:6e:07:fa:86:16:44:61:76:e1:a9:f0:82:a4:
                    fc:c5:49:dc:46:0d:b6:f7:07:1e:ef:f0:55:8c:4c:
                    bd:ee:51
                Exponent: 65537 (0x10001)
        X509v3 extensions:
            X509v3 Basic Constraints: 
                CA:FALSE
            Netscape Cert Type: 
                SSL Server
            Netscape Comment: 
                TinyCA Generated Certificate
            X509v3 Subject Key Identifier: 
                26:8C:A5:F9:A6:4A:FE:4C:E8:0F:04:33:7E:04:26:28:BF:4C:92:F3
            X509v3 Authority Key Identifier: 
                keyid:9D:8F:84:76:94:CD:07:FE:A3:E8:8B:D7:F9:D9:6E:EF:CA:75:51:7B
                DirName:/C=BE/CN=txjsonrpc-test-ca
                serial:8D:D2:AF:37:F9:CA:92:0B

            X509v3 Issuer Alternative Name: 
                <EMPTY>

            X509v3 Subject Alternative Name: 
                <EMPTY>

    Signature Algorithm: sha1WithRSAEncryption
         a6:b8:59:6e:e5:9f:5b:c3:ea:33:2e:4f:d0:65:15:a6:02:fb:
         0f:21:92:53:cb:4a:7f:69:92:59:53:20:46:a3:4a:f7:9f:86:
         10:f6:4c:16:33:b6:29:b8:19:1b:79:5a:ee:fc:eb:2b:5c:e4:
         77:33:fa:cb:06:6c:c7:45:e4:92:c0:b2:18:a7:0e:4d:78:c2:
         4b:38:6a:2a:9d:f4:b5:2f:35:35:46:a6:eb:c0:f2:11:10:46:
         6b:ac:fb:e8:12:1d:4b:e8:06:82:c9:8f:da:2b:83:a5:72:81:
         c9:a6:ba:93:d8:c3:60:73:da:94:c4:83:c2:54:29:47:f8:41:
         c1:e2
-----BEGIN CERTIFICATE-----
MIIEUjCCA7ugAwIBAwIBATANBgkqhkiG9w0BAQUFADA3MRAwDgYDVQQDEwdjYS10
cnVlMQswCQYDVQQGEwJCRTEWMBQGA1UEChMNR3JlbXdlbGwgYnZiYTAeFw0xMjA2
MjMxNTQ3MzhaFw0xMzA2MjMxNTQ3MzhaMEIxCzAJBgNVBAYTAkJFMRswGQYDVQQD
ExJ0eGpzb25ycGMtcHlzZXJ2ZXIxFjAUBgNVBAoTDUdyZW13ZWxsIGJ2YmEwggIi
MA0GCSqGSIb3DQEBAQUAA4ICDwAwggIKAoICAQDDEe0WVtzuvgFFSEml/V/pMG6Y
T6RbLRgLDz7D64Mxb48mCZQPEfpLQtDIIv86LMkfWl7EoxvWCXu9afZPt6cr2X8y
Kh4bn/F41PUtm4OpdP273JYEwKZDZnK4aDBnP6SpSDMS2YvqjJmKZKQMoGT0Qr9t
m85xx8n0NBm1GWz63yrEOPx6S7N9/UgjtrxRgjwsxjvy3AZvGq5bAXjowcvnBqFg
sVHfsxeFkiRNAVfW0J+KxskefsOrPk148mbN+14RMY5FM/uZ5x89vBoD1GR+EUn2
GV225G+t1sROXNJqRHkuFWrLfemKsag0fmX76rBWrBentTdgcpkXBK+8Gr7mLcUa
E7ltJs4D23K6bRDOyOKl8B4JKdO0G7h5KB4j17NMG1HCyyQluRILf2coQot9y7fg
mcndsKRNCk3y0xy/4EYw5XOAOKA+9JVsHoImtom1gE9bt4BIotSv+QtwBYFNOsNm
gIU/0N5LSBcZk58NlBZ6VjqC67JV8hEq+mm7qDS7Os0L/+iEuwYMlvANAi5opSru
m4I/jgHZBnr9OpUJ6keUnuPBVcwY0Cau1qpKjDg9v9fvx1M6ivenygTdYzYbvdhL
Qrx2MhseZuWQ/+n3Hs6LcUnw0CMOvYk3tmR+jbIubgf6hhZEYXbhqfCCpPzFSdxG
Dbb3Bx7v8FWMTL3uUQIDAQABo4HeMIHbMAkGA1UdEwQCMAAwEQYJYIZIAYb4QgEB
BAQDAgZAMCsGCWCGSAGG+EIBDQQeFhxUaW55Q0EgR2VuZXJhdGVkIENlcnRpZmlj
YXRlMB0GA1UdDgQWBBQmjKX5pkr+TOgPBDN+BCYov0yS8zBZBgNVHSMEUjBQgBSd
j4R2lM0H/qPoi9f52W7vynVRe6EtpCswKTELMAkGA1UEBhMCQkUxGjAYBgNVBAMT
EXR4anNvbnJwYy10ZXN0LWNhggkAjdKvN/nKkgswCQYDVR0SBAIwADAJBgNVHREE
AjAAMA0GCSqGSIb3DQEBBQUAA4GBAKa4WW7ln1vD6jMuT9BlFaYC+w8hklPLSn9p
kllTIEajSvefhhD2TBYztim4GRt5Wu786ytc5Hcz+ssGbMdF5JLAshinDk14wks4
aiqd9LUvNTVGpuvA8hEQRmus++gSHUvoBoLJj9org6VygcmmupPYw2Bz2pTEg8JU
KUf4QcHi
-----END CERTIFICATE-----
Certificate:
    Data:
        Version: 4 (0x3)
        Serial Number: 1 (0x1)
    Signature Algorithm: sha1WithRSAEncryption
        Issuer: C=BE, CN=txjsonrpc-test-ca
        Validity
            Not Before: Jan  1 00:00:00 1970 GMT
            Not After : Jan 19 03:14:07 2038 GMT
        Subject: CN=ca-true, C=BE, O=Gremwell bvba
        Subject Public Key Info:
            Public Key Algorithm: rsaEncryption
                Public-Key: (1024 bit)
                Modulus:
                    00:b4:95:f9:0a:7e:bc:3d:c0:8c:21:41:35:ac:ca:
                    c0:71:5a:17:f0:20:02:a8:fb:c8:d2:97:9e:67:7e:
                    ba:43:36:bd:26:10:6b:bc:f8:7f:89:b7:44:ad:d8:
                    63:ac:84:21:e1:3c:b8:83:71:9d:0b:c1:ea:7e:d2:
                    1b:b1:8c:91:88:45:fb:0a:09:af:ce:4c:7b:ae:a6:
                    64:5c:92:3a:0b:a4:24:a6:20:58:9d:ab:f2:24:e5:
                    fe:28:6a:98:93:ec:1d:95:37:83:f1:b1:70:42:92:
                    08:55:2b:0f:c0:8d:63:bf:c5:a9:fc:20:55:ce:6a:
                    18:a9:4b:29:13:a1:63:5d:1b
                Exponent: 65537 (0x10001)
        X509v3 extensions:
            X509v3 Basic Constraints: critical
                CA:TRUE
    Signature Algorithm: sha1WithRSAEncryption
         8c:4f:f7:ac:fb:8c:e3:0c:2d:dd:29:a9:1a:6c:93:95:2c:ad:
         d4:c1:73:f9:b7:77:04:54:4f:7a:57:8c:4c:87:5f:68:6d:5b:
         92:3e:bf:cf:e9:ee:f3:b5:20:ca:8f:7d:2d:96:a6:16:5c:d6:
         3c:a8:ea:e7:58:74:70:fc:79:7f:4a:a1:16:f7:24:fe:1c:7a:
         ab:18:45:27:1e:71:2b:16:32:ab:e0:2e:8b:57:e5:c3:71:9a:
         14:33:e3:04:d5:2e:da:18:b4:56:db:27:54:e8:f6:4d:b3:58:
         e9:31:d3:45:f5:f0:47:55:ed:c9:44:aa:f2:24:e4:e9:91:62:
         c7:98:75:6c:c8:48:83:3b:0b:aa:50:44:fd:9f:45:75:ab:56:
         1d:20:56:18:09:6c:05:59:07:8e:58:bd:d4:7a:5e:29:f7:c4:
         31:80:06:dc:cb:9e:f1:35:be:08:31:30:26:f3:c6:a3:74:be:
         a2:a3:b3:3e:f2:a1:df:0a:c4:f2:49:4b:e8:76:43:74:b7:01:
         a1:c4:cb:b5:54:6b:4c:59:c8:12:7c:fc:73:77:8c:c6:f6:e2:
         58:7e:26:4a:63:b4:4e:23:03:2e:28:83:81:2a:2d:60:2e:1c:
         bd:11:cc:8f:40:80:86:f1:05:b2:e0:70:70:fd:25:5d:b5:8f:
         fd:3d:1a:4a:00:44:cf:5e:77:a9:12:0f:49:08:d0:cf:7c:3c:
         6c:27:51:8d:c4:2c:61:dd:c3:8e:fa:ab:0e:d3:6c:0e:42:f5:
         b3:bf:a2:5d:da:ac:32:42:95:36:99:50:85:d1:43:4f:36:83:
         79:65:e9:03:26:01:79:dd:9b:66:24:ac:d8:f0:44:5c:3c:45:
         72:12:67:d7:d9:fb:af:a3:f8:a1:4b:dd:d2:ea:69:b6:3a:45:
         6e:96:b7:7d:9b:25:9c:58:5c:34:56:3c:cd:89:69:23:36:66:
         c2:06:b8:79:15:bb:e1:51:05:c5:0c:0c:47:90:8a:dd:63:26:
         cd:4d:4c:71:29:fe:48:08:d1:20:71:07:c9:89:9d:76:9c:d1:
         65:e1:97:e2:9f:b9:6d:88:d3:76:aa:7b:6f:ef:5d:e5:5c:40:
         cf:6c:23:fc:5a:03:10:de:dd:64:f9:70:a2:f9:1c:f7:43:17:
         fe:07:2e:01:75:30:a3:6f:1a:a1:d6:5a:13:ef:df:a3:b3:ba:
         5f:4a:1f:e7:2e:d3:b4:d6:06:3c:7f:2d:2a:92:65:66:99:fb:
         b3:db:7e:98:6a:a3:34:49:ab:32:9e:63:c1:e5:aa:fc:fd:a1:
         64:1a:46:03:d8:69:3c:5c:11:22:da:7d:68:8b:b6:01:22:5f:
         b4:f5:37:6b:ed:00:de:00
-----BEGIN CERTIFICATE-----
MIIDajCCAVKgAwIBAwIBATANBgkqhkiG9w0BAQUFADApMQswCQYDVQQGEwJCRTEa
MBgGA1UEAxMRdHhqc29ucnBjLXRlc3QtY2EwHhcNNzAwMTAxMDAwMDAwWhcNMzgw
MTE5MDMxNDA3WjA3MRAwDgYDVQQDEwdjYS10cnVlMQswCQYDVQQGEwJCRTEWMBQG
A1UEChMNR3JlbXdlbGwgYnZiYTCBnzANBgkqhkiG9w0BAQEFAAOBjQAwgYkCgYEA
tJX5Cn68PcCMIUE1rMrAcVoX8CACqPvI0peeZ366Qza9JhBrvPh/ibdErdhjrIQh
4Ty4g3GdC8HqftIbsYyRiEX7Cgmvzkx7rqZkXJI6C6QkpiBYnavyJOX+KGqYk+wd
lTeD8bFwQpIIVSsPwI1jv8Wp/CBVzmoYqUspE6FjXRsCAwEAAaMTMBEwDwYDVR0T
AQH/BAUwAwEB/zANBgkqhkiG9w0BAQUFAAOCAgEAjE/3rPuM4wwt3SmpGmyTlSyt
1MFz+bd3BFRPeleMTIdfaG1bkj6/z+nu87Ugyo99LZamFlzWPKjq51h0cPx5f0qh
Fvck/hx6qxhFJx5xKxYyq+Aui1flw3GaFDPjBNUu2hi0VtsnVOj2TbNY6THTRfXw
R1XtyUSq8iTk6ZFix5h1bMhIgzsLqlBE/Z9FdatWHSBWGAlsBVkHjli91HpeKffE
MYAG3Mue8TW+CDEwJvPGo3S+oqOzPvKh3wrE8klL6HZDdLcBocTLtVRrTFnIEnz8
c3eMxvbiWH4mSmO0TiMDLiiDgSotYC4cvRHMj0CAhvEFsuBwcP0lXbWP/T0aSgBE
z153qRIPSQjQz3w8bCdRjcQsYd3DjvqrDtNsDkL1s7+iXdqsMkKVNplQhdFDTzaD
eWXpAyYBed2bZiSs2PBEXDxFchJn19n7r6P4oUvd0upptjpFbpa3fZslnFhcNFY8
zYlpIzZmwga4eRW74VEFxQwMR5CK3WMmzU1McSn+SAjRIHEHyYmddpzRZeGX4p+5
bYjTdqp7b+9d5VxAz2wj/FoDEN7dZPlwovkc90MX/gcuAXUwo28aodZaE+/fo7O6
X0of5y7TtNYGPH8tKpJlZpn7s9t+mGqjNEmrMp5jweWq/P2hZBpGA9hpPFwRItp9
aIu2ASJftPU3a+0A3gA=
-----END CERTIFICATE-----
