Certificate:
    Data:
        Version: 4 (0x3)
        Serial Number: 1 (0x1)
    Signature Algorithm: sha1WithRSAEncryption
        Issuer: CN=ca-false, C=BE, O=Gremwell bvba
        Validity
            Not Before: Jun 23 15:47:38 2012 GMT
            Not After : Jun 23 15:47:38 2013 GMT
        Subject: C=BE, CN=txjsonrpc-pyserver, O=Gremwell bvba
        Subject Public Key Info:
            Public Key Algorithm: rsaEncryption
                Public-Key: (4096 bit)
                Modulus:
                    00:c3:11:ed:16:56:dc:ee:be:01:45:48:49:a5:fd:
                    5f:e9:30:6e:98:4f:a4:5b:2d:18:0b:0f:3e:c3:eb:
                    83:31:6f:8f:26:09:94:0f:11:fa:4b:42:d0:c8:22:
                    ff:3a:2c:c9:1f:5a:5e:c4:a3:1b:d6:09:7b:bd:69:
                    f6:4f:b7:a7:2b:d9:7f:32:2a:1e:1b:9f:f1:78:d4:
                    f5:2d:9b:83:a9:74:fd:bb:dc:96:04:c0:a6:43:66:
                    72:b8:68:30:67:3f:a4:a9:48:33:12:d9:8b:ea:8c:
                    99:8a:64:a4:0c:a0:64:f4:42:bf:6d:9b:ce:71:c7:
                    c9:f4:34:19:b5:19:6c:fa:df:2a:c4:38:fc:7a:4b:
                    b3:7d:fd:48:23:b6:bc:51:82:3c:2c:c6:3b:f2:dc:
                    06:6f:1a:ae:5b:01:78:e8:c1:cb:e7:06:a1:60:b1:
                    51:df:b3:17:85:92:24:4d:01:57:d6:d0:9f:8a:c6:
                    c9:1e:7e:c3:ab:3e:4d:78:f2:66:cd:fb:5e:11:31:
                    8e:45:33:fb:99:e7:1f:3d:bc:1a:03:d4:64:7e:11:
                    49:f6:19:5d:b6:e4:6f:ad:d6:c4:4e:5c:d2:6a:44:
                    79:2e:15:6a:cb:7d:e9:8a:b1:a8:34:7e:65:fb:ea:
                    b0:56:ac:17:a7:b5:37:60:72:99:17:04:af:bc:1a:
                    be:e6:2d:c5:1a:13:b9:6d:26:ce:03:db:72:ba:6d:
                    10:ce:c8:e2:a5:f0:1e:09:29:d3:b4:1b:b8:79:28:
                    1e:23:d7:b3:4c:1b:51:c2:cb:24:25:b9:12:0b:7f:
                    67:28:42:8b:7d:cb:b7:e0:99:c9:dd:b0:a4:4d:0a:
                    4d:f2:d3:1c:bf:e0:46:30:e5:73:80:38:a0:3e:f4:
                    95:6c:1e:82:26:b6:89:b5:80:4f:5b:b7:80:48:a2:
                    d4:af:f9:0b:70:05:81:4d:3a:c3:66:80:85:3f:d0:
                    de:4b:48:17:19:93:9f:0d:94:16:7a:56:3a:82:eb:
                    b2:55:f2:11:2a:fa:69:bb:a8:34:bb:3a:cd:0b:ff:
                    e8:84:bb:06:0c:96:f0:0d:02:2e:68:a5:2a:ee:9b:
                    82:3f:8e:01:d9:06:7a:fd:3a:95:09:ea:47:94:9e:
                    e3:c1:55:cc:18:d0:26:ae:d6:aa:4a:8c:38:3d:bf:
                    d7:ef:c7:53:3a:8a:f7:a7:ca:04:dd:63:36:1b:bd:
                    d8:4b:42:bc:76:32:1b:1e:66:e5:90:ff:e9:f7:1e:
                    ce:8b:71:49:f0:d0:23:0e:bd:89:37:b6:64:7e:8d:
                    b2:2e:6e:07:fa:86:16:44:61:76:e1:a9:f0:82:a4:
                    fc:c5:49:dc:46:0d:b6:f7:07:1e:ef:f0:55:8c:4c:
                    bd:ee:51
                Exponent: 65537 (0x10001)
        X509v3 extensions:
            X509v3 Basic Constraints: 
                CA:FALSE
            Netscape Cert Type: 
                SSL Server
            Netscape Comment: 
                TinyCA Generated Certificate
            X509v3 Subject Key Identifier: 
                26:8C:A5:F9:A6:4A:FE:4C:E8:0F:04:33:7E:04:26:28:BF:4C:92:F3
            X509v3 Authority Key Identifier: 
                keyid:9D:8F:84:76:94:CD:07:FE:A3:E8:8B:D7:F9:D9:6E:EF:CA:75:51:7B
                DirName:/C=BE/CN=txjsonrpc-test-ca
                serial:8D:D2:AF:37:F9:CA:92:0B

            X509v3 Issuer Alternative Name: 
                <EMPTY>

            X509v3 Subject Alternative Name: 
                <EMPTY>

    Signature Algorithm: sha1WithRSAEncryption
         33:d2:6f:53:fe:07:87:6a:5e:92:3e:c1:16:da:33:0a:59:50:
         0e:7d:e6:eb:91:f8:ec:30:49:0f:71:28:11:19:a6:15:be:ed:
         e9:7f:d6:bc:37:e5:f8:c1:c6:eb:9e:b3:b3:bd:4c:99:58:6a:
         64:68:8e:bb:b9:60:a7:2d:f4:59:89:4c:34:52:02:e7:c0:0e:
         1f:43:40:ee:ed:85:cb:c3:d9:b9:81:95:23:cb:3d:42:52:9a:
         81:db:b8:a1:c8:a8:4a:b5:a0:98:78:d5:dd:9b:3d:b4:31:82:
         72:21:91:2b:4e:df:8b:5b:0d:39:cf:9b:c3:e6:34:5b:4c:f4:
         41:9c
-----BEGIN CERTIFICATE-----
MIIEUzCCA7ygAwIBAwIBATANBgkqhkiG9w0BAQUFADA4MREwDwYDVQQDEwhjYS1m
YWxzZTELMAkGA1UEBhMCQkUxFjAUBgNVBAoTDUdyZW13ZWxsIGJ2YmEwHhcNMTIw
NjIzMTU0NzM4WhcNMTMwNjIzMTU0NzM4WjBCMQswCQYDVQQGEwJCRTEbMBkGA1UE
AxMSdHhqc29ucnBjLXB5c2VydmVyMRYwFAYDVQQKEw1HcmVtd2VsbCBidmJhMIIC
IjANBgkqhkiG9w0BAQEFAAOCAg8AMIICCgKCAgEAwxHtFlbc7r4BRUhJpf1f6TBu
mE+kWy0YCw8+w+uDMW+PJgmUDxH6S0LQyCL/OizJH1pexKMb1gl7vWn2T7enK9l/
MioeG5/xeNT1LZuDqXT9u9yWBMCmQ2ZyuGgwZz+kqUgzEtmL6oyZimSkDKBk9EK/
bZvOccfJ9DQZtRls+t8qxDj8ekuzff1II7a8UYI8LMY78twGbxquWwF46MHL5wah
YLFR37MXhZIkTQFX1tCfisbJHn7Dqz5NePJmzfteETGORTP7mecfPbwaA9RkfhFJ
9hldtuRvrdbETlzSakR5LhVqy33pirGoNH5l++qwVqwXp7U3YHKZFwSvvBq+5i3F
GhO5bSbOA9tyum0QzsjipfAeCSnTtBu4eSgeI9ezTBtRwsskJbkSC39nKEKLfcu3
4JnJ3bCkTQpN8tMcv+BGMOVzgDigPvSVbB6CJraJtYBPW7eASKLUr/kLcAWBTTrD
ZoCFP9DeS0gXGZOfDZQWelY6guuyVfIRKvppu6g0uzrNC//ohLsGDJbwDQIuaKUq
7puCP44B2QZ6/TqVCepHlJ7jwVXMGNAmrtaqSow4Pb/X78dTOor3p8oE3WM2G73Y
S0K8djIbHmblkP/p9x7Oi3FJ8NAjDr2JN7Zkfo2yLm4H+oYWRGF24anwgqT8xUnc
Rg229wce7/BVjEy97lECAwEAAaOB3jCB2zAJBgNVHRMEAjAAMBEGCWCGSAGG+EIB
AQQEAwIGQDArBglghkgBhvhCAQ0EHhYcVGlueUNBIEdlbmVyYXRlZCBDZXJ0aWZp
Y2F0ZTAdBgNVHQ4EFgQUJoyl+aZK/kzoDwQzfgQmKL9MkvMwWQYDVR0jBFIwUIAU
nY+EdpTNB/6j6IvX+dlu78p1UXuhLaQrMCkxCzAJBgNVBAYTAkJFMRowGAYDVQQD
ExF0eGpzb25ycGMtdGVzdC1jYYIJAI3Srzf5ypILMAkGA1UdEgQCMAAwCQYDVR0R
BAIwADANBgkqhkiG9w0BAQUFAAOBgQAz0m9T/geHal6SPsEW2jMKWVAOfebrkfjs
MEkPcSgRGaYVvu3pf9a8N+X4wcbrnrOzvUyZWGpkaI67uWCnLfRZiUw0UgLnwA4f
Q0Du7YXLw9m5gZUjyz1CUpqB27ihyKhKtaCYeNXdmz20MYJyIZErTt+LWw05z5vD
5jRbTPRBnA==
-----END CERTIFICATE-----
Certificate:
    Data:
        Version: 4 (0x3)
        Serial Number: 1 (0x1)
    Signature Algorithm: sha1WithRSAEncryption
        Issuer: C=BE, CN=txjsonrpc-test-ca
        Validity
            Not Before: Jan  1 00:00:00 1970 GMT
            Not After : Jan 19 03:14:07 2038 GMT
        Subject: CN=ca-false, C=BE, O=Gremwell bvba
        Subject Public Key Info:
            Public Key Algorithm: rsaEncryption
                Public-Key: (1024 bit)
                Modulus:
                    00:e2:c3:8d:8d:af:89:6b:e6:21:7a:15:bc:15:c4:
                    39:7e:a1:e6:93:d4:44:22:ad:74:db:1d:04:f0:8c:
                    17:4a:73:ec:85:a0:63:86:61:a9:a0:4c:ec:7d:34:
                    8f:2b:3e:70:07:6a:1e:9a:3a:2f:f6:44:b7:9a:f6:
                    84:f8:00:bb:50:4e:41:ca:88:0b:4d:86:51:4b:50:
                    7a:3e:86:e5:56:ae:96:a1:cc:31:d8:7d:3e:ad:9e:
                    d3:9f:cd:d1:1d:ff:fa:cd:23:54:79:b3:4f:bb:4f:
                    97:e3:44:35:a6:2a:0c:d4:ec:b7:2a:45:24:ab:bb:
                    cf:d6:ad:98:f1:d4:53:77:19
                Exponent: 65537 (0x10001)
        X509v3 extensions:
            X509v3 Basic Constraints: critical
                CA:FALSE
    Signature Algorithm: sha1WithRSAEncryption
         06:bb:09:6e:62:c3:63:69:82:14:b5:32:ba:56:2a:0d:2c:44:
         ad:0b:45:9e:8f:3b:b8:ce:99:57:8b:95:51:27:44:99:77:c3:
         41:c0:35:0d:ae:4a:f5:df:0d:0f:6c:f9:84:97:64:09:bc:62:
         4e:53:16:11:1a:ef:99:8f:08:09:7c:fa:59:40:4c:1e:4f:99:
         ff:e4:53:93:e5:66:a6:76:d5:b2:b4:d3:1b:7f:3f:fb:0b:53:
         89:31:de:fa:93:69:8d:35:42:fd:eb:54:21:f1:6a:00:79:24:
         e8:ae:f2:a9:a4:7f:82:69:72:e5:a0:5d:b9:1c:cc:c4:a3:2a:
         69:b3:f6:f0:e7:6a:78:ec:3b:df:fb:4a:bb:cf:0e:b3:aa:23:
         48:15:37:ba:13:87:e4:4f:31:b8:00:29:14:c1:d2:85:65:0c:
         e5:a9:01:74:56:99:28:66:ea:2a:97:24:fe:23:24:c1:fa:6b:
         ad:ff:61:2a:ab:58:a6:1b:2a:cd:3d:78:4c:8f:97:87:22:d7:
         36:35:0f:d0:90:7e:a8:93:59:0a:1f:36:d3:96:ee:71:25:2a:
         96:69:f7:0d:7c:66:12:57:ce:e1:48:87:41:e7:e4:35:67:3f:
         1b:13:5f:f7:25:3a:85:09:11:09:6c:de:6b:f3:b9:8d:90:5d:
         0c:79:a4:74:49:0b:6c:20:d4:13:81:4e:f4:80:5c:63:74:fc:
         6f:78:e0:03:1e:d9:90:a1:df:b4:f8:b7:cc:92:9a:4c:d8:cd:
         db:ab:99:32:b3:f6:70:26:b0:d2:a6:b2:93:41:1e:2b:3a:53:
         bf:49:4c:97:d3:65:be:f3:58:e6:96:73:81:1e:5c:2e:59:ff:
         4d:c9:e0:66:9d:91:63:ad:5f:be:8b:c1:3f:fc:b4:88:11:9b:
         0a:00:f6:1f:79:08:cf:90:16:44:86:22:7f:00:2b:b3:9e:5e:
         32:21:ce:38:28:2b:ae:64:0b:9d:17:d6:00:f0:81:39:ca:a7:
         27:fd:0d:c5:9d:83:5b:7e:59:8e:b6:74:fa:0e:70:21:61:ad:
         37:08:3b:38:45:a9:79:dc:94:50:be:2d:6b:07:17:bc:8e:79:
         30:d1:d7:58:ef:ce:c0:cd:27:36:30:92:2a:80:4d:dd:a3:ce:
         50:57:15:8a:c0:98:a9:4f:1e:e0:5a:86:51:c2:5f:42:fb:64:
         01:2b:13:58:da:f2:20:03:35:94:7c:bc:d0:8b:4e:7f:06:a5:
         08:f5:cf:cd:e1:4a:21:38:6a:4e:95:85:c4:93:8a:6d:03:0c:
         7b:0f:1f:5d:fb:b0:53:2e:0c:85:71:01:2b:68:6b:56:1b:1d:
         4d:ad:82:ee:c8:f1:77:5b
-----BEGIN CERTIFICATE-----
MIIDaDCCAVCgAwIBAwIBATANBgkqhkiG9w0BAQUFADApMQswCQYDVQQGEwJCRTEa
MBgGA1UEAxMRdHhqc29ucnBjLXRlc3QtY2EwHhcNNzAwMTAxMDAwMDAwWhcNMzgw
MTE5MDMxNDA3WjA4MREwDwYDVQQDEwhjYS1mYWxzZTELMAkGA1UEBhMCQkUxFjAU
BgNVBAoTDUdyZW13ZWxsIGJ2YmEwgZ8wDQYJKoZIhvcNAQEBBQADgY0AMIGJAoGB
AOLDjY2viWvmIXoVvBXEOX6h5pPURCKtdNsdBPCMF0pz7IWgY4ZhqaBM7H00jys+
cAdqHpo6L/ZEt5r2hPgAu1BOQcqIC02GUUtQej6G5VaulqHMMdh9Pq2e05/N0R3/
+s0jVHmzT7tPl+NENaYqDNTstypFJKu7z9atmPHUU3cZAgMBAAGjEDAOMAwGA1Ud
EwEB/wQCMAAwDQYJKoZIhvcNAQEFBQADggIBAAa7CW5iw2NpghS1MrpWKg0sRK0L
RZ6PO7jOmVeLlVEnRJl3w0HANQ2uSvXfDQ9s+YSXZAm8Yk5TFhEa75mPCAl8+llA
TB5Pmf/kU5PlZqZ21bK00xt/P/sLU4kx3vqTaY01Qv3rVCHxagB5JOiu8qmkf4Jp
cuWgXbkczMSjKmmz9vDnanjsO9/7SrvPDrOqI0gVN7oTh+RPMbgAKRTB0oVlDOWp
AXRWmShm6iqXJP4jJMH6a63/YSqrWKYbKs09eEyPl4ci1zY1D9CQfqiTWQofNtOW
7nElKpZp9w18ZhJXzuFIh0Hn5DVnPxsTX/clOoUJEQls3mvzuY2QXQx5pHRJC2wg
1BOBTvSAXGN0/G944AMe2ZCh37T4t8ySmkzYzdurmTKz9nAmsNKmspNBHis6U79J
TJfTZb7zWOaWc4EeXC5Z/03J4GadkWOtX76LwT/8tIgRmwoA9h95CM+QFkSGIn8A
K7OeXjIhzjgoK65kC50X1gDwgTnKpyf9DcWdg1t+WY62dPoOcCFhrTcIOzhFqXnc
lFC+LWsHF7yOeTDR11jvzsDNJzYwkiqATd2jzlBXFYrAmKlPHuBahlHCX0L7ZAEr
E1ja8iADNZR8vNCLTn8GpQj1z83hSiE4ak6VhcSTim0DDHsPH137sFMuDIVxASto
a1YbHU2tgu7I8Xdb
-----END CERTIFICATE-----
