Certificate:
    Data:
        Version: 4 (0x3)
        Serial Number: 1 (0x1)
    Signature Algorithm: sha1WithRSAEncryption
        Issuer: CN=www.example.com, C=BE, O=Gremwell bvba
        Validity
            Not Before: Jan  1 00:00:00 1970 GMT
            Not After : Jan 19 03:14:07 2038 GMT
        Subject: CN=www.example.com, C=BE, O=Gremwell bvba
        Subject Public Key Info:
            Public Key Algorithm: rsaEncryption
                Public-Key: (1024 bit)
                Modulus:
                    00:d4:ea:9a:52:20:d7:65:d1:37:91:13:cc:4a:29:
                    49:1a:8f:69:f7:ab:9a:df:22:7f:00:9c:64:ae:7c:
                    6c:09:ea:77:5b:b4:34:de:33:40:7f:5a:6d:83:a2:
                    64:ce:e5:d5:fe:8a:fb:e3:01:37:80:32:3b:34:b3:
                    e2:1d:a1:d6:3c:4a:6b:d1:23:20:34:bb:30:d5:da:
                    f8:e5:fc:fc:63:06:23:2c:b9:55:86:ad:50:12:76:
                    c8:73:db:66:77:f2:18:a5:43:44:35:0c:6b:94:16:
                    8f:df:0b:98:e3:73:16:18:21:4b:fd:ca:58:34:3f:
                    0c:20:d4:e6:a4:63:eb:bb:7b
                Exponent: 65537 (0x10001)
    Signature Algorithm: sha1WithRSAEncryption
         12:21:60:eb:53:24:01:8b:e0:05:6d:eb:0b:f1:50:f5:9f:34:
         dc:3d:07:15:b6:00:e2:3a:1e:52:6a:af:a0:05:b2:c1:1d:f3:
         a2:7f:00:1f:5b:d1:49:f9:05:d9:41:5c:8d:51:8f:0a:c8:1f:
         ce:0c:db:36:e2:d1:17:63:6a:a8:d3:32:af:86:29:95:c2:21:
         aa:da:c8:79:ef:43:1a:48:f9:85:12:c9:58:e8:48:f5:3d:95:
         1b:30:64:f3:e1:6d:48:6b:21:29:9a:ad:aa:32:7c:0f:e8:f6:
         64:b2:9e:75:a5:3a:8a:7a:8e:fb:f3:65:f6:b5:74:55:d2:0c:
         59:de
-----BEGIN CERTIFICATE-----
MIIB8jCCAVugAwIBAwIBATANBgkqhkiG9w0BAQUFADA/MRgwFgYDVQQDEw93d3cu
ZXhhbXBsZS5jb20xCzAJBgNVBAYTAkJFMRYwFAYDVQQKEw1HcmVtd2VsbCBidmJh
MB4XDTcwMDEwMTAwMDAwMFoXDTM4MDExOTAzMTQwN1owPzEYMBYGA1UEAxMPd3d3
LmV4YW1wbGUuY29tMQswCQYDVQQGEwJCRTEWMBQGA1UEChMNR3JlbXdlbGwgYnZi
YTCBnzANBgkqhkiG9w0BAQEFAAOBjQAwgYkCgYEA1OqaUiDXZdE3kRPMSilJGo9p
96ua3yJ/AJxkrnxsCep3W7Q03jNAf1ptg6JkzuXV/or74wE3gDI7NLPiHaHWPEpr
0SMgNLsw1dr45fz8YwYjLLlVhq1QEnbIc9tmd/IYpUNENQxrlBaP3wuY43MWGCFL
/cpYND8MINTmpGPru3sCAwEAATANBgkqhkiG9w0BAQUFAAOBgQASIWDrUyQBi+AF
besL8VD1nzTcPQcVtgDiOh5Saq+gBbLBHfOifwAfW9FJ+QXZQVyNUY8KyB/ODNs2
4tEXY2qo0zKvhimVwiGq2sh570MaSPmFEslY6Ej1PZUbMGTz4W1IayEpmq2qMnwP
6PZksp51pTqKeo7782X2tXRV0gxZ3g==
-----END CERTIFICATE-----
