Certificate:
    Data:
        Version: 4 (0x3)
        Serial Number: 1 (0x1)
    Signature Algorithm: sha1WithRSAEncryption
        Issuer: CN=ca-true, C=BE, O=Gremwell bvba
        Validity
            Not Before: Jan  1 00:00:00 1970 GMT
            Not After : Jan 19 03:14:07 2038 GMT
        Subject: CN=www.example.com, C=BE, O=Gremwell bvba
        Subject Public Key Info:
            Public Key Algorithm: rsaEncryption
                Public-Key: (1024 bit)
                Modulus:
                    00:d4:ea:9a:52:20:d7:65:d1:37:91:13:cc:4a:29:
                    49:1a:8f:69:f7:ab:9a:df:22:7f:00:9c:64:ae:7c:
                    6c:09:ea:77:5b:b4:34:de:33:40:7f:5a:6d:83:a2:
                    64:ce:e5:d5:fe:8a:fb:e3:01:37:80:32:3b:34:b3:
                    e2:1d:a1:d6:3c:4a:6b:d1:23:20:34:bb:30:d5:da:
                    f8:e5:fc:fc:63:06:23:2c:b9:55:86:ad:50:12:76:
                    c8:73:db:66:77:f2:18:a5:43:44:35:0c:6b:94:16:
                    8f:df:0b:98:e3:73:16:18:21:4b:fd:ca:58:34:3f:
                    0c:20:d4:e6:a4:63:eb:bb:7b
                Exponent: 65537 (0x10001)
    Signature Algorithm: sha1WithRSAEncryption
         a8:d3:bb:10:3d:db:9f:1c:98:c3:9e:ce:84:d4:26:7d:c7:d1:
         ec:ed:45:e4:59:4d:1e:ec:c8:1e:df:e9:f8:27:23:d9:ff:6f:
         37:a6:ee:5e:65:49:fe:99:5f:0a:67:ce:2a:bf:a0:42:f0:72:
         e8:75:1d:7f:05:6c:2e:e3:e6:1e:10:83:04:ca:b2:ef:ec:1f:
         78:4a:34:21:0f:f9:df:d2:4a:31:02:a9:2b:be:10:5f:c5:ea:
         49:71:ca:a2:58:b2:56:2b:73:40:d6:8f:00:7f:6f:75:d4:28:
         fd:97:d0:d3:18:96:76:ac:bb:df:dc:69:bf:bc:fc:54:cd:48:
         7b:ef
-----BEGIN CERTIFICATE-----
MIIB6jCCAVOgAwIBAwIBATANBgkqhkiG9w0BAQUFADA3MRAwDgYDVQQDEwdjYS10
cnVlMQswCQYDVQQGEwJCRTEWMBQGA1UEChMNR3JlbXdlbGwgYnZiYTAeFw03MDAx
MDEwMDAwMDBaFw0zODAxMTkwMzE0MDdaMD8xGDAWBgNVBAMTD3d3dy5leGFtcGxl
LmNvbTELMAkGA1UEBhMCQkUxFjAUBgNVBAoTDUdyZW13ZWxsIGJ2YmEwgZ8wDQYJ
KoZIhvcNAQEBBQADgY0AMIGJAoGBANTqmlIg12XRN5ETzEopSRqPafermt8ifwCc
ZK58bAnqd1u0NN4zQH9abYOiZM7l1f6K++MBN4AyOzSz4h2h1jxKa9EjIDS7MNXa
+OX8/GMGIyy5VYatUBJ2yHPbZnfyGKVDRDUMa5QWj98LmONzFhghS/3KWDQ/DCDU
5qRj67t7AgMBAAEwDQYJKoZIhvcNAQEFBQADgYEAqNO7ED3bnxyYw57OhNQmfcfR
7O1F5FlNHuzIHt/p+Ccj2f9vN6buXmVJ/plfCmfOKr+gQvBy6HUdfwVsLuPmHhCD
BMqy7+wfeEo0IQ/539JKMQKpK74QX8XqSXHKoliyVitzQNaPAH9vddQo/ZfQ0xiW
dqy739xpv7z8VM1Ie+8=
-----END CERTIFICATE-----
Certificate:
    Data:
        Version: 4 (0x3)
        Serial Number: 1 (0x1)
    Signature Algorithm: sha1WithRSAEncryption
        Issuer: C=BE, CN=txjsonrpc-test-ca
        Validity
            Not Before: Jan  1 00:00:00 1970 GMT
            Not After : Jan 19 03:14:07 2038 GMT
        Subject: CN=ca-true, C=BE, O=Gremwell bvba
        Subject Public Key Info:
            Public Key Algorithm: rsaEncryption
                Public-Key: (1024 bit)
                Modulus:
                    00:bc:ea:e6:35:96:6d:f9:ff:52:e0:48:28:74:95:
                    eb:15:0c:cd:ba:37:75:05:f5:fb:a3:13:9a:e2:76:
                    30:11:5d:81:f7:60:d8:99:07:0b:d7:73:d3:cf:3b:
                    06:73:f8:d1:17:2f:bd:3e:83:7f:ea:bf:e4:8c:20:
                    e9:84:ac:2f:31:d4:b4:a1:6f:da:6e:df:57:1a:3a:
                    24:96:58:91:73:7c:47:12:92:ce:1c:c1:f8:1b:46:
                    94:9a:5a:c0:e9:1a:18:1c:88:34:95:37:20:4b:b7:
                    80:48:6c:74:9b:ad:a6:0b:81:54:b8:5e:5f:63:9b:
                    d8:23:b1:76:1c:ba:cb:d3:a3
                Exponent: 65537 (0x10001)
        X509v3 extensions:
            X509v3 Basic Constraints: critical
                CA:TRUE
    Signature Algorithm: sha1WithRSAEncryption
         c4:83:49:a5:4a:9b:d2:ad:e8:d2:5e:1c:66:1c:5e:17:1c:9e:
         6c:09:8c:33:84:40:55:25:a3:17:bc:6c:82:46:40:04:63:65:
         c1:48:d0:75:4a:cc:eb:96:33:ee:cb:02:d4:45:c9:45:f8:8d:
         69:02:16:51:3c:04:13:03:b9:5e:9e:aa:10:61:1c:6a:c7:2b:
         47:71:18:30:6a:32:4d:8f:d5:da:72:d9:62:3f:da:eb:78:88:
         24:5e:7f:b3:82:a4:7a:2e:ac:d4:d8:63:d3:fb:87:30:63:3b:
         47:7d:07:d6:99:bd:43:bb:30:e0:f8:f0:69:68:09:ca:1f:9f:
         e0:3c:56:9f:cc:2b:c8:c9:92:1a:de:4f:d4:3c:2f:94:b0:04:
         be:ea:19:e1:24:32:57:94:5e:bc:41:94:30:5c:9b:7a:cd:16:
         2e:f0:d2:dd:a3:71:e0:bc:51:a9:33:4c:a5:41:3f:58:83:94:
         66:77:31:4f:ba:c7:15:84:d8:04:f5:f6:26:9d:17:3f:2f:9d:
         17:6e:57:4a:14:ff:db:f1:f0:d2:8a:f6:11:32:c1:e6:d0:7e:
         64:6d:2c:85:4a:b0:41:69:8c:e8:dc:e5:27:5d:ea:d9:e0:77:
         07:6c:9d:9a:4b:38:22:08:49:34:3d:25:14:90:07:fc:27:f3:
         a6:94:9b:dd:cc:36:47:f1:bc:ae:ec:71:96:c8:18:48:c6:1a:
         27:bf:35:44:37:23:d8:c9:28:4b:a9:c9:cd:20:b6:e2:9f:c3:
         d0:9d:84:b3:df:dd:5f:fb:77:8d:c6:a5:c6:67:0f:5b:ff:c8:
         22:07:63:b0:dc:e0:de:d9:57:ae:4d:89:b3:1c:ed:e5:9f:58:
         90:28:52:48:10:57:30:5b:4e:dd:2a:c1:cb:b4:09:e5:36:a0:
         52:81:8d:f3:ed:15:d3:18:07:99:bc:12:66:e3:4d:3b:06:6d:
         ff:fc:64:69:41:1f:09:19:c8:ad:7d:55:15:68:c8:c3:72:83:
         f6:94:7a:40:b8:20:4b:7e:2b:29:a0:ca:6d:17:fb:61:6d:d4:
         44:20:a5:64:c5:73:7e:8a:4d:07:c5:96:c1:66:b1:80:b1:4d:
         28:a3:a1:dc:ba:e1:6f:01:49:59:91:e6:97:a5:a8:f4:a1:e6:
         b6:21:ad:8b:f2:33:4c:ef:4d:82:b6:e2:75:07:ea:3d:f0:d4:
         9b:43:74:ae:09:0d:8d:f0:41:a0:ed:b0:45:47:23:45:e5:d0:
         a0:8b:e2:d1:ad:44:7a:e4:ef:0d:86:1b:20:41:d3:f4:b1:93:
         b5:8e:af:5b:a2:80:a5:c1:bc:c4:7c:85:ee:9d:62:87:e1:81:
         6d:3e:be:a2:b8:bf:bb:43
-----BEGIN CERTIFICATE-----
MIIDajCCAVKgAwIBAwIBATANBgkqhkiG9w0BAQUFADApMQswCQYDVQQGEwJCRTEa
MBgGA1UEAxMRdHhqc29ucnBjLXRlc3QtY2EwHhcNNzAwMTAxMDAwMDAwWhcNMzgw
MTE5MDMxNDA3WjA3MRAwDgYDVQQDEwdjYS10cnVlMQswCQYDVQQGEwJCRTEWMBQG
A1UEChMNR3JlbXdlbGwgYnZiYTCBnzANBgkqhkiG9w0BAQEFAAOBjQAwgYkCgYEA
vOrmNZZt+f9S4EgodJXrFQzNujd1BfX7oxOa4nYwEV2B92DYmQcL13PTzzsGc/jR
Fy+9PoN/6r/kjCDphKwvMdS0oW/abt9XGjoklliRc3xHEpLOHMH4G0aUmlrA6RoY
HIg0lTcgS7eASGx0m62mC4FUuF5fY5vYI7F2HLrL06MCAwEAAaMTMBEwDwYDVR0T
AQH/BAUwAwEB/zANBgkqhkiG9w0BAQUFAAOCAgEAxINJpUqb0q3o0l4cZhxeFxye
bAmMM4RAVSWjF7xsgkZABGNlwUjQdUrM65Yz7ssC1EXJRfiNaQIWUTwEEwO5Xp6q
EGEcascrR3EYMGoyTY/V2nLZYj/a63iIJF5/s4Kkei6s1Nhj0/uHMGM7R30H1pm9
Q7sw4PjwaWgJyh+f4DxWn8wryMmSGt5P1DwvlLAEvuoZ4SQyV5RevEGUMFybes0W
LvDS3aNx4LxRqTNMpUE/WIOUZncxT7rHFYTYBPX2Jp0XPy+dF25XShT/2/Hw0or2
ETLB5tB+ZG0shUqwQWmM6NzlJ13q2eB3B2ydmks4IghJND0lFJAH/CfzppSb3cw2
R/G8ruxxlsgYSMYaJ781RDcj2MkoS6nJzSC24p/D0J2Es9/dX/t3jcalxmcPW//I
IgdjsNzg3tlXrk2Jsxzt5Z9YkChSSBBXMFtO3SrBy7QJ5TagUoGN8+0V0xgHmbwS
ZuNNOwZt//xkaUEfCRnIrX1VFWjIw3KD9pR6QLggS34rKaDKbRf7YW3URCClZMVz
fopNB8WWwWaxgLFNKKOh3LrhbwFJWZHml6Wo9KHmtiGti/IzTO9NgrbidQfqPfDU
m0N0rgkNjfBBoO2wRUcjReXQoIvi0a1EeuTvDYYbIEHT9LGTtY6vW6KApcG8xHyF
7p1ih+GBbT6+ori/u0M=
-----END CERTIFICATE-----
