Certificate:
    Data:
        Version: 4 (0x3)
        Serial Number: 1 (0x1)
    Signature Algorithm: sha1WithRSAEncryption
        Issuer: C=BE, CN=txjsonrpc-test-ca
        Validity
            Not Before: Jan  1 00:00:00 1970 GMT
            Not After : Jan 19 03:14:07 2038 GMT
        Subject: CN=ca-none, C=BE, O=Gremwell bvba
        Subject Public Key Info:
            Public Key Algorithm: rsaEncryption
                Public-Key: (1024 bit)
                Modulus:
                    00:c2:15:fe:78:6d:f4:b1:39:bf:86:8b:1f:44:38:
                    7f:ca:b9:85:09:db:55:fd:bc:11:8e:e1:25:b2:c2:
                    55:f7:44:f9:6b:4a:ae:80:fb:66:aa:24:49:20:27:
                    27:56:8f:db:6f:eb:76:30:45:2e:c4:5c:21:b2:05:
                    a5:83:a1:7c:43:b1:d4:c1:d8:a2:f6:db:d7:68:34:
                    86:a3:4f:1b:36:b3:b5:93:f5:ee:7c:18:9d:59:a5:
                    19:3c:22:6e:25:2f:f0:67:82:44:42:bd:01:7d:a7:
                    bb:4e:57:c7:52:c2:74:af:8c:96:a5:98:8c:c1:30:
                    ff:f3:eb:90:4a:43:d2:09:fb
                Exponent: 65537 (0x10001)
    Signature Algorithm: sha1WithRSAEncryption
         82:a2:5c:f9:e2:2a:ea:dd:24:d5:ca:60:e8:c9:f0:da:bf:97:
         68:51:c0:6d:2e:53:d3:ca:c9:22:cc:8e:98:40:a1:ea:d8:a0:
         ce:66:8c:a9:d1:70:fd:4c:1d:12:9a:d1:9f:11:1f:e5:05:af:
         b9:2f:bd:a0:fc:ab:11:37:73:ab:f4:9c:6c:68:be:d1:9e:c5:
         44:69:9a:1f:a5:03:ff:79:03:e3:56:2f:ff:b9:0c:41:28:7d:
         f2:c0:69:dc:3d:1a:af:07:72:46:7d:da:8d:7b:c8:d6:4b:a4:
         2e:89:7e:d3:57:e4:c7:a7:9f:83:58:10:85:28:c9:f1:0e:f5:
         fe:84:d2:b2:30:9d:17:ad:f7:9c:d8:34:f0:13:02:a2:5a:e1:
         03:20:39:d0:a9:28:0c:98:ec:82:50:01:de:ab:6b:21:5c:da:
         14:8b:e7:ce:b2:8c:d9:76:0f:c1:8d:7d:47:24:8e:7a:7c:9d:
         0e:2f:29:de:4b:82:bc:f8:f8:57:ed:32:02:51:02:2e:e5:49:
         f7:1b:a8:c1:ef:ca:9d:33:a3:2d:65:86:ba:6b:e6:ed:c4:e0:
         2a:35:a0:10:ae:21:15:ae:ca:17:4d:20:7e:31:d3:a9:20:67:
         a7:a3:b7:f0:f0:27:89:b2:6c:0f:e3:d2:3f:c1:ca:40:bf:32:
         65:4f:0f:7b:00:0c:84:b5:3a:1a:ed:fb:0e:5f:3c:d2:b6:95:
         58:e0:29:46:41:c8:7c:c0:c9:67:4c:61:d6:da:f1:12:af:71:
         7e:09:44:66:6f:dd:85:ad:1c:76:3e:c2:f2:bd:a6:06:4b:19:
         38:be:7f:13:b5:c8:a8:38:7d:9c:58:df:54:d7:13:21:dc:f6:
         8d:72:43:dc:09:b5:b6:c3:b3:7d:9c:f4:d2:80:00:11:94:8c:
         96:9d:8d:4b:b5:3b:8e:d9:71:0a:4a:52:9f:af:d7:bc:9a:3f:
         59:2a:f7:8b:c0:71:78:65:36:2c:13:fb:88:67:7c:1f:7f:81:
         1d:34:ea:78:15:e5:f2:9c:e6:ff:9e:e4:24:95:86:65:d0:87:
         b0:a4:27:73:66:3e:0e:b3:ba:58:ca:72:92:1f:13:1b:50:47:
         eb:d1:1a:30:16:e0:36:8d:51:f3:cb:fb:47:11:a1:29:d0:e9:
         f2:02:95:64:cf:c7:00:1d:47:8c:5e:57:44:d6:b3:2b:14:f8:
         bc:0e:7a:c3:b9:01:46:c6:ab:41:98:7a:db:b3:aa:22:82:c8:
         36:b3:9e:6d:c4:42:ec:20:6e:6a:c8:68:64:19:c6:53:bd:a8:
         0d:63:3e:8f:dd:94:ac:8d:98:60:82:21:52:c5:90:f8:38:05:
         4c:4c:53:69:64:f9:24:4e
-----BEGIN CERTIFICATE-----
MIIDVTCCAT2gAwIBAwIBATANBgkqhkiG9w0BAQUFADApMQswCQYDVQQGEwJCRTEa
MBgGA1UEAxMRdHhqc29ucnBjLXRlc3QtY2EwHhcNNzAwMTAxMDAwMDAwWhcNMzgw
MTE5MDMxNDA3WjA3MRAwDgYDVQQDEwdjYS1ub25lMQswCQYDVQQGEwJCRTEWMBQG
A1UEChMNR3JlbXdlbGwgYnZiYTCBnzANBgkqhkiG9w0BAQEFAAOBjQAwgYkCgYEA
whX+eG30sTm/hosfRDh/yrmFCdtV/bwRjuElssJV90T5a0qugPtmqiRJICcnVo/b
b+t2MEUuxFwhsgWlg6F8Q7HUwdii9tvXaDSGo08bNrO1k/XufBidWaUZPCJuJS/w
Z4JEQr0Bfae7TlfHUsJ0r4yWpZiMwTD/8+uQSkPSCfsCAwEAATANBgkqhkiG9w0B
AQUFAAOCAgEAgqJc+eIq6t0k1cpg6Mnw2r+XaFHAbS5T08rJIsyOmECh6tigzmaM
qdFw/UwdEprRnxEf5QWvuS+9oPyrETdzq/ScbGi+0Z7FRGmaH6UD/3kD41Yv/7kM
QSh98sBp3D0arwdyRn3ajXvI1kukLol+01fkx6efg1gQhSjJ8Q71/oTSsjCdF633
nNg08BMColrhAyA50KkoDJjsglAB3qtrIVzaFIvnzrKM2XYPwY19RySOenydDi8p
3kuCvPj4V+0yAlECLuVJ9xuowe/KnTOjLWWGumvm7cTgKjWgEK4hFa7KF00gfjHT
qSBnp6O38PAnibJsD+PSP8HKQL8yZU8PewAMhLU6Gu37Dl880raVWOApRkHIfMDJ
Z0xh1trxEq9xfglEZm/dha0cdj7C8r2mBksZOL5/E7XIqDh9nFjfVNcTIdz2jXJD
3Am1tsOzfZz00oAAEZSMlp2NS7U7jtlxCkpSn6/XvJo/WSr3i8BxeGU2LBP7iGd8
H3+BHTTqeBXl8pzm/57kJJWGZdCHsKQnc2Y+DrO6WMpykh8TG1BH69EaMBbgNo1R
88v7RxGhKdDp8gKVZM/HAB1HjF5XRNazKxT4vA56w7kBRsarQZh627OqIoLINrOe
bcRC7CBuashoZBnGU72oDWM+j92UrI2YYIIhUsWQ+DgFTExTaWT5JE4=
-----END CERTIFICATE-----
Certificate:
    Data:
        Version: 3 (0x2)
        Serial Number: 10219423159405941259 (0x8dd2af37f9ca920b)
    Signature Algorithm: sha1WithRSAEncryption
        Issuer: C=BE, CN=txjsonrpc-test-ca
        Validity
            Not Before: Jun 23 15:46:37 2012 GMT
            Not After : Jun 21 15:46:37 2022 GMT
        Subject: C=BE, CN=txjsonrpc-test-ca
        Subject Public Key Info:
            Public Key Algorithm: rsaEncryption
                Public-Key: (4096 bit)
                Modulus:
                    00:d1:25:af:77:c5:a8:72:cf:90:b9:39:10:fb:7b:
                    75:2c:a1:da:6a:95:e5:44:0c:d6:25:4b:58:7f:bb:
                    07:82:59:49:58:32:85:24:cc:3e:77:db:e1:a7:4f:
                    c8:b5:cb:ee:45:38:bd:bc:fb:e3:76:3b:88:04:ca:
                    ab:3a:a3:96:3b:5f:93:9c:28:a6:61:97:dc:a2:3f:
                    a0:93:2b:56:6c:cf:d3:4f:6a:9e:05:d3:1c:cd:ef:
                    75:80:1a:98:b7:92:49:14:33:b8:c4:7c:73:8c:7e:
                    83:a5:81:a2:59:8c:8b:a3:51:36:6d:68:ac:f2:f1:
                    ed:6f:49:d9:af:7a:63:c1:43:31:42:b6:c7:cd:b9:
                    78:b7:33:98:70:92:6c:9e:04:7a:7b:f0:6d:38:87:
                    eb:00:13:17:b9:d9:ec:b4:66:bb:51:d3:fd:81:e3:
                    0e:88:71:23:d2:80:2a:61:de:ab:25:02:47:a9:c1:
                    6b:c9:69:ae:da:47:b6:49:74:ac:a6:e1:c1:76:ba:
                    6d:b1:d9:68:6e:1c:37:a8:e2:18:60:37:b6:58:13:
                    6c:c7:92:7c:c6:45:8c:ef:c3:81:73:10:dc:2f:31:
                    e2:b9:05:5a:9e:28:70:5a:3e:1d:b8:68:71:81:c9:
                    e8:fe:1f:c3:a0:13:f8:e4:24:12:ba:91:8e:15:d2:
                    03:f1:8c:b0:aa:e2:34:e4:6b:f8:06:f6:23:8a:92:
                    43:a6:05:dc:e9:c7:a5:a8:06:d7:6e:91:52:72:47:
                    ab:ae:87:fe:b3:0f:04:87:6f:4b:22:29:e9:a9:06:
                    52:58:7d:03:16:d7:d5:31:44:b4:f1:51:44:a7:2a:
                    ba:5e:09:19:ec:4c:a2:e0:58:fe:0d:4e:b7:90:4d:
                    02:ac:2a:ad:99:14:65:3b:0a:3c:73:45:56:b2:0f:
                    10:25:24:51:79:57:1a:34:1a:10:6f:60:e0:fc:81:
                    db:ca:c2:e2:85:1b:4c:72:13:5c:9d:76:cc:d0:21:
                    33:31:56:82:8f:c5:57:b9:44:fd:8b:76:c1:b6:e4:
                    21:8b:35:9a:ee:54:74:9f:72:6b:19:84:d7:a2:3c:
                    a5:6e:11:0a:f1:93:04:2e:dd:7c:4c:7d:62:10:d4:
                    1b:8b:87:f6:ed:bf:12:b1:8b:f0:9a:7a:ee:02:94:
                    e1:3c:46:2b:7f:9c:54:fb:2e:61:c9:1c:ef:fc:de:
                    25:bc:2d:75:1b:1f:49:5e:44:3b:15:93:ad:c4:89:
                    d9:ae:3c:da:54:ef:d9:af:3a:16:cb:94:1b:6a:14:
                    e4:42:f9:75:33:46:6e:fb:40:bc:f8:82:36:cf:60:
                    f5:c2:a2:98:23:a7:2a:ae:c1:aa:22:f8:87:da:b7:
                    9c:a4:cf
                Exponent: 65537 (0x10001)
        X509v3 extensions:
            X509v3 Subject Key Identifier: 
                9D:8F:84:76:94:CD:07:FE:A3:E8:8B:D7:F9:D9:6E:EF:CA:75:51:7B
            X509v3 Authority Key Identifier: 
                keyid:9D:8F:84:76:94:CD:07:FE:A3:E8:8B:D7:F9:D9:6E:EF:CA:75:51:7B
                DirName:/C=BE/CN=txjsonrpc-test-ca
                serial:8D:D2:AF:37:F9:CA:92:0B

            X509v3 Basic Constraints: critical
                CA:TRUE
            Netscape Cert Type: 
                SSL CA, S/MIME CA
            X509v3 Issuer Alternative Name: 
                <EMPTY>

            Netscape Comment: 
                Test CA for txjsonrcp
            X509v3 Subject Alternative Name: 
                <EMPTY>

            X509v3 Key Usage: critical
                Certificate Sign, CRL Sign
    Signature Algorithm: sha1WithRSAEncryption
         06:82:86:81:a9:1b:7e:2d:ef:f5:fc:cc:d2:9d:d6:82:ad:d0:
         6f:7e:3d:b9:5c:b2:0f:3a:64:21:9a:fb:53:b2:93:81:dc:1a:
         24:fc:b8:30:57:a2:c7:71:0d:9c:1a:0b:8a:6c:89:52:8b:8a:
         f5:af:95:3e:b8:08:39:ee:36:50:ac:60:4d:df:2b:49:a2:72:
         f1:3f:12:3c:d9:55:56:a4:9a:77:2b:77:fa:16:b5:76:d9:f4:
         c4:51:6b:b9:fe:2f:a3:52:e8:64:80:49:22:6d:05:42:87:af:
         9d:85:6c:fa:c9:9b:48:39:7b:89:f5:a0:1e:ff:11:d3:9c:78:
         b1:b2:f6:4d:b1:e8:b3:98:23:2c:d4:20:e1:a1:01:3e:26:0a:
         5b:8e:eb:58:45:22:cf:e1:94:ad:84:40:b0:fb:ff:25:5f:31:
         9a:49:0b:36:ad:c6:1a:b0:42:60:40:e2:a2:3c:5a:36:41:89:
         fc:10:c4:60:ea:d4:85:7b:36:84:df:aa:81:cc:69:e7:52:ca:
         c1:46:b1:79:93:51:4f:24:84:42:14:3a:20:a0:6c:27:76:40:
         0f:96:7e:4e:c3:0c:37:b3:e3:73:49:86:58:31:00:1e:e7:0f:
         87:74:b6:4e:6e:1c:7d:87:a4:33:04:c9:76:ec:e5:3a:85:5f:
         a8:d1:ad:21:64:5e:c5:6a:df:b1:02:6e:65:a4:87:72:06:07:
         da:e5:f2:af:2b:a5:eb:18:80:67:83:a5:3c:e6:ed:d1:58:f9:
         90:5c:d6:e9:2f:76:c1:58:13:b8:bd:88:8a:f3:04:48:bb:42:
         8f:7f:c6:db:b4:30:3f:bb:6c:d5:47:e5:ae:8d:4b:da:92:a5:
         db:d3:6e:a8:9b:c2:6b:56:af:34:63:82:e6:78:f8:1f:54:d7:
         41:aa:a3:c9:7c:a6:83:41:bf:6e:33:7c:ae:e6:92:bd:da:27:
         b4:bc:e2:90:4f:33:1b:01:a1:cd:02:13:7a:31:ef:00:d6:9a:
         6e:38:6b:a7:cb:70:98:a8:0f:ff:1c:56:a8:b7:e6:d2:42:5a:
         bb:f4:78:27:71:13:d0:e8:43:eb:bc:2d:4f:e4:ea:4d:4f:76:
         7f:53:38:34:eb:13:e2:3d:c6:14:98:86:1c:ab:2c:0e:b7:68:
         2e:bd:63:a9:6a:8f:d5:22:2d:ab:13:d7:62:54:51:ff:5c:37:
         08:04:27:da:f9:57:77:05:18:73:88:5f:b0:c1:65:50:36:09:
         d6:c7:f5:ae:6e:3f:04:d1:84:3c:21:74:1d:bd:0a:fb:76:d0:
         13:2b:62:bb:24:48:43:89:d0:18:5c:b4:ad:ea:98:af:6d:fc:
         1c:6b:1f:06:64:54:23:88
-----BEGIN CERTIFICATE-----
MIIFwzCCA6ugAwIBAgIJAI3Srzf5ypILMA0GCSqGSIb3DQEBBQUAMCkxCzAJBgNV
BAYTAkJFMRowGAYDVQQDExF0eGpzb25ycGMtdGVzdC1jYTAeFw0xMjA2MjMxNTQ2
MzdaFw0yMjA2MjExNTQ2MzdaMCkxCzAJBgNVBAYTAkJFMRowGAYDVQQDExF0eGpz
b25ycGMtdGVzdC1jYTCCAiIwDQYJKoZIhvcNAQEBBQADggIPADCCAgoCggIBANEl
r3fFqHLPkLk5EPt7dSyh2mqV5UQM1iVLWH+7B4JZSVgyhSTMPnfb4adPyLXL7kU4
vbz743Y7iATKqzqjljtfk5wopmGX3KI/oJMrVmzP009qngXTHM3vdYAamLeSSRQz
uMR8c4x+g6WBolmMi6NRNm1orPLx7W9J2a96Y8FDMUK2x825eLczmHCSbJ4Eenvw
bTiH6wATF7nZ7LRmu1HT/YHjDohxI9KAKmHeqyUCR6nBa8lprtpHtkl0rKbhwXa6
bbHZaG4cN6jiGGA3tlgTbMeSfMZFjO/DgXMQ3C8x4rkFWp4ocFo+HbhocYHJ6P4f
w6AT+OQkErqRjhXSA/GMsKriNORr+Ab2I4qSQ6YF3OnHpagG126RUnJHq66H/rMP
BIdvSyIp6akGUlh9AxbX1TFEtPFRRKcqul4JGexMouBY/g1Ot5BNAqwqrZkUZTsK
PHNFVrIPECUkUXlXGjQaEG9g4PyB28rC4oUbTHITXJ12zNAhMzFWgo/FV7lE/Yt2
wbbkIYs1mu5UdJ9yaxmE16I8pW4RCvGTBC7dfEx9YhDUG4uH9u2/ErGL8Jp67gKU
4TxGK3+cVPsuYckc7/zeJbwtdRsfSV5EOxWTrcSJ2a482lTv2a86FsuUG2oU5EL5
dTNGbvtAvPiCNs9g9cKimCOnKq7BqiL4h9q3nKTPAgMBAAGjge0wgeowHQYDVR0O
BBYEFJ2PhHaUzQf+o+iL1/nZbu/KdVF7MFkGA1UdIwRSMFCAFJ2PhHaUzQf+o+iL
1/nZbu/KdVF7oS2kKzApMQswCQYDVQQGEwJCRTEaMBgGA1UEAxMRdHhqc29ucnBj
LXRlc3QtY2GCCQCN0q83+cqSCzAPBgNVHRMBAf8EBTADAQH/MBEGCWCGSAGG+EIB
AQQEAwIBBjAJBgNVHRIEAjAAMCQGCWCGSAGG+EIBDQQXFhVUZXN0IENBIGZvciB0
eGpzb25yY3AwCQYDVR0RBAIwADAOBgNVHQ8BAf8EBAMCAQYwDQYJKoZIhvcNAQEF
BQADggIBAAaChoGpG34t7/X8zNKd1oKt0G9+Pblcsg86ZCGa+1Oyk4HcGiT8uDBX
osdxDZwaC4psiVKLivWvlT64CDnuNlCsYE3fK0micvE/EjzZVVakmncrd/oWtXbZ
9MRRa7n+L6NS6GSASSJtBUKHr52FbPrJm0g5e4n1oB7/EdOceLGy9k2x6LOYIyzU
IOGhAT4mCluO61hFIs/hlK2EQLD7/yVfMZpJCzatxhqwQmBA4qI8WjZBifwQxGDq
1IV7NoTfqoHMaedSysFGsXmTUU8khEIUOiCgbCd2QA+Wfk7DDDez43NJhlgxAB7n
D4d0tk5uHH2HpDMEyXbs5TqFX6jRrSFkXsVq37ECbmWkh3IGB9rl8q8rpesYgGeD
pTzm7dFY+ZBc1ukvdsFYE7i9iIrzBEi7Qo9/xtu0MD+7bNVH5a6NS9qSpdvTbqib
wmtWrzRjguZ4+B9U10Gqo8l8poNBv24zfK7mkr3aJ7S84pBPMxsBoc0CE3ox7wDW
mm44a6fLcJioD/8cVqi35tJCWrv0eCdxE9DoQ+u8LU/k6k1Pdn9TODTrE+I9xhSY
hhyrLA63aC69Y6lqj9UiLasT12JUUf9cNwgEJ9r5V3cFGHOIX7DBZVA2CdbH9a5u
PwTRhDwhdB29Cvt20BMrYrskSEOJ0BhctK3qmK9t/BxrHwZkVCOI
-----END CERTIFICATE-----
