Certificate:
    Data:
        Version: 4 (0x3)
        Serial Number: 1 (0x1)
    Signature Algorithm: sha1WithRSAEncryption
        Issuer: CN=ca-true, C=BE, O=Gremwell bvba
        Validity
            Not Before: Jan  1 00:00:00 1970 GMT
            Not After : Jan 19 03:14:07 2038 GMT
        Subject: CN=txjsonrpc-pyserver, C=BE, O=Gremwell bvba
        Subject Public Key Info:
            Public Key Algorithm: rsaEncryption
                Public-Key: (1024 bit)
                Modulus:
                    00:cf:98:91:ee:29:bf:29:a7:30:17:4f:4c:3a:52:
                    f2:ee:1e:7f:7d:2d:fb:15:9d:54:88:c0:85:b3:2e:
                    b0:2c:c9:de:30:50:58:a9:66:41:08:b9:74:89:2d:
                    6b:e1:52:c2:f0:88:ae:e0:ab:a7:43:f6:91:7f:26:
                    8b:2a:55:63:fd:a2:72:96:1d:6c:89:a2:38:61:9e:
                    46:ad:84:d5:1b:a6:ca:30:73:51:af:c9:83:86:c9:
                    57:34:d8:49:84:66:46:ad:32:f8:c8:e6:eb:a1:65:
                    e0:16:c5:b9:31:a5:4e:c1:1e:ee:5b:03:79:d7:45:
                    5f:88:2f:a0:bd:26:9d:23:0b
                Exponent: 65537 (0x10001)
    Signature Algorithm: sha1WithRSAEncryption
         9a:1b:fe:2a:df:52:98:66:41:1c:cd:15:ce:c6:f3:a7:54:76:
         5f:53:cf:8f:59:eb:0d:9d:1a:90:17:1c:00:38:d1:b1:b2:f5:
         07:49:7d:a7:ef:8b:96:b8:b1:f7:13:8a:d3:11:9e:c7:0f:be:
         06:b7:f5:43:ae:b6:a2:47:6d:f5:5a:6d:91:43:15:43:1b:5f:
         fc:a2:4d:fe:51:99:cd:19:9a:a7:29:8f:df:fc:5a:9d:5b:30:
         8b:59:01:62:11:be:cc:41:2e:8b:5d:7d:4c:3a:4e:12:f0:7a:
         a1:f6:c1:17:95:49:43:6c:a8:df:0b:82:e0:62:bc:b4:00:a3:
         ae:1f
-----BEGIN CERTIFICATE-----
MIIB7TCCAVagAwIBAwIBATANBgkqhkiG9w0BAQUFADA3MRAwDgYDVQQDEwdjYS10
cnVlMQswCQYDVQQGEwJCRTEWMBQGA1UEChMNR3JlbXdlbGwgYnZiYTAeFw03MDAx
MDEwMDAwMDBaFw0zODAxMTkwMzE0MDdaMEIxGzAZBgNVBAMTEnR4anNvbnJwYy1w
eXNlcnZlcjELMAkGA1UEBhMCQkUxFjAUBgNVBAoTDUdyZW13ZWxsIGJ2YmEwgZ8w
DQYJKoZIhvcNAQEBBQADgY0AMIGJAoGBAM+Yke4pvymnMBdPTDpS8u4ef30t+xWd
VIjAhbMusCzJ3jBQWKlmQQi5dIkta+FSwvCIruCrp0P2kX8miypVY/2icpYdbImi
OGGeRq2E1RumyjBzUa/Jg4bJVzTYSYRmRq0y+Mjm66Fl4BbFuTGlTsEe7lsDeddF
X4gvoL0mnSMLAgMBAAEwDQYJKoZIhvcNAQEFBQADgYEAmhv+Kt9SmGZBHM0Vzsbz
p1R2X1PPj1nrDZ0akBccADjRsbL1B0l9p++Llrix9xOK0xGexw++Brf1Q662okdt
9VptkUMVQxtf/KJN/lGZzRmapymP3/xanVswi1kBYhG+zEEui119TDpOEvB6ofbB
F5VJQ2yo3wuC4GK8tACjrh8=
-----END CERTIFICATE-----
Certificate:
    Data:
        Version: 4 (0x3)
        Serial Number: 1 (0x1)
    Signature Algorithm: sha1WithRSAEncryption
        Issuer: C=BE, CN=txjsonrpc-test-ca
        Validity
            Not Before: Jan  1 00:00:00 1970 GMT
            Not After : Jan 19 03:14:07 2038 GMT
        Subject: CN=ca-true, C=BE, O=Gremwell bvba
        Subject Public Key Info:
            Public Key Algorithm: rsaEncryption
                Public-Key: (1024 bit)
                Modulus:
                    00:c1:d4:c4:8f:a8:0b:83:7f:62:77:d6:42:47:76:
                    e6:95:41:c6:d4:5d:da:c9:d8:b9:0b:a5:2d:2a:d3:
                    37:ba:15:71:f4:fb:28:55:45:13:00:67:45:0b:d4:
                    4b:54:80:76:c5:8e:aa:3c:53:7c:a6:65:66:50:91:
                    1c:64:8f:91:38:39:35:e5:af:9c:d4:73:21:92:60:
                    1a:c6:cc:9b:f6:20:12:4f:c2:33:5c:33:61:10:b2:
                    57:57:1f:04:41:88:1a:cd:1f:69:04:5c:de:fc:54:
                    6b:5f:37:7b:a8:af:97:ad:b8:0d:96:1a:d3:ca:07:
                    32:9b:43:b0:1a:9d:c8:f5:a7
                Exponent: 65537 (0x10001)
        X509v3 extensions:
            X509v3 Basic Constraints: critical
                CA:TRUE
    Signature Algorithm: sha1WithRSAEncryption
         b8:78:19:4d:e2:05:42:95:35:1b:4f:3d:26:1a:a3:41:dd:e6:
         de:90:a4:88:f7:8b:c7:a2:8b:92:8b:ce:fc:db:81:5d:50:e3:
         31:d2:71:ad:8b:71:49:f0:5c:78:fc:79:07:5a:04:ac:4c:b6:
         08:b4:c7:13:14:42:49:be:a7:85:1d:7e:a6:22:60:96:2f:0e:
         b9:83:1f:d9:c0:c8:e4:89:99:b3:d6:c7:bf:f0:34:2d:2b:b2:
         ed:77:e5:f2:36:15:37:c7:f3:c1:32:f6:de:ef:0d:e6:5b:eb:
         1d:01:b1:7b:77:28:c4:ad:53:1d:77:b1:c9:88:84:43:60:9a:
         27:2d:11:33:3c:ad:9a:1f:78:24:69:03:e3:4a:ff:e0:8a:88:
         8d:59:9d:5c:5f:7b:8b:be:d2:ad:5e:bf:ec:bf:71:40:e3:a6:
         58:19:09:7e:27:f8:86:cf:8d:39:2e:8a:73:78:2d:a2:4b:2c:
         7c:9b:f1:88:5d:6f:d2:3a:81:d3:f8:c5:13:32:ed:d2:11:33:
         f6:74:8f:7b:4b:e5:cf:0e:e5:9f:ef:02:aa:89:41:47:38:1f:
         9d:f1:db:9f:72:62:25:c0:cd:fa:32:52:85:37:78:56:f9:17:
         a8:46:ff:bb:06:fe:f8:5a:c6:10:c8:1d:86:22:27:92:7e:ce:
         5a:5f:24:27:34:b0:91:d2:8a:b7:b5:a7:c1:28:34:f7:41:88:
         93:d4:36:4c:14:86:76:ca:73:c4:b2:d0:5b:77:de:50:44:f4:
         cc:1a:92:27:0f:82:61:74:a1:6e:2f:03:14:09:69:b8:28:33:
         11:45:3e:6c:14:89:34:68:c0:e8:d9:0b:4e:66:ee:b8:35:69:
         a5:d9:df:90:92:bc:6e:c1:51:0d:83:23:4b:bc:95:19:f3:7d:
         91:15:22:07:1d:ea:38:23:14:19:43:97:50:e2:a1:14:b5:71:
         85:35:4a:7d:78:f8:0a:44:a8:7c:40:a4:61:fa:86:ea:94:5c:
         23:52:2a:64:04:05:ad:d3:a8:b1:c0:01:a2:1c:df:02:d6:3a:
         ed:5a:5e:ff:18:76:88:bc:7b:3c:50:5c:97:cb:d6:23:17:2b:
         41:3f:cc:ce:ce:29:f3:a4:dd:53:30:2c:af:ee:ec:06:7f:5c:
         cf:3e:9d:f5:cf:e5:71:71:fe:b3:28:a9:2e:85:2c:b0:30:ad:
         c2:75:3f:cc:4f:c1:63:1e:8c:66:73:98:9e:54:2c:eb:70:47:
         b7:21:30:d4:ac:98:66:73:95:26:22:13:f3:37:d0:75:e1:3e:
         ce:3c:8a:31:14:e4:e7:67:c5:d1:3d:7f:c3:d9:bc:5d:0f:c0:
         d7:d6:03:86:bf:5d:2d:09
-----BEGIN CERTIFICATE-----
MIIDajCCAVKgAwIBAwIBATANBgkqhkiG9w0BAQUFADApMQswCQYDVQQGEwJCRTEa
MBgGA1UEAxMRdHhqc29ucnBjLXRlc3QtY2EwHhcNNzAwMTAxMDAwMDAwWhcNMzgw
MTE5MDMxNDA3WjA3MRAwDgYDVQQDEwdjYS10cnVlMQswCQYDVQQGEwJCRTEWMBQG
A1UEChMNR3JlbXdlbGwgYnZiYTCBnzANBgkqhkiG9w0BAQEFAAOBjQAwgYkCgYEA
wdTEj6gLg39id9ZCR3bmlUHG1F3aydi5C6UtKtM3uhVx9PsoVUUTAGdFC9RLVIB2
xY6qPFN8pmVmUJEcZI+RODk15a+c1HMhkmAaxsyb9iAST8IzXDNhELJXVx8EQYga
zR9pBFze/FRrXzd7qK+XrbgNlhrTygcym0OwGp3I9acCAwEAAaMTMBEwDwYDVR0T
AQH/BAUwAwEB/zANBgkqhkiG9w0BAQUFAAOCAgEAuHgZTeIFQpU1G089JhqjQd3m
3pCkiPeLx6KLkovO/NuBXVDjMdJxrYtxSfBcePx5B1oErEy2CLTHExRCSb6nhR1+
piJgli8OuYMf2cDI5ImZs9bHv/A0LSuy7Xfl8jYVN8fzwTL23u8N5lvrHQGxe3co
xK1THXexyYiEQ2CaJy0RMzytmh94JGkD40r/4IqIjVmdXF97i77SrV6/7L9xQOOm
WBkJfif4hs+NOS6Kc3gtokssfJvxiF1v0jqB0/jFEzLt0hEz9nSPe0vlzw7ln+8C
qolBRzgfnfHbn3JiJcDN+jJShTd4VvkXqEb/uwb++FrGEMgdhiInkn7OWl8kJzSw
kdKKt7WnwSg090GIk9Q2TBSGdspzxLLQW3feUET0zBqSJw+CYXShbi8DFAlpuCgz
EUU+bBSJNGjA6NkLTmbuuDVppdnfkJK8bsFRDYMjS7yVGfN9kRUiBx3qOCMUGUOX
UOKhFLVxhTVKfXj4CkSofECkYfqG6pRcI1IqZAQFrdOoscABohzfAtY67Vpe/xh2
iLx7PFBcl8vWIxcrQT/Mzs4p86TdUzAsr+7sBn9czz6d9c/lcXH+syipLoUssDCt
wnU/zE/BYx6MZnOYnlQs63BHtyEw1KyYZnOVJiIT8zfQdeE+zjyKMRTk52fF0T1/
w9m8XQ/A19YDhr9dLQk=
-----END CERTIFICATE-----
