Certificate:
    Data:
        Version: 4 (0x3)
        Serial Number: 1 (0x1)
    Signature Algorithm: sha1WithRSAEncryption
        Issuer: CN=ca-none, C=BE, O=Gremwell bvba
        Validity
            Not Before: Jun 23 15:47:38 2012 GMT
            Not After : Jun 23 15:47:38 2013 GMT
        Subject: C=BE, CN=txjsonrpc-pyserver, O=Gremwell bvba
        Subject Public Key Info:
            Public Key Algorithm: rsaEncryption
                Public-Key: (4096 bit)
                Modulus:
                    00:c3:11:ed:16:56:dc:ee:be:01:45:48:49:a5:fd:
                    5f:e9:30:6e:98:4f:a4:5b:2d:18:0b:0f:3e:c3:eb:
                    83:31:6f:8f:26:09:94:0f:11:fa:4b:42:d0:c8:22:
                    ff:3a:2c:c9:1f:5a:5e:c4:a3:1b:d6:09:7b:bd:69:
                    f6:4f:b7:a7:2b:d9:7f:32:2a:1e:1b:9f:f1:78:d4:
                    f5:2d:9b:83:a9:74:fd:bb:dc:96:04:c0:a6:43:66:
                    72:b8:68:30:67:3f:a4:a9:48:33:12:d9:8b:ea:8c:
                    99:8a:64:a4:0c:a0:64:f4:42:bf:6d:9b:ce:71:c7:
                    c9:f4:34:19:b5:19:6c:fa:df:2a:c4:38:fc:7a:4b:
                    b3:7d:fd:48:23:b6:bc:51:82:3c:2c:c6:3b:f2:dc:
                    06:6f:1a:ae:5b:01:78:e8:c1:cb:e7:06:a1:60:b1:
                    51:df:b3:17:85:92:24:4d:01:57:d6:d0:9f:8a:c6:
                    c9:1e:7e:c3:ab:3e:4d:78:f2:66:cd:fb:5e:11:31:
                    8e:45:33:fb:99:e7:1f:3d:bc:1a:03:d4:64:7e:11:
                    49:f6:19:5d:b6:e4:6f:ad:d6:c4:4e:5c:d2:6a:44:
                    79:2e:15:6a:cb:7d:e9:8a:b1:a8:34:7e:65:fb:ea:
                    b0:56:ac:17:a7:b5:37:60:72:99:17:04:af:bc:1a:
                    be:e6:2d:c5:1a:13:b9:6d:26:ce:03:db:72:ba:6d:
                    10:ce:c8:e2:a5:f0:1e:09:29:d3:b4:1b:b8:79:28:
                    1e:23:d7:b3:4c:1b:51:c2:cb:24:25:b9:12:0b:7f:
                    67:28:42:8b:7d:cb:b7:e0:99:c9:dd:b0:a4:4d:0a:
                    4d:f2:d3:1c:bf:e0:46:30:e5:73:80:38:a0:3e:f4:
                    95:6c:1e:82:26:b6:89:b5:80:4f:5b:b7:80:48:a2:
                    d4:af:f9:0b:70:05:81:4d:3a:c3:66:80:85:3f:d0:
                    de:4b:48:17:19:93:9f:0d:94:16:7a:56:3a:82:eb:
                    b2:55:f2:11:2a:fa:69:bb:a8:34:bb:3a:cd:0b:ff:
                    e8:84:bb:06:0c:96:f0:0d:02:2e:68:a5:2a:ee:9b:
                    82:3f:8e:01:d9:06:7a:fd:3a:95:09:ea:47:94:9e:
                    e3:c1:55:cc:18:d0:26:ae:d6:aa:4a:8c:38:3d:bf:
                    d7:ef:c7:53:3a:8a:f7:a7:ca:04:dd:63:36:1b:bd:
                    d8:4b:42:bc:76:32:1b:1e:66:e5:90:ff:e9:f7:1e:
                    ce:8b:71:49:f0:d0:23:0e:bd:89:37:b6:64:7e:8d:
                    b2:2e:6e:07:fa:86:16:44:61:76:e1:a9:f0:82:a4:
                    fc:c5:49:dc:46:0d:b6:f7:07:1e:ef:f0:55:8c:4c:
                    bd:ee:51
                Exponent: 65537 (0x10001)
        X509v3 extensions:
            X509v3 Basic Constraints: 
                CA:FALSE
            Netscape Cert Type: 
                SSL Server
            Netscape Comment: 
                TinyCA Generated Certificate
            X509v3 Subject Key Identifier: 
                26:8C:A5:F9:A6:4A:FE:4C:E8:0F:04:33:7E:04:26:28:BF:4C:92:F3
            X509v3 Authority Key Identifier: 
                keyid:9D:8F:84:76:94:CD:07:FE:A3:E8:8B:D7:F9:D9:6E:EF:CA:75:51:7B
                DirName:/C=BE/CN=txjsonrpc-test-ca
                serial:8D:D2:AF:37:F9:CA:92:0B

            X509v3 Issuer Alternative Name: 
                <EMPTY>

            X509v3 Subject Alternative Name: 
                <EMPTY>

    Signature Algorithm: sha1WithRSAEncryption
         57:7a:35:8f:04:42:29:88:35:2b:b3:9e:1e:7c:4d:3e:1b:8c:
         6c:04:fa:0b:62:a7:39:04:56:f5:49:da:cb:c5:99:88:25:43:
         8d:23:60:fa:1e:f7:90:2c:ec:4f:44:83:a7:13:5a:12:5a:22:
         b4:1c:cb:ab:65:09:bd:8d:16:ad:49:ef:a5:5e:0a:42:2f:ae:
         59:c3:47:a7:c3:33:b6:f8:44:9a:9d:ed:30:8b:bf:c9:49:22:
         bc:3b:97:ee:9b:20:ec:b2:ba:d3:5b:06:59:a2:25:96:21:ec:
         78:87:59:d6:85:59:20:86:d4:02:96:87:3e:11:94:0d:99:b0:
         55:e9
-----BEGIN CERTIFICATE-----
MIIEUjCCA7ugAwIBAwIBATANBgkqhkiG9w0BAQUFADA3MRAwDgYDVQQDEwdjYS1u
b25lMQswCQYDVQQGEwJCRTEWMBQGA1UEChMNR3JlbXdlbGwgYnZiYTAeFw0xMjA2
MjMxNTQ3MzhaFw0xMzA2MjMxNTQ3MzhaMEIxCzAJBgNVBAYTAkJFMRswGQYDVQQD
ExJ0eGpzb25ycGMtcHlzZXJ2ZXIxFjAUBgNVBAoTDUdyZW13ZWxsIGJ2YmEwggIi
MA0GCSqGSIb3DQEBAQUAA4ICDwAwggIKAoICAQDDEe0WVtzuvgFFSEml/V/pMG6Y
T6RbLRgLDz7D64Mxb48mCZQPEfpLQtDIIv86LMkfWl7EoxvWCXu9afZPt6cr2X8y
Kh4bn/F41PUtm4OpdP273JYEwKZDZnK4aDBnP6SpSDMS2YvqjJmKZKQMoGT0Qr9t
m85xx8n0NBm1GWz63yrEOPx6S7N9/UgjtrxRgjwsxjvy3AZvGq5bAXjowcvnBqFg
sVHfsxeFkiRNAVfW0J+KxskefsOrPk148mbN+14RMY5FM/uZ5x89vBoD1GR+EUn2
GV225G+t1sROXNJqRHkuFWrLfemKsag0fmX76rBWrBentTdgcpkXBK+8Gr7mLcUa
E7ltJs4D23K6bRDOyOKl8B4JKdO0G7h5KB4j17NMG1HCyyQluRILf2coQot9y7fg
mcndsKRNCk3y0xy/4EYw5XOAOKA+9JVsHoImtom1gE9bt4BIotSv+QtwBYFNOsNm
gIU/0N5LSBcZk58NlBZ6VjqC67JV8hEq+mm7qDS7Os0L/+iEuwYMlvANAi5opSru
m4I/jgHZBnr9OpUJ6keUnuPBVcwY0Cau1qpKjDg9v9fvx1M6ivenygTdYzYbvdhL
Qrx2MhseZuWQ/+n3Hs6LcUnw0CMOvYk3tmR+jbIubgf6hhZEYXbhqfCCpPzFSdxG
Dbb3Bx7v8FWMTL3uUQIDAQABo4HeMIHbMAkGA1UdEwQCMAAwEQYJYIZIAYb4QgEB
BAQDAgZAMCsGCWCGSAGG+EIBDQQeFhxUaW55Q0EgR2VuZXJhdGVkIENlcnRpZmlj
YXRlMB0GA1UdDgQWBBQmjKX5pkr+TOgPBDN+BCYov0yS8zBZBgNVHSMEUjBQgBSd
j4R2lM0H/qPoi9f52W7vynVRe6EtpCswKTELMAkGA1UEBhMCQkUxGjAYBgNVBAMT
EXR4anNvbnJwYy10ZXN0LWNhggkAjdKvN/nKkgswCQYDVR0SBAIwADAJBgNVHREE
AjAAMA0GCSqGSIb3DQEBBQUAA4GBAFd6NY8EQimINSuznh58TT4bjGwE+gtipzkE
VvVJ2svFmYglQ40jYPoe95As7E9Eg6cTWhJaIrQcy6tlCb2NFq1J76VeCkIvrlnD
R6fDM7b4RJqd7TCLv8lJIrw7l+6bIOyyutNbBlmiJZYh7HiHWdaFWSCG1AKWhz4R
lA2ZsFXp
-----END CERTIFICATE-----
Certificate:
    Data:
        Version: 4 (0x3)
        Serial Number: 1 (0x1)
    Signature Algorithm: sha1WithRSAEncryption
        Issuer: C=BE, CN=txjsonrpc-test-ca
        Validity
            Not Before: Jan  1 00:00:00 1970 GMT
            Not After : Jan 19 03:14:07 2038 GMT
        Subject: CN=ca-none, C=BE, O=Gremwell bvba
        Subject Public Key Info:
            Public Key Algorithm: rsaEncryption
                Public-Key: (1024 bit)
                Modulus:
                    00:96:6e:50:3f:a2:c1:4c:a0:ba:8a:cf:01:37:32:
                    1b:63:29:c3:60:7b:9a:ce:ad:28:37:a8:63:77:52:
                    bd:7c:9f:74:66:34:cf:c5:3a:39:01:67:ab:41:68:
                    64:f1:ee:a3:68:83:1e:6d:0a:d1:a2:94:db:09:66:
                    db:73:ba:52:6f:91:42:9f:6e:74:91:e9:ea:f5:5b:
                    be:72:ec:22:18:e2:5b:a1:a2:5e:d3:91:3e:a4:ce:
                    1a:ab:49:63:02:c5:33:74:aa:4a:fe:13:1d:3c:05:
                    b2:9d:83:f7:56:4a:5b:1c:73:d7:22:fb:62:55:89:
                    16:81:a2:3b:72:61:20:2f:97
                Exponent: 65537 (0x10001)
    Signature Algorithm: sha1WithRSAEncryption
         c9:1d:85:82:b2:3b:61:43:a4:62:e4:46:9a:d1:d6:83:c9:b8:
         0f:c5:69:57:1f:23:a1:1a:9a:de:83:75:40:15:8e:8b:f6:44:
         30:2d:79:f9:bc:bd:89:9e:98:60:dd:35:a0:92:df:cf:6c:c8:
         55:a4:af:7a:59:68:b4:2f:e6:e9:92:af:22:31:54:fd:c2:99:
         f1:ef:7f:49:6d:a7:de:0b:a8:f7:53:1d:3f:1d:e0:3c:37:e1:
         02:df:57:77:72:d1:d7:fe:2d:67:3a:1e:02:49:f3:c5:71:8e:
         ef:bb:d7:74:46:86:b6:ab:e5:d7:05:4e:77:36:a1:b3:fc:55:
         ad:2b:67:c1:42:c9:89:99:5f:e1:17:6a:84:44:44:0a:45:27:
         00:ee:6f:17:dc:f0:32:d3:7b:f7:b7:39:d1:23:f2:8f:cb:65:
         c9:9d:70:93:c1:d1:5b:6d:5b:0d:6b:ba:01:33:43:3b:7d:a9:
         52:5c:cd:59:63:79:60:6f:3e:65:dc:79:57:5b:67:02:be:61:
         03:39:34:5a:ef:85:fd:ca:57:d3:08:de:42:df:0b:52:4d:45:
         8f:31:06:b6:29:8a:62:37:1a:f8:31:40:d6:35:5e:08:6b:b2:
         8c:e4:41:1d:fe:ea:9d:bf:ad:1c:80:88:09:30:80:93:32:9c:
         2d:00:27:69:b4:b5:d7:e3:6d:e8:56:42:12:f3:2f:69:f6:0a:
         04:2e:1f:9e:eb:cd:2e:85:8f:71:8c:d3:f3:a5:cc:3a:80:44:
         70:c4:24:40:30:8e:69:a1:43:f8:b3:e8:1c:30:20:d1:14:bb:
         ab:8e:97:e6:df:bb:3a:2f:af:14:f2:c5:18:e6:81:86:1a:5d:
         e8:4b:70:dd:34:6b:aa:ed:7a:91:2f:55:4c:e4:db:48:e9:2c:
         b3:ec:ca:b5:26:24:72:fc:03:d1:3b:ce:50:6e:9a:d1:4e:99:
         b4:22:e1:e7:4c:6a:fb:74:2f:e4:26:ce:77:bf:33:7c:08:eb:
         c5:c5:ca:0a:34:3c:10:cf:98:c2:2c:4f:8c:d1:49:4a:13:ce:
         f8:73:f9:bf:d1:a7:e0:95:91:fd:78:68:39:e6:3c:42:38:39:
         c2:82:b7:6a:8f:17:22:51:ef:ba:0f:a0:67:ad:a8:85:87:5d:
         88:fe:e6:43:92:5a:0c:73:d1:5c:38:e0:8a:10:9a:da:ae:34:
         1f:11:f6:a2:b4:f1:5c:04:f5:63:8f:5e:ca:a2:b0:52:5b:ba:
         5a:a5:09:80:bd:ea:84:26:c4:ff:d0:58:00:40:76:37:e3:6b:
         be:4c:18:7c:0c:54:8e:55:13:60:4e:ac:bb:47:1b:ea:a4:36:
         db:6c:9b:1c:c6:9c:0c:99
-----BEGIN CERTIFICATE-----
MIIDVTCCAT2gAwIBAwIBATANBgkqhkiG9w0BAQUFADApMQswCQYDVQQGEwJCRTEa
MBgGA1UEAxMRdHhqc29ucnBjLXRlc3QtY2EwHhcNNzAwMTAxMDAwMDAwWhcNMzgw
MTE5MDMxNDA3WjA3MRAwDgYDVQQDEwdjYS1ub25lMQswCQYDVQQGEwJCRTEWMBQG
A1UEChMNR3JlbXdlbGwgYnZiYTCBnzANBgkqhkiG9w0BAQEFAAOBjQAwgYkCgYEA
lm5QP6LBTKC6is8BNzIbYynDYHuazq0oN6hjd1K9fJ90ZjTPxTo5AWerQWhk8e6j
aIMebQrRopTbCWbbc7pSb5FCn250kenq9Vu+cuwiGOJboaJe05E+pM4aq0ljAsUz
dKpK/hMdPAWynYP3VkpbHHPXIvtiVYkWgaI7cmEgL5cCAwEAATANBgkqhkiG9w0B
AQUFAAOCAgEAyR2FgrI7YUOkYuRGmtHWg8m4D8VpVx8joRqa3oN1QBWOi/ZEMC15
+by9iZ6YYN01oJLfz2zIVaSvellotC/m6ZKvIjFU/cKZ8e9/SW2n3guo91MdPx3g
PDfhAt9Xd3LR1/4tZzoeAknzxXGO77vXdEaGtqvl1wVOdzahs/xVrStnwULJiZlf
4RdqhERECkUnAO5vF9zwMtN797c50SPyj8tlyZ1wk8HRW21bDWu6ATNDO32pUlzN
WWN5YG8+Zdx5V1tnAr5hAzk0Wu+F/cpX0wjeQt8LUk1FjzEGtimKYjca+DFA1jVe
CGuyjORBHf7qnb+tHICICTCAkzKcLQAnabS11+Nt6FZCEvMvafYKBC4fnuvNLoWP
cYzT86XMOoBEcMQkQDCOaaFD+LPoHDAg0RS7q46X5t+7Oi+vFPLFGOaBhhpd6Etw
3TRrqu16kS9VTOTbSOkss+zKtSYkcvwD0TvOUG6a0U6ZtCLh50xq+3Qv5CbOd78z
fAjrxcXKCjQ8EM+YwixPjNFJShPO+HP5v9Gn4JWR/XhoOeY8Qjg5woK3ao8XIlHv
ug+gZ62ohYddiP7mQ5JaDHPRXDjgihCa2q40HxH2orTxXAT1Y49eyqKwUlu6WqUJ
gL3qhCbE/9BYAEB2N+NrvkwYfAxUjlUTYE6su0cb6qQ222ybHMacDJk=
-----END CERTIFICATE-----
