Certificate:
    Data:
        Version: 4 (0x3)
        Serial Number: 1 (0x1)
    Signature Algorithm: sha1WithRSAEncryption
        Issuer: CN=ca-none, C=BE, O=Gremwell bvba
        Validity
            Not Before: Jan  1 00:00:00 1970 GMT
            Not After : Jan 19 03:14:07 2038 GMT
        Subject: CN=www.example.com, C=BE, O=Gremwell bvba
        Subject Public Key Info:
            Public Key Algorithm: rsaEncryption
                Public-Key: (1024 bit)
                Modulus:
                    00:d4:ea:9a:52:20:d7:65:d1:37:91:13:cc:4a:29:
                    49:1a:8f:69:f7:ab:9a:df:22:7f:00:9c:64:ae:7c:
                    6c:09:ea:77:5b:b4:34:de:33:40:7f:5a:6d:83:a2:
                    64:ce:e5:d5:fe:8a:fb:e3:01:37:80:32:3b:34:b3:
                    e2:1d:a1:d6:3c:4a:6b:d1:23:20:34:bb:30:d5:da:
                    f8:e5:fc:fc:63:06:23:2c:b9:55:86:ad:50:12:76:
                    c8:73:db:66:77:f2:18:a5:43:44:35:0c:6b:94:16:
                    8f:df:0b:98:e3:73:16:18:21:4b:fd:ca:58:34:3f:
                    0c:20:d4:e6:a4:63:eb:bb:7b
                Exponent: 65537 (0x10001)
    Signature Algorithm: sha1WithRSAEncryption
         34:d1:0b:39:1d:84:7d:bb:50:a2:df:a6:8b:cf:61:e7:0e:2c:
         61:96:9e:e8:fe:9b:2e:25:96:3a:c3:38:b3:cc:13:0e:06:4d:
         81:0c:91:59:de:b2:d0:4d:22:ed:99:32:23:3f:10:df:fd:bd:
         fe:2d:e1:48:11:76:8d:8d:86:6f:67:3c:1e:31:dc:ca:d2:d2:
         6d:79:7a:f2:b0:96:78:da:90:cc:28:6c:2d:ad:ad:8c:cf:0f:
         f7:58:5d:5c:65:b3:2e:53:a2:2b:f2:7d:da:bb:f1:7b:02:40:
         7e:36:43:d8:22:7a:84:00:80:d5:b1:9b:99:1d:68:29:04:10:
         bb:e9
-----BEGIN CERTIFICATE-----
MIIB6jCCAVOgAwIBAwIBATANBgkqhkiG9w0BAQUFADA3MRAwDgYDVQQDEwdjYS1u
b25lMQswCQYDVQQGEwJCRTEWMBQGA1UEChMNR3JlbXdlbGwgYnZiYTAeFw03MDAx
MDEwMDAwMDBaFw0zODAxMTkwMzE0MDdaMD8xGDAWBgNVBAMTD3d3dy5leGFtcGxl
LmNvbTELMAkGA1UEBhMCQkUxFjAUBgNVBAoTDUdyZW13ZWxsIGJ2YmEwgZ8wDQYJ
KoZIhvcNAQEBBQADgY0AMIGJAoGBANTqmlIg12XRN5ETzEopSRqPafermt8ifwCc
ZK58bAnqd1u0NN4zQH9abYOiZM7l1f6K++MBN4AyOzSz4h2h1jxKa9EjIDS7MNXa
+OX8/GMGIyy5VYatUBJ2yHPbZnfyGKVDRDUMa5QWj98LmONzFhghS/3KWDQ/DCDU
5qRj67t7AgMBAAEwDQYJKoZIhvcNAQEFBQADgYEANNELOR2EfbtQot+mi89h5w4s
YZae6P6bLiWWOsM4s8wTDgZNgQyRWd6y0E0i7ZkyIz8Q3/29/i3hSBF2jY2Gb2c8
HjHcytLSbXl68rCWeNqQzChsLa2tjM8P91hdXGWzLlOiK/J92rvxewJAfjZD2CJ6
hACA1bGbmR1oKQQQu+k=
-----END CERTIFICATE-----
Certificate:
    Data:
        Version: 4 (0x3)
        Serial Number: 1 (0x1)
    Signature Algorithm: sha1WithRSAEncryption
        Issuer: C=BE, CN=txjsonrpc-test-ca
        Validity
            Not Before: Jan  1 00:00:00 1970 GMT
            Not After : Jan 19 03:14:07 2038 GMT
        Subject: CN=ca-none, C=BE, O=Gremwell bvba
        Subject Public Key Info:
            Public Key Algorithm: rsaEncryption
                Public-Key: (1024 bit)
                Modulus:
                    00:c2:15:fe:78:6d:f4:b1:39:bf:86:8b:1f:44:38:
                    7f:ca:b9:85:09:db:55:fd:bc:11:8e:e1:25:b2:c2:
                    55:f7:44:f9:6b:4a:ae:80:fb:66:aa:24:49:20:27:
                    27:56:8f:db:6f:eb:76:30:45:2e:c4:5c:21:b2:05:
                    a5:83:a1:7c:43:b1:d4:c1:d8:a2:f6:db:d7:68:34:
                    86:a3:4f:1b:36:b3:b5:93:f5:ee:7c:18:9d:59:a5:
                    19:3c:22:6e:25:2f:f0:67:82:44:42:bd:01:7d:a7:
                    bb:4e:57:c7:52:c2:74:af:8c:96:a5:98:8c:c1:30:
                    ff:f3:eb:90:4a:43:d2:09:fb
                Exponent: 65537 (0x10001)
    Signature Algorithm: sha1WithRSAEncryption
         82:a2:5c:f9:e2:2a:ea:dd:24:d5:ca:60:e8:c9:f0:da:bf:97:
         68:51:c0:6d:2e:53:d3:ca:c9:22:cc:8e:98:40:a1:ea:d8:a0:
         ce:66:8c:a9:d1:70:fd:4c:1d:12:9a:d1:9f:11:1f:e5:05:af:
         b9:2f:bd:a0:fc:ab:11:37:73:ab:f4:9c:6c:68:be:d1:9e:c5:
         44:69:9a:1f:a5:03:ff:79:03:e3:56:2f:ff:b9:0c:41:28:7d:
         f2:c0:69:dc:3d:1a:af:07:72:46:7d:da:8d:7b:c8:d6:4b:a4:
         2e:89:7e:d3:57:e4:c7:a7:9f:83:58:10:85:28:c9:f1:0e:f5:
         fe:84:d2:b2:30:9d:17:ad:f7:9c:d8:34:f0:13:02:a2:5a:e1:
         03:20:39:d0:a9:28:0c:98:ec:82:50:01:de:ab:6b:21:5c:da:
         14:8b:e7:ce:b2:8c:d9:76:0f:c1:8d:7d:47:24:8e:7a:7c:9d:
         0e:2f:29:de:4b:82:bc:f8:f8:57:ed:32:02:51:02:2e:e5:49:
         f7:1b:a8:c1:ef:ca:9d:33:a3:2d:65:86:ba:6b:e6:ed:c4:e0:
         2a:35:a0:10:ae:21:15:ae:ca:17:4d:20:7e:31:d3:a9:20:67:
         a7:a3:b7:f0:f0:27:89:b2:6c:0f:e3:d2:3f:c1:ca:40:bf:32:
         65:4f:0f:7b:00:0c:84:b5:3a:1a:ed:fb:0e:5f:3c:d2:b6:95:
         58:e0:29:46:41:c8:7c:c0:c9:67:4c:61:d6:da:f1:12:af:71:
         7e:09:44:66:6f:dd:85:ad:1c:76:3e:c2:f2:bd:a6:06:4b:19:
         38:be:7f:13:b5:c8:a8:38:7d:9c:58:df:54:d7:13:21:dc:f6:
         8d:72:43:dc:09:b5:b6:c3:b3:7d:9c:f4:d2:80:00:11:94:8c:
         96:9d:8d:4b:b5:3b:8e:d9:71:0a:4a:52:9f:af:d7:bc:9a:3f:
         59:2a:f7:8b:c0:71:78:65:36:2c:13:fb:88:67:7c:1f:7f:81:
         1d:34:ea:78:15:e5:f2:9c:e6:ff:9e:e4:24:95:86:65:d0:87:
         b0:a4:27:73:66:3e:0e:b3:ba:58:ca:72:92:1f:13:1b:50:47:
         eb:d1:1a:30:16:e0:36:8d:51:f3:cb:fb:47:11:a1:29:d0:e9:
         f2:02:95:64:cf:c7:00:1d:47:8c:5e:57:44:d6:b3:2b:14:f8:
         bc:0e:7a:c3:b9:01:46:c6:ab:41:98:7a:db:b3:aa:22:82:c8:
         36:b3:9e:6d:c4:42:ec:20:6e:6a:c8:68:64:19:c6:53:bd:a8:
         0d:63:3e:8f:dd:94:ac:8d:98:60:82:21:52:c5:90:f8:38:05:
         4c:4c:53:69:64:f9:24:4e
-----BEGIN CERTIFICATE-----
MIIDVTCCAT2gAwIBAwIBATANBgkqhkiG9w0BAQUFADApMQswCQYDVQQGEwJCRTEa
MBgGA1UEAxMRdHhqc29ucnBjLXRlc3QtY2EwHhcNNzAwMTAxMDAwMDAwWhcNMzgw
MTE5MDMxNDA3WjA3MRAwDgYDVQQDEwdjYS1ub25lMQswCQYDVQQGEwJCRTEWMBQG
A1UEChMNR3JlbXdlbGwgYnZiYTCBnzANBgkqhkiG9w0BAQEFAAOBjQAwgYkCgYEA
whX+eG30sTm/hosfRDh/yrmFCdtV/bwRjuElssJV90T5a0qugPtmqiRJICcnVo/b
b+t2MEUuxFwhsgWlg6F8Q7HUwdii9tvXaDSGo08bNrO1k/XufBidWaUZPCJuJS/w
Z4JEQr0Bfae7TlfHUsJ0r4yWpZiMwTD/8+uQSkPSCfsCAwEAATANBgkqhkiG9w0B
AQUFAAOCAgEAgqJc+eIq6t0k1cpg6Mnw2r+XaFHAbS5T08rJIsyOmECh6tigzmaM
qdFw/UwdEprRnxEf5QWvuS+9oPyrETdzq/ScbGi+0Z7FRGmaH6UD/3kD41Yv/7kM
QSh98sBp3D0arwdyRn3ajXvI1kukLol+01fkx6efg1gQhSjJ8Q71/oTSsjCdF633
nNg08BMColrhAyA50KkoDJjsglAB3qtrIVzaFIvnzrKM2XYPwY19RySOenydDi8p
3kuCvPj4V+0yAlECLuVJ9xuowe/KnTOjLWWGumvm7cTgKjWgEK4hFa7KF00gfjHT
qSBnp6O38PAnibJsD+PSP8HKQL8yZU8PewAMhLU6Gu37Dl880raVWOApRkHIfMDJ
Z0xh1trxEq9xfglEZm/dha0cdj7C8r2mBksZOL5/E7XIqDh9nFjfVNcTIdz2jXJD
3Am1tsOzfZz00oAAEZSMlp2NS7U7jtlxCkpSn6/XvJo/WSr3i8BxeGU2LBP7iGd8
H3+BHTTqeBXl8pzm/57kJJWGZdCHsKQnc2Y+DrO6WMpykh8TG1BH69EaMBbgNo1R
88v7RxGhKdDp8gKVZM/HAB1HjF5XRNazKxT4vA56w7kBRsarQZh627OqIoLINrOe
bcRC7CBuashoZBnGU72oDWM+j92UrI2YYIIhUsWQ+DgFTExTaWT5JE4=
-----END CERTIFICATE-----
