Certificate:
    Data:
        Version: 4 (0x3)
        Serial Number: 1 (0x1)
    Signature Algorithm: sha1WithRSAEncryption
        Issuer: CN=ca-false, C=BE, O=Gremwell bvba
        Validity
            Not Before: Jan  1 00:00:00 1970 GMT
            Not After : Jan 19 03:14:07 2038 GMT
        Subject: CN=txjsonrpc-pyserver, C=BE, O=Gremwell bvba
        Subject Public Key Info:
            Public Key Algorithm: rsaEncryption
                Public-Key: (1024 bit)
                Modulus:
                    00:cf:98:91:ee:29:bf:29:a7:30:17:4f:4c:3a:52:
                    f2:ee:1e:7f:7d:2d:fb:15:9d:54:88:c0:85:b3:2e:
                    b0:2c:c9:de:30:50:58:a9:66:41:08:b9:74:89:2d:
                    6b:e1:52:c2:f0:88:ae:e0:ab:a7:43:f6:91:7f:26:
                    8b:2a:55:63:fd:a2:72:96:1d:6c:89:a2:38:61:9e:
                    46:ad:84:d5:1b:a6:ca:30:73:51:af:c9:83:86:c9:
                    57:34:d8:49:84:66:46:ad:32:f8:c8:e6:eb:a1:65:
                    e0:16:c5:b9:31:a5:4e:c1:1e:ee:5b:03:79:d7:45:
                    5f:88:2f:a0:bd:26:9d:23:0b
                Exponent: 65537 (0x10001)
    Signature Algorithm: sha1WithRSAEncryption
         04:56:46:1a:c9:5b:90:62:ae:cb:31:60:f8:71:88:31:88:3d:
         cf:ef:10:f3:6d:1b:91:82:67:e5:30:32:b4:cc:4d:86:04:17:
         1e:26:22:8f:b4:4f:fb:7d:22:8f:95:19:c5:42:60:f1:c8:f9:
         7c:34:5e:16:05:ab:b5:20:75:47:75:9f:bc:63:2b:ff:2b:5b:
         2b:ec:b6:d9:6c:15:6a:45:09:4f:63:c9:14:fc:6c:f5:d4:96:
         f4:ef:0a:ec:19:5e:f8:fc:ab:7c:5e:e2:75:93:a6:11:97:41:
         28:f0:5b:41:0f:e5:8e:bb:a2:9b:d5:a9:cc:cd:4f:67:0d:f7:
         48:0d
-----BEGIN CERTIFICATE-----
MIIB7jCCAVegAwIBAwIBATANBgkqhkiG9w0BAQUFADA4MREwDwYDVQQDEwhjYS1m
YWxzZTELMAkGA1UEBhMCQkUxFjAUBgNVBAoTDUdyZW13ZWxsIGJ2YmEwHhcNNzAw
MTAxMDAwMDAwWhcNMzgwMTE5MDMxNDA3WjBCMRswGQYDVQQDExJ0eGpzb25ycGMt
cHlzZXJ2ZXIxCzAJBgNVBAYTAkJFMRYwFAYDVQQKEw1HcmVtd2VsbCBidmJhMIGf
MA0GCSqGSIb3DQEBAQUAA4GNADCBiQKBgQDPmJHuKb8ppzAXT0w6UvLuHn99LfsV
nVSIwIWzLrAsyd4wUFipZkEIuXSJLWvhUsLwiK7gq6dD9pF/JosqVWP9onKWHWyJ
ojhhnkathNUbpsowc1GvyYOGyVc02EmEZkatMvjI5uuhZeAWxbkxpU7BHu5bA3nX
RV+IL6C9Jp0jCwIDAQABMA0GCSqGSIb3DQEBBQUAA4GBAARWRhrJW5BirssxYPhx
iDGIPc/vEPNtG5GCZ+UwMrTMTYYEFx4mIo+0T/t9Io+VGcVCYPHI+Xw0XhYFq7Ug
dUd1n7xjK/8rWyvsttlsFWpFCU9jyRT8bPXUlvTvCuwZXvj8q3xe4nWTphGXQSjw
W0EP5Y67opvVqczNT2cN90gN
-----END CERTIFICATE-----
Certificate:
    Data:
        Version: 4 (0x3)
        Serial Number: 1 (0x1)
    Signature Algorithm: sha1WithRSAEncryption
        Issuer: C=BE, CN=txjsonrpc-test-ca
        Validity
            Not Before: Jan  1 00:00:00 1970 GMT
            Not After : Jan 19 03:14:07 2038 GMT
        Subject: CN=ca-false, C=BE, O=Gremwell bvba
        Subject Public Key Info:
            Public Key Algorithm: rsaEncryption
                Public-Key: (1024 bit)
                Modulus:
                    00:d8:d5:40:a9:5b:54:4e:bc:32:0e:b8:bd:e5:72:
                    78:89:f9:1d:aa:8e:ef:16:99:58:7b:e3:fd:e9:12:
                    33:6a:1e:17:18:ab:25:1a:3a:b0:9a:8a:1a:8e:d5:
                    eb:d0:43:f0:2d:24:4c:f2:73:e8:2f:1d:5c:b1:47:
                    d8:5a:63:75:b8:be:7e:21:10:f2:91:7a:ee:21:72:
                    d5:54:16:54:d6:d5:36:7d:3a:cc:e5:dc:b4:7b:d7:
                    c0:96:83:6b:c6:91:85:7e:39:13:ab:19:0a:1b:be:
                    b2:0c:a4:e5:00:20:b3:40:10:76:c8:5d:8f:d2:c5:
                    7b:95:70:ea:58:8d:f2:4d:7b
                Exponent: 65537 (0x10001)
        X509v3 extensions:
            X509v3 Basic Constraints: critical
                CA:FALSE
    Signature Algorithm: sha1WithRSAEncryption
         31:70:bc:56:47:7a:49:90:18:00:7e:dd:43:03:a0:91:b4:b5:
         04:1c:ae:24:d1:6a:77:45:bd:cc:05:49:19:1c:71:5c:b9:91:
         4a:03:3f:25:55:f6:cb:ad:b5:8f:89:8c:d7:4c:32:41:f6:a5:
         eb:1e:1e:18:ad:bc:e1:5a:c2:28:8f:45:84:47:d3:56:ad:6b:
         23:03:46:16:c8:6f:be:96:d2:15:9d:4d:17:bb:90:67:0f:bb:
         f3:35:cc:bf:12:44:24:61:c9:cd:ea:3d:58:22:af:77:c3:e8:
         71:26:a3:0e:af:15:00:8b:9e:c9:a9:61:c1:28:a4:cc:08:56:
         7a:7f:3b:9c:62:c4:f3:01:ce:4d:22:89:e6:33:6c:30:ee:e5:
         56:9b:32:d7:52:08:2c:0c:49:8e:18:e9:03:fd:bc:69:17:87:
         94:6f:77:8e:ac:94:a5:33:dd:2a:ad:2b:0a:c4:f3:68:31:74:
         0d:2f:d1:ad:a8:1f:ed:c1:96:5d:16:1f:11:c6:75:68:4e:a8:
         8e:1c:ec:9c:09:07:8e:1c:7f:cc:f8:11:69:38:3e:ca:09:82:
         ef:60:f1:f7:50:3a:b2:2b:b3:0c:12:dc:d3:07:d4:44:a3:ca:
         a9:1e:01:54:cd:80:a2:c2:bb:06:f4:37:ea:bf:c7:28:71:90:
         a7:55:97:73:8b:f8:c6:38:f0:08:27:c2:41:9c:43:d0:74:07:
         18:56:0a:32:d1:20:f3:c5:d2:c5:d6:9f:68:6d:bb:f9:a8:71:
         f5:4e:61:18:a3:da:3f:dc:7c:a2:d0:ed:e4:9a:fe:08:e0:ef:
         dc:87:8c:f0:49:d9:6c:eb:6b:92:e5:70:46:e5:65:dc:b7:a8:
         94:b1:77:37:7c:76:be:99:2a:eb:72:da:60:c3:e4:d8:14:06:
         d3:6a:3f:f5:33:cf:19:5e:87:0c:a0:9f:54:b0:53:41:00:3a:
         47:b3:9a:01:26:27:78:e6:bb:4b:ba:b1:10:e5:54:46:7a:9f:
         3d:48:52:9a:39:f6:15:a4:ca:70:52:6e:cb:a2:d0:be:66:5e:
         7a:8d:6e:dd:ca:03:67:bf:7a:0b:85:cc:e7:10:ca:22:58:b0:
         5e:2a:ae:14:1f:ff:5a:76:6e:95:cc:5c:67:07:0a:02:8b:84:
         2b:18:93:05:29:8b:f2:98:01:72:bd:fc:ec:05:11:a6:6a:79:
         c7:89:8c:39:94:30:6b:a9:8d:57:64:93:b8:0e:ea:e4:d7:fb:
         db:be:9f:ba:c5:66:d5:9f:7a:67:8c:cb:2a:eb:90:56:a6:62:
         f8:10:07:4a:e2:83:f2:7b:7d:48:33:de:d2:0a:17:f7:31:1b:
         12:5e:5e:c0:68:ad:4c:27
-----BEGIN CERTIFICATE-----
MIIDaDCCAVCgAwIBAwIBATANBgkqhkiG9w0BAQUFADApMQswCQYDVQQGEwJCRTEa
MBgGA1UEAxMRdHhqc29ucnBjLXRlc3QtY2EwHhcNNzAwMTAxMDAwMDAwWhcNMzgw
MTE5MDMxNDA3WjA4MREwDwYDVQQDEwhjYS1mYWxzZTELMAkGA1UEBhMCQkUxFjAU
BgNVBAoTDUdyZW13ZWxsIGJ2YmEwgZ8wDQYJKoZIhvcNAQEBBQADgY0AMIGJAoGB
ANjVQKlbVE68Mg64veVyeIn5HaqO7xaZWHvj/ekSM2oeFxirJRo6sJqKGo7V69BD
8C0kTPJz6C8dXLFH2Fpjdbi+fiEQ8pF67iFy1VQWVNbVNn06zOXctHvXwJaDa8aR
hX45E6sZChu+sgyk5QAgs0AQdshdj9LFe5Vw6liN8k17AgMBAAGjEDAOMAwGA1Ud
EwEB/wQCMAAwDQYJKoZIhvcNAQEFBQADggIBADFwvFZHekmQGAB+3UMDoJG0tQQc
riTRandFvcwFSRkccVy5kUoDPyVV9suttY+JjNdMMkH2peseHhitvOFawiiPRYRH
01atayMDRhbIb76W0hWdTRe7kGcPu/M1zL8SRCRhyc3qPVgir3fD6HEmow6vFQCL
nsmpYcEopMwIVnp/O5xixPMBzk0iieYzbDDu5VabMtdSCCwMSY4Y6QP9vGkXh5Rv
d46slKUz3SqtKwrE82gxdA0v0a2oH+3Bll0WHxHGdWhOqI4c7JwJB44cf8z4EWk4
PsoJgu9g8fdQOrIrswwS3NMH1ESjyqkeAVTNgKLCuwb0N+q/xyhxkKdVl3OL+MY4
8AgnwkGcQ9B0BxhWCjLRIPPF0sXWn2htu/mocfVOYRij2j/cfKLQ7eSa/gjg79yH
jPBJ2Wzra5LlcEblZdy3qJSxdzd8dr6ZKuty2mDD5NgUBtNqP/Uzzxlehwygn1Sw
U0EAOkezmgEmJ3jmu0u6sRDlVEZ6nz1IUpo59hWkynBSbsui0L5mXnqNbt3KA2e/
eguFzOcQyiJYsF4qrhQf/1p2bpXMXGcHCgKLhCsYkwUpi/KYAXK9/OwFEaZqeceJ
jDmUMGupjVdkk7gO6uTX+9u+n7rFZtWfemeMyyrrkFamYvgQB0rig/J7fUgz3tIK
F/cxGxJeXsBorUwn
-----END CERTIFICATE-----
