Certificate:
    Data:
        Version: 4 (0x3)
        Serial Number: 1 (0x1)
    Signature Algorithm: sha1WithRSAEncryption
        Issuer: C=BE, CN=txjsonrpc-test-ca
        Validity
            Not Before: Jun 23 15:47:38 2012 GMT
            Not After : Jun 23 15:47:38 2013 GMT
        Subject: C=BE, CN=txjsonrpc-pyserver, O=Gremwell bvba
        Subject Public Key Info:
            Public Key Algorithm: rsaEncryption
                Public-Key: (4096 bit)
                Modulus:
                    00:c3:11:ed:16:56:dc:ee:be:01:45:48:49:a5:fd:
                    5f:e9:30:6e:98:4f:a4:5b:2d:18:0b:0f:3e:c3:eb:
                    83:31:6f:8f:26:09:94:0f:11:fa:4b:42:d0:c8:22:
                    ff:3a:2c:c9:1f:5a:5e:c4:a3:1b:d6:09:7b:bd:69:
                    f6:4f:b7:a7:2b:d9:7f:32:2a:1e:1b:9f:f1:78:d4:
                    f5:2d:9b:83:a9:74:fd:bb:dc:96:04:c0:a6:43:66:
                    72:b8:68:30:67:3f:a4:a9:48:33:12:d9:8b:ea:8c:
                    99:8a:64:a4:0c:a0:64:f4:42:bf:6d:9b:ce:71:c7:
                    c9:f4:34:19:b5:19:6c:fa:df:2a:c4:38:fc:7a:4b:
                    b3:7d:fd:48:23:b6:bc:51:82:3c:2c:c6:3b:f2:dc:
                    06:6f:1a:ae:5b:01:78:e8:c1:cb:e7:06:a1:60:b1:
                    51:df:b3:17:85:92:24:4d:01:57:d6:d0:9f:8a:c6:
                    c9:1e:7e:c3:ab:3e:4d:78:f2:66:cd:fb:5e:11:31:
                    8e:45:33:fb:99:e7:1f:3d:bc:1a:03:d4:64:7e:11:
                    49:f6:19:5d:b6:e4:6f:ad:d6:c4:4e:5c:d2:6a:44:
                    79:2e:15:6a:cb:7d:e9:8a:b1:a8:34:7e:65:fb:ea:
                    b0:56:ac:17:a7:b5:37:60:72:99:17:04:af:bc:1a:
                    be:e6:2d:c5:1a:13:b9:6d:26:ce:03:db:72:ba:6d:
                    10:ce:c8:e2:a5:f0:1e:09:29:d3:b4:1b:b8:79:28:
                    1e:23:d7:b3:4c:1b:51:c2:cb:24:25:b9:12:0b:7f:
                    67:28:42:8b:7d:cb:b7:e0:99:c9:dd:b0:a4:4d:0a:
                    4d:f2:d3:1c:bf:e0:46:30:e5:73:80:38:a0:3e:f4:
                    95:6c:1e:82:26:b6:89:b5:80:4f:5b:b7:80:48:a2:
                    d4:af:f9:0b:70:05:81:4d:3a:c3:66:80:85:3f:d0:
                    de:4b:48:17:19:93:9f:0d:94:16:7a:56:3a:82:eb:
                    b2:55:f2:11:2a:fa:69:bb:a8:34:bb:3a:cd:0b:ff:
                    e8:84:bb:06:0c:96:f0:0d:02:2e:68:a5:2a:ee:9b:
                    82:3f:8e:01:d9:06:7a:fd:3a:95:09:ea:47:94:9e:
                    e3:c1:55:cc:18:d0:26:ae:d6:aa:4a:8c:38:3d:bf:
                    d7:ef:c7:53:3a:8a:f7:a7:ca:04:dd:63:36:1b:bd:
                    d8:4b:42:bc:76:32:1b:1e:66:e5:90:ff:e9:f7:1e:
                    ce:8b:71:49:f0:d0:23:0e:bd:89:37:b6:64:7e:8d:
                    b2:2e:6e:07:fa:86:16:44:61:76:e1:a9:f0:82:a4:
                    fc:c5:49:dc:46:0d:b6:f7:07:1e:ef:f0:55:8c:4c:
                    bd:ee:51
                Exponent: 65537 (0x10001)
        X509v3 extensions:
            X509v3 Basic Constraints: 
                CA:FALSE
            Netscape Cert Type: 
                SSL Server
            Netscape Comment: 
                TinyCA Generated Certificate
            X509v3 Subject Key Identifier: 
                26:8C:A5:F9:A6:4A:FE:4C:E8:0F:04:33:7E:04:26:28:BF:4C:92:F3
            X509v3 Authority Key Identifier: 
                keyid:9D:8F:84:76:94:CD:07:FE:A3:E8:8B:D7:F9:D9:6E:EF:CA:75:51:7B
                DirName:/C=BE/CN=txjsonrpc-test-ca
                serial:8D:D2:AF:37:F9:CA:92:0B

            X509v3 Issuer Alternative Name: 
                <EMPTY>

            X509v3 Subject Alternative Name: 
                <EMPTY>

    Signature Algorithm: sha1WithRSAEncryption
         0d:ff:11:ff:ec:9e:6b:75:c6:6e:4e:8d:9a:29:e3:23:97:d6:
         24:5c:09:3f:d9:09:db:42:6d:bc:56:3a:e7:2c:b3:3b:b4:b0:
         91:bd:1f:0c:36:37:c8:5b:60:cb:b5:fc:2e:4a:d5:fa:7c:c4:
         c5:3e:b0:5d:a2:6c:fa:37:f3:b5:f9:0b:2e:fa:ff:9f:74:0d:
         6f:cc:4c:5e:92:86:8e:ca:d0:17:b3:42:fe:f4:1c:17:3d:6b:
         db:5a:bc:c0:c8:8f:6b:ca:52:33:02:c2:4e:52:4c:fa:34:af:
         a8:7a:61:82:8d:8b:b4:05:55:27:77:09:f8:10:ee:c7:cb:b7:
         91:a7:03:05:49:e2:7a:fc:ff:4c:37:4b:96:08:65:25:0a:0d:
         68:33:9b:61:ab:93:b4:7e:3b:58:ad:b1:17:b6:4a:34:84:70:
         cf:dc:e5:90:35:a5:23:83:e5:c7:e8:b2:0b:28:5f:72:42:56:
         0c:2d:f1:53:b4:bd:d6:ec:01:96:3c:be:4e:da:05:5f:e9:36:
         a4:da:49:40:cd:9c:4c:95:12:10:5a:92:b2:0e:8d:1f:4a:10:
         a3:dc:79:e9:c5:3b:b3:48:1f:23:11:38:35:3e:a1:e4:b1:b6:
         f8:ac:d1:76:91:29:a3:01:d1:d0:ce:5f:5c:78:f1:85:96:bb:
         a8:eb:f6:6d:f4:f6:7a:c4:ec:c4:33:3c:da:90:8d:af:83:50:
         2d:68:bb:04:dd:44:0f:29:f0:cc:92:6f:3d:bd:5f:2f:5b:02:
         f3:71:88:91:6d:b1:90:e5:97:5b:a3:60:8f:d5:3c:c0:e4:94:
         c9:a3:c6:7a:08:7e:cd:4b:c4:1f:97:f3:4b:70:40:2d:9d:d3:
         cc:38:95:31:57:10:fc:9d:e6:91:78:f5:e7:c6:64:25:79:c1:
         18:a9:82:ae:25:4b:cf:ff:c1:1e:21:cb:b6:2b:a8:28:d0:62:
         c6:2e:ac:73:71:e2:f7:17:f2:a4:e9:70:a5:05:50:6c:67:ae:
         25:8b:5d:09:2b:48:17:00:cd:74:50:c3:17:9a:4e:a4:79:bd:
         4b:bd:ca:27:b5:06:0a:04:72:2f:c5:a6:fe:a6:6f:c1:a9:4a:
         f2:48:85:d5:d1:36:c8:36:ec:73:2b:65:a6:2a:7b:94:df:c8:
         db:34:7a:8d:1d:6e:f3:c4:67:e3:38:6f:ab:e8:7b:f9:65:17:
         a2:7f:b1:ff:99:13:ae:a6:bf:b5:aa:85:d5:f8:50:57:24:b6:
         57:a0:47:e2:b5:66:60:b9:f5:b8:20:8a:6e:fa:7a:4e:8b:6f:
         23:9e:7e:c1:df:87:29:11:d5:0c:01:05:a6:22:1f:74:c0:35:
         36:1c:c8:fc:06:39:d2:b8
-----BEGIN CERTIFICATE-----
MIIFxTCCA62gAwIBAwIBATANBgkqhkiG9w0BAQUFADApMQswCQYDVQQGEwJCRTEa
MBgGA1UEAxMRdHhqc29ucnBjLXRlc3QtY2EwHhcNMTIwNjIzMTU0NzM4WhcNMTMw
NjIzMTU0NzM4WjBCMQswCQYDVQQGEwJCRTEbMBkGA1UEAxMSdHhqc29ucnBjLXB5
c2VydmVyMRYwFAYDVQQKEw1HcmVtd2VsbCBidmJhMIICIjANBgkqhkiG9w0BAQEF
AAOCAg8AMIICCgKCAgEAwxHtFlbc7r4BRUhJpf1f6TBumE+kWy0YCw8+w+uDMW+P
JgmUDxH6S0LQyCL/OizJH1pexKMb1gl7vWn2T7enK9l/MioeG5/xeNT1LZuDqXT9
u9yWBMCmQ2ZyuGgwZz+kqUgzEtmL6oyZimSkDKBk9EK/bZvOccfJ9DQZtRls+t8q
xDj8ekuzff1II7a8UYI8LMY78twGbxquWwF46MHL5wahYLFR37MXhZIkTQFX1tCf
isbJHn7Dqz5NePJmzfteETGORTP7mecfPbwaA9RkfhFJ9hldtuRvrdbETlzSakR5
LhVqy33pirGoNH5l++qwVqwXp7U3YHKZFwSvvBq+5i3FGhO5bSbOA9tyum0Qzsji
pfAeCSnTtBu4eSgeI9ezTBtRwsskJbkSC39nKEKLfcu34JnJ3bCkTQpN8tMcv+BG
MOVzgDigPvSVbB6CJraJtYBPW7eASKLUr/kLcAWBTTrDZoCFP9DeS0gXGZOfDZQW
elY6guuyVfIRKvppu6g0uzrNC//ohLsGDJbwDQIuaKUq7puCP44B2QZ6/TqVCepH
lJ7jwVXMGNAmrtaqSow4Pb/X78dTOor3p8oE3WM2G73YS0K8djIbHmblkP/p9x7O
i3FJ8NAjDr2JN7Zkfo2yLm4H+oYWRGF24anwgqT8xUncRg229wce7/BVjEy97lEC
AwEAAaOB3jCB2zAJBgNVHRMEAjAAMBEGCWCGSAGG+EIBAQQEAwIGQDArBglghkgB
hvhCAQ0EHhYcVGlueUNBIEdlbmVyYXRlZCBDZXJ0aWZpY2F0ZTAdBgNVHQ4EFgQU
Joyl+aZK/kzoDwQzfgQmKL9MkvMwWQYDVR0jBFIwUIAUnY+EdpTNB/6j6IvX+dlu
78p1UXuhLaQrMCkxCzAJBgNVBAYTAkJFMRowGAYDVQQDExF0eGpzb25ycGMtdGVz
dC1jYYIJAI3Srzf5ypILMAkGA1UdEgQCMAAwCQYDVR0RBAIwADANBgkqhkiG9w0B
AQUFAAOCAgEADf8R/+yea3XGbk6NminjI5fWJFwJP9kJ20JtvFY65yyzO7Swkb0f
DDY3yFtgy7X8LkrV+nzExT6wXaJs+jfztfkLLvr/n3QNb8xMXpKGjsrQF7NC/vQc
Fz1r21q8wMiPa8pSMwLCTlJM+jSvqHphgo2LtAVVJ3cJ+BDux8u3kacDBUnievz/
TDdLlghlJQoNaDObYauTtH47WK2xF7ZKNIRwz9zlkDWlI4Plx+iyCyhfckJWDC3x
U7S91uwBljy+TtoFX+k2pNpJQM2cTJUSEFqSsg6NH0oQo9x56cU7s0gfIxE4NT6h
5LG2+KzRdpEpowHR0M5fXHjxhZa7qOv2bfT2esTsxDM82pCNr4NQLWi7BN1EDynw
zJJvPb1fL1sC83GIkW2xkOWXW6Ngj9U8wOSUyaPGegh+zUvEH5fzS3BALZ3TzDiV
MVcQ/J3mkXj158ZkJXnBGKmCriVLz//BHiHLtiuoKNBixi6sc3Hi9xfypOlwpQVQ
bGeuJYtdCStIFwDNdFDDF5pOpHm9S73KJ7UGCgRyL8Wm/qZvwalK8kiF1dE2yDbs
cytlpip7lN/I2zR6jR1u88Rn4zhvq+h7+WUXon+x/5kTrqa/taqF1fhQVyS2V6BH
4rVmYLn1uCCKbvp6TotvI55+wd+HKRHVDAEFpiIfdMA1NhzI/AY50rg=
-----END CERTIFICATE-----
Certificate:
    Data:
        Version: 3 (0x2)
        Serial Number: 10219423159405941259 (0x8dd2af37f9ca920b)
    Signature Algorithm: sha1WithRSAEncryption
        Issuer: C=BE, CN=txjsonrpc-test-ca
        Validity
            Not Before: Jun 23 15:46:37 2012 GMT
            Not After : Jun 21 15:46:37 2022 GMT
        Subject: C=BE, CN=txjsonrpc-test-ca
        Subject Public Key Info:
            Public Key Algorithm: rsaEncryption
                Public-Key: (4096 bit)
                Modulus:
                    00:d1:25:af:77:c5:a8:72:cf:90:b9:39:10:fb:7b:
                    75:2c:a1:da:6a:95:e5:44:0c:d6:25:4b:58:7f:bb:
                    07:82:59:49:58:32:85:24:cc:3e:77:db:e1:a7:4f:
                    c8:b5:cb:ee:45:38:bd:bc:fb:e3:76:3b:88:04:ca:
                    ab:3a:a3:96:3b:5f:93:9c:28:a6:61:97:dc:a2:3f:
                    a0:93:2b:56:6c:cf:d3:4f:6a:9e:05:d3:1c:cd:ef:
                    75:80:1a:98:b7:92:49:14:33:b8:c4:7c:73:8c:7e:
                    83:a5:81:a2:59:8c:8b:a3:51:36:6d:68:ac:f2:f1:
                    ed:6f:49:d9:af:7a:63:c1:43:31:42:b6:c7:cd:b9:
                    78:b7:33:98:70:92:6c:9e:04:7a:7b:f0:6d:38:87:
                    eb:00:13:17:b9:d9:ec:b4:66:bb:51:d3:fd:81:e3:
                    0e:88:71:23:d2:80:2a:61:de:ab:25:02:47:a9:c1:
                    6b:c9:69:ae:da:47:b6:49:74:ac:a6:e1:c1:76:ba:
                    6d:b1:d9:68:6e:1c:37:a8:e2:18:60:37:b6:58:13:
                    6c:c7:92:7c:c6:45:8c:ef:c3:81:73:10:dc:2f:31:
                    e2:b9:05:5a:9e:28:70:5a:3e:1d:b8:68:71:81:c9:
                    e8:fe:1f:c3:a0:13:f8:e4:24:12:ba:91:8e:15:d2:
                    03:f1:8c:b0:aa:e2:34:e4:6b:f8:06:f6:23:8a:92:
                    43:a6:05:dc:e9:c7:a5:a8:06:d7:6e:91:52:72:47:
                    ab:ae:87:fe:b3:0f:04:87:6f:4b:22:29:e9:a9:06:
                    52:58:7d:03:16:d7:d5:31:44:b4:f1:51:44:a7:2a:
                    ba:5e:09:19:ec:4c:a2:e0:58:fe:0d:4e:b7:90:4d:
                    02:ac:2a:ad:99:14:65:3b:0a:3c:73:45:56:b2:0f:
                    10:25:24:51:79:57:1a:34:1a:10:6f:60:e0:fc:81:
                    db:ca:c2:e2:85:1b:4c:72:13:5c:9d:76:cc:d0:21:
                    33:31:56:82:8f:c5:57:b9:44:fd:8b:76:c1:b6:e4:
                    21:8b:35:9a:ee:54:74:9f:72:6b:19:84:d7:a2:3c:
                    a5:6e:11:0a:f1:93:04:2e:dd:7c:4c:7d:62:10:d4:
                    1b:8b:87:f6:ed:bf:12:b1:8b:f0:9a:7a:ee:02:94:
                    e1:3c:46:2b:7f:9c:54:fb:2e:61:c9:1c:ef:fc:de:
                    25:bc:2d:75:1b:1f:49:5e:44:3b:15:93:ad:c4:89:
                    d9:ae:3c:da:54:ef:d9:af:3a:16:cb:94:1b:6a:14:
                    e4:42:f9:75:33:46:6e:fb:40:bc:f8:82:36:cf:60:
                    f5:c2:a2:98:23:a7:2a:ae:c1:aa:22:f8:87:da:b7:
                    9c:a4:cf
                Exponent: 65537 (0x10001)
        X509v3 extensions:
            X509v3 Subject Key Identifier: 
                9D:8F:84:76:94:CD:07:FE:A3:E8:8B:D7:F9:D9:6E:EF:CA:75:51:7B
            X509v3 Authority Key Identifier: 
                keyid:9D:8F:84:76:94:CD:07:FE:A3:E8:8B:D7:F9:D9:6E:EF:CA:75:51:7B
                DirName:/C=BE/CN=txjsonrpc-test-ca
                serial:8D:D2:AF:37:F9:CA:92:0B

            X509v3 Basic Constraints: critical
                CA:TRUE
            Netscape Cert Type: 
                SSL CA, S/MIME CA
            X509v3 Issuer Alternative Name: 
                <EMPTY>

            Netscape Comment: 
                Test CA for txjsonrcp
            X509v3 Subject Alternative Name: 
                <EMPTY>

            X509v3 Key Usage: critical
                Certificate Sign, CRL Sign
    Signature Algorithm: sha1WithRSAEncryption
         06:82:86:81:a9:1b:7e:2d:ef:f5:fc:cc:d2:9d:d6:82:ad:d0:
         6f:7e:3d:b9:5c:b2:0f:3a:64:21:9a:fb:53:b2:93:81:dc:1a:
         24:fc:b8:30:57:a2:c7:71:0d:9c:1a:0b:8a:6c:89:52:8b:8a:
         f5:af:95:3e:b8:08:39:ee:36:50:ac:60:4d:df:2b:49:a2:72:
         f1:3f:12:3c:d9:55:56:a4:9a:77:2b:77:fa:16:b5:76:d9:f4:
         c4:51:6b:b9:fe:2f:a3:52:e8:64:80:49:22:6d:05:42:87:af:
         9d:85:6c:fa:c9:9b:48:39:7b:89:f5:a0:1e:ff:11:d3:9c:78:
         b1:b2:f6:4d:b1:e8:b3:98:23:2c:d4:20:e1:a1:01:3e:26:0a:
         5b:8e:eb:58:45:22:cf:e1:94:ad:84:40:b0:fb:ff:25:5f:31:
         9a:49:0b:36:ad:c6:1a:b0:42:60:40:e2:a2:3c:5a:36:41:89:
         fc:10:c4:60:ea:d4:85:7b:36:84:df:aa:81:cc:69:e7:52:ca:
         c1:46:b1:79:93:51:4f:24:84:42:14:3a:20:a0:6c:27:76:40:
         0f:96:7e:4e:c3:0c:37:b3:e3:73:49:86:58:31:00:1e:e7:0f:
         87:74:b6:4e:6e:1c:7d:87:a4:33:04:c9:76:ec:e5:3a:85:5f:
         a8:d1:ad:21:64:5e:c5:6a:df:b1:02:6e:65:a4:87:72:06:07:
         da:e5:f2:af:2b:a5:eb:18:80:67:83:a5:3c:e6:ed:d1:58:f9:
         90:5c:d6:e9:2f:76:c1:58:13:b8:bd:88:8a:f3:04:48:bb:42:
         8f:7f:c6:db:b4:30:3f:bb:6c:d5:47:e5:ae:8d:4b:da:92:a5:
         db:d3:6e:a8:9b:c2:6b:56:af:34:63:82:e6:78:f8:1f:54:d7:
         41:aa:a3:c9:7c:a6:83:41:bf:6e:33:7c:ae:e6:92:bd:da:27:
         b4:bc:e2:90:4f:33:1b:01:a1:cd:02:13:7a:31:ef:00:d6:9a:
         6e:38:6b:a7:cb:70:98:a8:0f:ff:1c:56:a8:b7:e6:d2:42:5a:
         bb:f4:78:27:71:13:d0:e8:43:eb:bc:2d:4f:e4:ea:4d:4f:76:
         7f:53:38:34:eb:13:e2:3d:c6:14:98:86:1c:ab:2c:0e:b7:68:
         2e:bd:63:a9:6a:8f:d5:22:2d:ab:13:d7:62:54:51:ff:5c:37:
         08:04:27:da:f9:57:77:05:18:73:88:5f:b0:c1:65:50:36:09:
         d6:c7:f5:ae:6e:3f:04:d1:84:3c:21:74:1d:bd:0a:fb:76:d0:
         13:2b:62:bb:24:48:43:89:d0:18:5c:b4:ad:ea:98:af:6d:fc:
         1c:6b:1f:06:64:54:23:88
-----BEGIN CERTIFICATE-----
MIIFwzCCA6ugAwIBAgIJAI3Srzf5ypILMA0GCSqGSIb3DQEBBQUAMCkxCzAJBgNV
BAYTAkJFMRowGAYDVQQDExF0eGpzb25ycGMtdGVzdC1jYTAeFw0xMjA2MjMxNTQ2
MzdaFw0yMjA2MjExNTQ2MzdaMCkxCzAJBgNVBAYTAkJFMRowGAYDVQQDExF0eGpz
b25ycGMtdGVzdC1jYTCCAiIwDQYJKoZIhvcNAQEBBQADggIPADCCAgoCggIBANEl
r3fFqHLPkLk5EPt7dSyh2mqV5UQM1iVLWH+7B4JZSVgyhSTMPnfb4adPyLXL7kU4
vbz743Y7iATKqzqjljtfk5wopmGX3KI/oJMrVmzP009qngXTHM3vdYAamLeSSRQz
uMR8c4x+g6WBolmMi6NRNm1orPLx7W9J2a96Y8FDMUK2x825eLczmHCSbJ4Eenvw
bTiH6wATF7nZ7LRmu1HT/YHjDohxI9KAKmHeqyUCR6nBa8lprtpHtkl0rKbhwXa6
bbHZaG4cN6jiGGA3tlgTbMeSfMZFjO/DgXMQ3C8x4rkFWp4ocFo+HbhocYHJ6P4f
w6AT+OQkErqRjhXSA/GMsKriNORr+Ab2I4qSQ6YF3OnHpagG126RUnJHq66H/rMP
BIdvSyIp6akGUlh9AxbX1TFEtPFRRKcqul4JGexMouBY/g1Ot5BNAqwqrZkUZTsK
PHNFVrIPECUkUXlXGjQaEG9g4PyB28rC4oUbTHITXJ12zNAhMzFWgo/FV7lE/Yt2
wbbkIYs1mu5UdJ9yaxmE16I8pW4RCvGTBC7dfEx9YhDUG4uH9u2/ErGL8Jp67gKU
4TxGK3+cVPsuYckc7/zeJbwtdRsfSV5EOxWTrcSJ2a482lTv2a86FsuUG2oU5EL5
dTNGbvtAvPiCNs9g9cKimCOnKq7BqiL4h9q3nKTPAgMBAAGjge0wgeowHQYDVR0O
BBYEFJ2PhHaUzQf+o+iL1/nZbu/KdVF7MFkGA1UdIwRSMFCAFJ2PhHaUzQf+o+iL
1/nZbu/KdVF7oS2kKzApMQswCQYDVQQGEwJCRTEaMBgGA1UEAxMRdHhqc29ucnBj
LXRlc3QtY2GCCQCN0q83+cqSCzAPBgNVHRMBAf8EBTADAQH/MBEGCWCGSAGG+EIB
AQQEAwIBBjAJBgNVHRIEAjAAMCQGCWCGSAGG+EIBDQQXFhVUZXN0IENBIGZvciB0
eGpzb25yY3AwCQYDVR0RBAIwADAOBgNVHQ8BAf8EBAMCAQYwDQYJKoZIhvcNAQEF
BQADggIBAAaChoGpG34t7/X8zNKd1oKt0G9+Pblcsg86ZCGa+1Oyk4HcGiT8uDBX
osdxDZwaC4psiVKLivWvlT64CDnuNlCsYE3fK0micvE/EjzZVVakmncrd/oWtXbZ
9MRRa7n+L6NS6GSASSJtBUKHr52FbPrJm0g5e4n1oB7/EdOceLGy9k2x6LOYIyzU
IOGhAT4mCluO61hFIs/hlK2EQLD7/yVfMZpJCzatxhqwQmBA4qI8WjZBifwQxGDq
1IV7NoTfqoHMaedSysFGsXmTUU8khEIUOiCgbCd2QA+Wfk7DDDez43NJhlgxAB7n
D4d0tk5uHH2HpDMEyXbs5TqFX6jRrSFkXsVq37ECbmWkh3IGB9rl8q8rpesYgGeD
pTzm7dFY+ZBc1ukvdsFYE7i9iIrzBEi7Qo9/xtu0MD+7bNVH5a6NS9qSpdvTbqib
wmtWrzRjguZ4+B9U10Gqo8l8poNBv24zfK7mkr3aJ7S84pBPMxsBoc0CE3ox7wDW
mm44a6fLcJioD/8cVqi35tJCWrv0eCdxE9DoQ+u8LU/k6k1Pdn9TODTrE+I9xhSY
hhyrLA63aC69Y6lqj9UiLasT12JUUf9cNwgEJ9r5V3cFGHOIX7DBZVA2CdbH9a5u
PwTRhDwhdB29Cvt20BMrYrskSEOJ0BhctK3qmK9t/BxrHwZkVCOI
-----END CERTIFICATE-----
