Certificate:
    Data:
        Version: 4 (0x3)
        Serial Number: 1 (0x1)
    Signature Algorithm: sha1WithRSAEncryption
        Issuer: CN=ca-none, C=BE, O=Gremwell bvba
        Validity
            Not Before: Jan  1 00:00:00 1970 GMT
            Not After : Jan 19 03:14:07 2038 GMT
        Subject: CN=txjsonrpc-pyserver, C=BE, O=Gremwell bvba
        Subject Public Key Info:
            Public Key Algorithm: rsaEncryption
                Public-Key: (1024 bit)
                Modulus:
                    00:cf:98:91:ee:29:bf:29:a7:30:17:4f:4c:3a:52:
                    f2:ee:1e:7f:7d:2d:fb:15:9d:54:88:c0:85:b3:2e:
                    b0:2c:c9:de:30:50:58:a9:66:41:08:b9:74:89:2d:
                    6b:e1:52:c2:f0:88:ae:e0:ab:a7:43:f6:91:7f:26:
                    8b:2a:55:63:fd:a2:72:96:1d:6c:89:a2:38:61:9e:
                    46:ad:84:d5:1b:a6:ca:30:73:51:af:c9:83:86:c9:
                    57:34:d8:49:84:66:46:ad:32:f8:c8:e6:eb:a1:65:
                    e0:16:c5:b9:31:a5:4e:c1:1e:ee:5b:03:79:d7:45:
                    5f:88:2f:a0:bd:26:9d:23:0b
                Exponent: 65537 (0x10001)
    Signature Algorithm: sha1WithRSAEncryption
         26:c5:d2:e8:e1:09:1b:16:02:bb:de:41:a9:37:2d:cd:e5:97:
         3b:82:cf:3a:0f:a5:6a:67:74:e4:0d:6e:1e:f1:0f:4f:71:bd:
         d3:95:45:b6:63:fc:4c:15:06:ac:5d:b3:47:05:a6:77:a9:1d:
         dc:73:09:f2:a0:c9:cc:ef:ab:dc:88:87:f9:5c:05:f8:62:8c:
         6e:74:71:73:50:92:c0:ab:d1:5e:03:2b:f8:06:75:a4:3b:33:
         33:5f:af:70:67:3f:a9:c2:79:ee:4d:51:04:5c:f6:a9:5c:4f:
         a1:12:87:2e:11:6a:90:ef:8e:14:e2:09:77:a7:6d:78:c2:e4:
         50:78
-----BEGIN CERTIFICATE-----
MIIB7TCCAVagAwIBAwIBATANBgkqhkiG9w0BAQUFADA3MRAwDgYDVQQDEwdjYS1u
b25lMQswCQYDVQQGEwJCRTEWMBQGA1UEChMNR3JlbXdlbGwgYnZiYTAeFw03MDAx
MDEwMDAwMDBaFw0zODAxMTkwMzE0MDdaMEIxGzAZBgNVBAMTEnR4anNvbnJwYy1w
eXNlcnZlcjELMAkGA1UEBhMCQkUxFjAUBgNVBAoTDUdyZW13ZWxsIGJ2YmEwgZ8w
DQYJKoZIhvcNAQEBBQADgY0AMIGJAoGBAM+Yke4pvymnMBdPTDpS8u4ef30t+xWd
VIjAhbMusCzJ3jBQWKlmQQi5dIkta+FSwvCIruCrp0P2kX8miypVY/2icpYdbImi
OGGeRq2E1RumyjBzUa/Jg4bJVzTYSYRmRq0y+Mjm66Fl4BbFuTGlTsEe7lsDeddF
X4gvoL0mnSMLAgMBAAEwDQYJKoZIhvcNAQEFBQADgYEAJsXS6OEJGxYCu95BqTct
zeWXO4LPOg+lamd05A1uHvEPT3G905VFtmP8TBUGrF2zRwWmd6kd3HMJ8qDJzO+r
3IiH+VwF+GKMbnRxc1CSwKvRXgMr+AZ1pDszM1+vcGc/qcJ57k1RBFz2qVxPoRKH
LhFqkO+OFOIJd6dteMLkUHg=
-----END CERTIFICATE-----
Certificate:
    Data:
        Version: 4 (0x3)
        Serial Number: 1 (0x1)
    Signature Algorithm: sha1WithRSAEncryption
        Issuer: C=BE, CN=txjsonrpc-test-ca
        Validity
            Not Before: Jan  1 00:00:00 1970 GMT
            Not After : Jan 19 03:14:07 2038 GMT
        Subject: CN=ca-none, C=BE, O=Gremwell bvba
        Subject Public Key Info:
            Public Key Algorithm: rsaEncryption
                Public-Key: (1024 bit)
                Modulus:
                    00:b4:0d:7f:a2:b6:1c:b8:75:ba:b3:25:5f:73:ee:
                    c7:37:4c:b9:e1:df:22:19:bd:ff:7a:09:6a:7d:83:
                    3a:57:c7:62:87:b7:a6:40:9e:5d:a2:b5:8d:6c:98:
                    0e:fd:c8:36:78:48:d5:fc:c7:be:49:06:47:83:ed:
                    14:7c:12:7f:81:6e:f3:a5:1d:7b:a2:e1:01:78:70:
                    ab:5c:79:17:93:2d:fd:ae:f4:c7:66:ba:8f:6c:9b:
                    c2:6e:e3:22:fd:dd:1f:50:72:47:11:a9:57:3a:6c:
                    b3:4d:f6:26:6a:bd:f3:ed:e2:a3:fd:1c:d0:6b:8f:
                    ac:71:3c:f4:b2:79:c7:a8:ed
                Exponent: 65537 (0x10001)
    Signature Algorithm: sha1WithRSAEncryption
         35:ee:41:45:b1:84:7c:d0:3c:df:85:56:cf:fc:ec:8e:3a:4c:
         e3:19:40:58:95:9c:e1:49:49:dc:b4:23:66:e0:60:f1:da:4b:
         8f:b0:21:65:31:42:20:05:68:d8:dc:9a:b2:e2:ee:cd:f9:49:
         f3:9b:4b:08:62:a0:20:5d:d9:df:62:77:bd:6f:70:fa:b5:1a:
         90:6e:94:67:76:91:6e:5f:b9:d5:fe:72:22:9e:77:e3:e4:98:
         dd:c3:72:4d:2d:e2:54:bf:ee:2c:3d:a4:3c:24:c3:7e:d4:61:
         10:e8:3d:87:37:0e:4b:17:3b:eb:06:75:14:47:34:04:9e:67:
         bb:3f:9c:df:30:88:f3:73:f6:d4:f3:97:bd:3a:2d:6a:ca:76:
         e0:42:4b:7d:60:21:12:6b:c5:dc:32:18:2b:a5:dc:7f:e0:29:
         ab:ce:52:2f:db:59:48:6b:1d:ee:66:e2:42:91:d6:16:ed:5e:
         fa:a8:ea:4e:17:f9:50:7b:fe:af:b2:71:8b:96:16:b5:06:b7:
         f8:1f:4c:28:66:da:b2:40:63:d1:a4:be:45:c2:1b:58:f5:c6:
         4d:40:f0:9e:87:10:e9:a7:77:de:c5:96:4c:9d:cf:57:5c:ec:
         b9:b3:75:b4:88:c8:05:06:2c:b8:2f:e4:53:f2:f9:fe:51:74:
         2f:1c:7b:d4:a2:30:a1:37:ea:cd:30:2a:3b:6f:9e:e3:c8:64:
         3a:c0:82:92:c2:43:1d:9d:bc:b8:e0:ee:e0:17:51:06:e2:6a:
         ba:6d:98:7f:3b:a7:d1:26:9d:e1:0d:20:21:14:c2:61:5a:b8:
         d6:7b:c0:a0:50:12:87:93:45:f2:01:0e:4e:b7:28:f8:bd:ea:
         7f:9c:4b:ae:8a:70:e2:d9:69:48:69:7d:1d:c8:80:2c:81:18:
         eb:a0:83:a6:f9:7b:40:62:7d:e4:72:40:f3:b5:47:cc:f2:fd:
         a0:ed:e0:78:a7:c0:32:d6:37:1f:18:2a:56:e7:47:b7:e5:1d:
         ed:21:dd:40:b5:7b:10:75:81:7f:6f:68:cf:c3:7e:ac:8d:47:
         5d:e0:f9:51:51:d6:7d:a1:74:d7:ef:04:be:71:66:ce:ea:b8:
         31:32:9a:90:3e:fb:a6:06:83:ae:bd:eb:99:55:2d:99:97:34:
         f5:b9:ab:b1:30:72:d8:25:81:da:70:98:8b:4c:d1:59:d1:1e:
         13:4b:12:cf:34:b4:62:b7:c2:02:d9:29:e0:b5:19:4b:d7:70:
         58:1b:aa:e0:7f:4a:49:e4:d1:43:c9:4e:ef:3a:b2:da:50:c0:
         2f:56:a8:1e:bc:05:0e:d6:0c:97:fc:1a:84:5b:07:53:2e:66:
         a4:0c:dc:82:dc:db:bd:eb
-----BEGIN CERTIFICATE-----
MIIDVTCCAT2gAwIBAwIBATANBgkqhkiG9w0BAQUFADApMQswCQYDVQQGEwJCRTEa
MBgGA1UEAxMRdHhqc29ucnBjLXRlc3QtY2EwHhcNNzAwMTAxMDAwMDAwWhcNMzgw
MTE5MDMxNDA3WjA3MRAwDgYDVQQDEwdjYS1ub25lMQswCQYDVQQGEwJCRTEWMBQG
A1UEChMNR3JlbXdlbGwgYnZiYTCBnzANBgkqhkiG9w0BAQEFAAOBjQAwgYkCgYEA
tA1/orYcuHW6syVfc+7HN0y54d8iGb3/eglqfYM6V8dih7emQJ5dorWNbJgO/cg2
eEjV/Me+SQZHg+0UfBJ/gW7zpR17ouEBeHCrXHkXky39rvTHZrqPbJvCbuMi/d0f
UHJHEalXOmyzTfYmar3z7eKj/RzQa4+scTz0snnHqO0CAwEAATANBgkqhkiG9w0B
AQUFAAOCAgEANe5BRbGEfNA834VWz/zsjjpM4xlAWJWc4UlJ3LQjZuBg8dpLj7Ah
ZTFCIAVo2NyasuLuzflJ85tLCGKgIF3Z32J3vW9w+rUakG6UZ3aRbl+51f5yIp53
4+SY3cNyTS3iVL/uLD2kPCTDftRhEOg9hzcOSxc76wZ1FEc0BJ5nuz+c3zCI83P2
1POXvTotasp24EJLfWAhEmvF3DIYK6Xcf+Apq85SL9tZSGsd7mbiQpHWFu1e+qjq
Thf5UHv+r7Jxi5YWtQa3+B9MKGbaskBj0aS+RcIbWPXGTUDwnocQ6ad33sWWTJ3P
V1zsubN1tIjIBQYsuC/kU/L5/lF0Lxx71KIwoTfqzTAqO2+e48hkOsCCksJDHZ28
uODu4BdRBuJqum2Yfzun0Sad4Q0gIRTCYVq41nvAoFASh5NF8gEOTrco+L3qf5xL
ropw4tlpSGl9HciALIEY66CDpvl7QGJ95HJA87VHzPL9oO3geKfAMtY3HxgqVudH
t+Ud7SHdQLV7EHWBf29oz8N+rI1HXeD5UVHWfaF01+8EvnFmzuq4MTKakD77pgaD
rr3rmVUtmZc09bmrsTBy2CWB2nCYi0zRWdEeE0sSzzS0YrfCAtkp4LUZS9dwWBuq
4H9KSeTRQ8lO7zqy2lDAL1aoHrwFDtYMl/wahFsHUy5mpAzcgtzbves=
-----END CERTIFICATE-----
