Certificate:
    Data:
        Version: 4 (0x3)
        Serial Number: 1 (0x1)
    Signature Algorithm: sha1WithRSAEncryption
        Issuer: C=BE, CN=txjsonrpc-test-ca
        Validity
            Not Before: Jan  1 00:00:00 1970 GMT
            Not After : Jan 19 03:14:07 2038 GMT
        Subject: CN=ca-true, C=BE, O=Gremwell bvba
        Subject Public Key Info:
            Public Key Algorithm: rsaEncryption
                Public-Key: (1024 bit)
                Modulus:
                    00:bc:ea:e6:35:96:6d:f9:ff:52:e0:48:28:74:95:
                    eb:15:0c:cd:ba:37:75:05:f5:fb:a3:13:9a:e2:76:
                    30:11:5d:81:f7:60:d8:99:07:0b:d7:73:d3:cf:3b:
                    06:73:f8:d1:17:2f:bd:3e:83:7f:ea:bf:e4:8c:20:
                    e9:84:ac:2f:31:d4:b4:a1:6f:da:6e:df:57:1a:3a:
                    24:96:58:91:73:7c:47:12:92:ce:1c:c1:f8:1b:46:
                    94:9a:5a:c0:e9:1a:18:1c:88:34:95:37:20:4b:b7:
                    80:48:6c:74:9b:ad:a6:0b:81:54:b8:5e:5f:63:9b:
                    d8:23:b1:76:1c:ba:cb:d3:a3
                Exponent: 65537 (0x10001)
        X509v3 extensions:
            X509v3 Basic Constraints: critical
                CA:TRUE
    Signature Algorithm: sha1WithRSAEncryption
         c4:83:49:a5:4a:9b:d2:ad:e8:d2:5e:1c:66:1c:5e:17:1c:9e:
         6c:09:8c:33:84:40:55:25:a3:17:bc:6c:82:46:40:04:63:65:
         c1:48:d0:75:4a:cc:eb:96:33:ee:cb:02:d4:45:c9:45:f8:8d:
         69:02:16:51:3c:04:13:03:b9:5e:9e:aa:10:61:1c:6a:c7:2b:
         47:71:18:30:6a:32:4d:8f:d5:da:72:d9:62:3f:da:eb:78:88:
         24:5e:7f:b3:82:a4:7a:2e:ac:d4:d8:63:d3:fb:87:30:63:3b:
         47:7d:07:d6:99:bd:43:bb:30:e0:f8:f0:69:68:09:ca:1f:9f:
         e0:3c:56:9f:cc:2b:c8:c9:92:1a:de:4f:d4:3c:2f:94:b0:04:
         be:ea:19:e1:24:32:57:94:5e:bc:41:94:30:5c:9b:7a:cd:16:
         2e:f0:d2:dd:a3:71:e0:bc:51:a9:33:4c:a5:41:3f:58:83:94:
         66:77:31:4f:ba:c7:15:84:d8:04:f5:f6:26:9d:17:3f:2f:9d:
         17:6e:57:4a:14:ff:db:f1:f0:d2:8a:f6:11:32:c1:e6:d0:7e:
         64:6d:2c:85:4a:b0:41:69:8c:e8:dc:e5:27:5d:ea:d9:e0:77:
         07:6c:9d:9a:4b:38:22:08:49:34:3d:25:14:90:07:fc:27:f3:
         a6:94:9b:dd:cc:36:47:f1:bc:ae:ec:71:96:c8:18:48:c6:1a:
         27:bf:35:44:37:23:d8:c9:28:4b:a9:c9:cd:20:b6:e2:9f:c3:
         d0:9d:84:b3:df:dd:5f:fb:77:8d:c6:a5:c6:67:0f:5b:ff:c8:
         22:07:63:b0:dc:e0:de:d9:57:ae:4d:89:b3:1c:ed:e5:9f:58:
         90:28:52:48:10:57:30:5b:4e:dd:2a:c1:cb:b4:09:e5:36:a0:
         52:81:8d:f3:ed:15:d3:18:07:99:bc:12:66:e3:4d:3b:06:6d:
         ff:fc:64:69:41:1f:09:19:c8:ad:7d:55:15:68:c8:c3:72:83:
         f6:94:7a:40:b8:20:4b:7e:2b:29:a0:ca:6d:17:fb:61:6d:d4:
         44:20:a5:64:c5:73:7e:8a:4d:07:c5:96:c1:66:b1:80:b1:4d:
         28:a3:a1:dc:ba:e1:6f:01:49:59:91:e6:97:a5:a8:f4:a1:e6:
         b6:21:ad:8b:f2:33:4c:ef:4d:82:b6:e2:75:07:ea:3d:f0:d4:
         9b:43:74:ae:09:0d:8d:f0:41:a0:ed:b0:45:47:23:45:e5:d0:
         a0:8b:e2:d1:ad:44:7a:e4:ef:0d:86:1b:20:41:d3:f4:b1:93:
         b5:8e:af:5b:a2:80:a5:c1:bc:c4:7c:85:ee:9d:62:87:e1:81:
         6d:3e:be:a2:b8:bf:bb:43
-----BEGIN CERTIFICATE-----
MIIDajCCAVKgAwIBAwIBATANBgkqhkiG9w0BAQUFADApMQswCQYDVQQGEwJCRTEa
MBgGA1UEAxMRdHhqc29ucnBjLXRlc3QtY2EwHhcNNzAwMTAxMDAwMDAwWhcNMzgw
MTE5MDMxNDA3WjA3MRAwDgYDVQQDEwdjYS10cnVlMQswCQYDVQQGEwJCRTEWMBQG
A1UEChMNR3JlbXdlbGwgYnZiYTCBnzANBgkqhkiG9w0BAQEFAAOBjQAwgYkCgYEA
vOrmNZZt+f9S4EgodJXrFQzNujd1BfX7oxOa4nYwEV2B92DYmQcL13PTzzsGc/jR
Fy+9PoN/6r/kjCDphKwvMdS0oW/abt9XGjoklliRc3xHEpLOHMH4G0aUmlrA6RoY
HIg0lTcgS7eASGx0m62mC4FUuF5fY5vYI7F2HLrL06MCAwEAAaMTMBEwDwYDVR0T
AQH/BAUwAwEB/zANBgkqhkiG9w0BAQUFAAOCAgEAxINJpUqb0q3o0l4cZhxeFxye
bAmMM4RAVSWjF7xsgkZABGNlwUjQdUrM65Yz7ssC1EXJRfiNaQIWUTwEEwO5Xp6q
EGEcascrR3EYMGoyTY/V2nLZYj/a63iIJF5/s4Kkei6s1Nhj0/uHMGM7R30H1pm9
Q7sw4PjwaWgJyh+f4DxWn8wryMmSGt5P1DwvlLAEvuoZ4SQyV5RevEGUMFybes0W
LvDS3aNx4LxRqTNMpUE/WIOUZncxT7rHFYTYBPX2Jp0XPy+dF25XShT/2/Hw0or2
ETLB5tB+ZG0shUqwQWmM6NzlJ13q2eB3B2ydmks4IghJND0lFJAH/CfzppSb3cw2
R/G8ruxxlsgYSMYaJ781RDcj2MkoS6nJzSC24p/D0J2Es9/dX/t3jcalxmcPW//I
IgdjsNzg3tlXrk2Jsxzt5Z9YkChSSBBXMFtO3SrBy7QJ5TagUoGN8+0V0xgHmbwS
ZuNNOwZt//xkaUEfCRnIrX1VFWjIw3KD9pR6QLggS34rKaDKbRf7YW3URCClZMVz
fopNB8WWwWaxgLFNKKOh3LrhbwFJWZHml6Wo9KHmtiGti/IzTO9NgrbidQfqPfDU
m0N0rgkNjfBBoO2wRUcjReXQoIvi0a1EeuTvDYYbIEHT9LGTtY6vW6KApcG8xHyF
7p1ih+GBbT6+ori/u0M=
-----END CERTIFICATE-----
Certificate:
    Data:
        Version: 3 (0x2)
        Serial Number: 10219423159405941259 (0x8dd2af37f9ca920b)
    Signature Algorithm: sha1WithRSAEncryption
        Issuer: C=BE, CN=txjsonrpc-test-ca
        Validity
            Not Before: Jun 23 15:46:37 2012 GMT
            Not After : Jun 21 15:46:37 2022 GMT
        Subject: C=BE, CN=txjsonrpc-test-ca
        Subject Public Key Info:
            Public Key Algorithm: rsaEncryption
                Public-Key: (4096 bit)
                Modulus:
                    00:d1:25:af:77:c5:a8:72:cf:90:b9:39:10:fb:7b:
                    75:2c:a1:da:6a:95:e5:44:0c:d6:25:4b:58:7f:bb:
                    07:82:59:49:58:32:85:24:cc:3e:77:db:e1:a7:4f:
                    c8:b5:cb:ee:45:38:bd:bc:fb:e3:76:3b:88:04:ca:
                    ab:3a:a3:96:3b:5f:93:9c:28:a6:61:97:dc:a2:3f:
                    a0:93:2b:56:6c:cf:d3:4f:6a:9e:05:d3:1c:cd:ef:
                    75:80:1a:98:b7:92:49:14:33:b8:c4:7c:73:8c:7e:
                    83:a5:81:a2:59:8c:8b:a3:51:36:6d:68:ac:f2:f1:
                    ed:6f:49:d9:af:7a:63:c1:43:31:42:b6:c7:cd:b9:
                    78:b7:33:98:70:92:6c:9e:04:7a:7b:f0:6d:38:87:
                    eb:00:13:17:b9:d9:ec:b4:66:bb:51:d3:fd:81:e3:
                    0e:88:71:23:d2:80:2a:61:de:ab:25:02:47:a9:c1:
                    6b:c9:69:ae:da:47:b6:49:74:ac:a6:e1:c1:76:ba:
                    6d:b1:d9:68:6e:1c:37:a8:e2:18:60:37:b6:58:13:
                    6c:c7:92:7c:c6:45:8c:ef:c3:81:73:10:dc:2f:31:
                    e2:b9:05:5a:9e:28:70:5a:3e:1d:b8:68:71:81:c9:
                    e8:fe:1f:c3:a0:13:f8:e4:24:12:ba:91:8e:15:d2:
                    03:f1:8c:b0:aa:e2:34:e4:6b:f8:06:f6:23:8a:92:
                    43:a6:05:dc:e9:c7:a5:a8:06:d7:6e:91:52:72:47:
                    ab:ae:87:fe:b3:0f:04:87:6f:4b:22:29:e9:a9:06:
                    52:58:7d:03:16:d7:d5:31:44:b4:f1:51:44:a7:2a:
                    ba:5e:09:19:ec:4c:a2:e0:58:fe:0d:4e:b7:90:4d:
                    02:ac:2a:ad:99:14:65:3b:0a:3c:73:45:56:b2:0f:
                    10:25:24:51:79:57:1a:34:1a:10:6f:60:e0:fc:81:
                    db:ca:c2:e2:85:1b:4c:72:13:5c:9d:76:cc:d0:21:
                    33:31:56:82:8f:c5:57:b9:44:fd:8b:76:c1:b6:e4:
                    21:8b:35:9a:ee:54:74:9f:72:6b:19:84:d7:a2:3c:
                    a5:6e:11:0a:f1:93:04:2e:dd:7c:4c:7d:62:10:d4:
                    1b:8b:87:f6:ed:bf:12:b1:8b:f0:9a:7a:ee:02:94:
                    e1:3c:46:2b:7f:9c:54:fb:2e:61:c9:1c:ef:fc:de:
                    25:bc:2d:75:1b:1f:49:5e:44:3b:15:93:ad:c4:89:
                    d9:ae:3c:da:54:ef:d9:af:3a:16:cb:94:1b:6a:14:
                    e4:42:f9:75:33:46:6e:fb:40:bc:f8:82:36:cf:60:
                    f5:c2:a2:98:23:a7:2a:ae:c1:aa:22:f8:87:da:b7:
                    9c:a4:cf
                Exponent: 65537 (0x10001)
        X509v3 extensions:
            X509v3 Subject Key Identifier: 
                9D:8F:84:76:94:CD:07:FE:A3:E8:8B:D7:F9:D9:6E:EF:CA:75:51:7B
            X509v3 Authority Key Identifier: 
                keyid:9D:8F:84:76:94:CD:07:FE:A3:E8:8B:D7:F9:D9:6E:EF:CA:75:51:7B
                DirName:/C=BE/CN=txjsonrpc-test-ca
                serial:8D:D2:AF:37:F9:CA:92:0B

            X509v3 Basic Constraints: critical
                CA:TRUE
            Netscape Cert Type: 
                SSL CA, S/MIME CA
            X509v3 Issuer Alternative Name: 
                <EMPTY>

            Netscape Comment: 
                Test CA for txjsonrcp
            X509v3 Subject Alternative Name: 
                <EMPTY>

            X509v3 Key Usage: critical
                Certificate Sign, CRL Sign
    Signature Algorithm: sha1WithRSAEncryption
         06:82:86:81:a9:1b:7e:2d:ef:f5:fc:cc:d2:9d:d6:82:ad:d0:
         6f:7e:3d:b9:5c:b2:0f:3a:64:21:9a:fb:53:b2:93:81:dc:1a:
         24:fc:b8:30:57:a2:c7:71:0d:9c:1a:0b:8a:6c:89:52:8b:8a:
         f5:af:95:3e:b8:08:39:ee:36:50:ac:60:4d:df:2b:49:a2:72:
         f1:3f:12:3c:d9:55:56:a4:9a:77:2b:77:fa:16:b5:76:d9:f4:
         c4:51:6b:b9:fe:2f:a3:52:e8:64:80:49:22:6d:05:42:87:af:
         9d:85:6c:fa:c9:9b:48:39:7b:89:f5:a0:1e:ff:11:d3:9c:78:
         b1:b2:f6:4d:b1:e8:b3:98:23:2c:d4:20:e1:a1:01:3e:26:0a:
         5b:8e:eb:58:45:22:cf:e1:94:ad:84:40:b0:fb:ff:25:5f:31:
         9a:49:0b:36:ad:c6:1a:b0:42:60:40:e2:a2:3c:5a:36:41:89:
         fc:10:c4:60:ea:d4:85:7b:36:84:df:aa:81:cc:69:e7:52:ca:
         c1:46:b1:79:93:51:4f:24:84:42:14:3a:20:a0:6c:27:76:40:
         0f:96:7e:4e:c3:0c:37:b3:e3:73:49:86:58:31:00:1e:e7:0f:
         87:74:b6:4e:6e:1c:7d:87:a4:33:04:c9:76:ec:e5:3a:85:5f:
         a8:d1:ad:21:64:5e:c5:6a:df:b1:02:6e:65:a4:87:72:06:07:
         da:e5:f2:af:2b:a5:eb:18:80:67:83:a5:3c:e6:ed:d1:58:f9:
         90:5c:d6:e9:2f:76:c1:58:13:b8:bd:88:8a:f3:04:48:bb:42:
         8f:7f:c6:db:b4:30:3f:bb:6c:d5:47:e5:ae:8d:4b:da:92:a5:
         db:d3:6e:a8:9b:c2:6b:56:af:34:63:82:e6:78:f8:1f:54:d7:
         41:aa:a3:c9:7c:a6:83:41:bf:6e:33:7c:ae:e6:92:bd:da:27:
         b4:bc:e2:90:4f:33:1b:01:a1:cd:02:13:7a:31:ef:00:d6:9a:
         6e:38:6b:a7:cb:70:98:a8:0f:ff:1c:56:a8:b7:e6:d2:42:5a:
         bb:f4:78:27:71:13:d0:e8:43:eb:bc:2d:4f:e4:ea:4d:4f:76:
         7f:53:38:34:eb:13:e2:3d:c6:14:98:86:1c:ab:2c:0e:b7:68:
         2e:bd:63:a9:6a:8f:d5:22:2d:ab:13:d7:62:54:51:ff:5c:37:
         08:04:27:da:f9:57:77:05:18:73:88:5f:b0:c1:65:50:36:09:
         d6:c7:f5:ae:6e:3f:04:d1:84:3c:21:74:1d:bd:0a:fb:76:d0:
         13:2b:62:bb:24:48:43:89:d0:18:5c:b4:ad:ea:98:af:6d:fc:
         1c:6b:1f:06:64:54:23:88
-----BEGIN CERTIFICATE-----
MIIFwzCCA6ugAwIBAgIJAI3Srzf5ypILMA0GCSqGSIb3DQEBBQUAMCkxCzAJBgNV
BAYTAkJFMRowGAYDVQQDExF0eGpzb25ycGMtdGVzdC1jYTAeFw0xMjA2MjMxNTQ2
MzdaFw0yMjA2MjExNTQ2MzdaMCkxCzAJBgNVBAYTAkJFMRowGAYDVQQDExF0eGpz
b25ycGMtdGVzdC1jYTCCAiIwDQYJKoZIhvcNAQEBBQADggIPADCCAgoCggIBANEl
r3fFqHLPkLk5EPt7dSyh2mqV5UQM1iVLWH+7B4JZSVgyhSTMPnfb4adPyLXL7kU4
vbz743Y7iATKqzqjljtfk5wopmGX3KI/oJMrVmzP009qngXTHM3vdYAamLeSSRQz
uMR8c4x+g6WBolmMi6NRNm1orPLx7W9J2a96Y8FDMUK2x825eLczmHCSbJ4Eenvw
bTiH6wATF7nZ7LRmu1HT/YHjDohxI9KAKmHeqyUCR6nBa8lprtpHtkl0rKbhwXa6
bbHZaG4cN6jiGGA3tlgTbMeSfMZFjO/DgXMQ3C8x4rkFWp4ocFo+HbhocYHJ6P4f
w6AT+OQkErqRjhXSA/GMsKriNORr+Ab2I4qSQ6YF3OnHpagG126RUnJHq66H/rMP
BIdvSyIp6akGUlh9AxbX1TFEtPFRRKcqul4JGexMouBY/g1Ot5BNAqwqrZkUZTsK
PHNFVrIPECUkUXlXGjQaEG9g4PyB28rC4oUbTHITXJ12zNAhMzFWgo/FV7lE/Yt2
wbbkIYs1mu5UdJ9yaxmE16I8pW4RCvGTBC7dfEx9YhDUG4uH9u2/ErGL8Jp67gKU
4TxGK3+cVPsuYckc7/zeJbwtdRsfSV5EOxWTrcSJ2a482lTv2a86FsuUG2oU5EL5
dTNGbvtAvPiCNs9g9cKimCOnKq7BqiL4h9q3nKTPAgMBAAGjge0wgeowHQYDVR0O
BBYEFJ2PhHaUzQf+o+iL1/nZbu/KdVF7MFkGA1UdIwRSMFCAFJ2PhHaUzQf+o+iL
1/nZbu/KdVF7oS2kKzApMQswCQYDVQQGEwJCRTEaMBgGA1UEAxMRdHhqc29ucnBj
LXRlc3QtY2GCCQCN0q83+cqSCzAPBgNVHRMBAf8EBTADAQH/MBEGCWCGSAGG+EIB
AQQEAwIBBjAJBgNVHRIEAjAAMCQGCWCGSAGG+EIBDQQXFhVUZXN0IENBIGZvciB0
eGpzb25yY3AwCQYDVR0RBAIwADAOBgNVHQ8BAf8EBAMCAQYwDQYJKoZIhvcNAQEF
BQADggIBAAaChoGpG34t7/X8zNKd1oKt0G9+Pblcsg86ZCGa+1Oyk4HcGiT8uDBX
osdxDZwaC4psiVKLivWvlT64CDnuNlCsYE3fK0micvE/EjzZVVakmncrd/oWtXbZ
9MRRa7n+L6NS6GSASSJtBUKHr52FbPrJm0g5e4n1oB7/EdOceLGy9k2x6LOYIyzU
IOGhAT4mCluO61hFIs/hlK2EQLD7/yVfMZpJCzatxhqwQmBA4qI8WjZBifwQxGDq
1IV7NoTfqoHMaedSysFGsXmTUU8khEIUOiCgbCd2QA+Wfk7DDDez43NJhlgxAB7n
D4d0tk5uHH2HpDMEyXbs5TqFX6jRrSFkXsVq37ECbmWkh3IGB9rl8q8rpesYgGeD
pTzm7dFY+ZBc1ukvdsFYE7i9iIrzBEi7Qo9/xtu0MD+7bNVH5a6NS9qSpdvTbqib
wmtWrzRjguZ4+B9U10Gqo8l8poNBv24zfK7mkr3aJ7S84pBPMxsBoc0CE3ox7wDW
mm44a6fLcJioD/8cVqi35tJCWrv0eCdxE9DoQ+u8LU/k6k1Pdn9TODTrE+I9xhSY
hhyrLA63aC69Y6lqj9UiLasT12JUUf9cNwgEJ9r5V3cFGHOIX7DBZVA2CdbH9a5u
PwTRhDwhdB29Cvt20BMrYrskSEOJ0BhctK3qmK9t/BxrHwZkVCOI
-----END CERTIFICATE-----
