Certificate:
    Data:
        Version: 4 (0x3)
        Serial Number: 1 (0x1)
    Signature Algorithm: sha1WithRSAEncryption
        Issuer: CN=ca-false, C=BE, O=Gremwell bvba
        Validity
            Not Before: Jan  1 00:00:00 1970 GMT
            Not After : Jan 19 03:14:07 2038 GMT
        Subject: CN=www.example.com, C=BE, O=Gremwell bvba
        Subject Public Key Info:
            Public Key Algorithm: rsaEncryption
                Public-Key: (1024 bit)
                Modulus:
                    00:d4:ea:9a:52:20:d7:65:d1:37:91:13:cc:4a:29:
                    49:1a:8f:69:f7:ab:9a:df:22:7f:00:9c:64:ae:7c:
                    6c:09:ea:77:5b:b4:34:de:33:40:7f:5a:6d:83:a2:
                    64:ce:e5:d5:fe:8a:fb:e3:01:37:80:32:3b:34:b3:
                    e2:1d:a1:d6:3c:4a:6b:d1:23:20:34:bb:30:d5:da:
                    f8:e5:fc:fc:63:06:23:2c:b9:55:86:ad:50:12:76:
                    c8:73:db:66:77:f2:18:a5:43:44:35:0c:6b:94:16:
                    8f:df:0b:98:e3:73:16:18:21:4b:fd:ca:58:34:3f:
                    0c:20:d4:e6:a4:63:eb:bb:7b
                Exponent: 65537 (0x10001)
    Signature Algorithm: sha1WithRSAEncryption
         73:9e:d3:a2:88:fa:3c:f5:77:97:af:f4:29:67:97:5c:a7:2a:
         97:e5:4b:55:79:0e:93:6c:b7:c3:6c:1d:18:b3:a2:9a:79:36:
         0e:c7:3d:00:ba:e8:d3:d5:02:a2:10:1f:08:c0:cc:db:2e:a3:
         4e:78:0e:7d:81:45:77:c2:17:64:99:bf:36:5e:a0:f3:35:ce:
         e2:55:e7:80:df:3e:d1:83:34:97:c1:f0:22:2c:99:98:63:0d:
         e5:d9:99:20:fa:b8:db:3e:ad:df:f0:9d:0b:68:26:eb:f9:fb:
         0c:67:7f:5d:a6:ed:7b:26:4c:ac:be:73:05:fb:98:82:d6:7b:
         9d:5e
-----BEGIN CERTIFICATE-----
MIIB6zCCAVSgAwIBAwIBATANBgkqhkiG9w0BAQUFADA4MREwDwYDVQQDEwhjYS1m
YWxzZTELMAkGA1UEBhMCQkUxFjAUBgNVBAoTDUdyZW13ZWxsIGJ2YmEwHhcNNzAw
MTAxMDAwMDAwWhcNMzgwMTE5MDMxNDA3WjA/MRgwFgYDVQQDEw93d3cuZXhhbXBs
ZS5jb20xCzAJBgNVBAYTAkJFMRYwFAYDVQQKEw1HcmVtd2VsbCBidmJhMIGfMA0G
CSqGSIb3DQEBAQUAA4GNADCBiQKBgQDU6ppSINdl0TeRE8xKKUkaj2n3q5rfIn8A
nGSufGwJ6ndbtDTeM0B/Wm2DomTO5dX+ivvjATeAMjs0s+IdodY8SmvRIyA0uzDV
2vjl/PxjBiMsuVWGrVASdshz22Z38hilQ0Q1DGuUFo/fC5jjcxYYIUv9ylg0Pwwg
1OakY+u7ewIDAQABMA0GCSqGSIb3DQEBBQUAA4GBAHOe06KI+jz1d5ev9Clnl1yn
KpflS1V5DpNst8NsHRizopp5Ng7HPQC66NPVAqIQHwjAzNsuo054Dn2BRXfCF2SZ
vzZeoPM1zuJV54DfPtGDNJfB8CIsmZhjDeXZmSD6uNs+rd/wnQtoJuv5+wxnf12m
7XsmTKy+cwX7mILWe51e
-----END CERTIFICATE-----
Certificate:
    Data:
        Version: 4 (0x3)
        Serial Number: 1 (0x1)
    Signature Algorithm: sha1WithRSAEncryption
        Issuer: C=BE, CN=txjsonrpc-test-ca
        Validity
            Not Before: Jan  1 00:00:00 1970 GMT
            Not After : Jan 19 03:14:07 2038 GMT
        Subject: CN=ca-false, C=BE, O=Gremwell bvba
        Subject Public Key Info:
            Public Key Algorithm: rsaEncryption
                Public-Key: (1024 bit)
                Modulus:
                    00:c6:69:c2:d0:83:cf:6d:e7:0e:56:67:e0:39:c9:
                    f2:3f:a8:ce:fd:81:da:a7:f8:57:ca:f6:0c:6e:06:
                    a6:75:d3:11:4f:e4:3a:37:af:cc:c9:b9:f6:31:ba:
                    39:5d:bd:08:cb:23:93:50:87:1e:31:4d:39:cb:03:
                    aa:37:b3:ea:8c:4b:30:25:a2:67:ac:0b:77:89:8e:
                    3b:1b:6c:4c:0e:63:18:64:7a:eb:56:8a:67:56:7e:
                    f1:e8:08:d4:f7:07:87:94:cc:d7:34:d5:77:5b:5c:
                    46:85:6f:79:32:bc:7e:2c:b3:19:24:47:b7:55:38:
                    6c:da:9d:aa:f5:1d:d8:fe:e7
                Exponent: 65537 (0x10001)
        X509v3 extensions:
            X509v3 Basic Constraints: critical
                CA:FALSE
    Signature Algorithm: sha1WithRSAEncryption
         8d:37:68:64:c2:ad:fe:37:c7:d5:af:af:04:08:9f:9e:b2:4b:
         97:40:06:08:58:3e:66:4e:60:56:00:67:1d:54:55:cb:b4:2d:
         b8:cc:63:86:35:25:74:8d:13:2c:34:00:8a:5b:8d:30:e2:d0:
         9e:7a:cf:73:bd:9b:e8:5a:12:cb:90:24:ea:f0:f6:dc:20:58:
         a8:aa:0b:08:a9:61:c1:4f:0b:b4:46:27:81:a6:98:76:55:f9:
         8f:3d:2a:ab:6d:2a:16:73:74:a7:7a:c6:b2:05:8a:cf:1a:62:
         5c:06:32:cb:41:b6:b7:06:60:d2:12:4b:d5:3e:5c:b6:a6:eb:
         c4:71:e3:ca:03:a9:6c:6f:ca:01:36:17:84:41:e3:81:cf:b7:
         da:e1:98:16:70:2b:e1:d3:3f:27:b0:96:1b:88:fb:13:7b:5b:
         a5:50:db:c2:18:81:80:d6:d2:67:df:e6:a3:b9:3f:25:82:4f:
         74:bb:0c:af:4b:31:cf:a5:e8:b3:ec:bd:89:e9:cc:f1:52:29:
         84:c0:c4:1e:6a:4f:80:4e:8a:7b:3f:5c:97:82:3d:34:68:de:
         1d:24:a5:ba:5c:bc:24:60:93:d4:69:01:2d:1e:b3:2c:aa:eb:
         da:fc:cc:c9:75:45:7d:34:59:35:d0:2e:a2:aa:ba:09:ba:8e:
         ce:3d:93:fd:ee:90:26:51:22:93:86:a9:49:e4:b6:03:fa:2c:
         72:6a:dd:93:5b:c2:59:65:3c:ac:d4:51:81:07:5b:a1:8d:cc:
         4f:f3:8e:8c:8e:07:72:60:37:01:91:39:e8:29:b4:eb:68:34:
         52:2a:33:cc:0b:20:9f:2d:1b:00:08:fa:86:2d:16:aa:62:e5:
         8b:b8:db:0a:a4:b0:56:52:27:7b:ef:21:83:aa:22:39:07:c4:
         ba:ff:f6:0a:e3:c2:50:c0:5c:e0:c1:32:9c:db:83:2e:54:ff:
         5d:e4:b2:17:c0:de:bd:91:54:a6:79:e5:e5:66:dc:82:4e:95:
         d3:f1:6c:00:a8:2b:f1:03:f9:c7:69:5c:32:43:bd:55:43:13:
         45:36:d6:d6:37:0b:23:6c:4d:d8:94:20:1c:c9:9d:9d:ac:5f:
         3c:51:18:9e:92:d1:21:bc:8d:4d:71:d2:14:09:4f:c6:47:7d:
         28:e6:4b:81:79:2f:53:ee:3d:3a:23:db:3a:fa:d6:df:15:9e:
         ad:e5:bd:81:57:c9:5f:43:79:33:75:2d:20:90:e4:b9:ff:69:
         57:36:8c:57:99:34:63:4f:63:2f:98:89:71:a5:6d:4b:2e:53:
         12:52:ca:bb:5d:93:e3:ee:63:b1:e5:f1:3b:5c:6f:73:27:5a:
         0f:5c:b6:34:02:e1:f2:9f
-----BEGIN CERTIFICATE-----
MIIDaDCCAVCgAwIBAwIBATANBgkqhkiG9w0BAQUFADApMQswCQYDVQQGEwJCRTEa
MBgGA1UEAxMRdHhqc29ucnBjLXRlc3QtY2EwHhcNNzAwMTAxMDAwMDAwWhcNMzgw
MTE5MDMxNDA3WjA4MREwDwYDVQQDEwhjYS1mYWxzZTELMAkGA1UEBhMCQkUxFjAU
BgNVBAoTDUdyZW13ZWxsIGJ2YmEwgZ8wDQYJKoZIhvcNAQEBBQADgY0AMIGJAoGB
AMZpwtCDz23nDlZn4DnJ8j+ozv2B2qf4V8r2DG4GpnXTEU/kOjevzMm59jG6OV29
CMsjk1CHHjFNOcsDqjez6oxLMCWiZ6wLd4mOOxtsTA5jGGR661aKZ1Z+8egI1PcH
h5TM1zTVd1tcRoVveTK8fiyzGSRHt1U4bNqdqvUd2P7nAgMBAAGjEDAOMAwGA1Ud
EwEB/wQCMAAwDQYJKoZIhvcNAQEFBQADggIBAI03aGTCrf43x9WvrwQIn56yS5dA
BghYPmZOYFYAZx1UVcu0LbjMY4Y1JXSNEyw0AIpbjTDi0J56z3O9m+haEsuQJOrw
9twgWKiqCwipYcFPC7RGJ4GmmHZV+Y89KqttKhZzdKd6xrIFis8aYlwGMstBtrcG
YNISS9U+XLam68Rx48oDqWxvygE2F4RB44HPt9rhmBZwK+HTPyewlhuI+xN7W6VQ
28IYgYDW0mff5qO5PyWCT3S7DK9LMc+l6LPsvYnpzPFSKYTAxB5qT4BOins/XJeC
PTRo3h0kpbpcvCRgk9RpAS0esyyq69r8zMl1RX00WTXQLqKqugm6js49k/3ukCZR
IpOGqUnktgP6LHJq3ZNbwlllPKzUUYEHW6GNzE/zjoyOB3JgNwGROegptOtoNFIq
M8wLIJ8tGwAI+oYtFqpi5Yu42wqksFZSJ3vvIYOqIjkHxLr/9grjwlDAXODBMpzb
gy5U/13kshfA3r2RVKZ55eVm3IJOldPxbACoK/ED+cdpXDJDvVVDE0U21tY3CyNs
TdiUIBzJnZ2sXzxRGJ6S0SG8jU1x0hQJT8ZHfSjmS4F5L1PuPToj2zr61t8Vnq3l
vYFXyV9DeTN1LSCQ5Ln/aVc2jFeZNGNPYy+YiXGlbUsuUxJSyrtdk+PuY7Hl8Ttc
b3MnWg9ctjQC4fKf
-----END CERTIFICATE-----
