Certificate:
    Data:
        Version: 4 (0x3)
        Serial Number: 1 (0x1)
    Signature Algorithm: sha1WithRSAEncryption
        Issuer: CN=txjsonrpc-pyserver, C=BE, O=Gremwell bvba
        Validity
            Not Before: Jan  1 00:00:00 1970 GMT
            Not After : Jan 19 03:14:07 2038 GMT
        Subject: CN=txjsonrpc-pyserver, C=BE, O=Gremwell bvba
        Subject Public Key Info:
            Public Key Algorithm: rsaEncryption
                Public-Key: (1024 bit)
                Modulus:
                    00:cf:98:91:ee:29:bf:29:a7:30:17:4f:4c:3a:52:
                    f2:ee:1e:7f:7d:2d:fb:15:9d:54:88:c0:85:b3:2e:
                    b0:2c:c9:de:30:50:58:a9:66:41:08:b9:74:89:2d:
                    6b:e1:52:c2:f0:88:ae:e0:ab:a7:43:f6:91:7f:26:
                    8b:2a:55:63:fd:a2:72:96:1d:6c:89:a2:38:61:9e:
                    46:ad:84:d5:1b:a6:ca:30:73:51:af:c9:83:86:c9:
                    57:34:d8:49:84:66:46:ad:32:f8:c8:e6:eb:a1:65:
                    e0:16:c5:b9:31:a5:4e:c1:1e:ee:5b:03:79:d7:45:
                    5f:88:2f:a0:bd:26:9d:23:0b
                Exponent: 65537 (0x10001)
    Signature Algorithm: sha1WithRSAEncryption
         5d:d9:dd:6a:bf:0f:6c:02:5c:10:ba:b5:78:e3:d3:75:5d:95:
         97:bb:dd:32:fe:3a:49:bb:14:34:62:8a:64:3e:cc:c8:35:3b:
         39:aa:5d:08:bd:b5:82:94:ac:f5:88:70:44:de:91:71:bd:a5:
         cd:82:42:f8:5f:dd:7e:87:40:95:12:fe:75:f9:80:a5:31:dc:
         6d:12:d3:f0:ff:7c:81:19:3b:ab:3c:00:ac:4e:64:a9:a5:34:
         67:2c:16:4b:a3:dd:d6:0f:7b:03:e4:34:b5:d3:7c:0e:da:f5:
         a3:8e:b1:23:0c:53:09:8c:74:75:1d:6e:17:b6:e2:c3:40:eb:
         d9:0d
-----BEGIN CERTIFICATE-----
MIIB+DCCAWGgAwIBAwIBATANBgkqhkiG9w0BAQUFADBCMRswGQYDVQQDExJ0eGpz
b25ycGMtcHlzZXJ2ZXIxCzAJBgNVBAYTAkJFMRYwFAYDVQQKEw1HcmVtd2VsbCBi
dmJhMB4XDTcwMDEwMTAwMDAwMFoXDTM4MDExOTAzMTQwN1owQjEbMBkGA1UEAxMS
dHhqc29ucnBjLXB5c2VydmVyMQswCQYDVQQGEwJCRTEWMBQGA1UEChMNR3JlbXdl
bGwgYnZiYTCBnzANBgkqhkiG9w0BAQEFAAOBjQAwgYkCgYEAz5iR7im/KacwF09M
OlLy7h5/fS37FZ1UiMCFsy6wLMneMFBYqWZBCLl0iS1r4VLC8Iiu4KunQ/aRfyaL
KlVj/aJylh1siaI4YZ5GrYTVG6bKMHNRr8mDhslXNNhJhGZGrTL4yObroWXgFsW5
MaVOwR7uWwN510VfiC+gvSadIwsCAwEAATANBgkqhkiG9w0BAQUFAAOBgQBd2d1q
vw9sAlwQurV449N1XZWXu90y/jpJuxQ0YopkPszINTs5ql0IvbWClKz1iHBE3pFx
vaXNgkL4X91+h0CVEv51+YClMdxtEtPw/3yBGTurPACsTmSppTRnLBZLo93WD3sD
5DS103wO2vWjjrEjDFMJjHR1HW4XtuLDQOvZDQ==
-----END CERTIFICATE-----
