Certificate:
    Data:
        Version: 4 (0x3)
        Serial Number: 1 (0x1)
    Signature Algorithm: sha1WithRSAEncryption
        Issuer: C=BE, CN=txjsonrpc-test-ca
        Validity
            Not Before: Jan  1 00:00:00 1970 GMT
            Not After : Jan 19 03:14:07 2038 GMT
        Subject: CN=ca-none, C=BE, O=Gremwell bvba
        Subject Public Key Info:
            Public Key Algorithm: rsaEncryption
                Public-Key: (1024 bit)
                Modulus:
                    00:c1:d5:b5:cf:33:40:5e:67:77:ee:a6:3d:02:18:
                    68:93:0d:45:5f:da:57:a3:f8:8b:87:5c:f6:1d:f5:
                    78:bc:b4:4b:10:9a:2b:7d:1a:6d:e6:00:60:5d:19:
                    9e:25:65:72:69:50:01:55:9a:9e:53:e8:c0:8c:de:
                    d8:c5:2a:70:cc:0f:de:27:06:b1:aa:85:e0:12:3b:
                    8a:d0:2e:3a:34:18:dc:36:37:13:9a:9c:53:0a:96:
                    5e:d2:f9:1a:7a:21:ef:7e:74:07:86:28:8d:6c:83:
                    41:7b:c4:5b:04:c9:0a:e6:9c:35:80:9e:f4:06:37:
                    07:57:bc:e2:fd:7d:05:30:6d
                Exponent: 65537 (0x10001)
    Signature Algorithm: sha1WithRSAEncryption
         5b:e6:44:d6:8e:69:5c:29:3f:32:9d:e2:6e:87:2e:e7:2a:89:
         66:67:43:13:17:0d:ad:e2:4c:e4:58:03:c9:46:b1:04:09:1f:
         16:51:5b:8f:1b:cd:14:eb:05:6f:9a:3b:5a:d2:92:c0:d6:15:
         1d:b4:e7:11:e5:20:20:a0:95:d8:e4:b7:27:0c:79:ed:ce:2a:
         54:50:59:6a:9e:ae:b7:d1:9d:89:7b:2b:78:a3:c3:e6:81:02:
         bd:fe:2e:63:2b:05:14:fb:08:90:da:97:f0:a3:cb:b8:dd:b1:
         c4:a3:54:e1:41:1a:71:40:f9:8e:31:e0:98:1a:27:41:f9:d8:
         6a:44:94:08:bc:8d:68:44:1c:db:a2:24:15:aa:f5:f0:c3:3a:
         bb:bb:22:63:2b:13:9c:87:03:2b:ee:5f:01:a6:f9:9c:62:d5:
         51:8a:53:90:82:04:db:b7:da:ed:67:93:4f:e1:92:e0:46:c6:
         12:a1:a4:da:2f:5b:b1:67:9b:07:5a:1e:a1:c9:8a:21:fe:a8:
         18:fc:9f:96:83:47:4b:c7:01:c8:b0:3e:83:b9:4f:8d:98:b8:
         b9:22:bb:5f:c7:ca:ab:4d:14:af:12:a7:17:ed:e8:53:bb:c1:
         a1:47:68:d9:ba:63:b6:56:f8:51:3c:34:a3:1d:35:bd:ae:ab:
         f9:40:d8:95:f9:41:5a:e2:e8:8c:85:12:2f:27:bc:5f:da:43:
         20:d4:0e:61:23:c9:a6:20:e2:63:96:d5:07:62:ef:f6:fe:cf:
         9a:f6:b7:62:ab:c5:ca:64:9d:82:76:e0:bd:14:0e:bb:36:7f:
         d5:35:5c:95:a1:6e:11:d0:f5:14:ab:78:77:bc:60:7f:2e:64:
         a5:bb:cd:f6:ac:8b:2c:43:23:a8:e5:34:7d:ce:cb:9b:29:23:
         99:e9:b9:00:9f:84:2b:e8:d4:92:63:64:ad:d8:01:62:50:aa:
         be:d9:b4:53:bb:68:16:c0:1d:48:ab:f1:6b:f5:8a:3d:c6:0e:
         57:d8:d4:0d:2e:b0:a1:c5:c3:f7:cd:35:ac:6e:98:0b:74:67:
         7f:20:f0:4d:19:9a:e6:63:da:bd:2e:fc:12:bf:7b:de:69:2b:
         bc:e3:63:47:ee:dd:e1:e3:92:77:7d:80:09:54:4b:c7:9f:12:
         ce:02:ef:4b:5b:2e:cb:0b:c2:1d:79:5b:4a:90:94:52:3a:25:
         9a:51:e4:6f:f6:4b:ea:6a:9f:d7:67:34:03:8c:09:0c:78:1b:
         3f:67:26:04:6c:80:fa:f4:e8:7e:82:d4:c1:9c:65:4e:5b:ef:
         04:b6:be:bb:2b:a4:62:01:a3:7e:95:32:45:8b:77:64:63:91:
         71:35:7f:de:ee:f8:df:88
-----BEGIN CERTIFICATE-----
MIIDVTCCAT2gAwIBAwIBATANBgkqhkiG9w0BAQUFADApMQswCQYDVQQGEwJCRTEa
MBgGA1UEAxMRdHhqc29ucnBjLXRlc3QtY2EwHhcNNzAwMTAxMDAwMDAwWhcNMzgw
MTE5MDMxNDA3WjA3MRAwDgYDVQQDEwdjYS1ub25lMQswCQYDVQQGEwJCRTEWMBQG
A1UEChMNR3JlbXdlbGwgYnZiYTCBnzANBgkqhkiG9w0BAQEFAAOBjQAwgYkCgYEA
wdW1zzNAXmd37qY9Ahhokw1FX9pXo/iLh1z2HfV4vLRLEJorfRpt5gBgXRmeJWVy
aVABVZqeU+jAjN7YxSpwzA/eJwaxqoXgEjuK0C46NBjcNjcTmpxTCpZe0vkaeiHv
fnQHhiiNbINBe8RbBMkK5pw1gJ70BjcHV7zi/X0FMG0CAwEAATANBgkqhkiG9w0B
AQUFAAOCAgEAW+ZE1o5pXCk/Mp3ibocu5yqJZmdDExcNreJM5FgDyUaxBAkfFlFb
jxvNFOsFb5o7WtKSwNYVHbTnEeUgIKCV2OS3Jwx57c4qVFBZap6ut9GdiXsreKPD
5oECvf4uYysFFPsIkNqX8KPLuN2xxKNU4UEacUD5jjHgmBonQfnYakSUCLyNaEQc
26IkFar18MM6u7siYysTnIcDK+5fAab5nGLVUYpTkIIE27fa7WeTT+GS4EbGEqGk
2i9bsWebB1oeocmKIf6oGPyfloNHS8cByLA+g7lPjZi4uSK7X8fKq00UrxKnF+3o
U7vBoUdo2bpjtlb4UTw0ox01va6r+UDYlflBWuLojIUSLye8X9pDINQOYSPJpiDi
Y5bVB2Lv9v7Pmva3YqvFymSdgnbgvRQOuzZ/1TVclaFuEdD1FKt4d7xgfy5kpbvN
9qyLLEMjqOU0fc7Lmykjmem5AJ+EK+jUkmNkrdgBYlCqvtm0U7toFsAdSKvxa/WK
PcYOV9jUDS6wocXD9801rG6YC3RnfyDwTRma5mPavS78Er973mkrvONjR+7d4eOS
d32ACVRLx58SzgLvS1suywvCHXlbSpCUUjolmlHkb/ZL6mqf12c0A4wJDHgbP2cm
BGyA+vTofoLUwZxlTlvvBLa+uyukYgGjfpUyRYt3ZGORcTV/3u7434g=
-----END CERTIFICATE-----
Certificate:
    Data:
        Version: 3 (0x2)
        Serial Number: 10219423159405941259 (0x8dd2af37f9ca920b)
    Signature Algorithm: sha1WithRSAEncryption
        Issuer: C=BE, CN=txjsonrpc-test-ca
        Validity
            Not Before: Jun 23 15:46:37 2012 GMT
            Not After : Jun 21 15:46:37 2022 GMT
        Subject: C=BE, CN=txjsonrpc-test-ca
        Subject Public Key Info:
            Public Key Algorithm: rsaEncryption
                Public-Key: (4096 bit)
                Modulus:
                    00:d1:25:af:77:c5:a8:72:cf:90:b9:39:10:fb:7b:
                    75:2c:a1:da:6a:95:e5:44:0c:d6:25:4b:58:7f:bb:
                    07:82:59:49:58:32:85:24:cc:3e:77:db:e1:a7:4f:
                    c8:b5:cb:ee:45:38:bd:bc:fb:e3:76:3b:88:04:ca:
                    ab:3a:a3:96:3b:5f:93:9c:28:a6:61:97:dc:a2:3f:
                    a0:93:2b:56:6c:cf:d3:4f:6a:9e:05:d3:1c:cd:ef:
                    75:80:1a:98:b7:92:49:14:33:b8:c4:7c:73:8c:7e:
                    83:a5:81:a2:59:8c:8b:a3:51:36:6d:68:ac:f2:f1:
                    ed:6f:49:d9:af:7a:63:c1:43:31:42:b6:c7:cd:b9:
                    78:b7:33:98:70:92:6c:9e:04:7a:7b:f0:6d:38:87:
                    eb:00:13:17:b9:d9:ec:b4:66:bb:51:d3:fd:81:e3:
                    0e:88:71:23:d2:80:2a:61:de:ab:25:02:47:a9:c1:
                    6b:c9:69:ae:da:47:b6:49:74:ac:a6:e1:c1:76:ba:
                    6d:b1:d9:68:6e:1c:37:a8:e2:18:60:37:b6:58:13:
                    6c:c7:92:7c:c6:45:8c:ef:c3:81:73:10:dc:2f:31:
                    e2:b9:05:5a:9e:28:70:5a:3e:1d:b8:68:71:81:c9:
                    e8:fe:1f:c3:a0:13:f8:e4:24:12:ba:91:8e:15:d2:
                    03:f1:8c:b0:aa:e2:34:e4:6b:f8:06:f6:23:8a:92:
                    43:a6:05:dc:e9:c7:a5:a8:06:d7:6e:91:52:72:47:
                    ab:ae:87:fe:b3:0f:04:87:6f:4b:22:29:e9:a9:06:
                    52:58:7d:03:16:d7:d5:31:44:b4:f1:51:44:a7:2a:
                    ba:5e:09:19:ec:4c:a2:e0:58:fe:0d:4e:b7:90:4d:
                    02:ac:2a:ad:99:14:65:3b:0a:3c:73:45:56:b2:0f:
                    10:25:24:51:79:57:1a:34:1a:10:6f:60:e0:fc:81:
                    db:ca:c2:e2:85:1b:4c:72:13:5c:9d:76:cc:d0:21:
                    33:31:56:82:8f:c5:57:b9:44:fd:8b:76:c1:b6:e4:
                    21:8b:35:9a:ee:54:74:9f:72:6b:19:84:d7:a2:3c:
                    a5:6e:11:0a:f1:93:04:2e:dd:7c:4c:7d:62:10:d4:
                    1b:8b:87:f6:ed:bf:12:b1:8b:f0:9a:7a:ee:02:94:
                    e1:3c:46:2b:7f:9c:54:fb:2e:61:c9:1c:ef:fc:de:
                    25:bc:2d:75:1b:1f:49:5e:44:3b:15:93:ad:c4:89:
                    d9:ae:3c:da:54:ef:d9:af:3a:16:cb:94:1b:6a:14:
                    e4:42:f9:75:33:46:6e:fb:40:bc:f8:82:36:cf:60:
                    f5:c2:a2:98:23:a7:2a:ae:c1:aa:22:f8:87:da:b7:
                    9c:a4:cf
                Exponent: 65537 (0x10001)
        X509v3 extensions:
            X509v3 Subject Key Identifier: 
                9D:8F:84:76:94:CD:07:FE:A3:E8:8B:D7:F9:D9:6E:EF:CA:75:51:7B
            X509v3 Authority Key Identifier: 
                keyid:9D:8F:84:76:94:CD:07:FE:A3:E8:8B:D7:F9:D9:6E:EF:CA:75:51:7B
                DirName:/C=BE/CN=txjsonrpc-test-ca
                serial:8D:D2:AF:37:F9:CA:92:0B

            X509v3 Basic Constraints: critical
                CA:TRUE
            Netscape Cert Type: 
                SSL CA, S/MIME CA
            X509v3 Issuer Alternative Name: 
                <EMPTY>

            Netscape Comment: 
                Test CA for txjsonrcp
            X509v3 Subject Alternative Name: 
                <EMPTY>

            X509v3 Key Usage: critical
                Certificate Sign, CRL Sign
    Signature Algorithm: sha1WithRSAEncryption
         06:82:86:81:a9:1b:7e:2d:ef:f5:fc:cc:d2:9d:d6:82:ad:d0:
         6f:7e:3d:b9:5c:b2:0f:3a:64:21:9a:fb:53:b2:93:81:dc:1a:
         24:fc:b8:30:57:a2:c7:71:0d:9c:1a:0b:8a:6c:89:52:8b:8a:
         f5:af:95:3e:b8:08:39:ee:36:50:ac:60:4d:df:2b:49:a2:72:
         f1:3f:12:3c:d9:55:56:a4:9a:77:2b:77:fa:16:b5:76:d9:f4:
         c4:51:6b:b9:fe:2f:a3:52:e8:64:80:49:22:6d:05:42:87:af:
         9d:85:6c:fa:c9:9b:48:39:7b:89:f5:a0:1e:ff:11:d3:9c:78:
         b1:b2:f6:4d:b1:e8:b3:98:23:2c:d4:20:e1:a1:01:3e:26:0a:
         5b:8e:eb:58:45:22:cf:e1:94:ad:84:40:b0:fb:ff:25:5f:31:
         9a:49:0b:36:ad:c6:1a:b0:42:60:40:e2:a2:3c:5a:36:41:89:
         fc:10:c4:60:ea:d4:85:7b:36:84:df:aa:81:cc:69:e7:52:ca:
         c1:46:b1:79:93:51:4f:24:84:42:14:3a:20:a0:6c:27:76:40:
         0f:96:7e:4e:c3:0c:37:b3:e3:73:49:86:58:31:00:1e:e7:0f:
         87:74:b6:4e:6e:1c:7d:87:a4:33:04:c9:76:ec:e5:3a:85:5f:
         a8:d1:ad:21:64:5e:c5:6a:df:b1:02:6e:65:a4:87:72:06:07:
         da:e5:f2:af:2b:a5:eb:18:80:67:83:a5:3c:e6:ed:d1:58:f9:
         90:5c:d6:e9:2f:76:c1:58:13:b8:bd:88:8a:f3:04:48:bb:42:
         8f:7f:c6:db:b4:30:3f:bb:6c:d5:47:e5:ae:8d:4b:da:92:a5:
         db:d3:6e:a8:9b:c2:6b:56:af:34:63:82:e6:78:f8:1f:54:d7:
         41:aa:a3:c9:7c:a6:83:41:bf:6e:33:7c:ae:e6:92:bd:da:27:
         b4:bc:e2:90:4f:33:1b:01:a1:cd:02:13:7a:31:ef:00:d6:9a:
         6e:38:6b:a7:cb:70:98:a8:0f:ff:1c:56:a8:b7:e6:d2:42:5a:
         bb:f4:78:27:71:13:d0:e8:43:eb:bc:2d:4f:e4:ea:4d:4f:76:
         7f:53:38:34:eb:13:e2:3d:c6:14:98:86:1c:ab:2c:0e:b7:68:
         2e:bd:63:a9:6a:8f:d5:22:2d:ab:13:d7:62:54:51:ff:5c:37:
         08:04:27:da:f9:57:77:05:18:73:88:5f:b0:c1:65:50:36:09:
         d6:c7:f5:ae:6e:3f:04:d1:84:3c:21:74:1d:bd:0a:fb:76:d0:
         13:2b:62:bb:24:48:43:89:d0:18:5c:b4:ad:ea:98:af:6d:fc:
         1c:6b:1f:06:64:54:23:88
-----BEGIN CERTIFICATE-----
MIIFwzCCA6ugAwIBAgIJAI3Srzf5ypILMA0GCSqGSIb3DQEBBQUAMCkxCzAJBgNV
BAYTAkJFMRowGAYDVQQDExF0eGpzb25ycGMtdGVzdC1jYTAeFw0xMjA2MjMxNTQ2
MzdaFw0yMjA2MjExNTQ2MzdaMCkxCzAJBgNVBAYTAkJFMRowGAYDVQQDExF0eGpz
b25ycGMtdGVzdC1jYTCCAiIwDQYJKoZIhvcNAQEBBQADggIPADCCAgoCggIBANEl
r3fFqHLPkLk5EPt7dSyh2mqV5UQM1iVLWH+7B4JZSVgyhSTMPnfb4adPyLXL7kU4
vbz743Y7iATKqzqjljtfk5wopmGX3KI/oJMrVmzP009qngXTHM3vdYAamLeSSRQz
uMR8c4x+g6WBolmMi6NRNm1orPLx7W9J2a96Y8FDMUK2x825eLczmHCSbJ4Eenvw
bTiH6wATF7nZ7LRmu1HT/YHjDohxI9KAKmHeqyUCR6nBa8lprtpHtkl0rKbhwXa6
bbHZaG4cN6jiGGA3tlgTbMeSfMZFjO/DgXMQ3C8x4rkFWp4ocFo+HbhocYHJ6P4f
w6AT+OQkErqRjhXSA/GMsKriNORr+Ab2I4qSQ6YF3OnHpagG126RUnJHq66H/rMP
BIdvSyIp6akGUlh9AxbX1TFEtPFRRKcqul4JGexMouBY/g1Ot5BNAqwqrZkUZTsK
PHNFVrIPECUkUXlXGjQaEG9g4PyB28rC4oUbTHITXJ12zNAhMzFWgo/FV7lE/Yt2
wbbkIYs1mu5UdJ9yaxmE16I8pW4RCvGTBC7dfEx9YhDUG4uH9u2/ErGL8Jp67gKU
4TxGK3+cVPsuYckc7/zeJbwtdRsfSV5EOxWTrcSJ2a482lTv2a86FsuUG2oU5EL5
dTNGbvtAvPiCNs9g9cKimCOnKq7BqiL4h9q3nKTPAgMBAAGjge0wgeowHQYDVR0O
BBYEFJ2PhHaUzQf+o+iL1/nZbu/KdVF7MFkGA1UdIwRSMFCAFJ2PhHaUzQf+o+iL
1/nZbu/KdVF7oS2kKzApMQswCQYDVQQGEwJCRTEaMBgGA1UEAxMRdHhqc29ucnBj
LXRlc3QtY2GCCQCN0q83+cqSCzAPBgNVHRMBAf8EBTADAQH/MBEGCWCGSAGG+EIB
AQQEAwIBBjAJBgNVHRIEAjAAMCQGCWCGSAGG+EIBDQQXFhVUZXN0IENBIGZvciB0
eGpzb25yY3AwCQYDVR0RBAIwADAOBgNVHQ8BAf8EBAMCAQYwDQYJKoZIhvcNAQEF
BQADggIBAAaChoGpG34t7/X8zNKd1oKt0G9+Pblcsg86ZCGa+1Oyk4HcGiT8uDBX
osdxDZwaC4psiVKLivWvlT64CDnuNlCsYE3fK0micvE/EjzZVVakmncrd/oWtXbZ
9MRRa7n+L6NS6GSASSJtBUKHr52FbPrJm0g5e4n1oB7/EdOceLGy9k2x6LOYIyzU
IOGhAT4mCluO61hFIs/hlK2EQLD7/yVfMZpJCzatxhqwQmBA4qI8WjZBifwQxGDq
1IV7NoTfqoHMaedSysFGsXmTUU8khEIUOiCgbCd2QA+Wfk7DDDez43NJhlgxAB7n
D4d0tk5uHH2HpDMEyXbs5TqFX6jRrSFkXsVq37ECbmWkh3IGB9rl8q8rpesYgGeD
pTzm7dFY+ZBc1ukvdsFYE7i9iIrzBEi7Qo9/xtu0MD+7bNVH5a6NS9qSpdvTbqib
wmtWrzRjguZ4+B9U10Gqo8l8poNBv24zfK7mkr3aJ7S84pBPMxsBoc0CE3ox7wDW
mm44a6fLcJioD/8cVqi35tJCWrv0eCdxE9DoQ+u8LU/k6k1Pdn9TODTrE+I9xhSY
hhyrLA63aC69Y6lqj9UiLasT12JUUf9cNwgEJ9r5V3cFGHOIX7DBZVA2CdbH9a5u
PwTRhDwhdB29Cvt20BMrYrskSEOJ0BhctK3qmK9t/BxrHwZkVCOI
-----END CERTIFICATE-----
