Certificate:
    Data:
        Version: 4 (0x3)
        Serial Number: 1 (0x1)
    Signature Algorithm: sha1WithRSAEncryption
        Issuer: C=BE, CN=txjsonrpc-test-ca
        Validity
            Not Before: Jan  1 00:00:00 1970 GMT
            Not After : Jan 19 03:14:07 2038 GMT
        Subject: CN=ca-false, C=BE, O=Gremwell bvba
        Subject Public Key Info:
            Public Key Algorithm: rsaEncryption
                Public-Key: (1024 bit)
                Modulus:
                    00:e8:54:50:92:64:bd:9e:78:98:84:5f:12:37:65:
                    25:28:c3:6f:72:f5:36:6e:ef:86:62:82:5f:a7:30:
                    25:3e:e9:41:85:ef:99:4b:66:60:f1:ee:1d:f2:f9:
                    30:f8:2d:b9:f3:cc:08:c5:27:58:b2:fd:b0:52:a0:
                    da:30:5e:ef:ee:e3:b4:3f:ee:6b:09:e3:0f:6b:5b:
                    b0:8d:cd:9f:cf:5e:43:20:a0:a1:c0:90:91:cf:c1:
                    b7:f6:38:ee:02:9f:1c:2b:75:9e:45:9f:b0:64:53:
                    05:04:bb:d2:9e:da:4b:67:64:06:5d:e0:79:69:e8:
                    bb:ea:6a:97:e6:68:17:b5:f1
                Exponent: 65537 (0x10001)
        X509v3 extensions:
            X509v3 Basic Constraints: critical
                CA:FALSE
    Signature Algorithm: sha1WithRSAEncryption
         54:4d:5b:52:f6:7f:35:e0:72:33:05:50:14:43:fa:51:9f:72:
         c1:b1:8d:4a:51:4e:93:49:95:d1:78:68:0c:80:c6:5a:7d:cb:
         2b:f6:ad:1a:2d:8e:f2:0a:0f:1a:1d:0b:59:e1:7b:48:82:16:
         57:8b:10:02:f2:89:7c:b1:b9:71:8e:a2:15:0d:0c:41:a3:4b:
         a1:bf:d0:ea:4d:98:9a:cb:1c:b6:05:c4:3f:f7:7b:b5:12:32:
         b8:14:3c:5f:12:d3:44:fd:f5:1b:ac:48:73:a4:5d:5a:b3:c0:
         f3:37:7b:d6:4b:e7:1d:a1:b8:29:a9:71:70:3d:85:48:56:58:
         27:d0:7f:48:30:bc:2c:e0:88:0b:51:70:c6:a7:6e:13:fd:b5:
         e0:40:56:04:5b:5d:6b:31:54:b4:5a:05:46:fb:a3:04:c0:6b:
         58:25:2b:48:2e:9d:02:00:19:72:4f:0a:04:a3:fa:95:21:f2:
         01:9b:f1:f7:f3:84:30:c1:83:e3:5a:3a:c8:5a:c0:81:10:47:
         38:df:62:42:e5:af:24:0a:f6:e0:4b:d0:d2:0d:c8:35:02:ea:
         c9:5f:7c:33:5d:4c:6a:4f:1c:76:ad:06:06:2a:90:cf:79:29:
         cd:5d:4e:97:39:c0:ab:87:8f:84:c0:f7:6b:eb:ce:d2:1b:c6:
         a4:48:ab:62:7e:c4:f6:be:1a:df:17:90:7d:40:57:01:e5:39:
         ed:00:9e:47:35:0d:29:6a:11:26:c0:9e:f0:17:77:64:86:49:
         55:cb:b5:11:a3:80:49:25:62:e0:1a:3a:97:a1:55:aa:87:76:
         96:68:26:60:2e:19:56:2b:9b:b2:8c:63:71:50:66:d1:02:03:
         73:36:e9:d7:c5:03:1b:f6:a1:f0:97:b9:c1:91:9e:d5:19:b2:
         52:66:78:2f:4f:fd:01:fe:2b:c7:49:fa:44:33:19:82:67:df:
         eb:95:53:88:81:83:d5:f1:dc:d2:ec:3e:0f:e6:0e:a2:a5:dd:
         d2:d4:bc:7b:68:a2:c6:c5:c9:ce:38:34:2a:52:8f:f1:60:d5:
         37:fd:32:12:15:e2:23:7e:d4:b6:a9:68:64:31:f8:bd:9d:de:
         f6:64:d7:94:3b:a0:ad:74:8e:4b:7f:34:12:d7:67:f1:e9:4a:
         78:17:61:5f:87:38:2b:34:d7:ee:e8:12:c2:be:d6:e1:06:44:
         d0:f3:01:23:84:d4:b2:53:b1:a6:9e:8f:83:7b:6c:de:34:4f:
         20:61:ae:21:d0:a3:f6:74:fa:6d:29:03:71:01:78:a2:d3:78:
         e6:65:1a:ea:5a:53:12:5b:be:06:57:0e:13:45:b4:ac:9f:86:
         8c:e4:c5:79:64:5f:2e:84
-----BEGIN CERTIFICATE-----
MIIDaDCCAVCgAwIBAwIBATANBgkqhkiG9w0BAQUFADApMQswCQYDVQQGEwJCRTEa
MBgGA1UEAxMRdHhqc29ucnBjLXRlc3QtY2EwHhcNNzAwMTAxMDAwMDAwWhcNMzgw
MTE5MDMxNDA3WjA4MREwDwYDVQQDEwhjYS1mYWxzZTELMAkGA1UEBhMCQkUxFjAU
BgNVBAoTDUdyZW13ZWxsIGJ2YmEwgZ8wDQYJKoZIhvcNAQEBBQADgY0AMIGJAoGB
AOhUUJJkvZ54mIRfEjdlJSjDb3L1Nm7vhmKCX6cwJT7pQYXvmUtmYPHuHfL5MPgt
ufPMCMUnWLL9sFKg2jBe7+7jtD/uawnjD2tbsI3Nn89eQyCgocCQkc/Bt/Y47gKf
HCt1nkWfsGRTBQS70p7aS2dkBl3geWnou+pql+ZoF7XxAgMBAAGjEDAOMAwGA1Ud
EwEB/wQCMAAwDQYJKoZIhvcNAQEFBQADggIBAFRNW1L2fzXgcjMFUBRD+lGfcsGx
jUpRTpNJldF4aAyAxlp9yyv2rRotjvIKDxodC1nhe0iCFleLEALyiXyxuXGOohUN
DEGjS6G/0OpNmJrLHLYFxD/3e7USMrgUPF8S00T99RusSHOkXVqzwPM3e9ZL5x2h
uCmpcXA9hUhWWCfQf0gwvCzgiAtRcManbhP9teBAVgRbXWsxVLRaBUb7owTAa1gl
K0gunQIAGXJPCgSj+pUh8gGb8ffzhDDBg+NaOshawIEQRzjfYkLlryQK9uBL0NIN
yDUC6slffDNdTGpPHHatBgYqkM95Kc1dTpc5wKuHj4TA92vrztIbxqRIq2J+xPa+
Gt8XkH1AVwHlOe0Ankc1DSlqESbAnvAXd2SGSVXLtRGjgEklYuAaOpehVaqHdpZo
JmAuGVYrm7KMY3FQZtECA3M26dfFAxv2ofCXucGRntUZslJmeC9P/QH+K8dJ+kQz
GYJn3+uVU4iBg9Xx3NLsPg/mDqKl3dLUvHtoosbFyc44NCpSj/Fg1Tf9MhIV4iN+
1LapaGQx+L2d3vZk15Q7oK10jkt/NBLXZ/HpSngXYV+HOCs01+7oEsK+1uEGRNDz
ASOE1LJTsaaej4N7bN40TyBhriHQo/Z0+m0pA3EBeKLTeOZlGupaUxJbvgZXDhNF
tKyfhozkxXlkXy6E
-----END CERTIFICATE-----
Certificate:
    Data:
        Version: 3 (0x2)
        Serial Number: 10219423159405941259 (0x8dd2af37f9ca920b)
    Signature Algorithm: sha1WithRSAEncryption
        Issuer: C=BE, CN=txjsonrpc-test-ca
        Validity
            Not Before: Jun 23 15:46:37 2012 GMT
            Not After : Jun 21 15:46:37 2022 GMT
        Subject: C=BE, CN=txjsonrpc-test-ca
        Subject Public Key Info:
            Public Key Algorithm: rsaEncryption
                Public-Key: (4096 bit)
                Modulus:
                    00:d1:25:af:77:c5:a8:72:cf:90:b9:39:10:fb:7b:
                    75:2c:a1:da:6a:95:e5:44:0c:d6:25:4b:58:7f:bb:
                    07:82:59:49:58:32:85:24:cc:3e:77:db:e1:a7:4f:
                    c8:b5:cb:ee:45:38:bd:bc:fb:e3:76:3b:88:04:ca:
                    ab:3a:a3:96:3b:5f:93:9c:28:a6:61:97:dc:a2:3f:
                    a0:93:2b:56:6c:cf:d3:4f:6a:9e:05:d3:1c:cd:ef:
                    75:80:1a:98:b7:92:49:14:33:b8:c4:7c:73:8c:7e:
                    83:a5:81:a2:59:8c:8b:a3:51:36:6d:68:ac:f2:f1:
                    ed:6f:49:d9:af:7a:63:c1:43:31:42:b6:c7:cd:b9:
                    78:b7:33:98:70:92:6c:9e:04:7a:7b:f0:6d:38:87:
                    eb:00:13:17:b9:d9:ec:b4:66:bb:51:d3:fd:81:e3:
                    0e:88:71:23:d2:80:2a:61:de:ab:25:02:47:a9:c1:
                    6b:c9:69:ae:da:47:b6:49:74:ac:a6:e1:c1:76:ba:
                    6d:b1:d9:68:6e:1c:37:a8:e2:18:60:37:b6:58:13:
                    6c:c7:92:7c:c6:45:8c:ef:c3:81:73:10:dc:2f:31:
                    e2:b9:05:5a:9e:28:70:5a:3e:1d:b8:68:71:81:c9:
                    e8:fe:1f:c3:a0:13:f8:e4:24:12:ba:91:8e:15:d2:
                    03:f1:8c:b0:aa:e2:34:e4:6b:f8:06:f6:23:8a:92:
                    43:a6:05:dc:e9:c7:a5:a8:06:d7:6e:91:52:72:47:
                    ab:ae:87:fe:b3:0f:04:87:6f:4b:22:29:e9:a9:06:
                    52:58:7d:03:16:d7:d5:31:44:b4:f1:51:44:a7:2a:
                    ba:5e:09:19:ec:4c:a2:e0:58:fe:0d:4e:b7:90:4d:
                    02:ac:2a:ad:99:14:65:3b:0a:3c:73:45:56:b2:0f:
                    10:25:24:51:79:57:1a:34:1a:10:6f:60:e0:fc:81:
                    db:ca:c2:e2:85:1b:4c:72:13:5c:9d:76:cc:d0:21:
                    33:31:56:82:8f:c5:57:b9:44:fd:8b:76:c1:b6:e4:
                    21:8b:35:9a:ee:54:74:9f:72:6b:19:84:d7:a2:3c:
                    a5:6e:11:0a:f1:93:04:2e:dd:7c:4c:7d:62:10:d4:
                    1b:8b:87:f6:ed:bf:12:b1:8b:f0:9a:7a:ee:02:94:
                    e1:3c:46:2b:7f:9c:54:fb:2e:61:c9:1c:ef:fc:de:
                    25:bc:2d:75:1b:1f:49:5e:44:3b:15:93:ad:c4:89:
                    d9:ae:3c:da:54:ef:d9:af:3a:16:cb:94:1b:6a:14:
                    e4:42:f9:75:33:46:6e:fb:40:bc:f8:82:36:cf:60:
                    f5:c2:a2:98:23:a7:2a:ae:c1:aa:22:f8:87:da:b7:
                    9c:a4:cf
                Exponent: 65537 (0x10001)
        X509v3 extensions:
            X509v3 Subject Key Identifier: 
                9D:8F:84:76:94:CD:07:FE:A3:E8:8B:D7:F9:D9:6E:EF:CA:75:51:7B
            X509v3 Authority Key Identifier: 
                keyid:9D:8F:84:76:94:CD:07:FE:A3:E8:8B:D7:F9:D9:6E:EF:CA:75:51:7B
                DirName:/C=BE/CN=txjsonrpc-test-ca
                serial:8D:D2:AF:37:F9:CA:92:0B

            X509v3 Basic Constraints: critical
                CA:TRUE
            Netscape Cert Type: 
                SSL CA, S/MIME CA
            X509v3 Issuer Alternative Name: 
                <EMPTY>

            Netscape Comment: 
                Test CA for txjsonrcp
            X509v3 Subject Alternative Name: 
                <EMPTY>

            X509v3 Key Usage: critical
                Certificate Sign, CRL Sign
    Signature Algorithm: sha1WithRSAEncryption
         06:82:86:81:a9:1b:7e:2d:ef:f5:fc:cc:d2:9d:d6:82:ad:d0:
         6f:7e:3d:b9:5c:b2:0f:3a:64:21:9a:fb:53:b2:93:81:dc:1a:
         24:fc:b8:30:57:a2:c7:71:0d:9c:1a:0b:8a:6c:89:52:8b:8a:
         f5:af:95:3e:b8:08:39:ee:36:50:ac:60:4d:df:2b:49:a2:72:
         f1:3f:12:3c:d9:55:56:a4:9a:77:2b:77:fa:16:b5:76:d9:f4:
         c4:51:6b:b9:fe:2f:a3:52:e8:64:80:49:22:6d:05:42:87:af:
         9d:85:6c:fa:c9:9b:48:39:7b:89:f5:a0:1e:ff:11:d3:9c:78:
         b1:b2:f6:4d:b1:e8:b3:98:23:2c:d4:20:e1:a1:01:3e:26:0a:
         5b:8e:eb:58:45:22:cf:e1:94:ad:84:40:b0:fb:ff:25:5f:31:
         9a:49:0b:36:ad:c6:1a:b0:42:60:40:e2:a2:3c:5a:36:41:89:
         fc:10:c4:60:ea:d4:85:7b:36:84:df:aa:81:cc:69:e7:52:ca:
         c1:46:b1:79:93:51:4f:24:84:42:14:3a:20:a0:6c:27:76:40:
         0f:96:7e:4e:c3:0c:37:b3:e3:73:49:86:58:31:00:1e:e7:0f:
         87:74:b6:4e:6e:1c:7d:87:a4:33:04:c9:76:ec:e5:3a:85:5f:
         a8:d1:ad:21:64:5e:c5:6a:df:b1:02:6e:65:a4:87:72:06:07:
         da:e5:f2:af:2b:a5:eb:18:80:67:83:a5:3c:e6:ed:d1:58:f9:
         90:5c:d6:e9:2f:76:c1:58:13:b8:bd:88:8a:f3:04:48:bb:42:
         8f:7f:c6:db:b4:30:3f:bb:6c:d5:47:e5:ae:8d:4b:da:92:a5:
         db:d3:6e:a8:9b:c2:6b:56:af:34:63:82:e6:78:f8:1f:54:d7:
         41:aa:a3:c9:7c:a6:83:41:bf:6e:33:7c:ae:e6:92:bd:da:27:
         b4:bc:e2:90:4f:33:1b:01:a1:cd:02:13:7a:31:ef:00:d6:9a:
         6e:38:6b:a7:cb:70:98:a8:0f:ff:1c:56:a8:b7:e6:d2:42:5a:
         bb:f4:78:27:71:13:d0:e8:43:eb:bc:2d:4f:e4:ea:4d:4f:76:
         7f:53:38:34:eb:13:e2:3d:c6:14:98:86:1c:ab:2c:0e:b7:68:
         2e:bd:63:a9:6a:8f:d5:22:2d:ab:13:d7:62:54:51:ff:5c:37:
         08:04:27:da:f9:57:77:05:18:73:88:5f:b0:c1:65:50:36:09:
         d6:c7:f5:ae:6e:3f:04:d1:84:3c:21:74:1d:bd:0a:fb:76:d0:
         13:2b:62:bb:24:48:43:89:d0:18:5c:b4:ad:ea:98:af:6d:fc:
         1c:6b:1f:06:64:54:23:88
-----BEGIN CERTIFICATE-----
MIIFwzCCA6ugAwIBAgIJAI3Srzf5ypILMA0GCSqGSIb3DQEBBQUAMCkxCzAJBgNV
BAYTAkJFMRowGAYDVQQDExF0eGpzb25ycGMtdGVzdC1jYTAeFw0xMjA2MjMxNTQ2
MzdaFw0yMjA2MjExNTQ2MzdaMCkxCzAJBgNVBAYTAkJFMRowGAYDVQQDExF0eGpz
b25ycGMtdGVzdC1jYTCCAiIwDQYJKoZIhvcNAQEBBQADggIPADCCAgoCggIBANEl
r3fFqHLPkLk5EPt7dSyh2mqV5UQM1iVLWH+7B4JZSVgyhSTMPnfb4adPyLXL7kU4
vbz743Y7iATKqzqjljtfk5wopmGX3KI/oJMrVmzP009qngXTHM3vdYAamLeSSRQz
uMR8c4x+g6WBolmMi6NRNm1orPLx7W9J2a96Y8FDMUK2x825eLczmHCSbJ4Eenvw
bTiH6wATF7nZ7LRmu1HT/YHjDohxI9KAKmHeqyUCR6nBa8lprtpHtkl0rKbhwXa6
bbHZaG4cN6jiGGA3tlgTbMeSfMZFjO/DgXMQ3C8x4rkFWp4ocFo+HbhocYHJ6P4f
w6AT+OQkErqRjhXSA/GMsKriNORr+Ab2I4qSQ6YF3OnHpagG126RUnJHq66H/rMP
BIdvSyIp6akGUlh9AxbX1TFEtPFRRKcqul4JGexMouBY/g1Ot5BNAqwqrZkUZTsK
PHNFVrIPECUkUXlXGjQaEG9g4PyB28rC4oUbTHITXJ12zNAhMzFWgo/FV7lE/Yt2
wbbkIYs1mu5UdJ9yaxmE16I8pW4RCvGTBC7dfEx9YhDUG4uH9u2/ErGL8Jp67gKU
4TxGK3+cVPsuYckc7/zeJbwtdRsfSV5EOxWTrcSJ2a482lTv2a86FsuUG2oU5EL5
dTNGbvtAvPiCNs9g9cKimCOnKq7BqiL4h9q3nKTPAgMBAAGjge0wgeowHQYDVR0O
BBYEFJ2PhHaUzQf+o+iL1/nZbu/KdVF7MFkGA1UdIwRSMFCAFJ2PhHaUzQf+o+iL
1/nZbu/KdVF7oS2kKzApMQswCQYDVQQGEwJCRTEaMBgGA1UEAxMRdHhqc29ucnBj
LXRlc3QtY2GCCQCN0q83+cqSCzAPBgNVHRMBAf8EBTADAQH/MBEGCWCGSAGG+EIB
AQQEAwIBBjAJBgNVHRIEAjAAMCQGCWCGSAGG+EIBDQQXFhVUZXN0IENBIGZvciB0
eGpzb25yY3AwCQYDVR0RBAIwADAOBgNVHQ8BAf8EBAMCAQYwDQYJKoZIhvcNAQEF
BQADggIBAAaChoGpG34t7/X8zNKd1oKt0G9+Pblcsg86ZCGa+1Oyk4HcGiT8uDBX
osdxDZwaC4psiVKLivWvlT64CDnuNlCsYE3fK0micvE/EjzZVVakmncrd/oWtXbZ
9MRRa7n+L6NS6GSASSJtBUKHr52FbPrJm0g5e4n1oB7/EdOceLGy9k2x6LOYIyzU
IOGhAT4mCluO61hFIs/hlK2EQLD7/yVfMZpJCzatxhqwQmBA4qI8WjZBifwQxGDq
1IV7NoTfqoHMaedSysFGsXmTUU8khEIUOiCgbCd2QA+Wfk7DDDez43NJhlgxAB7n
D4d0tk5uHH2HpDMEyXbs5TqFX6jRrSFkXsVq37ECbmWkh3IGB9rl8q8rpesYgGeD
pTzm7dFY+ZBc1ukvdsFYE7i9iIrzBEi7Qo9/xtu0MD+7bNVH5a6NS9qSpdvTbqib
wmtWrzRjguZ4+B9U10Gqo8l8poNBv24zfK7mkr3aJ7S84pBPMxsBoc0CE3ox7wDW
mm44a6fLcJioD/8cVqi35tJCWrv0eCdxE9DoQ+u8LU/k6k1Pdn9TODTrE+I9xhSY
hhyrLA63aC69Y6lqj9UiLasT12JUUf9cNwgEJ9r5V3cFGHOIX7DBZVA2CdbH9a5u
PwTRhDwhdB29Cvt20BMrYrskSEOJ0BhctK3qmK9t/BxrHwZkVCOI
-----END CERTIFICATE-----
