Certificate:
    Data:
        Version: 4 (0x3)
        Serial Number: 1 (0x1)
    Signature Algorithm: sha1WithRSAEncryption
        Issuer: C=BE, CN=txjsonrpc-test-ca
        Validity
            Not Before: Jan  1 00:00:00 1970 GMT
            Not After : Jan 19 03:14:07 2038 GMT
        Subject: CN=www.example.com, C=BE, O=Gremwell bvba
        Subject Public Key Info:
            Public Key Algorithm: rsaEncryption
                Public-Key: (1024 bit)
                Modulus:
                    00:f7:ec:f9:10:78:c1:10:a6:64:7d:bf:10:dd:4a:
                    f8:45:a0:9b:e2:b9:04:c9:b1:0a:97:81:d3:16:28:
                    a9:f6:9a:ed:37:c0:df:ff:4d:59:d7:34:20:7a:68:
                    34:07:22:a0:45:28:4b:d5:0e:99:26:cf:89:cb:f2:
                    56:69:39:7a:c9:55:d4:5e:66:3c:58:f9:82:12:d7:
                    42:b7:ba:ac:6a:5e:ca:cf:dc:ad:91:b3:5f:41:0a:
                    f8:d7:2e:9b:00:81:8b:6c:88:e6:ed:a9:38:7f:63:
                    bc:de:b2:d3:71:c3:db:b0:9c:b1:c0:b5:fb:d1:48:
                    c3:95:be:9b:3e:5f:02:49:39
                Exponent: 65537 (0x10001)
    Signature Algorithm: sha1WithRSAEncryption
         cf:80:83:58:5c:bb:fb:b2:57:09:5e:47:f6:5e:3f:c4:86:ec:
         3c:a0:0e:0f:a7:a0:1c:4e:47:13:7b:7b:4c:34:6d:f4:7c:14:
         2f:e0:99:ae:fd:99:16:3a:89:3c:e5:05:8e:66:bc:00:ad:67:
         9f:3e:68:8f:29:92:20:b2:7c:e4:eb:65:48:d8:cc:96:f4:ef:
         5e:a4:c6:72:47:39:04:b1:b7:8f:4e:3d:84:f3:e7:a3:a3:a3:
         9d:7a:b3:5a:c7:29:a0:f4:a3:0a:68:32:d3:91:6c:7e:34:66:
         f2:b8:5f:9d:41:9f:3c:52:09:e9:d7:a7:26:69:ac:07:b6:e9:
         c1:b4:f1:0f:28:ef:12:ae:aa:86:ef:7e:b1:df:f8:b0:7c:92:
         0b:6d:e4:92:c5:dc:13:e3:6b:6f:d8:d3:46:b0:25:95:01:b0:
         ef:5f:a2:fb:c1:70:09:50:31:01:b2:aa:44:9b:69:4f:8c:de:
         75:44:db:6d:b3:73:65:c7:d4:36:85:8e:bf:0d:b9:4c:1a:10:
         3b:be:db:65:ab:8e:e9:09:25:43:0a:26:ba:fc:02:79:0b:43:
         f2:34:9b:49:3c:8a:f2:d0:94:fe:dc:8a:78:b9:f9:d0:70:02:
         24:ba:0c:3c:8e:65:40:f9:66:47:dc:3d:c1:ad:67:7e:a7:5c:
         47:50:0c:2e:5e:bb:ee:2e:f4:c7:cb:8f:d1:e4:0a:8e:6b:f4:
         2c:e0:55:de:65:53:34:9d:f5:ff:56:48:51:a6:d5:33:98:25:
         bb:fc:54:80:f2:7a:e1:f1:b4:2d:80:8c:c1:5e:3f:39:d0:12:
         a9:ee:bf:15:cb:87:48:ba:d1:0d:f1:56:43:6b:5c:b8:9f:0c:
         7f:ed:a8:80:16:b1:1c:ad:58:5b:28:25:cb:9b:0b:19:57:3a:
         52:b4:ef:b5:f1:6c:0c:b0:e2:66:ea:95:6c:0c:dc:b4:73:1f:
         02:14:8d:d7:66:3f:a8:dc:fb:6b:fc:c7:e5:b7:e5:ba:a4:32:
         eb:38:cd:b9:c6:24:ec:91:a2:ab:24:49:1e:fd:54:d9:75:09:
         a2:7a:d1:9c:7d:b9:1b:1d:dc:7c:68:e4:66:13:cd:34:7f:29:
         4c:d3:3e:e4:a7:4c:da:af:4a:b8:fd:69:d3:56:b8:72:36:25:
         e4:8d:a9:46:08:3c:b6:ce:f8:00:5b:6f:21:bc:05:c3:82:30:
         00:52:ff:c9:f1:df:08:34:75:dc:ec:f5:e4:76:6d:78:11:bd:
         7d:2a:ac:10:dd:9f:52:04:2e:08:81:66:58:54:21:59:47:ff:
         22:99:f6:a9:32:96:16:79:74:f9:ad:9f:91:50:c9:02:dc:02:
         32:4a:d5:5c:11:d5:ca:71
-----BEGIN CERTIFICATE-----
MIIDXTCCAUWgAwIBAwIBATANBgkqhkiG9w0BAQUFADApMQswCQYDVQQGEwJCRTEa
MBgGA1UEAxMRdHhqc29ucnBjLXRlc3QtY2EwHhcNNzAwMTAxMDAwMDAwWhcNMzgw
MTE5MDMxNDA3WjA/MRgwFgYDVQQDEw93d3cuZXhhbXBsZS5jb20xCzAJBgNVBAYT
AkJFMRYwFAYDVQQKEw1HcmVtd2VsbCBidmJhMIGfMA0GCSqGSIb3DQEBAQUAA4GN
ADCBiQKBgQD37PkQeMEQpmR9vxDdSvhFoJviuQTJsQqXgdMWKKn2mu03wN//TVnX
NCB6aDQHIqBFKEvVDpkmz4nL8lZpOXrJVdReZjxY+YIS10K3uqxqXsrP3K2Rs19B
CvjXLpsAgYtsiObtqTh/Y7zestNxw9uwnLHAtfvRSMOVvps+XwJJOQIDAQABMA0G
CSqGSIb3DQEBBQUAA4ICAQDPgINYXLv7slcJXkf2Xj/Ehuw8oA4Pp6AcTkcTe3tM
NG30fBQv4Jmu/ZkWOok85QWOZrwArWefPmiPKZIgsnzk62VI2MyW9O9epMZyRzkE
sbePTj2E8+ejo6OderNaxymg9KMKaDLTkWx+NGbyuF+dQZ88Ugnp16cmaawHtunB
tPEPKO8SrqqG736x3/iwfJILbeSSxdwT42tv2NNGsCWVAbDvX6L7wXAJUDEBsqpE
m2lPjN51RNtts3Nlx9Q2hY6/DblMGhA7vttlq47pCSVDCia6/AJ5C0PyNJtJPIry
0JT+3Ip4ufnQcAIkugw8jmVA+WZH3D3BrWd+p1xHUAwuXrvuLvTHy4/R5AqOa/Qs
4FXeZVM0nfX/VkhRptUzmCW7/FSA8nrh8bQtgIzBXj850BKp7r8Vy4dIutEN8VZD
a1y4nwx/7aiAFrEcrVhbKCXLmwsZVzpStO+18WwMsOJm6pVsDNy0cx8CFI3XZj+o
3Ptr/Mflt+W6pDLrOM25xiTskaKrJEke/VTZdQmietGcfbkbHdx8aORmE800fylM
0z7kp0zar0q4/WnTVrhyNiXkjalGCDy2zvgAW28hvAXDgjAAUv/J8d8INHXc7PXk
dm14Eb19KqwQ3Z9SBC4IgWZYVCFZR/8imfapMpYWeXT5rZ+RUMkC3AIyStVcEdXK
cQ==
-----END CERTIFICATE-----
Certificate:
    Data:
        Version: 3 (0x2)
        Serial Number: 10219423159405941259 (0x8dd2af37f9ca920b)
    Signature Algorithm: sha1WithRSAEncryption
        Issuer: C=BE, CN=txjsonrpc-test-ca
        Validity
            Not Before: Jun 23 15:46:37 2012 GMT
            Not After : Jun 21 15:46:37 2022 GMT
        Subject: C=BE, CN=txjsonrpc-test-ca
        Subject Public Key Info:
            Public Key Algorithm: rsaEncryption
                Public-Key: (4096 bit)
                Modulus:
                    00:d1:25:af:77:c5:a8:72:cf:90:b9:39:10:fb:7b:
                    75:2c:a1:da:6a:95:e5:44:0c:d6:25:4b:58:7f:bb:
                    07:82:59:49:58:32:85:24:cc:3e:77:db:e1:a7:4f:
                    c8:b5:cb:ee:45:38:bd:bc:fb:e3:76:3b:88:04:ca:
                    ab:3a:a3:96:3b:5f:93:9c:28:a6:61:97:dc:a2:3f:
                    a0:93:2b:56:6c:cf:d3:4f:6a:9e:05:d3:1c:cd:ef:
                    75:80:1a:98:b7:92:49:14:33:b8:c4:7c:73:8c:7e:
                    83:a5:81:a2:59:8c:8b:a3:51:36:6d:68:ac:f2:f1:
                    ed:6f:49:d9:af:7a:63:c1:43:31:42:b6:c7:cd:b9:
                    78:b7:33:98:70:92:6c:9e:04:7a:7b:f0:6d:38:87:
                    eb:00:13:17:b9:d9:ec:b4:66:bb:51:d3:fd:81:e3:
                    0e:88:71:23:d2:80:2a:61:de:ab:25:02:47:a9:c1:
                    6b:c9:69:ae:da:47:b6:49:74:ac:a6:e1:c1:76:ba:
                    6d:b1:d9:68:6e:1c:37:a8:e2:18:60:37:b6:58:13:
                    6c:c7:92:7c:c6:45:8c:ef:c3:81:73:10:dc:2f:31:
                    e2:b9:05:5a:9e:28:70:5a:3e:1d:b8:68:71:81:c9:
                    e8:fe:1f:c3:a0:13:f8:e4:24:12:ba:91:8e:15:d2:
                    03:f1:8c:b0:aa:e2:34:e4:6b:f8:06:f6:23:8a:92:
                    43:a6:05:dc:e9:c7:a5:a8:06:d7:6e:91:52:72:47:
                    ab:ae:87:fe:b3:0f:04:87:6f:4b:22:29:e9:a9:06:
                    52:58:7d:03:16:d7:d5:31:44:b4:f1:51:44:a7:2a:
                    ba:5e:09:19:ec:4c:a2:e0:58:fe:0d:4e:b7:90:4d:
                    02:ac:2a:ad:99:14:65:3b:0a:3c:73:45:56:b2:0f:
                    10:25:24:51:79:57:1a:34:1a:10:6f:60:e0:fc:81:
                    db:ca:c2:e2:85:1b:4c:72:13:5c:9d:76:cc:d0:21:
                    33:31:56:82:8f:c5:57:b9:44:fd:8b:76:c1:b6:e4:
                    21:8b:35:9a:ee:54:74:9f:72:6b:19:84:d7:a2:3c:
                    a5:6e:11:0a:f1:93:04:2e:dd:7c:4c:7d:62:10:d4:
                    1b:8b:87:f6:ed:bf:12:b1:8b:f0:9a:7a:ee:02:94:
                    e1:3c:46:2b:7f:9c:54:fb:2e:61:c9:1c:ef:fc:de:
                    25:bc:2d:75:1b:1f:49:5e:44:3b:15:93:ad:c4:89:
                    d9:ae:3c:da:54:ef:d9:af:3a:16:cb:94:1b:6a:14:
                    e4:42:f9:75:33:46:6e:fb:40:bc:f8:82:36:cf:60:
                    f5:c2:a2:98:23:a7:2a:ae:c1:aa:22:f8:87:da:b7:
                    9c:a4:cf
                Exponent: 65537 (0x10001)
        X509v3 extensions:
            X509v3 Subject Key Identifier: 
                9D:8F:84:76:94:CD:07:FE:A3:E8:8B:D7:F9:D9:6E:EF:CA:75:51:7B
            X509v3 Authority Key Identifier: 
                keyid:9D:8F:84:76:94:CD:07:FE:A3:E8:8B:D7:F9:D9:6E:EF:CA:75:51:7B
                DirName:/C=BE/CN=txjsonrpc-test-ca
                serial:8D:D2:AF:37:F9:CA:92:0B

            X509v3 Basic Constraints: critical
                CA:TRUE
            Netscape Cert Type: 
                SSL CA, S/MIME CA
            X509v3 Issuer Alternative Name: 
                <EMPTY>

            Netscape Comment: 
                Test CA for txjsonrcp
            X509v3 Subject Alternative Name: 
                <EMPTY>

            X509v3 Key Usage: critical
                Certificate Sign, CRL Sign
    Signature Algorithm: sha1WithRSAEncryption
         06:82:86:81:a9:1b:7e:2d:ef:f5:fc:cc:d2:9d:d6:82:ad:d0:
         6f:7e:3d:b9:5c:b2:0f:3a:64:21:9a:fb:53:b2:93:81:dc:1a:
         24:fc:b8:30:57:a2:c7:71:0d:9c:1a:0b:8a:6c:89:52:8b:8a:
         f5:af:95:3e:b8:08:39:ee:36:50:ac:60:4d:df:2b:49:a2:72:
         f1:3f:12:3c:d9:55:56:a4:9a:77:2b:77:fa:16:b5:76:d9:f4:
         c4:51:6b:b9:fe:2f:a3:52:e8:64:80:49:22:6d:05:42:87:af:
         9d:85:6c:fa:c9:9b:48:39:7b:89:f5:a0:1e:ff:11:d3:9c:78:
         b1:b2:f6:4d:b1:e8:b3:98:23:2c:d4:20:e1:a1:01:3e:26:0a:
         5b:8e:eb:58:45:22:cf:e1:94:ad:84:40:b0:fb:ff:25:5f:31:
         9a:49:0b:36:ad:c6:1a:b0:42:60:40:e2:a2:3c:5a:36:41:89:
         fc:10:c4:60:ea:d4:85:7b:36:84:df:aa:81:cc:69:e7:52:ca:
         c1:46:b1:79:93:51:4f:24:84:42:14:3a:20:a0:6c:27:76:40:
         0f:96:7e:4e:c3:0c:37:b3:e3:73:49:86:58:31:00:1e:e7:0f:
         87:74:b6:4e:6e:1c:7d:87:a4:33:04:c9:76:ec:e5:3a:85:5f:
         a8:d1:ad:21:64:5e:c5:6a:df:b1:02:6e:65:a4:87:72:06:07:
         da:e5:f2:af:2b:a5:eb:18:80:67:83:a5:3c:e6:ed:d1:58:f9:
         90:5c:d6:e9:2f:76:c1:58:13:b8:bd:88:8a:f3:04:48:bb:42:
         8f:7f:c6:db:b4:30:3f:bb:6c:d5:47:e5:ae:8d:4b:da:92:a5:
         db:d3:6e:a8:9b:c2:6b:56:af:34:63:82:e6:78:f8:1f:54:d7:
         41:aa:a3:c9:7c:a6:83:41:bf:6e:33:7c:ae:e6:92:bd:da:27:
         b4:bc:e2:90:4f:33:1b:01:a1:cd:02:13:7a:31:ef:00:d6:9a:
         6e:38:6b:a7:cb:70:98:a8:0f:ff:1c:56:a8:b7:e6:d2:42:5a:
         bb:f4:78:27:71:13:d0:e8:43:eb:bc:2d:4f:e4:ea:4d:4f:76:
         7f:53:38:34:eb:13:e2:3d:c6:14:98:86:1c:ab:2c:0e:b7:68:
         2e:bd:63:a9:6a:8f:d5:22:2d:ab:13:d7:62:54:51:ff:5c:37:
         08:04:27:da:f9:57:77:05:18:73:88:5f:b0:c1:65:50:36:09:
         d6:c7:f5:ae:6e:3f:04:d1:84:3c:21:74:1d:bd:0a:fb:76:d0:
         13:2b:62:bb:24:48:43:89:d0:18:5c:b4:ad:ea:98:af:6d:fc:
         1c:6b:1f:06:64:54:23:88
-----BEGIN CERTIFICATE-----
MIIFwzCCA6ugAwIBAgIJAI3Srzf5ypILMA0GCSqGSIb3DQEBBQUAMCkxCzAJBgNV
BAYTAkJFMRowGAYDVQQDExF0eGpzb25ycGMtdGVzdC1jYTAeFw0xMjA2MjMxNTQ2
MzdaFw0yMjA2MjExNTQ2MzdaMCkxCzAJBgNVBAYTAkJFMRowGAYDVQQDExF0eGpz
b25ycGMtdGVzdC1jYTCCAiIwDQYJKoZIhvcNAQEBBQADggIPADCCAgoCggIBANEl
r3fFqHLPkLk5EPt7dSyh2mqV5UQM1iVLWH+7B4JZSVgyhSTMPnfb4adPyLXL7kU4
vbz743Y7iATKqzqjljtfk5wopmGX3KI/oJMrVmzP009qngXTHM3vdYAamLeSSRQz
uMR8c4x+g6WBolmMi6NRNm1orPLx7W9J2a96Y8FDMUK2x825eLczmHCSbJ4Eenvw
bTiH6wATF7nZ7LRmu1HT/YHjDohxI9KAKmHeqyUCR6nBa8lprtpHtkl0rKbhwXa6
bbHZaG4cN6jiGGA3tlgTbMeSfMZFjO/DgXMQ3C8x4rkFWp4ocFo+HbhocYHJ6P4f
w6AT+OQkErqRjhXSA/GMsKriNORr+Ab2I4qSQ6YF3OnHpagG126RUnJHq66H/rMP
BIdvSyIp6akGUlh9AxbX1TFEtPFRRKcqul4JGexMouBY/g1Ot5BNAqwqrZkUZTsK
PHNFVrIPECUkUXlXGjQaEG9g4PyB28rC4oUbTHITXJ12zNAhMzFWgo/FV7lE/Yt2
wbbkIYs1mu5UdJ9yaxmE16I8pW4RCvGTBC7dfEx9YhDUG4uH9u2/ErGL8Jp67gKU
4TxGK3+cVPsuYckc7/zeJbwtdRsfSV5EOxWTrcSJ2a482lTv2a86FsuUG2oU5EL5
dTNGbvtAvPiCNs9g9cKimCOnKq7BqiL4h9q3nKTPAgMBAAGjge0wgeowHQYDVR0O
BBYEFJ2PhHaUzQf+o+iL1/nZbu/KdVF7MFkGA1UdIwRSMFCAFJ2PhHaUzQf+o+iL
1/nZbu/KdVF7oS2kKzApMQswCQYDVQQGEwJCRTEaMBgGA1UEAxMRdHhqc29ucnBj
LXRlc3QtY2GCCQCN0q83+cqSCzAPBgNVHRMBAf8EBTADAQH/MBEGCWCGSAGG+EIB
AQQEAwIBBjAJBgNVHRIEAjAAMCQGCWCGSAGG+EIBDQQXFhVUZXN0IENBIGZvciB0
eGpzb25yY3AwCQYDVR0RBAIwADAOBgNVHQ8BAf8EBAMCAQYwDQYJKoZIhvcNAQEF
BQADggIBAAaChoGpG34t7/X8zNKd1oKt0G9+Pblcsg86ZCGa+1Oyk4HcGiT8uDBX
osdxDZwaC4psiVKLivWvlT64CDnuNlCsYE3fK0micvE/EjzZVVakmncrd/oWtXbZ
9MRRa7n+L6NS6GSASSJtBUKHr52FbPrJm0g5e4n1oB7/EdOceLGy9k2x6LOYIyzU
IOGhAT4mCluO61hFIs/hlK2EQLD7/yVfMZpJCzatxhqwQmBA4qI8WjZBifwQxGDq
1IV7NoTfqoHMaedSysFGsXmTUU8khEIUOiCgbCd2QA+Wfk7DDDez43NJhlgxAB7n
D4d0tk5uHH2HpDMEyXbs5TqFX6jRrSFkXsVq37ECbmWkh3IGB9rl8q8rpesYgGeD
pTzm7dFY+ZBc1ukvdsFYE7i9iIrzBEi7Qo9/xtu0MD+7bNVH5a6NS9qSpdvTbqib
wmtWrzRjguZ4+B9U10Gqo8l8poNBv24zfK7mkr3aJ7S84pBPMxsBoc0CE3ox7wDW
mm44a6fLcJioD/8cVqi35tJCWrv0eCdxE9DoQ+u8LU/k6k1Pdn9TODTrE+I9xhSY
hhyrLA63aC69Y6lqj9UiLasT12JUUf9cNwgEJ9r5V3cFGHOIX7DBZVA2CdbH9a5u
PwTRhDwhdB29Cvt20BMrYrskSEOJ0BhctK3qmK9t/BxrHwZkVCOI
-----END CERTIFICATE-----
