Certificate:
    Data:
        Version: 3 (0x2)
        Serial Number: 1 (0x1)
    Signature Algorithm: sha1WithRSAEncryption
        Issuer: C=BE, CN=txjsonrpc-test-ca
        Validity
            Not Before: Jun 23 15:47:38 2012 GMT
            Not After : Jun 23 15:47:38 2013 GMT
        Subject: C=BE, CN=txjsonrpc-pyserver
        Subject Public Key Info:
            Public Key Algorithm: rsaEncryption
                Public-Key: (4096 bit)
                Modulus:
                    00:98:02:69:03:a1:53:64:57:f5:37:b4:d1:ba:e0:
                    99:df:2b:73:31:47:de:de:04:0c:a4:a4:62:b5:71:
                    69:3b:6c:e6:3f:ee:09:74:61:5d:5a:28:f9:0f:d6:
                    b4:c5:67:d0:d8:84:d2:3d:eb:ea:ce:16:ff:3d:83:
                    a8:95:6a:dc:62:bc:53:4e:85:e4:4f:44:27:94:36:
                    6e:e4:26:6d:d4:7b:06:b6:f1:d5:65:54:a0:ac:85:
                    d4:84:2d:df:42:63:54:25:20:89:a7:76:49:52:83:
                    da:eb:10:67:cc:21:d6:01:d0:c1:70:61:d5:42:63:
                    70:43:74:53:3f:84:89:92:5b:3d:f5:5a:f3:61:87:
                    85:f7:41:f1:c4:c6:7a:97:29:dd:7e:04:b1:ca:54:
                    a4:ba:85:33:9b:e5:c0:f5:4f:32:42:cc:08:fa:97:
                    e3:3a:1e:b0:ea:60:c0:0d:7d:c8:8d:00:01:b5:23:
                    38:c8:ee:c1:0f:e1:e9:5e:45:9e:4a:47:db:ba:7c:
                    80:53:8e:dd:7f:ec:b7:e8:be:c9:b6:11:9d:eb:7a:
                    41:ec:87:6f:0f:f4:c2:0e:f7:ee:c9:97:92:c6:fb:
                    1d:7b:c3:08:07:03:2c:98:51:90:be:45:2d:b5:17:
                    eb:c9:bc:d7:07:5e:23:e8:a6:5d:9c:19:aa:93:f5:
                    9a:be:c0:07:d9:0b:b9:81:77:3e:b9:a8:63:5d:11:
                    03:2c:89:43:b0:3f:96:6c:c6:73:b4:d4:83:0d:05:
                    e5:9e:e0:29:a4:f1:2e:fd:0d:c9:11:66:08:ae:3e:
                    6a:fd:9d:49:d6:e8:a8:3d:02:28:ea:01:68:bc:6a:
                    77:38:72:8b:dd:63:66:c6:b6:25:92:f9:1a:b7:2d:
                    eb:3a:5c:5e:30:5d:0d:31:24:c7:0e:8e:22:81:7b:
                    74:05:b4:7f:f7:28:c0:c3:8f:be:f6:c6:4e:05:ff:
                    22:62:0a:b4:f5:25:04:cb:83:a9:9f:c7:e8:a8:08:
                    96:0b:05:bc:d6:ef:e0:a6:59:4b:8a:91:98:14:cb:
                    19:ac:4f:c1:53:9a:66:39:d4:e0:0a:51:ca:ba:aa:
                    fd:9b:24:3b:84:11:b2:02:15:c4:c3:25:16:9b:82:
                    44:f5:bb:e3:ab:aa:18:a0:e3:02:72:d7:cf:6a:07:
                    af:d2:ea:08:c8:07:73:13:3f:aa:4b:b3:0d:11:43:
                    55:fb:cc:18:fc:93:1b:f7:44:4b:d5:bc:2a:7c:1c:
                    57:fc:09:17:72:05:c2:e0:2b:9e:09:6a:ac:ef:f0:
                    00:55:cb:f6:76:84:5e:2d:49:ea:22:cf:74:83:27:
                    51:fb:b9:e2:b0:b5:5e:d6:5c:74:a1:6f:e3:ee:98:
                    f6:e8:fb
                Exponent: 65537 (0x10001)
        X509v3 extensions:
            X509v3 Basic Constraints: 
                CA:FALSE
            Netscape Cert Type: 
                SSL Server
            Netscape Comment: 
                TinyCA Generated Certificate
            X509v3 Subject Key Identifier: 
                26:8C:A5:F9:A6:4A:FE:4C:E8:0F:04:33:7E:04:26:28:BF:4C:92:F3
            X509v3 Authority Key Identifier: 
                keyid:9D:8F:84:76:94:CD:07:FE:A3:E8:8B:D7:F9:D9:6E:EF:CA:75:51:7B
                DirName:/C=BE/CN=txjsonrpc-test-ca
                serial:8D:D2:AF:37:F9:CA:92:0B

            X509v3 Issuer Alternative Name: 
                <EMPTY>

            X509v3 Subject Alternative Name: 
                <EMPTY>

    Signature Algorithm: sha1WithRSAEncryption
         94:37:aa:73:86:2e:a7:68:b1:86:c3:b8:5b:c4:06:31:8c:a4:
         9b:73:61:fb:bb:79:77:db:54:ac:29:0f:00:c8:21:e6:f8:3d:
         b8:a4:da:5c:54:3e:b5:bb:cf:ec:1d:ed:ef:cf:05:3e:cd:dd:
         da:e0:03:90:af:91:12:03:7c:68:f0:51:a4:82:29:61:9a:b6:
         bc:01:e1:11:7d:ab:b6:ae:24:f1:d8:5f:d3:26:3d:65:ed:b6:
         96:f4:e1:78:c1:07:df:29:1b:82:de:d6:20:02:f7:15:52:5b:
         86:5e:e3:f7:24:3e:1a:e1:ca:e6:e0:c6:78:93:df:bc:e2:19:
         b8:e5:54:45:9f:46:73:6f:a1:6c:83:ba:3f:6d:1b:29:3f:c7:
         15:9f:84:c3:09:21:da:09:8f:1a:3c:84:21:3a:55:47:de:00:
         67:bd:1e:a8:24:68:84:37:75:f9:c4:e4:e3:17:fc:b8:5a:e7:
         d7:8f:ff:86:64:cc:e8:43:ca:77:6d:90:41:a3:78:26:3a:3b:
         85:b4:27:5b:00:e9:20:f6:f3:e4:15:bb:bf:1b:1f:e3:a9:d8:
         96:6b:fe:02:38:b7:ac:ca:84:fe:90:e5:b5:80:75:ef:16:73:
         a0:70:3c:81:8a:1c:fc:6f:06:15:13:fc:6f:a1:14:ba:29:2b:
         94:37:b1:b0:98:5e:1b:0c:b9:85:7b:7c:f4:82:f5:4e:c4:49:
         ce:cd:82:27:17:2a:01:ab:c0:03:8b:f8:9e:9d:dc:b1:3a:83:
         c5:1b:19:44:df:04:c1:60:e8:82:a6:cb:7c:c9:fd:2f:d3:e9:
         e7:9c:ee:9e:70:47:37:92:e1:fe:57:48:fb:a5:f2:01:4c:5e:
         14:21:44:a7:59:e5:a7:39:c9:b0:12:c0:82:2f:61:47:e3:0d:
         db:f8:65:35:3b:2a:e9:3e:a6:0d:f2:f8:36:46:4e:19:94:13:
         08:ae:c5:04:63:6f:85:18:bd:97:ca:cb:13:de:0d:00:c1:ef:
         86:72:9a:98:0b:c7:09:95:0a:84:9f:00:e7:84:51:d9:92:4b:
         28:e3:db:83:0b:24:3a:bc:bf:2c:a0:dd:a9:f8:f5:dd:30:20:
         7a:64:65:ae:8d:e7:cb:f5:fe:ff:a7:9e:48:ae:1f:2a:98:cb:
         d4:5d:f0:e1:f7:7a:27:25:1c:3b:86:46:1f:e3:81:db:51:e4:
         22:2c:0e:bc:f9:f6:fd:13:13:27:84:0c:84:97:5b:ab:95:11:
         8e:b6:df:21:5b:05:4c:89:95:a5:3b:da:4e:c5:85:df:1e:2e:
         72:09:b4:6a:b8:dc:9c:9d:e8:5c:3a:d3:1e:a2:9c:5b:ef:7a:
         65:ad:a8:1d:c7:f9:df:31
-----BEGIN CERTIFICATE-----
MIIFrTCCA5WgAwIBAgIBATANBgkqhkiG9w0BAQUFADApMQswCQYDVQQGEwJCRTEa
MBgGA1UEAxMRdHhqc29ucnBjLXRlc3QtY2EwHhcNMTIwNjIzMTU0NzM4WhcNMTMw
NjIzMTU0NzM4WjAqMQswCQYDVQQGEwJCRTEbMBkGA1UEAxMSdHhqc29ucnBjLXB5
c2VydmVyMIICIjANBgkqhkiG9w0BAQEFAAOCAg8AMIICCgKCAgEAmAJpA6FTZFf1
N7TRuuCZ3ytzMUfe3gQMpKRitXFpO2zmP+4JdGFdWij5D9a0xWfQ2ITSPevqzhb/
PYOolWrcYrxTToXkT0QnlDZu5CZt1HsGtvHVZVSgrIXUhC3fQmNUJSCJp3ZJUoPa
6xBnzCHWAdDBcGHVQmNwQ3RTP4SJkls99VrzYYeF90HxxMZ6lyndfgSxylSkuoUz
m+XA9U8yQswI+pfjOh6w6mDADX3IjQABtSM4yO7BD+HpXkWeSkfbunyAU47df+y3
6L7JthGd63pB7IdvD/TCDvfuyZeSxvsde8MIBwMsmFGQvkUttRfrybzXB14j6KZd
nBmqk/WavsAH2Qu5gXc+uahjXREDLIlDsD+WbMZztNSDDQXlnuAppPEu/Q3JEWYI
rj5q/Z1J1uioPQIo6gFovGp3OHKL3WNmxrYlkvkaty3rOlxeMF0NMSTHDo4igXt0
BbR/9yjAw4++9sZOBf8iYgq09SUEy4Opn8foqAiWCwW81u/gpllLipGYFMsZrE/B
U5pmOdTgClHKuqr9myQ7hBGyAhXEwyUWm4JE9bvjq6oYoOMCctfPagev0uoIyAdz
Ez+qS7MNEUNV+8wY/JMb90RL1bwqfBxX/AkXcgXC4CueCWqs7/AAVcv2doReLUnq
Is90gydR+7nisLVe1lx0oW/j7pj26PsCAwEAAaOB3jCB2zAJBgNVHRMEAjAAMBEG
CWCGSAGG+EIBAQQEAwIGQDArBglghkgBhvhCAQ0EHhYcVGlueUNBIEdlbmVyYXRl
ZCBDZXJ0aWZpY2F0ZTAdBgNVHQ4EFgQUJoyl+aZK/kzoDwQzfgQmKL9MkvMwWQYD
VR0jBFIwUIAUnY+EdpTNB/6j6IvX+dlu78p1UXuhLaQrMCkxCzAJBgNVBAYTAkJF
MRowGAYDVQQDExF0eGpzb25ycGMtdGVzdC1jYYIJAI3Srzf5ypILMAkGA1UdEgQC
MAAwCQYDVR0RBAIwADANBgkqhkiG9w0BAQUFAAOCAgEAlDeqc4Yup2ixhsO4W8QG
MYykm3Nh+7t5d9tUrCkPAMgh5vg9uKTaXFQ+tbvP7B3t788FPs3d2uADkK+REgN8
aPBRpIIpYZq2vAHhEX2rtq4k8dhf0yY9Ze22lvTheMEH3ykbgt7WIAL3FVJbhl7j
9yQ+GuHK5uDGeJPfvOIZuOVURZ9Gc2+hbIO6P20bKT/HFZ+Ewwkh2gmPGjyEITpV
R94AZ70eqCRohDd1+cTk4xf8uFrn14//hmTM6EPKd22QQaN4Jjo7hbQnWwDpIPbz
5BW7vxsf46nYlmv+Aji3rMqE/pDltYB17xZzoHA8gYoc/G8GFRP8b6EUuikrlDex
sJheGwy5hXt89IL1TsRJzs2CJxcqAavAA4v4np3csTqDxRsZRN8EwWDogqbLfMn9
L9Pp55zunnBHN5Lh/ldI+6XyAUxeFCFEp1nlpznJsBLAgi9hR+MN2/hlNTsq6T6m
DfL4NkZOGZQTCK7FBGNvhRi9l8rLE94NAMHvhnKamAvHCZUKhJ8A54RR2ZJLKOPb
gwskOry/LKDdqfj13TAgemRlro3ny/X+/6eeSK4fKpjL1F3w4fd6JyUcO4ZGH+OB
21HkIiwOvPn2/RMTJ4QMhJdbq5URjrbfIVsFTImVpTvaTsWF3x4ucgm0arjcnJ3o
XDrTHqKcW+96Za2oHcf53zE=
-----END CERTIFICATE-----
Certificate:
    Data:
        Version: 3 (0x2)
        Serial Number: 10219423159405941259 (0x8dd2af37f9ca920b)
    Signature Algorithm: sha1WithRSAEncryption
        Issuer: C=BE, CN=txjsonrpc-test-ca
        Validity
            Not Before: Jun 23 15:46:37 2012 GMT
            Not After : Jun 21 15:46:37 2022 GMT
        Subject: C=BE, CN=txjsonrpc-test-ca
        Subject Public Key Info:
            Public Key Algorithm: rsaEncryption
                Public-Key: (4096 bit)
                Modulus:
                    00:d1:25:af:77:c5:a8:72:cf:90:b9:39:10:fb:7b:
                    75:2c:a1:da:6a:95:e5:44:0c:d6:25:4b:58:7f:bb:
                    07:82:59:49:58:32:85:24:cc:3e:77:db:e1:a7:4f:
                    c8:b5:cb:ee:45:38:bd:bc:fb:e3:76:3b:88:04:ca:
                    ab:3a:a3:96:3b:5f:93:9c:28:a6:61:97:dc:a2:3f:
                    a0:93:2b:56:6c:cf:d3:4f:6a:9e:05:d3:1c:cd:ef:
                    75:80:1a:98:b7:92:49:14:33:b8:c4:7c:73:8c:7e:
                    83:a5:81:a2:59:8c:8b:a3:51:36:6d:68:ac:f2:f1:
                    ed:6f:49:d9:af:7a:63:c1:43:31:42:b6:c7:cd:b9:
                    78:b7:33:98:70:92:6c:9e:04:7a:7b:f0:6d:38:87:
                    eb:00:13:17:b9:d9:ec:b4:66:bb:51:d3:fd:81:e3:
                    0e:88:71:23:d2:80:2a:61:de:ab:25:02:47:a9:c1:
                    6b:c9:69:ae:da:47:b6:49:74:ac:a6:e1:c1:76:ba:
                    6d:b1:d9:68:6e:1c:37:a8:e2:18:60:37:b6:58:13:
                    6c:c7:92:7c:c6:45:8c:ef:c3:81:73:10:dc:2f:31:
                    e2:b9:05:5a:9e:28:70:5a:3e:1d:b8:68:71:81:c9:
                    e8:fe:1f:c3:a0:13:f8:e4:24:12:ba:91:8e:15:d2:
                    03:f1:8c:b0:aa:e2:34:e4:6b:f8:06:f6:23:8a:92:
                    43:a6:05:dc:e9:c7:a5:a8:06:d7:6e:91:52:72:47:
                    ab:ae:87:fe:b3:0f:04:87:6f:4b:22:29:e9:a9:06:
                    52:58:7d:03:16:d7:d5:31:44:b4:f1:51:44:a7:2a:
                    ba:5e:09:19:ec:4c:a2:e0:58:fe:0d:4e:b7:90:4d:
                    02:ac:2a:ad:99:14:65:3b:0a:3c:73:45:56:b2:0f:
                    10:25:24:51:79:57:1a:34:1a:10:6f:60:e0:fc:81:
                    db:ca:c2:e2:85:1b:4c:72:13:5c:9d:76:cc:d0:21:
                    33:31:56:82:8f:c5:57:b9:44:fd:8b:76:c1:b6:e4:
                    21:8b:35:9a:ee:54:74:9f:72:6b:19:84:d7:a2:3c:
                    a5:6e:11:0a:f1:93:04:2e:dd:7c:4c:7d:62:10:d4:
                    1b:8b:87:f6:ed:bf:12:b1:8b:f0:9a:7a:ee:02:94:
                    e1:3c:46:2b:7f:9c:54:fb:2e:61:c9:1c:ef:fc:de:
                    25:bc:2d:75:1b:1f:49:5e:44:3b:15:93:ad:c4:89:
                    d9:ae:3c:da:54:ef:d9:af:3a:16:cb:94:1b:6a:14:
                    e4:42:f9:75:33:46:6e:fb:40:bc:f8:82:36:cf:60:
                    f5:c2:a2:98:23:a7:2a:ae:c1:aa:22:f8:87:da:b7:
                    9c:a4:cf
                Exponent: 65537 (0x10001)
        X509v3 extensions:
            X509v3 Subject Key Identifier: 
                9D:8F:84:76:94:CD:07:FE:A3:E8:8B:D7:F9:D9:6E:EF:CA:75:51:7B
            X509v3 Authority Key Identifier: 
                keyid:9D:8F:84:76:94:CD:07:FE:A3:E8:8B:D7:F9:D9:6E:EF:CA:75:51:7B
                DirName:/C=BE/CN=txjsonrpc-test-ca
                serial:8D:D2:AF:37:F9:CA:92:0B

            X509v3 Basic Constraints: critical
                CA:TRUE
            Netscape Cert Type: 
                SSL CA, S/MIME CA
            X509v3 Issuer Alternative Name: 
                <EMPTY>

            Netscape Comment: 
                Test CA for txjsonrcp
            X509v3 Subject Alternative Name: 
                <EMPTY>

            X509v3 Key Usage: critical
                Certificate Sign, CRL Sign
    Signature Algorithm: sha1WithRSAEncryption
         06:82:86:81:a9:1b:7e:2d:ef:f5:fc:cc:d2:9d:d6:82:ad:d0:
         6f:7e:3d:b9:5c:b2:0f:3a:64:21:9a:fb:53:b2:93:81:dc:1a:
         24:fc:b8:30:57:a2:c7:71:0d:9c:1a:0b:8a:6c:89:52:8b:8a:
         f5:af:95:3e:b8:08:39:ee:36:50:ac:60:4d:df:2b:49:a2:72:
         f1:3f:12:3c:d9:55:56:a4:9a:77:2b:77:fa:16:b5:76:d9:f4:
         c4:51:6b:b9:fe:2f:a3:52:e8:64:80:49:22:6d:05:42:87:af:
         9d:85:6c:fa:c9:9b:48:39:7b:89:f5:a0:1e:ff:11:d3:9c:78:
         b1:b2:f6:4d:b1:e8:b3:98:23:2c:d4:20:e1:a1:01:3e:26:0a:
         5b:8e:eb:58:45:22:cf:e1:94:ad:84:40:b0:fb:ff:25:5f:31:
         9a:49:0b:36:ad:c6:1a:b0:42:60:40:e2:a2:3c:5a:36:41:89:
         fc:10:c4:60:ea:d4:85:7b:36:84:df:aa:81:cc:69:e7:52:ca:
         c1:46:b1:79:93:51:4f:24:84:42:14:3a:20:a0:6c:27:76:40:
         0f:96:7e:4e:c3:0c:37:b3:e3:73:49:86:58:31:00:1e:e7:0f:
         87:74:b6:4e:6e:1c:7d:87:a4:33:04:c9:76:ec:e5:3a:85:5f:
         a8:d1:ad:21:64:5e:c5:6a:df:b1:02:6e:65:a4:87:72:06:07:
         da:e5:f2:af:2b:a5:eb:18:80:67:83:a5:3c:e6:ed:d1:58:f9:
         90:5c:d6:e9:2f:76:c1:58:13:b8:bd:88:8a:f3:04:48:bb:42:
         8f:7f:c6:db:b4:30:3f:bb:6c:d5:47:e5:ae:8d:4b:da:92:a5:
         db:d3:6e:a8:9b:c2:6b:56:af:34:63:82:e6:78:f8:1f:54:d7:
         41:aa:a3:c9:7c:a6:83:41:bf:6e:33:7c:ae:e6:92:bd:da:27:
         b4:bc:e2:90:4f:33:1b:01:a1:cd:02:13:7a:31:ef:00:d6:9a:
         6e:38:6b:a7:cb:70:98:a8:0f:ff:1c:56:a8:b7:e6:d2:42:5a:
         bb:f4:78:27:71:13:d0:e8:43:eb:bc:2d:4f:e4:ea:4d:4f:76:
         7f:53:38:34:eb:13:e2:3d:c6:14:98:86:1c:ab:2c:0e:b7:68:
         2e:bd:63:a9:6a:8f:d5:22:2d:ab:13:d7:62:54:51:ff:5c:37:
         08:04:27:da:f9:57:77:05:18:73:88:5f:b0:c1:65:50:36:09:
         d6:c7:f5:ae:6e:3f:04:d1:84:3c:21:74:1d:bd:0a:fb:76:d0:
         13:2b:62:bb:24:48:43:89:d0:18:5c:b4:ad:ea:98:af:6d:fc:
         1c:6b:1f:06:64:54:23:88
-----BEGIN CERTIFICATE-----
MIIFwzCCA6ugAwIBAgIJAI3Srzf5ypILMA0GCSqGSIb3DQEBBQUAMCkxCzAJBgNV
BAYTAkJFMRowGAYDVQQDExF0eGpzb25ycGMtdGVzdC1jYTAeFw0xMjA2MjMxNTQ2
MzdaFw0yMjA2MjExNTQ2MzdaMCkxCzAJBgNVBAYTAkJFMRowGAYDVQQDExF0eGpz
b25ycGMtdGVzdC1jYTCCAiIwDQYJKoZIhvcNAQEBBQADggIPADCCAgoCggIBANEl
r3fFqHLPkLk5EPt7dSyh2mqV5UQM1iVLWH+7B4JZSVgyhSTMPnfb4adPyLXL7kU4
vbz743Y7iATKqzqjljtfk5wopmGX3KI/oJMrVmzP009qngXTHM3vdYAamLeSSRQz
uMR8c4x+g6WBolmMi6NRNm1orPLx7W9J2a96Y8FDMUK2x825eLczmHCSbJ4Eenvw
bTiH6wATF7nZ7LRmu1HT/YHjDohxI9KAKmHeqyUCR6nBa8lprtpHtkl0rKbhwXa6
bbHZaG4cN6jiGGA3tlgTbMeSfMZFjO/DgXMQ3C8x4rkFWp4ocFo+HbhocYHJ6P4f
w6AT+OQkErqRjhXSA/GMsKriNORr+Ab2I4qSQ6YF3OnHpagG126RUnJHq66H/rMP
BIdvSyIp6akGUlh9AxbX1TFEtPFRRKcqul4JGexMouBY/g1Ot5BNAqwqrZkUZTsK
PHNFVrIPECUkUXlXGjQaEG9g4PyB28rC4oUbTHITXJ12zNAhMzFWgo/FV7lE/Yt2
wbbkIYs1mu5UdJ9yaxmE16I8pW4RCvGTBC7dfEx9YhDUG4uH9u2/ErGL8Jp67gKU
4TxGK3+cVPsuYckc7/zeJbwtdRsfSV5EOxWTrcSJ2a482lTv2a86FsuUG2oU5EL5
dTNGbvtAvPiCNs9g9cKimCOnKq7BqiL4h9q3nKTPAgMBAAGjge0wgeowHQYDVR0O
BBYEFJ2PhHaUzQf+o+iL1/nZbu/KdVF7MFkGA1UdIwRSMFCAFJ2PhHaUzQf+o+iL
1/nZbu/KdVF7oS2kKzApMQswCQYDVQQGEwJCRTEaMBgGA1UEAxMRdHhqc29ucnBj
LXRlc3QtY2GCCQCN0q83+cqSCzAPBgNVHRMBAf8EBTADAQH/MBEGCWCGSAGG+EIB
AQQEAwIBBjAJBgNVHRIEAjAAMCQGCWCGSAGG+EIBDQQXFhVUZXN0IENBIGZvciB0
eGpzb25yY3AwCQYDVR0RBAIwADAOBgNVHQ8BAf8EBAMCAQYwDQYJKoZIhvcNAQEF
BQADggIBAAaChoGpG34t7/X8zNKd1oKt0G9+Pblcsg86ZCGa+1Oyk4HcGiT8uDBX
osdxDZwaC4psiVKLivWvlT64CDnuNlCsYE3fK0micvE/EjzZVVakmncrd/oWtXbZ
9MRRa7n+L6NS6GSASSJtBUKHr52FbPrJm0g5e4n1oB7/EdOceLGy9k2x6LOYIyzU
IOGhAT4mCluO61hFIs/hlK2EQLD7/yVfMZpJCzatxhqwQmBA4qI8WjZBifwQxGDq
1IV7NoTfqoHMaedSysFGsXmTUU8khEIUOiCgbCd2QA+Wfk7DDDez43NJhlgxAB7n
D4d0tk5uHH2HpDMEyXbs5TqFX6jRrSFkXsVq37ECbmWkh3IGB9rl8q8rpesYgGeD
pTzm7dFY+ZBc1ukvdsFYE7i9iIrzBEi7Qo9/xtu0MD+7bNVH5a6NS9qSpdvTbqib
wmtWrzRjguZ4+B9U10Gqo8l8poNBv24zfK7mkr3aJ7S84pBPMxsBoc0CE3ox7wDW
mm44a6fLcJioD/8cVqi35tJCWrv0eCdxE9DoQ+u8LU/k6k1Pdn9TODTrE+I9xhSY
hhyrLA63aC69Y6lqj9UiLasT12JUUf9cNwgEJ9r5V3cFGHOIX7DBZVA2CdbH9a5u
PwTRhDwhdB29Cvt20BMrYrskSEOJ0BhctK3qmK9t/BxrHwZkVCOI
-----END CERTIFICATE-----
