Certificate:
    Data:
        Version: 3 (0x2)
        Serial Number: 1 (0x1)
    Signature Algorithm: sha1WithRSAEncryption
        Issuer: C=BE, CN=txjsonrpc-pyserver
        Validity
            Not Before: Jun 23 15:47:38 2012 GMT
            Not After : Jun 23 15:47:38 2013 GMT
        Subject: C=BE, CN=txjsonrpc-pyserver
        Subject Public Key Info:
            Public Key Algorithm: rsaEncryption
                Public-Key: (4096 bit)
                Modulus:
                    00:98:02:69:03:a1:53:64:57:f5:37:b4:d1:ba:e0:
                    99:df:2b:73:31:47:de:de:04:0c:a4:a4:62:b5:71:
                    69:3b:6c:e6:3f:ee:09:74:61:5d:5a:28:f9:0f:d6:
                    b4:c5:67:d0:d8:84:d2:3d:eb:ea:ce:16:ff:3d:83:
                    a8:95:6a:dc:62:bc:53:4e:85:e4:4f:44:27:94:36:
                    6e:e4:26:6d:d4:7b:06:b6:f1:d5:65:54:a0:ac:85:
                    d4:84:2d:df:42:63:54:25:20:89:a7:76:49:52:83:
                    da:eb:10:67:cc:21:d6:01:d0:c1:70:61:d5:42:63:
                    70:43:74:53:3f:84:89:92:5b:3d:f5:5a:f3:61:87:
                    85:f7:41:f1:c4:c6:7a:97:29:dd:7e:04:b1:ca:54:
                    a4:ba:85:33:9b:e5:c0:f5:4f:32:42:cc:08:fa:97:
                    e3:3a:1e:b0:ea:60:c0:0d:7d:c8:8d:00:01:b5:23:
                    38:c8:ee:c1:0f:e1:e9:5e:45:9e:4a:47:db:ba:7c:
                    80:53:8e:dd:7f:ec:b7:e8:be:c9:b6:11:9d:eb:7a:
                    41:ec:87:6f:0f:f4:c2:0e:f7:ee:c9:97:92:c6:fb:
                    1d:7b:c3:08:07:03:2c:98:51:90:be:45:2d:b5:17:
                    eb:c9:bc:d7:07:5e:23:e8:a6:5d:9c:19:aa:93:f5:
                    9a:be:c0:07:d9:0b:b9:81:77:3e:b9:a8:63:5d:11:
                    03:2c:89:43:b0:3f:96:6c:c6:73:b4:d4:83:0d:05:
                    e5:9e:e0:29:a4:f1:2e:fd:0d:c9:11:66:08:ae:3e:
                    6a:fd:9d:49:d6:e8:a8:3d:02:28:ea:01:68:bc:6a:
                    77:38:72:8b:dd:63:66:c6:b6:25:92:f9:1a:b7:2d:
                    eb:3a:5c:5e:30:5d:0d:31:24:c7:0e:8e:22:81:7b:
                    74:05:b4:7f:f7:28:c0:c3:8f:be:f6:c6:4e:05:ff:
                    22:62:0a:b4:f5:25:04:cb:83:a9:9f:c7:e8:a8:08:
                    96:0b:05:bc:d6:ef:e0:a6:59:4b:8a:91:98:14:cb:
                    19:ac:4f:c1:53:9a:66:39:d4:e0:0a:51:ca:ba:aa:
                    fd:9b:24:3b:84:11:b2:02:15:c4:c3:25:16:9b:82:
                    44:f5:bb:e3:ab:aa:18:a0:e3:02:72:d7:cf:6a:07:
                    af:d2:ea:08:c8:07:73:13:3f:aa:4b:b3:0d:11:43:
                    55:fb:cc:18:fc:93:1b:f7:44:4b:d5:bc:2a:7c:1c:
                    57:fc:09:17:72:05:c2:e0:2b:9e:09:6a:ac:ef:f0:
                    00:55:cb:f6:76:84:5e:2d:49:ea:22:cf:74:83:27:
                    51:fb:b9:e2:b0:b5:5e:d6:5c:74:a1:6f:e3:ee:98:
                    f6:e8:fb
                Exponent: 65537 (0x10001)
        X509v3 extensions:
            X509v3 Basic Constraints: 
                CA:FALSE
            Netscape Cert Type: 
                SSL Server
            Netscape Comment: 
                TinyCA Generated Certificate
            X509v3 Subject Key Identifier: 
                26:8C:A5:F9:A6:4A:FE:4C:E8:0F:04:33:7E:04:26:28:BF:4C:92:F3
            X509v3 Authority Key Identifier: 
                keyid:9D:8F:84:76:94:CD:07:FE:A3:E8:8B:D7:F9:D9:6E:EF:CA:75:51:7B
                DirName:/C=BE/CN=txjsonrpc-test-ca
                serial:8D:D2:AF:37:F9:CA:92:0B

            X509v3 Issuer Alternative Name: 
                <EMPTY>

            X509v3 Subject Alternative Name: 
                <EMPTY>

    Signature Algorithm: sha1WithRSAEncryption
         53:c3:0d:d3:d6:5e:3d:5a:91:91:c0:39:75:68:1b:59:e0:a1:
         4c:84:45:9c:b7:6c:80:ec:fd:e3:2d:72:fc:8f:83:22:ef:83:
         3e:9d:f2:cc:ab:5f:45:77:8c:19:ca:d6:96:2f:72:6d:90:b7:
         77:14:e9:72:d6:1e:af:7c:ee:53:c9:ab:43:c1:12:ca:60:72:
         62:b3:a3:cc:e7:3d:ff:21:f5:09:d8:95:ce:bd:40:c9:29:3d:
         a1:cb:92:e0:b3:d2:bd:07:27:e8:2e:28:8a:cd:ca:24:d4:7c:
         32:b0:e7:11:ab:95:cf:1f:64:d8:d1:0b:d2:df:69:ce:67:35:
         87:d6:d1:76:59:28:26:43:84:4b:67:39:1f:65:aa:34:9d:56:
         27:7f:05:4f:a6:b1:8d:a4:7a:1d:31:52:f0:0c:6b:87:cc:28:
         9e:c3:f6:c9:9a:3e:a5:1d:d1:b7:60:71:c3:a4:81:ec:65:c0:
         20:7d:23:18:6e:d4:39:b2:59:64:8d:db:3e:2e:d7:47:3d:ec:
         c2:47:cc:a6:ce:54:72:5b:58:5b:7b:a1:bf:38:c2:a7:c1:8b:
         17:b1:f7:cb:7d:f9:ef:71:9b:ea:f0:cf:81:2a:0a:82:6a:ed:
         dd:53:19:97:72:cb:b5:cc:6a:82:0f:c7:86:ce:7f:9e:e7:bc:
         b8:1a:d2:6a:c3:ad:02:23:ac:5e:f9:dd:7f:c7:e5:6a:32:e5:
         dc:16:74:8c:7f:43:43:67:c2:61:3e:c0:a7:f6:8a:35:e8:c6:
         f9:eb:f6:22:76:c6:b3:ac:51:fc:8c:00:77:4a:b1:54:ba:35:
         ab:fa:b4:58:8b:2b:01:ff:bc:9c:a2:7f:53:45:ae:c7:6a:6c:
         35:6c:cc:b0:cd:9f:c0:7a:eb:7a:77:51:c8:81:09:76:3f:ee:
         21:b0:91:f5:9d:4c:d2:26:a1:3b:9b:2b:18:8c:11:10:c3:de:
         3e:e3:3c:ce:9d:62:6d:b7:ff:10:4b:fa:59:7a:bf:58:82:21:
         79:6f:4f:6b:d4:4d:de:72:bd:26:07:a8:c9:47:42:29:e8:fa:
         22:0f:0d:98:b6:b9:c6:95:a0:2c:c8:2b:e4:7c:89:7e:d7:05:
         8b:17:85:fd:3f:a9:c1:1c:01:f1:00:1a:05:a2:a1:38:d4:30:
         79:66:ae:91:82:c7:51:4f:00:fb:ae:7a:0f:de:0a:c3:01:68:
         52:94:06:0d:bc:5c:f7:c0:da:de:c8:f1:71:13:99:3d:ff:45:
         c2:13:ab:19:93:85:2c:6a:2e:25:b3:32:b1:8b:8c:b8:9e:5e:
         0a:88:a7:36:b3:de:22:ed:bc:14:25:44:9d:4a:0b:7f:34:92:
         9c:1b:08:09:07:49:30:47
-----BEGIN CERTIFICATE-----
MIIFrjCCA5agAwIBAgIBATANBgkqhkiG9w0BAQUFADAqMQswCQYDVQQGEwJCRTEb
MBkGA1UEAxMSdHhqc29ucnBjLXB5c2VydmVyMB4XDTEyMDYyMzE1NDczOFoXDTEz
MDYyMzE1NDczOFowKjELMAkGA1UEBhMCQkUxGzAZBgNVBAMTEnR4anNvbnJwYy1w
eXNlcnZlcjCCAiIwDQYJKoZIhvcNAQEBBQADggIPADCCAgoCggIBAJgCaQOhU2RX
9Te00brgmd8rczFH3t4EDKSkYrVxaTts5j/uCXRhXVoo+Q/WtMVn0NiE0j3r6s4W
/z2DqJVq3GK8U06F5E9EJ5Q2buQmbdR7Brbx1WVUoKyF1IQt30JjVCUgiad2SVKD
2usQZ8wh1gHQwXBh1UJjcEN0Uz+EiZJbPfVa82GHhfdB8cTGepcp3X4EscpUpLqF
M5vlwPVPMkLMCPqX4zoesOpgwA19yI0AAbUjOMjuwQ/h6V5FnkpH27p8gFOO3X/s
t+i+ybYRnet6QeyHbw/0wg737smXksb7HXvDCAcDLJhRkL5FLbUX68m81wdeI+im
XZwZqpP1mr7AB9kLuYF3PrmoY10RAyyJQ7A/lmzGc7TUgw0F5Z7gKaTxLv0NyRFm
CK4+av2dSdboqD0CKOoBaLxqdzhyi91jZsa2JZL5Grct6zpcXjBdDTEkxw6OIoF7
dAW0f/cowMOPvvbGTgX/ImIKtPUlBMuDqZ/H6KgIlgsFvNbv4KZZS4qRmBTLGaxP
wVOaZjnU4ApRyrqq/ZskO4QRsgIVxMMlFpuCRPW746uqGKDjAnLXz2oHr9LqCMgH
cxM/qkuzDRFDVfvMGPyTG/dES9W8KnwcV/wJF3IFwuArnglqrO/wAFXL9naEXi1J
6iLPdIMnUfu54rC1XtZcdKFv4+6Y9uj7AgMBAAGjgd4wgdswCQYDVR0TBAIwADAR
BglghkgBhvhCAQEEBAMCBkAwKwYJYIZIAYb4QgENBB4WHFRpbnlDQSBHZW5lcmF0
ZWQgQ2VydGlmaWNhdGUwHQYDVR0OBBYEFCaMpfmmSv5M6A8EM34EJii/TJLzMFkG
A1UdIwRSMFCAFJ2PhHaUzQf+o+iL1/nZbu/KdVF7oS2kKzApMQswCQYDVQQGEwJC
RTEaMBgGA1UEAxMRdHhqc29ucnBjLXRlc3QtY2GCCQCN0q83+cqSCzAJBgNVHRIE
AjAAMAkGA1UdEQQCMAAwDQYJKoZIhvcNAQEFBQADggIBAFPDDdPWXj1akZHAOXVo
G1ngoUyERZy3bIDs/eMtcvyPgyLvgz6d8syrX0V3jBnK1pYvcm2Qt3cU6XLWHq98
7lPJq0PBEspgcmKzo8znPf8h9QnYlc69QMkpPaHLkuCz0r0HJ+guKIrNyiTUfDKw
5xGrlc8fZNjRC9Lfac5nNYfW0XZZKCZDhEtnOR9lqjSdVid/BU+msY2keh0xUvAM
a4fMKJ7D9smaPqUd0bdgccOkgexlwCB9Ixhu1DmyWWSN2z4u10c97MJHzKbOVHJb
WFt7ob84wqfBixex98t9+e9xm+rwz4EqCoJq7d1TGZdyy7XMaoIPx4bOf57nvLga
0mrDrQIjrF753X/H5Woy5dwWdIx/Q0NnwmE+wKf2ijXoxvnr9iJ2xrOsUfyMAHdK
sVS6Nav6tFiLKwH/vJyif1NFrsdqbDVszLDNn8B663p3UciBCXY/7iGwkfWdTNIm
oTubKxiMERDD3j7jPM6dYm23/xBL+ll6v1iCIXlvT2vUTd5yvSYHqMlHQino+iIP
DZi2ucaVoCzIK+R8iX7XBYsXhf0/qcEcAfEAGgWioTjUMHlmrpGCx1FPAPuueg/e
CsMBaFKUBg28XPfA2t7I8XETmT3/RcITqxmThSxqLiWzMrGLjLieXgqIpzaz3iLt
vBQlRJ1KC380kpwbCAkHSTBH
-----END CERTIFICATE-----
