Certificate:
    Data:
        Version: 3 (0x2)
        Serial Number: 1 (0x1)
    Signature Algorithm: sha1WithRSAEncryption
        Issuer: CN=ca-false, C=BE, O=Gremwell bvba
        Validity
            Not Before: Jun 23 15:47:38 2012 GMT
            Not After : Jun 23 15:47:38 2013 GMT
        Subject: C=BE, CN=txjsonrpc-pyserver
        Subject Public Key Info:
            Public Key Algorithm: rsaEncryption
                Public-Key: (4096 bit)
                Modulus:
                    00:98:02:69:03:a1:53:64:57:f5:37:b4:d1:ba:e0:
                    99:df:2b:73:31:47:de:de:04:0c:a4:a4:62:b5:71:
                    69:3b:6c:e6:3f:ee:09:74:61:5d:5a:28:f9:0f:d6:
                    b4:c5:67:d0:d8:84:d2:3d:eb:ea:ce:16:ff:3d:83:
                    a8:95:6a:dc:62:bc:53:4e:85:e4:4f:44:27:94:36:
                    6e:e4:26:6d:d4:7b:06:b6:f1:d5:65:54:a0:ac:85:
                    d4:84:2d:df:42:63:54:25:20:89:a7:76:49:52:83:
                    da:eb:10:67:cc:21:d6:01:d0:c1:70:61:d5:42:63:
                    70:43:74:53:3f:84:89:92:5b:3d:f5:5a:f3:61:87:
                    85:f7:41:f1:c4:c6:7a:97:29:dd:7e:04:b1:ca:54:
                    a4:ba:85:33:9b:e5:c0:f5:4f:32:42:cc:08:fa:97:
                    e3:3a:1e:b0:ea:60:c0:0d:7d:c8:8d:00:01:b5:23:
                    38:c8:ee:c1:0f:e1:e9:5e:45:9e:4a:47:db:ba:7c:
                    80:53:8e:dd:7f:ec:b7:e8:be:c9:b6:11:9d:eb:7a:
                    41:ec:87:6f:0f:f4:c2:0e:f7:ee:c9:97:92:c6:fb:
                    1d:7b:c3:08:07:03:2c:98:51:90:be:45:2d:b5:17:
                    eb:c9:bc:d7:07:5e:23:e8:a6:5d:9c:19:aa:93:f5:
                    9a:be:c0:07:d9:0b:b9:81:77:3e:b9:a8:63:5d:11:
                    03:2c:89:43:b0:3f:96:6c:c6:73:b4:d4:83:0d:05:
                    e5:9e:e0:29:a4:f1:2e:fd:0d:c9:11:66:08:ae:3e:
                    6a:fd:9d:49:d6:e8:a8:3d:02:28:ea:01:68:bc:6a:
                    77:38:72:8b:dd:63:66:c6:b6:25:92:f9:1a:b7:2d:
                    eb:3a:5c:5e:30:5d:0d:31:24:c7:0e:8e:22:81:7b:
                    74:05:b4:7f:f7:28:c0:c3:8f:be:f6:c6:4e:05:ff:
                    22:62:0a:b4:f5:25:04:cb:83:a9:9f:c7:e8:a8:08:
                    96:0b:05:bc:d6:ef:e0:a6:59:4b:8a:91:98:14:cb:
                    19:ac:4f:c1:53:9a:66:39:d4:e0:0a:51:ca:ba:aa:
                    fd:9b:24:3b:84:11:b2:02:15:c4:c3:25:16:9b:82:
                    44:f5:bb:e3:ab:aa:18:a0:e3:02:72:d7:cf:6a:07:
                    af:d2:ea:08:c8:07:73:13:3f:aa:4b:b3:0d:11:43:
                    55:fb:cc:18:fc:93:1b:f7:44:4b:d5:bc:2a:7c:1c:
                    57:fc:09:17:72:05:c2:e0:2b:9e:09:6a:ac:ef:f0:
                    00:55:cb:f6:76:84:5e:2d:49:ea:22:cf:74:83:27:
                    51:fb:b9:e2:b0:b5:5e:d6:5c:74:a1:6f:e3:ee:98:
                    f6:e8:fb
                Exponent: 65537 (0x10001)
        X509v3 extensions:
            X509v3 Basic Constraints: 
                CA:FALSE
            Netscape Cert Type: 
                SSL Server
            Netscape Comment: 
                TinyCA Generated Certificate
            X509v3 Subject Key Identifier: 
                26:8C:A5:F9:A6:4A:FE:4C:E8:0F:04:33:7E:04:26:28:BF:4C:92:F3
            X509v3 Authority Key Identifier: 
                keyid:9D:8F:84:76:94:CD:07:FE:A3:E8:8B:D7:F9:D9:6E:EF:CA:75:51:7B
                DirName:/C=BE/CN=txjsonrpc-test-ca
                serial:8D:D2:AF:37:F9:CA:92:0B

            X509v3 Issuer Alternative Name: 
                <EMPTY>

            X509v3 Subject Alternative Name: 
                <EMPTY>

    Signature Algorithm: sha1WithRSAEncryption
         d1:13:d4:1b:db:d2:1b:81:98:5e:7d:d5:38:05:3d:9e:e9:2c:
         23:63:9b:88:9e:3f:91:25:00:b3:0b:da:7b:10:ac:b9:9d:d3:
         73:4e:29:2f:1b:b4:0c:9a:b3:0e:c0:f3:3c:1b:80:b2:a8:15:
         89:c2:67:99:43:a2:7a:a5:be:17:d7:6d:e1:14:be:be:02:5b:
         56:fd:83:79:30:f0:95:97:71:69:66:5d:0d:d6:38:d7:ec:50:
         da:96:21:cf:1e:00:1b:13:29:ca:db:45:d8:27:9b:ee:4e:05:
         e7:6b:a1:e8:88:bc:1e:bf:16:85:00:64:fe:71:1d:34:70:52:
         d2:11
-----BEGIN CERTIFICATE-----
MIIEOzCCA6SgAwIBAgIBATANBgkqhkiG9w0BAQUFADA4MREwDwYDVQQDEwhjYS1m
YWxzZTELMAkGA1UEBhMCQkUxFjAUBgNVBAoTDUdyZW13ZWxsIGJ2YmEwHhcNMTIw
NjIzMTU0NzM4WhcNMTMwNjIzMTU0NzM4WjAqMQswCQYDVQQGEwJCRTEbMBkGA1UE
AxMSdHhqc29ucnBjLXB5c2VydmVyMIICIjANBgkqhkiG9w0BAQEFAAOCAg8AMIIC
CgKCAgEAmAJpA6FTZFf1N7TRuuCZ3ytzMUfe3gQMpKRitXFpO2zmP+4JdGFdWij5
D9a0xWfQ2ITSPevqzhb/PYOolWrcYrxTToXkT0QnlDZu5CZt1HsGtvHVZVSgrIXU
hC3fQmNUJSCJp3ZJUoPa6xBnzCHWAdDBcGHVQmNwQ3RTP4SJkls99VrzYYeF90Hx
xMZ6lyndfgSxylSkuoUzm+XA9U8yQswI+pfjOh6w6mDADX3IjQABtSM4yO7BD+Hp
XkWeSkfbunyAU47df+y36L7JthGd63pB7IdvD/TCDvfuyZeSxvsde8MIBwMsmFGQ
vkUttRfrybzXB14j6KZdnBmqk/WavsAH2Qu5gXc+uahjXREDLIlDsD+WbMZztNSD
DQXlnuAppPEu/Q3JEWYIrj5q/Z1J1uioPQIo6gFovGp3OHKL3WNmxrYlkvkaty3r
OlxeMF0NMSTHDo4igXt0BbR/9yjAw4++9sZOBf8iYgq09SUEy4Opn8foqAiWCwW8
1u/gpllLipGYFMsZrE/BU5pmOdTgClHKuqr9myQ7hBGyAhXEwyUWm4JE9bvjq6oY
oOMCctfPagev0uoIyAdzEz+qS7MNEUNV+8wY/JMb90RL1bwqfBxX/AkXcgXC4Cue
CWqs7/AAVcv2doReLUnqIs90gydR+7nisLVe1lx0oW/j7pj26PsCAwEAAaOB3jCB
2zAJBgNVHRMEAjAAMBEGCWCGSAGG+EIBAQQEAwIGQDArBglghkgBhvhCAQ0EHhYc
VGlueUNBIEdlbmVyYXRlZCBDZXJ0aWZpY2F0ZTAdBgNVHQ4EFgQUJoyl+aZK/kzo
DwQzfgQmKL9MkvMwWQYDVR0jBFIwUIAUnY+EdpTNB/6j6IvX+dlu78p1UXuhLaQr
MCkxCzAJBgNVBAYTAkJFMRowGAYDVQQDExF0eGpzb25ycGMtdGVzdC1jYYIJAI3S
rzf5ypILMAkGA1UdEgQCMAAwCQYDVR0RBAIwADANBgkqhkiG9w0BAQUFAAOBgQDR
E9Qb29IbgZhefdU4BT2e6SwjY5uInj+RJQCzC9p7EKy5ndNzTikvG7QMmrMOwPM8
G4CyqBWJwmeZQ6J6pb4X123hFL6+AltW/YN5MPCVl3FpZl0N1jjX7FDaliHPHgAb
EynK20XYJ5vuTgXna6HoiLwevxaFAGT+cR00cFLSEQ==
-----END CERTIFICATE-----
Certificate:
    Data:
        Version: 4 (0x3)
        Serial Number: 1 (0x1)
    Signature Algorithm: sha1WithRSAEncryption
        Issuer: C=BE, CN=txjsonrpc-test-ca
        Validity
            Not Before: Jan  1 00:00:00 1970 GMT
            Not After : Jan 19 03:14:07 2038 GMT
        Subject: CN=ca-false, C=BE, O=Gremwell bvba
        Subject Public Key Info:
            Public Key Algorithm: rsaEncryption
                Public-Key: (1024 bit)
                Modulus:
                    00:d6:ff:da:5d:4b:bb:b2:e0:b7:07:b4:7f:8d:50:
                    43:0d:22:5e:6d:f2:a1:ea:53:b7:9d:9c:97:89:05:
                    ba:2b:41:73:77:86:9a:54:39:be:9e:03:a4:9f:d1:
                    67:2a:dd:76:e8:79:62:d1:63:7b:3b:8a:4f:5e:a7:
                    8c:be:09:07:94:58:24:f4:83:46:93:fd:f9:55:b0:
                    39:8e:3f:e1:9c:c6:87:5e:54:8b:27:78:b2:3e:3f:
                    fd:cc:52:95:63:de:af:2f:af:67:bd:b7:d6:b5:d5:
                    d0:75:1d:e3:e9:06:f8:e2:e0:9e:01:3a:c6:a2:da:
                    f2:67:be:2f:40:18:9c:29:e7
                Exponent: 65537 (0x10001)
        X509v3 extensions:
            X509v3 Basic Constraints: critical
                CA:FALSE
    Signature Algorithm: sha1WithRSAEncryption
         54:e8:55:64:24:a1:32:44:5d:c2:76:36:e6:af:a2:24:c2:52:
         6e:f9:2f:35:6f:08:78:34:e4:3d:c8:c5:a6:9b:98:06:4a:0c:
         a6:4f:53:86:d5:e9:f7:c9:95:40:42:5a:d3:5b:54:49:1c:f0:
         f5:a1:8d:31:05:63:8c:2a:1a:30:f4:4f:47:9e:95:bc:8a:0f:
         cf:3c:59:fb:cb:85:47:83:e6:6f:e5:4a:b8:a1:bc:ce:41:b5:
         1a:6b:e6:15:e7:47:c5:88:54:86:67:b9:84:f4:2f:4a:f1:91:
         20:4c:f9:11:6f:93:82:ce:63:0e:47:6c:a6:8f:04:d4:b3:b0:
         d7:ed:18:11:37:ec:ce:aa:c6:e3:58:a0:d8:ff:3d:cb:38:43:
         1a:a0:32:69:f9:7b:7d:70:ad:5e:91:82:08:bf:a8:b2:f2:91:
         33:10:94:69:59:87:8a:95:83:f1:5c:aa:95:be:82:71:07:08:
         74:d6:fb:12:29:8a:5d:d7:f9:b8:4e:44:71:94:00:a5:ef:fd:
         87:85:32:59:98:1c:b7:7e:ec:26:83:12:8c:82:85:29:d3:1f:
         3e:3a:58:c2:50:ff:0e:98:50:97:72:e3:38:6b:79:46:90:db:
         0e:95:26:d4:c3:e7:64:3c:21:f5:81:a9:06:78:f9:28:2c:2d:
         00:b2:85:d2:6f:07:52:2a:5b:36:2d:27:5e:f4:cd:d6:57:0f:
         75:87:a8:18:a6:65:eb:fd:c5:94:83:b4:aa:71:33:f0:15:94:
         c8:06:8c:da:25:6a:a2:0e:5f:7b:fe:2a:ad:9f:1c:34:e5:ac:
         26:81:98:b6:66:99:6e:12:4a:5a:bd:b5:38:37:6c:7e:a5:52:
         9b:00:4c:3a:33:31:a4:dc:b8:2d:a8:ef:eb:93:78:ea:4a:17:
         08:aa:b2:e9:84:d1:7c:12:18:8c:ae:31:54:da:54:fe:c0:54:
         84:9f:4c:26:5d:39:4e:b6:21:b5:79:e2:2b:fe:40:09:b5:19:
         79:21:e3:66:02:e9:df:44:52:2b:d0:40:24:3b:06:6d:da:d3:
         4c:e4:78:67:34:ae:9a:aa:12:db:22:c7:19:63:5e:60:ef:3f:
         a5:04:f5:b8:29:17:11:c5:bf:5f:79:e3:9d:be:de:d1:61:75:
         f3:e7:c0:a8:dd:6c:94:cc:b0:1c:45:c6:48:7e:d9:5a:8c:2a:
         f1:28:21:ab:84:5e:5a:87:ce:bf:06:95:69:6a:da:27:e8:78:
         a9:6b:b3:ce:f7:4b:97:84:b1:64:b6:b0:df:14:22:3b:66:b7:
         7d:0a:3c:39:45:3e:3a:a1:34:6e:bf:56:35:d0:e2:e3:93:f1:
         d5:52:39:7f:a2:c4:23:54
-----BEGIN CERTIFICATE-----
MIIDaDCCAVCgAwIBAwIBATANBgkqhkiG9w0BAQUFADApMQswCQYDVQQGEwJCRTEa
MBgGA1UEAxMRdHhqc29ucnBjLXRlc3QtY2EwHhcNNzAwMTAxMDAwMDAwWhcNMzgw
MTE5MDMxNDA3WjA4MREwDwYDVQQDEwhjYS1mYWxzZTELMAkGA1UEBhMCQkUxFjAU
BgNVBAoTDUdyZW13ZWxsIGJ2YmEwgZ8wDQYJKoZIhvcNAQEBBQADgY0AMIGJAoGB
ANb/2l1Lu7Lgtwe0f41QQw0iXm3yoepTt52cl4kFuitBc3eGmlQ5vp4DpJ/RZyrd
duh5YtFjezuKT16njL4JB5RYJPSDRpP9+VWwOY4/4ZzGh15Uiyd4sj4//cxSlWPe
ry+vZ7231rXV0HUd4+kG+OLgngE6xqLa8me+L0AYnCnnAgMBAAGjEDAOMAwGA1Ud
EwEB/wQCMAAwDQYJKoZIhvcNAQEFBQADggIBAFToVWQkoTJEXcJ2NuavoiTCUm75
LzVvCHg05D3IxaabmAZKDKZPU4bV6ffJlUBCWtNbVEkc8PWhjTEFY4wqGjD0T0ee
lbyKD888WfvLhUeD5m/lSrihvM5BtRpr5hXnR8WIVIZnuYT0L0rxkSBM+RFvk4LO
Yw5HbKaPBNSzsNftGBE37M6qxuNYoNj/Pcs4QxqgMmn5e31wrV6Rggi/qLLykTMQ
lGlZh4qVg/FcqpW+gnEHCHTW+xIpil3X+bhORHGUAKXv/YeFMlmYHLd+7CaDEoyC
hSnTHz46WMJQ/w6YUJdy4zhreUaQ2w6VJtTD52Q8IfWBqQZ4+SgsLQCyhdJvB1Iq
WzYtJ170zdZXD3WHqBimZev9xZSDtKpxM/AVlMgGjNolaqIOX3v+Kq2fHDTlrCaB
mLZmmW4SSlq9tTg3bH6lUpsATDozMaTcuC2o7+uTeOpKFwiqsumE0XwSGIyuMVTa
VP7AVISfTCZdOU62IbV54iv+QAm1GXkh42YC6d9EUivQQCQ7Bm3a00zkeGc0rpqq
EtsixxljXmDvP6UE9bgpFxHFv195452+3tFhdfPnwKjdbJTMsBxFxkh+2VqMKvEo
IauEXlqHzr8GlWlq2ifoeKlrs873S5eEsWS2sN8UIjtmt30KPDlFPjqhNG6/VjXQ
4uOT8dVSOX+ixCNU
-----END CERTIFICATE-----
