Certificate:
    Data:
        Version: 3 (0x2)
        Serial Number: 1 (0x1)
    Signature Algorithm: sha1WithRSAEncryption
        Issuer: CN=ca-none, C=BE, O=Gremwell bvba
        Validity
            Not Before: Jun 23 15:47:38 2012 GMT
            Not After : Jun 23 15:47:38 2013 GMT
        Subject: C=BE, CN=txjsonrpc-pyserver
        Subject Public Key Info:
            Public Key Algorithm: rsaEncryption
                Public-Key: (4096 bit)
                Modulus:
                    00:98:02:69:03:a1:53:64:57:f5:37:b4:d1:ba:e0:
                    99:df:2b:73:31:47:de:de:04:0c:a4:a4:62:b5:71:
                    69:3b:6c:e6:3f:ee:09:74:61:5d:5a:28:f9:0f:d6:
                    b4:c5:67:d0:d8:84:d2:3d:eb:ea:ce:16:ff:3d:83:
                    a8:95:6a:dc:62:bc:53:4e:85:e4:4f:44:27:94:36:
                    6e:e4:26:6d:d4:7b:06:b6:f1:d5:65:54:a0:ac:85:
                    d4:84:2d:df:42:63:54:25:20:89:a7:76:49:52:83:
                    da:eb:10:67:cc:21:d6:01:d0:c1:70:61:d5:42:63:
                    70:43:74:53:3f:84:89:92:5b:3d:f5:5a:f3:61:87:
                    85:f7:41:f1:c4:c6:7a:97:29:dd:7e:04:b1:ca:54:
                    a4:ba:85:33:9b:e5:c0:f5:4f:32:42:cc:08:fa:97:
                    e3:3a:1e:b0:ea:60:c0:0d:7d:c8:8d:00:01:b5:23:
                    38:c8:ee:c1:0f:e1:e9:5e:45:9e:4a:47:db:ba:7c:
                    80:53:8e:dd:7f:ec:b7:e8:be:c9:b6:11:9d:eb:7a:
                    41:ec:87:6f:0f:f4:c2:0e:f7:ee:c9:97:92:c6:fb:
                    1d:7b:c3:08:07:03:2c:98:51:90:be:45:2d:b5:17:
                    eb:c9:bc:d7:07:5e:23:e8:a6:5d:9c:19:aa:93:f5:
                    9a:be:c0:07:d9:0b:b9:81:77:3e:b9:a8:63:5d:11:
                    03:2c:89:43:b0:3f:96:6c:c6:73:b4:d4:83:0d:05:
                    e5:9e:e0:29:a4:f1:2e:fd:0d:c9:11:66:08:ae:3e:
                    6a:fd:9d:49:d6:e8:a8:3d:02:28:ea:01:68:bc:6a:
                    77:38:72:8b:dd:63:66:c6:b6:25:92:f9:1a:b7:2d:
                    eb:3a:5c:5e:30:5d:0d:31:24:c7:0e:8e:22:81:7b:
                    74:05:b4:7f:f7:28:c0:c3:8f:be:f6:c6:4e:05:ff:
                    22:62:0a:b4:f5:25:04:cb:83:a9:9f:c7:e8:a8:08:
                    96:0b:05:bc:d6:ef:e0:a6:59:4b:8a:91:98:14:cb:
                    19:ac:4f:c1:53:9a:66:39:d4:e0:0a:51:ca:ba:aa:
                    fd:9b:24:3b:84:11:b2:02:15:c4:c3:25:16:9b:82:
                    44:f5:bb:e3:ab:aa:18:a0:e3:02:72:d7:cf:6a:07:
                    af:d2:ea:08:c8:07:73:13:3f:aa:4b:b3:0d:11:43:
                    55:fb:cc:18:fc:93:1b:f7:44:4b:d5:bc:2a:7c:1c:
                    57:fc:09:17:72:05:c2:e0:2b:9e:09:6a:ac:ef:f0:
                    00:55:cb:f6:76:84:5e:2d:49:ea:22:cf:74:83:27:
                    51:fb:b9:e2:b0:b5:5e:d6:5c:74:a1:6f:e3:ee:98:
                    f6:e8:fb
                Exponent: 65537 (0x10001)
        X509v3 extensions:
            X509v3 Basic Constraints: 
                CA:FALSE
            Netscape Cert Type: 
                SSL Server
            Netscape Comment: 
                TinyCA Generated Certificate
            X509v3 Subject Key Identifier: 
                26:8C:A5:F9:A6:4A:FE:4C:E8:0F:04:33:7E:04:26:28:BF:4C:92:F3
            X509v3 Authority Key Identifier: 
                keyid:9D:8F:84:76:94:CD:07:FE:A3:E8:8B:D7:F9:D9:6E:EF:CA:75:51:7B
                DirName:/C=BE/CN=txjsonrpc-test-ca
                serial:8D:D2:AF:37:F9:CA:92:0B

            X509v3 Issuer Alternative Name: 
                <EMPTY>

            X509v3 Subject Alternative Name: 
                <EMPTY>

    Signature Algorithm: sha1WithRSAEncryption
         21:43:27:96:1d:3c:8f:a6:44:83:2e:92:21:db:c5:96:89:41:
         8f:f2:0e:d3:b6:00:82:55:51:0a:65:26:4c:55:10:1a:66:61:
         39:47:a0:3d:af:81:f0:c1:c2:b6:24:2e:35:4f:36:18:3d:60:
         0b:d1:71:14:45:5a:9f:17:11:b8:8a:3e:94:50:1c:78:be:bf:
         ee:8d:75:ce:18:7e:d5:07:1e:ff:60:f7:b3:c1:1d:ba:fb:f9:
         c1:fd:4e:83:bc:97:a4:80:4f:c4:27:ec:33:a3:ba:5d:fd:ab:
         a2:26:17:30:14:46:45:46:65:d3:0c:3c:ff:7b:d8:89:39:26:
         e3:2b
-----BEGIN CERTIFICATE-----
MIIEOjCCA6OgAwIBAgIBATANBgkqhkiG9w0BAQUFADA3MRAwDgYDVQQDEwdjYS1u
b25lMQswCQYDVQQGEwJCRTEWMBQGA1UEChMNR3JlbXdlbGwgYnZiYTAeFw0xMjA2
MjMxNTQ3MzhaFw0xMzA2MjMxNTQ3MzhaMCoxCzAJBgNVBAYTAkJFMRswGQYDVQQD
ExJ0eGpzb25ycGMtcHlzZXJ2ZXIwggIiMA0GCSqGSIb3DQEBAQUAA4ICDwAwggIK
AoICAQCYAmkDoVNkV/U3tNG64JnfK3MxR97eBAykpGK1cWk7bOY/7gl0YV1aKPkP
1rTFZ9DYhNI96+rOFv89g6iVatxivFNOheRPRCeUNm7kJm3Uewa28dVlVKCshdSE
Ld9CY1QlIImndklSg9rrEGfMIdYB0MFwYdVCY3BDdFM/hImSWz31WvNhh4X3QfHE
xnqXKd1+BLHKVKS6hTOb5cD1TzJCzAj6l+M6HrDqYMANfciNAAG1IzjI7sEP4ele
RZ5KR9u6fIBTjt1/7Lfovsm2EZ3rekHsh28P9MIO9+7Jl5LG+x17wwgHAyyYUZC+
RS21F+vJvNcHXiPopl2cGaqT9Zq+wAfZC7mBdz65qGNdEQMsiUOwP5ZsxnO01IMN
BeWe4Cmk8S79DckRZgiuPmr9nUnW6Kg9AijqAWi8anc4covdY2bGtiWS+Rq3Les6
XF4wXQ0xJMcOjiKBe3QFtH/3KMDDj772xk4F/yJiCrT1JQTLg6mfx+ioCJYLBbzW
7+CmWUuKkZgUyxmsT8FTmmY51OAKUcq6qv2bJDuEEbICFcTDJRabgkT1u+Orqhig
4wJy189qB6/S6gjIB3MTP6pLsw0RQ1X7zBj8kxv3REvVvCp8HFf8CRdyBcLgK54J
aqzv8ABVy/Z2hF4tSeoiz3SDJ1H7ueKwtV7WXHShb+PumPbo+wIDAQABo4HeMIHb
MAkGA1UdEwQCMAAwEQYJYIZIAYb4QgEBBAQDAgZAMCsGCWCGSAGG+EIBDQQeFhxU
aW55Q0EgR2VuZXJhdGVkIENlcnRpZmljYXRlMB0GA1UdDgQWBBQmjKX5pkr+TOgP
BDN+BCYov0yS8zBZBgNVHSMEUjBQgBSdj4R2lM0H/qPoi9f52W7vynVRe6EtpCsw
KTELMAkGA1UEBhMCQkUxGjAYBgNVBAMTEXR4anNvbnJwYy10ZXN0LWNhggkAjdKv
N/nKkgswCQYDVR0SBAIwADAJBgNVHREEAjAAMA0GCSqGSIb3DQEBBQUAA4GBACFD
J5YdPI+mRIMukiHbxZaJQY/yDtO2AIJVUQplJkxVEBpmYTlHoD2vgfDBwrYkLjVP
Nhg9YAvRcRRFWp8XEbiKPpRQHHi+v+6Ndc4YftUHHv9g97PBHbr7+cH9ToO8l6SA
T8Qn7DOjul39q6ImFzAURkVGZdMMPP972Ik5JuMr
-----END CERTIFICATE-----
Certificate:
    Data:
        Version: 4 (0x3)
        Serial Number: 1 (0x1)
    Signature Algorithm: sha1WithRSAEncryption
        Issuer: C=BE, CN=txjsonrpc-test-ca
        Validity
            Not Before: Jan  1 00:00:00 1970 GMT
            Not After : Jan 19 03:14:07 2038 GMT
        Subject: CN=ca-none, C=BE, O=Gremwell bvba
        Subject Public Key Info:
            Public Key Algorithm: rsaEncryption
                Public-Key: (1024 bit)
                Modulus:
                    00:c1:d5:b5:cf:33:40:5e:67:77:ee:a6:3d:02:18:
                    68:93:0d:45:5f:da:57:a3:f8:8b:87:5c:f6:1d:f5:
                    78:bc:b4:4b:10:9a:2b:7d:1a:6d:e6:00:60:5d:19:
                    9e:25:65:72:69:50:01:55:9a:9e:53:e8:c0:8c:de:
                    d8:c5:2a:70:cc:0f:de:27:06:b1:aa:85:e0:12:3b:
                    8a:d0:2e:3a:34:18:dc:36:37:13:9a:9c:53:0a:96:
                    5e:d2:f9:1a:7a:21:ef:7e:74:07:86:28:8d:6c:83:
                    41:7b:c4:5b:04:c9:0a:e6:9c:35:80:9e:f4:06:37:
                    07:57:bc:e2:fd:7d:05:30:6d
                Exponent: 65537 (0x10001)
    Signature Algorithm: sha1WithRSAEncryption
         5b:e6:44:d6:8e:69:5c:29:3f:32:9d:e2:6e:87:2e:e7:2a:89:
         66:67:43:13:17:0d:ad:e2:4c:e4:58:03:c9:46:b1:04:09:1f:
         16:51:5b:8f:1b:cd:14:eb:05:6f:9a:3b:5a:d2:92:c0:d6:15:
         1d:b4:e7:11:e5:20:20:a0:95:d8:e4:b7:27:0c:79:ed:ce:2a:
         54:50:59:6a:9e:ae:b7:d1:9d:89:7b:2b:78:a3:c3:e6:81:02:
         bd:fe:2e:63:2b:05:14:fb:08:90:da:97:f0:a3:cb:b8:dd:b1:
         c4:a3:54:e1:41:1a:71:40:f9:8e:31:e0:98:1a:27:41:f9:d8:
         6a:44:94:08:bc:8d:68:44:1c:db:a2:24:15:aa:f5:f0:c3:3a:
         bb:bb:22:63:2b:13:9c:87:03:2b:ee:5f:01:a6:f9:9c:62:d5:
         51:8a:53:90:82:04:db:b7:da:ed:67:93:4f:e1:92:e0:46:c6:
         12:a1:a4:da:2f:5b:b1:67:9b:07:5a:1e:a1:c9:8a:21:fe:a8:
         18:fc:9f:96:83:47:4b:c7:01:c8:b0:3e:83:b9:4f:8d:98:b8:
         b9:22:bb:5f:c7:ca:ab:4d:14:af:12:a7:17:ed:e8:53:bb:c1:
         a1:47:68:d9:ba:63:b6:56:f8:51:3c:34:a3:1d:35:bd:ae:ab:
         f9:40:d8:95:f9:41:5a:e2:e8:8c:85:12:2f:27:bc:5f:da:43:
         20:d4:0e:61:23:c9:a6:20:e2:63:96:d5:07:62:ef:f6:fe:cf:
         9a:f6:b7:62:ab:c5:ca:64:9d:82:76:e0:bd:14:0e:bb:36:7f:
         d5:35:5c:95:a1:6e:11:d0:f5:14:ab:78:77:bc:60:7f:2e:64:
         a5:bb:cd:f6:ac:8b:2c:43:23:a8:e5:34:7d:ce:cb:9b:29:23:
         99:e9:b9:00:9f:84:2b:e8:d4:92:63:64:ad:d8:01:62:50:aa:
         be:d9:b4:53:bb:68:16:c0:1d:48:ab:f1:6b:f5:8a:3d:c6:0e:
         57:d8:d4:0d:2e:b0:a1:c5:c3:f7:cd:35:ac:6e:98:0b:74:67:
         7f:20:f0:4d:19:9a:e6:63:da:bd:2e:fc:12:bf:7b:de:69:2b:
         bc:e3:63:47:ee:dd:e1:e3:92:77:7d:80:09:54:4b:c7:9f:12:
         ce:02:ef:4b:5b:2e:cb:0b:c2:1d:79:5b:4a:90:94:52:3a:25:
         9a:51:e4:6f:f6:4b:ea:6a:9f:d7:67:34:03:8c:09:0c:78:1b:
         3f:67:26:04:6c:80:fa:f4:e8:7e:82:d4:c1:9c:65:4e:5b:ef:
         04:b6:be:bb:2b:a4:62:01:a3:7e:95:32:45:8b:77:64:63:91:
         71:35:7f:de:ee:f8:df:88
-----BEGIN CERTIFICATE-----
MIIDVTCCAT2gAwIBAwIBATANBgkqhkiG9w0BAQUFADApMQswCQYDVQQGEwJCRTEa
MBgGA1UEAxMRdHhqc29ucnBjLXRlc3QtY2EwHhcNNzAwMTAxMDAwMDAwWhcNMzgw
MTE5MDMxNDA3WjA3MRAwDgYDVQQDEwdjYS1ub25lMQswCQYDVQQGEwJCRTEWMBQG
A1UEChMNR3JlbXdlbGwgYnZiYTCBnzANBgkqhkiG9w0BAQEFAAOBjQAwgYkCgYEA
wdW1zzNAXmd37qY9Ahhokw1FX9pXo/iLh1z2HfV4vLRLEJorfRpt5gBgXRmeJWVy
aVABVZqeU+jAjN7YxSpwzA/eJwaxqoXgEjuK0C46NBjcNjcTmpxTCpZe0vkaeiHv
fnQHhiiNbINBe8RbBMkK5pw1gJ70BjcHV7zi/X0FMG0CAwEAATANBgkqhkiG9w0B
AQUFAAOCAgEAW+ZE1o5pXCk/Mp3ibocu5yqJZmdDExcNreJM5FgDyUaxBAkfFlFb
jxvNFOsFb5o7WtKSwNYVHbTnEeUgIKCV2OS3Jwx57c4qVFBZap6ut9GdiXsreKPD
5oECvf4uYysFFPsIkNqX8KPLuN2xxKNU4UEacUD5jjHgmBonQfnYakSUCLyNaEQc
26IkFar18MM6u7siYysTnIcDK+5fAab5nGLVUYpTkIIE27fa7WeTT+GS4EbGEqGk
2i9bsWebB1oeocmKIf6oGPyfloNHS8cByLA+g7lPjZi4uSK7X8fKq00UrxKnF+3o
U7vBoUdo2bpjtlb4UTw0ox01va6r+UDYlflBWuLojIUSLye8X9pDINQOYSPJpiDi
Y5bVB2Lv9v7Pmva3YqvFymSdgnbgvRQOuzZ/1TVclaFuEdD1FKt4d7xgfy5kpbvN
9qyLLEMjqOU0fc7Lmykjmem5AJ+EK+jUkmNkrdgBYlCqvtm0U7toFsAdSKvxa/WK
PcYOV9jUDS6wocXD9801rG6YC3RnfyDwTRma5mPavS78Er973mkrvONjR+7d4eOS
d32ACVRLx58SzgLvS1suywvCHXlbSpCUUjolmlHkb/ZL6mqf12c0A4wJDHgbP2cm
BGyA+vTofoLUwZxlTlvvBLa+uyukYgGjfpUyRYt3ZGORcTV/3u7434g=
-----END CERTIFICATE-----
