Certificate:
    Data:
        Version: 3 (0x2)
        Serial Number: 1 (0x1)
    Signature Algorithm: sha1WithRSAEncryption
        Issuer: CN=ca-true, C=BE, O=Gremwell bvba
        Validity
            Not Before: Jun 23 15:47:38 2012 GMT
            Not After : Jun 23 15:47:38 2013 GMT
        Subject: C=BE, CN=txjsonrpc-pyserver
        Subject Public Key Info:
            Public Key Algorithm: rsaEncryption
                Public-Key: (4096 bit)
                Modulus:
                    00:98:02:69:03:a1:53:64:57:f5:37:b4:d1:ba:e0:
                    99:df:2b:73:31:47:de:de:04:0c:a4:a4:62:b5:71:
                    69:3b:6c:e6:3f:ee:09:74:61:5d:5a:28:f9:0f:d6:
                    b4:c5:67:d0:d8:84:d2:3d:eb:ea:ce:16:ff:3d:83:
                    a8:95:6a:dc:62:bc:53:4e:85:e4:4f:44:27:94:36:
                    6e:e4:26:6d:d4:7b:06:b6:f1:d5:65:54:a0:ac:85:
                    d4:84:2d:df:42:63:54:25:20:89:a7:76:49:52:83:
                    da:eb:10:67:cc:21:d6:01:d0:c1:70:61:d5:42:63:
                    70:43:74:53:3f:84:89:92:5b:3d:f5:5a:f3:61:87:
                    85:f7:41:f1:c4:c6:7a:97:29:dd:7e:04:b1:ca:54:
                    a4:ba:85:33:9b:e5:c0:f5:4f:32:42:cc:08:fa:97:
                    e3:3a:1e:b0:ea:60:c0:0d:7d:c8:8d:00:01:b5:23:
                    38:c8:ee:c1:0f:e1:e9:5e:45:9e:4a:47:db:ba:7c:
                    80:53:8e:dd:7f:ec:b7:e8:be:c9:b6:11:9d:eb:7a:
                    41:ec:87:6f:0f:f4:c2:0e:f7:ee:c9:97:92:c6:fb:
                    1d:7b:c3:08:07:03:2c:98:51:90:be:45:2d:b5:17:
                    eb:c9:bc:d7:07:5e:23:e8:a6:5d:9c:19:aa:93:f5:
                    9a:be:c0:07:d9:0b:b9:81:77:3e:b9:a8:63:5d:11:
                    03:2c:89:43:b0:3f:96:6c:c6:73:b4:d4:83:0d:05:
                    e5:9e:e0:29:a4:f1:2e:fd:0d:c9:11:66:08:ae:3e:
                    6a:fd:9d:49:d6:e8:a8:3d:02:28:ea:01:68:bc:6a:
                    77:38:72:8b:dd:63:66:c6:b6:25:92:f9:1a:b7:2d:
                    eb:3a:5c:5e:30:5d:0d:31:24:c7:0e:8e:22:81:7b:
                    74:05:b4:7f:f7:28:c0:c3:8f:be:f6:c6:4e:05:ff:
                    22:62:0a:b4:f5:25:04:cb:83:a9:9f:c7:e8:a8:08:
                    96:0b:05:bc:d6:ef:e0:a6:59:4b:8a:91:98:14:cb:
                    19:ac:4f:c1:53:9a:66:39:d4:e0:0a:51:ca:ba:aa:
                    fd:9b:24:3b:84:11:b2:02:15:c4:c3:25:16:9b:82:
                    44:f5:bb:e3:ab:aa:18:a0:e3:02:72:d7:cf:6a:07:
                    af:d2:ea:08:c8:07:73:13:3f:aa:4b:b3:0d:11:43:
                    55:fb:cc:18:fc:93:1b:f7:44:4b:d5:bc:2a:7c:1c:
                    57:fc:09:17:72:05:c2:e0:2b:9e:09:6a:ac:ef:f0:
                    00:55:cb:f6:76:84:5e:2d:49:ea:22:cf:74:83:27:
                    51:fb:b9:e2:b0:b5:5e:d6:5c:74:a1:6f:e3:ee:98:
                    f6:e8:fb
                Exponent: 65537 (0x10001)
        X509v3 extensions:
            X509v3 Basic Constraints: 
                CA:FALSE
            Netscape Cert Type: 
                SSL Server
            Netscape Comment: 
                TinyCA Generated Certificate
            X509v3 Subject Key Identifier: 
                26:8C:A5:F9:A6:4A:FE:4C:E8:0F:04:33:7E:04:26:28:BF:4C:92:F3
            X509v3 Authority Key Identifier: 
                keyid:9D:8F:84:76:94:CD:07:FE:A3:E8:8B:D7:F9:D9:6E:EF:CA:75:51:7B
                DirName:/C=BE/CN=txjsonrpc-test-ca
                serial:8D:D2:AF:37:F9:CA:92:0B

            X509v3 Issuer Alternative Name: 
                <EMPTY>

            X509v3 Subject Alternative Name: 
                <EMPTY>

    Signature Algorithm: sha1WithRSAEncryption
         0b:fd:7f:25:2b:06:13:65:9c:a6:06:3b:60:6c:77:c4:15:b0:
         e5:b1:b8:03:91:7c:f8:71:74:81:56:cc:8f:df:b3:f4:99:bd:
         8d:11:73:92:da:a9:5c:6f:b5:53:ff:db:3b:35:3c:54:2b:08:
         64:ec:8c:14:4d:b6:a0:02:ba:5b:5c:74:43:b7:54:d4:28:ef:
         85:36:d2:6e:fc:c2:27:47:08:8d:fa:6e:48:5b:54:39:57:0f:
         bc:fa:88:f0:39:ba:b2:1c:88:78:45:57:ce:78:e0:38:ad:c1:
         b4:01:78:4b:08:47:12:f9:19:98:95:7b:1e:80:0d:6b:f6:a3:
         22:1d
-----BEGIN CERTIFICATE-----
MIIEOjCCA6OgAwIBAgIBATANBgkqhkiG9w0BAQUFADA3MRAwDgYDVQQDEwdjYS10
cnVlMQswCQYDVQQGEwJCRTEWMBQGA1UEChMNR3JlbXdlbGwgYnZiYTAeFw0xMjA2
MjMxNTQ3MzhaFw0xMzA2MjMxNTQ3MzhaMCoxCzAJBgNVBAYTAkJFMRswGQYDVQQD
ExJ0eGpzb25ycGMtcHlzZXJ2ZXIwggIiMA0GCSqGSIb3DQEBAQUAA4ICDwAwggIK
AoICAQCYAmkDoVNkV/U3tNG64JnfK3MxR97eBAykpGK1cWk7bOY/7gl0YV1aKPkP
1rTFZ9DYhNI96+rOFv89g6iVatxivFNOheRPRCeUNm7kJm3Uewa28dVlVKCshdSE
Ld9CY1QlIImndklSg9rrEGfMIdYB0MFwYdVCY3BDdFM/hImSWz31WvNhh4X3QfHE
xnqXKd1+BLHKVKS6hTOb5cD1TzJCzAj6l+M6HrDqYMANfciNAAG1IzjI7sEP4ele
RZ5KR9u6fIBTjt1/7Lfovsm2EZ3rekHsh28P9MIO9+7Jl5LG+x17wwgHAyyYUZC+
RS21F+vJvNcHXiPopl2cGaqT9Zq+wAfZC7mBdz65qGNdEQMsiUOwP5ZsxnO01IMN
BeWe4Cmk8S79DckRZgiuPmr9nUnW6Kg9AijqAWi8anc4covdY2bGtiWS+Rq3Les6
XF4wXQ0xJMcOjiKBe3QFtH/3KMDDj772xk4F/yJiCrT1JQTLg6mfx+ioCJYLBbzW
7+CmWUuKkZgUyxmsT8FTmmY51OAKUcq6qv2bJDuEEbICFcTDJRabgkT1u+Orqhig
4wJy189qB6/S6gjIB3MTP6pLsw0RQ1X7zBj8kxv3REvVvCp8HFf8CRdyBcLgK54J
aqzv8ABVy/Z2hF4tSeoiz3SDJ1H7ueKwtV7WXHShb+PumPbo+wIDAQABo4HeMIHb
MAkGA1UdEwQCMAAwEQYJYIZIAYb4QgEBBAQDAgZAMCsGCWCGSAGG+EIBDQQeFhxU
aW55Q0EgR2VuZXJhdGVkIENlcnRpZmljYXRlMB0GA1UdDgQWBBQmjKX5pkr+TOgP
BDN+BCYov0yS8zBZBgNVHSMEUjBQgBSdj4R2lM0H/qPoi9f52W7vynVRe6EtpCsw
KTELMAkGA1UEBhMCQkUxGjAYBgNVBAMTEXR4anNvbnJwYy10ZXN0LWNhggkAjdKv
N/nKkgswCQYDVR0SBAIwADAJBgNVHREEAjAAMA0GCSqGSIb3DQEBBQUAA4GBAAv9
fyUrBhNlnKYGO2Bsd8QVsOWxuAORfPhxdIFWzI/fs/SZvY0Rc5LaqVxvtVP/2zs1
PFQrCGTsjBRNtqACultcdEO3VNQo74U20m78widHCI36bkhbVDlXD7z6iPA5urIc
iHhFV8544DitwbQBeEsIRxL5GZiVex6ADWv2oyId
-----END CERTIFICATE-----
Certificate:
    Data:
        Version: 4 (0x3)
        Serial Number: 1 (0x1)
    Signature Algorithm: sha1WithRSAEncryption
        Issuer: C=BE, CN=txjsonrpc-test-ca
        Validity
            Not Before: Jan  1 00:00:00 1970 GMT
            Not After : Jan 19 03:14:07 2038 GMT
        Subject: CN=ca-true, C=BE, O=Gremwell bvba
        Subject Public Key Info:
            Public Key Algorithm: rsaEncryption
                Public-Key: (1024 bit)
                Modulus:
                    00:c6:be:55:f8:fc:62:cc:40:0b:5f:5c:20:8e:2a:
                    bd:27:d6:99:63:40:05:ec:95:ed:2c:76:14:06:4c:
                    0a:05:c8:50:d1:1b:6e:d4:2a:be:de:6c:30:d8:29:
                    91:aa:51:75:90:e1:8b:a0:ff:6b:39:97:a5:27:4b:
                    1d:ad:45:09:88:48:7a:b6:45:92:51:4c:06:2e:e6:
                    d4:70:07:19:f8:87:f1:43:df:b9:71:5e:b3:a9:e0:
                    c7:2d:43:89:fc:0d:d5:98:e5:60:9b:4c:1d:df:ca:
                    30:cb:ff:36:4d:78:b4:6c:38:71:d0:e3:6a:ca:e7:
                    fd:0a:6e:9d:e1:d7:92:23:23
                Exponent: 65537 (0x10001)
        X509v3 extensions:
            X509v3 Basic Constraints: critical
                CA:TRUE
    Signature Algorithm: sha1WithRSAEncryption
         47:28:2a:50:bd:f8:af:09:a5:06:3e:a0:fa:4d:a5:9d:72:9a:
         e4:2f:ee:6d:a2:cb:5b:90:ac:4f:10:1a:7b:9f:e2:2d:ee:fe:
         5e:bb:de:cb:45:92:b3:36:d1:a8:1b:c4:cf:36:b3:9d:fd:fb:
         3a:89:08:6e:63:43:24:3d:85:5a:eb:50:b4:56:df:57:86:46:
         43:53:54:a7:6b:45:fa:fd:d3:a0:f2:38:bf:81:40:01:73:10:
         fc:74:d9:76:eb:18:7a:2e:11:f4:7d:5f:47:29:e7:04:41:a6:
         f4:cc:7d:f6:27:5d:35:76:23:51:3c:17:90:e8:8c:aa:de:74:
         0e:35:98:05:55:f4:95:a7:e4:c8:3d:63:6c:0a:13:43:9c:ed:
         98:73:8f:4d:10:51:fc:64:a3:d4:e8:71:12:66:49:89:7d:67:
         10:9b:bf:8e:2a:f7:cc:2f:4e:50:18:18:50:15:bf:31:eb:b4:
         b9:8a:3d:27:71:9f:61:fe:64:cc:63:a3:a8:2c:06:61:b8:71:
         97:07:8d:74:63:0e:d6:0f:8f:9b:59:f7:f5:60:48:a5:cf:14:
         2c:a0:85:53:7e:c4:53:18:75:af:2e:d9:9b:f0:45:e4:cb:c4:
         b2:34:45:41:eb:bb:16:54:8c:bd:ed:27:bc:57:c6:f1:2f:36:
         ae:37:da:21:24:e7:aa:e7:34:ae:e6:e7:0a:d4:05:ca:9d:29:
         3f:ed:14:c2:6b:57:41:12:07:62:46:42:fa:9f:d1:05:74:4f:
         11:fc:bf:62:57:26:82:31:7d:b0:9f:ad:05:ed:cb:29:77:bb:
         75:1a:44:31:5b:83:37:83:88:ac:d6:bf:41:f8:c2:ce:aa:81:
         93:da:10:d0:59:3c:56:21:3c:9f:94:dd:cf:c6:c4:0e:4f:fc:
         80:17:a0:0b:e3:86:a1:c6:9a:ec:4d:96:34:95:93:e9:f6:df:
         24:42:34:4e:30:e1:ca:23:21:d0:b9:f7:70:5f:d6:f8:ae:69:
         9e:90:c8:3b:1d:aa:47:c5:f6:3a:c3:fc:7c:9b:e6:bb:ad:ef:
         de:91:0e:e2:af:5b:34:16:79:bb:f2:df:4f:dc:c4:b9:98:35:
         86:1a:5b:1e:2a:38:28:ff:3d:6c:f3:93:b0:9a:94:08:f7:4e:
         97:fc:27:40:74:2b:f0:b3:15:25:21:11:9a:15:7d:7d:9d:7b:
         b0:bc:1e:c1:de:28:52:76:eb:ce:d7:a5:23:c5:1c:a0:34:f8:
         d6:c4:b6:97:f5:cb:d2:af:17:66:b7:f3:82:61:13:7a:9b:ed:
         2e:66:13:a3:ab:0b:2c:cd:61:fa:ee:49:c5:1e:90:26:0c:47:
         e4:48:ab:b4:b4:91:17:57
-----BEGIN CERTIFICATE-----
MIIDajCCAVKgAwIBAwIBATANBgkqhkiG9w0BAQUFADApMQswCQYDVQQGEwJCRTEa
MBgGA1UEAxMRdHhqc29ucnBjLXRlc3QtY2EwHhcNNzAwMTAxMDAwMDAwWhcNMzgw
MTE5MDMxNDA3WjA3MRAwDgYDVQQDEwdjYS10cnVlMQswCQYDVQQGEwJCRTEWMBQG
A1UEChMNR3JlbXdlbGwgYnZiYTCBnzANBgkqhkiG9w0BAQEFAAOBjQAwgYkCgYEA
xr5V+PxizEALX1wgjiq9J9aZY0AF7JXtLHYUBkwKBchQ0Rtu1Cq+3mww2CmRqlF1
kOGLoP9rOZelJ0sdrUUJiEh6tkWSUUwGLubUcAcZ+IfxQ9+5cV6zqeDHLUOJ/A3V
mOVgm0wd38owy/82TXi0bDhx0ONqyuf9Cm6d4deSIyMCAwEAAaMTMBEwDwYDVR0T
AQH/BAUwAwEB/zANBgkqhkiG9w0BAQUFAAOCAgEARygqUL34rwmlBj6g+k2lnXKa
5C/ubaLLW5CsTxAae5/iLe7+Xrvey0WSszbRqBvEzzaznf37OokIbmNDJD2FWutQ
tFbfV4ZGQ1NUp2tF+v3ToPI4v4FAAXMQ/HTZdusYei4R9H1fRynnBEGm9Mx99idd
NXYjUTwXkOiMqt50DjWYBVX0lafkyD1jbAoTQ5ztmHOPTRBR/GSj1OhxEmZJiX1n
EJu/jir3zC9OUBgYUBW/Meu0uYo9J3GfYf5kzGOjqCwGYbhxlweNdGMO1g+Pm1n3
9WBIpc8ULKCFU37EUxh1ry7Zm/BF5MvEsjRFQeu7FlSMve0nvFfG8S82rjfaISTn
quc0rubnCtQFyp0pP+0UwmtXQRIHYkZC+p/RBXRPEfy/YlcmgjF9sJ+tBe3LKXe7
dRpEMVuDN4OIrNa/QfjCzqqBk9oQ0Fk8ViE8n5Tdz8bEDk/8gBegC+OGocaa7E2W
NJWT6fbfJEI0TjDhyiMh0Ln3cF/W+K5pnpDIOx2qR8X2OsP8fJvmu63v3pEO4q9b
NBZ5u/LfT9zEuZg1hhpbHio4KP89bPOTsJqUCPdOl/wnQHQr8LMVJSERmhV9fZ17
sLwewd4oUnbrztelI8UcoDT41sS2l/XL0q8XZrfzgmETepvtLmYTo6sLLM1h+u5J
xR6QJgxH5EirtLSRF1c=
-----END CERTIFICATE-----
