Certificate:
    Data:
        Version: 4 (0x3)
        Serial Number: 1 (0x1)
    Signature Algorithm: sha1WithRSAEncryption
        Issuer: CN=ca-false, C=BE, O=Gremwell bvba
        Validity
            Not Before: Jan  1 00:00:00 1970 GMT
            Not After : Jan 19 03:14:07 2038 GMT
        Subject: CN=www.example.com, C=BE, O=Gremwell bvba
        Subject Public Key Info:
            Public Key Algorithm: rsaEncryption
                Public-Key: (1024 bit)
                Modulus:
                    00:f7:ec:f9:10:78:c1:10:a6:64:7d:bf:10:dd:4a:
                    f8:45:a0:9b:e2:b9:04:c9:b1:0a:97:81:d3:16:28:
                    a9:f6:9a:ed:37:c0:df:ff:4d:59:d7:34:20:7a:68:
                    34:07:22:a0:45:28:4b:d5:0e:99:26:cf:89:cb:f2:
                    56:69:39:7a:c9:55:d4:5e:66:3c:58:f9:82:12:d7:
                    42:b7:ba:ac:6a:5e:ca:cf:dc:ad:91:b3:5f:41:0a:
                    f8:d7:2e:9b:00:81:8b:6c:88:e6:ed:a9:38:7f:63:
                    bc:de:b2:d3:71:c3:db:b0:9c:b1:c0:b5:fb:d1:48:
                    c3:95:be:9b:3e:5f:02:49:39
                Exponent: 65537 (0x10001)
    Signature Algorithm: sha1WithRSAEncryption
         ce:47:73:07:05:44:d8:d6:d4:54:05:22:4f:0b:21:f6:04:ef:
         30:aa:dd:3c:b3:f8:6e:60:c8:7a:9b:57:5c:55:75:56:ec:56:
         ca:05:f2:3b:c0:d9:3d:07:c6:e9:d6:53:e4:1f:75:ff:8c:ee:
         e4:36:a8:7c:8f:89:89:8a:f1:b4:15:91:6e:a6:e4:d7:38:d1:
         52:3f:8c:b7:b7:49:9e:ac:c0:23:2d:5a:f5:c5:2e:79:a8:b0:
         bd:b4:e4:e9:dd:23:02:54:5d:c4:6c:e4:92:46:f9:37:4c:9a:
         19:56:0d:b2:4b:0a:99:de:bc:02:9c:0a:a7:b7:99:15:bb:f1:
         47:83
-----BEGIN CERTIFICATE-----
MIIB6zCCAVSgAwIBAwIBATANBgkqhkiG9w0BAQUFADA4MREwDwYDVQQDEwhjYS1m
YWxzZTELMAkGA1UEBhMCQkUxFjAUBgNVBAoTDUdyZW13ZWxsIGJ2YmEwHhcNNzAw
MTAxMDAwMDAwWhcNMzgwMTE5MDMxNDA3WjA/MRgwFgYDVQQDEw93d3cuZXhhbXBs
ZS5jb20xCzAJBgNVBAYTAkJFMRYwFAYDVQQKEw1HcmVtd2VsbCBidmJhMIGfMA0G
CSqGSIb3DQEBAQUAA4GNADCBiQKBgQD37PkQeMEQpmR9vxDdSvhFoJviuQTJsQqX
gdMWKKn2mu03wN//TVnXNCB6aDQHIqBFKEvVDpkmz4nL8lZpOXrJVdReZjxY+YIS
10K3uqxqXsrP3K2Rs19BCvjXLpsAgYtsiObtqTh/Y7zestNxw9uwnLHAtfvRSMOV
vps+XwJJOQIDAQABMA0GCSqGSIb3DQEBBQUAA4GBAM5HcwcFRNjW1FQFIk8LIfYE
7zCq3Tyz+G5gyHqbV1xVdVbsVsoF8jvA2T0HxunWU+Qfdf+M7uQ2qHyPiYmK8bQV
kW6m5Nc40VI/jLe3SZ6swCMtWvXFLnmosL205OndIwJUXcRs5JJG+TdMmhlWDbJL
CpnevAKcCqe3mRW78UeD
-----END CERTIFICATE-----
Certificate:
    Data:
        Version: 4 (0x3)
        Serial Number: 1 (0x1)
    Signature Algorithm: sha1WithRSAEncryption
        Issuer: C=BE, CN=txjsonrpc-test-ca
        Validity
            Not Before: Jan  1 00:00:00 1970 GMT
            Not After : Jan 19 03:14:07 2038 GMT
        Subject: CN=ca-false, C=BE, O=Gremwell bvba
        Subject Public Key Info:
            Public Key Algorithm: rsaEncryption
                Public-Key: (1024 bit)
                Modulus:
                    00:e8:54:50:92:64:bd:9e:78:98:84:5f:12:37:65:
                    25:28:c3:6f:72:f5:36:6e:ef:86:62:82:5f:a7:30:
                    25:3e:e9:41:85:ef:99:4b:66:60:f1:ee:1d:f2:f9:
                    30:f8:2d:b9:f3:cc:08:c5:27:58:b2:fd:b0:52:a0:
                    da:30:5e:ef:ee:e3:b4:3f:ee:6b:09:e3:0f:6b:5b:
                    b0:8d:cd:9f:cf:5e:43:20:a0:a1:c0:90:91:cf:c1:
                    b7:f6:38:ee:02:9f:1c:2b:75:9e:45:9f:b0:64:53:
                    05:04:bb:d2:9e:da:4b:67:64:06:5d:e0:79:69:e8:
                    bb:ea:6a:97:e6:68:17:b5:f1
                Exponent: 65537 (0x10001)
        X509v3 extensions:
            X509v3 Basic Constraints: critical
                CA:FALSE
    Signature Algorithm: sha1WithRSAEncryption
         54:4d:5b:52:f6:7f:35:e0:72:33:05:50:14:43:fa:51:9f:72:
         c1:b1:8d:4a:51:4e:93:49:95:d1:78:68:0c:80:c6:5a:7d:cb:
         2b:f6:ad:1a:2d:8e:f2:0a:0f:1a:1d:0b:59:e1:7b:48:82:16:
         57:8b:10:02:f2:89:7c:b1:b9:71:8e:a2:15:0d:0c:41:a3:4b:
         a1:bf:d0:ea:4d:98:9a:cb:1c:b6:05:c4:3f:f7:7b:b5:12:32:
         b8:14:3c:5f:12:d3:44:fd:f5:1b:ac:48:73:a4:5d:5a:b3:c0:
         f3:37:7b:d6:4b:e7:1d:a1:b8:29:a9:71:70:3d:85:48:56:58:
         27:d0:7f:48:30:bc:2c:e0:88:0b:51:70:c6:a7:6e:13:fd:b5:
         e0:40:56:04:5b:5d:6b:31:54:b4:5a:05:46:fb:a3:04:c0:6b:
         58:25:2b:48:2e:9d:02:00:19:72:4f:0a:04:a3:fa:95:21:f2:
         01:9b:f1:f7:f3:84:30:c1:83:e3:5a:3a:c8:5a:c0:81:10:47:
         38:df:62:42:e5:af:24:0a:f6:e0:4b:d0:d2:0d:c8:35:02:ea:
         c9:5f:7c:33:5d:4c:6a:4f:1c:76:ad:06:06:2a:90:cf:79:29:
         cd:5d:4e:97:39:c0:ab:87:8f:84:c0:f7:6b:eb:ce:d2:1b:c6:
         a4:48:ab:62:7e:c4:f6:be:1a:df:17:90:7d:40:57:01:e5:39:
         ed:00:9e:47:35:0d:29:6a:11:26:c0:9e:f0:17:77:64:86:49:
         55:cb:b5:11:a3:80:49:25:62:e0:1a:3a:97:a1:55:aa:87:76:
         96:68:26:60:2e:19:56:2b:9b:b2:8c:63:71:50:66:d1:02:03:
         73:36:e9:d7:c5:03:1b:f6:a1:f0:97:b9:c1:91:9e:d5:19:b2:
         52:66:78:2f:4f:fd:01:fe:2b:c7:49:fa:44:33:19:82:67:df:
         eb:95:53:88:81:83:d5:f1:dc:d2:ec:3e:0f:e6:0e:a2:a5:dd:
         d2:d4:bc:7b:68:a2:c6:c5:c9:ce:38:34:2a:52:8f:f1:60:d5:
         37:fd:32:12:15:e2:23:7e:d4:b6:a9:68:64:31:f8:bd:9d:de:
         f6:64:d7:94:3b:a0:ad:74:8e:4b:7f:34:12:d7:67:f1:e9:4a:
         78:17:61:5f:87:38:2b:34:d7:ee:e8:12:c2:be:d6:e1:06:44:
         d0:f3:01:23:84:d4:b2:53:b1:a6:9e:8f:83:7b:6c:de:34:4f:
         20:61:ae:21:d0:a3:f6:74:fa:6d:29:03:71:01:78:a2:d3:78:
         e6:65:1a:ea:5a:53:12:5b:be:06:57:0e:13:45:b4:ac:9f:86:
         8c:e4:c5:79:64:5f:2e:84
-----BEGIN CERTIFICATE-----
MIIDaDCCAVCgAwIBAwIBATANBgkqhkiG9w0BAQUFADApMQswCQYDVQQGEwJCRTEa
MBgGA1UEAxMRdHhqc29ucnBjLXRlc3QtY2EwHhcNNzAwMTAxMDAwMDAwWhcNMzgw
MTE5MDMxNDA3WjA4MREwDwYDVQQDEwhjYS1mYWxzZTELMAkGA1UEBhMCQkUxFjAU
BgNVBAoTDUdyZW13ZWxsIGJ2YmEwgZ8wDQYJKoZIhvcNAQEBBQADgY0AMIGJAoGB
AOhUUJJkvZ54mIRfEjdlJSjDb3L1Nm7vhmKCX6cwJT7pQYXvmUtmYPHuHfL5MPgt
ufPMCMUnWLL9sFKg2jBe7+7jtD/uawnjD2tbsI3Nn89eQyCgocCQkc/Bt/Y47gKf
HCt1nkWfsGRTBQS70p7aS2dkBl3geWnou+pql+ZoF7XxAgMBAAGjEDAOMAwGA1Ud
EwEB/wQCMAAwDQYJKoZIhvcNAQEFBQADggIBAFRNW1L2fzXgcjMFUBRD+lGfcsGx
jUpRTpNJldF4aAyAxlp9yyv2rRotjvIKDxodC1nhe0iCFleLEALyiXyxuXGOohUN
DEGjS6G/0OpNmJrLHLYFxD/3e7USMrgUPF8S00T99RusSHOkXVqzwPM3e9ZL5x2h
uCmpcXA9hUhWWCfQf0gwvCzgiAtRcManbhP9teBAVgRbXWsxVLRaBUb7owTAa1gl
K0gunQIAGXJPCgSj+pUh8gGb8ffzhDDBg+NaOshawIEQRzjfYkLlryQK9uBL0NIN
yDUC6slffDNdTGpPHHatBgYqkM95Kc1dTpc5wKuHj4TA92vrztIbxqRIq2J+xPa+
Gt8XkH1AVwHlOe0Ankc1DSlqESbAnvAXd2SGSVXLtRGjgEklYuAaOpehVaqHdpZo
JmAuGVYrm7KMY3FQZtECA3M26dfFAxv2ofCXucGRntUZslJmeC9P/QH+K8dJ+kQz
GYJn3+uVU4iBg9Xx3NLsPg/mDqKl3dLUvHtoosbFyc44NCpSj/Fg1Tf9MhIV4iN+
1LapaGQx+L2d3vZk15Q7oK10jkt/NBLXZ/HpSngXYV+HOCs01+7oEsK+1uEGRNDz
ASOE1LJTsaaej4N7bN40TyBhriHQo/Z0+m0pA3EBeKLTeOZlGupaUxJbvgZXDhNF
tKyfhozkxXlkXy6E
-----END CERTIFICATE-----
