Certificate:
    Data:
        Version: 4 (0x3)
        Serial Number: 1 (0x1)
    Signature Algorithm: sha1WithRSAEncryption
        Issuer: C=BE, CN=txjsonrpc-test-ca
        Validity
            Not Before: Jan  1 00:00:00 1970 GMT
            Not After : Jan 19 03:14:07 2038 GMT
        Subject: CN=ca-none, C=BE, O=Gremwell bvba
        Subject Public Key Info:
            Public Key Algorithm: rsaEncryption
                Public-Key: (1024 bit)
                Modulus:
                    00:aa:da:1b:fe:16:48:30:91:8c:09:6c:6f:4e:c6:
                    3d:26:e8:e8:c1:82:7a:27:0c:eb:ee:fa:fb:32:f6:
                    b8:51:0a:51:44:e0:5f:5d:99:f6:05:42:88:19:34:
                    e9:1a:5a:bf:5d:d5:40:18:42:aa:14:2f:78:cb:0d:
                    6c:a6:f8:80:35:67:75:e2:3f:c2:54:76:98:79:e1:
                    9b:09:87:ee:6a:9e:c1:1e:21:5a:67:a9:2e:ef:07:
                    3e:ff:31:05:bc:21:85:eb:3d:e0:9c:6f:d0:f8:23:
                    36:05:76:88:34:1b:00:51:39:05:43:58:e0:d1:1a:
                    18:9e:fd:4a:2a:b6:02:ec:91
                Exponent: 65537 (0x10001)
    Signature Algorithm: sha1WithRSAEncryption
         65:50:78:40:a0:68:b3:b1:51:90:d9:8e:3c:d6:3c:3e:d0:8b:
         f6:1b:7c:db:36:cc:ba:19:0f:8b:ab:6d:43:c8:9f:99:e3:6c:
         4b:71:d5:c0:10:24:84:35:1a:14:aa:05:f1:28:3d:32:7d:7c:
         47:1b:6d:40:06:06:08:96:06:92:7e:38:1d:c1:b5:69:9a:5e:
         fa:61:b0:d4:0f:7a:aa:bd:0b:b1:8d:ec:0d:35:00:df:49:54:
         19:37:f6:9d:48:9b:8d:35:d2:d8:1b:a0:e8:7b:7d:bf:d0:dd:
         b3:75:46:69:d2:9b:ea:5e:b5:0a:c8:27:73:93:96:37:ce:b4:
         be:02:24:d0:e1:ad:fe:86:5f:39:db:f2:de:40:e9:ef:1a:05:
         8a:55:02:71:25:f4:3b:e8:3b:af:be:63:43:c2:26:0a:a6:29:
         6f:c5:de:de:bd:96:cf:07:ea:2d:b1:79:98:0f:c2:de:9f:f2:
         3b:43:34:10:74:27:62:0a:5c:39:51:6c:c6:52:04:f8:06:e1:
         04:b8:2d:bb:1f:1e:cf:d6:e7:8a:f3:25:b7:e9:44:96:57:bf:
         b1:0f:d1:ba:25:ac:6c:70:17:97:cd:08:45:84:e5:a3:28:65:
         46:97:e1:f4:54:61:24:7b:07:62:20:a9:79:12:c2:e9:db:ae:
         e1:2d:5f:cb:8c:21:25:13:6a:bd:9e:5e:cb:c0:dc:a7:af:e2:
         cc:0a:43:7e:17:64:06:31:6e:29:09:20:4f:9c:02:90:03:a0:
         ac:a4:86:7f:fc:72:10:f1:d2:ab:9e:8f:29:7c:da:ed:c3:f0:
         1f:fb:af:07:d3:d6:7b:03:e2:bd:5b:90:ea:3e:43:e9:b9:7a:
         e5:eb:93:53:1e:57:56:5d:28:0d:26:5c:9f:d8:bc:77:b3:ac:
         eb:b2:90:e3:79:0a:bc:4b:51:06:6d:5f:43:cf:a2:55:7b:3e:
         89:d5:0b:c1:85:04:e6:12:ff:ec:c5:a8:64:de:f2:b7:27:fa:
         fa:8a:78:7d:8e:1d:99:df:a9:87:02:56:4d:fa:a9:12:7e:f4:
         b0:dd:10:ca:fa:59:bb:3d:26:99:cc:29:9d:60:fa:8f:c2:f8:
         98:02:5d:72:ab:b7:33:a4:cc:7b:6c:41:43:cb:1a:ab:a9:d0:
         b0:9a:de:85:ed:3d:59:16:ab:c5:d8:d6:99:37:93:ae:04:71:
         9b:0f:75:81:5c:93:8b:2d:34:29:2b:cd:f6:0a:77:9a:fa:96:
         05:ca:28:bc:12:91:99:80:96:ff:9f:01:b2:78:c3:82:51:13:
         20:9f:23:25:9c:b3:e0:8b:33:04:6e:f2:72:37:e7:14:2a:db:
         2a:57:fd:77:04:5c:35:26
-----BEGIN CERTIFICATE-----
MIIDVTCCAT2gAwIBAwIBATANBgkqhkiG9w0BAQUFADApMQswCQYDVQQGEwJCRTEa
MBgGA1UEAxMRdHhqc29ucnBjLXRlc3QtY2EwHhcNNzAwMTAxMDAwMDAwWhcNMzgw
MTE5MDMxNDA3WjA3MRAwDgYDVQQDEwdjYS1ub25lMQswCQYDVQQGEwJCRTEWMBQG
A1UEChMNR3JlbXdlbGwgYnZiYTCBnzANBgkqhkiG9w0BAQEFAAOBjQAwgYkCgYEA
qtob/hZIMJGMCWxvTsY9JujowYJ6Jwzr7vr7Mva4UQpRROBfXZn2BUKIGTTpGlq/
XdVAGEKqFC94yw1spviANWd14j/CVHaYeeGbCYfuap7BHiFaZ6ku7wc+/zEFvCGF
6z3gnG/Q+CM2BXaINBsAUTkFQ1jg0RoYnv1KKrYC7JECAwEAATANBgkqhkiG9w0B
AQUFAAOCAgEAZVB4QKBos7FRkNmOPNY8PtCL9ht82zbMuhkPi6ttQ8ifmeNsS3HV
wBAkhDUaFKoF8Sg9Mn18RxttQAYGCJYGkn44HcG1aZpe+mGw1A96qr0LsY3sDTUA
30lUGTf2nUibjTXS2Bug6Ht9v9Dds3VGadKb6l61Csgnc5OWN860vgIk0OGt/oZf
Odvy3kDp7xoFilUCcSX0O+g7r75jQ8ImCqYpb8Xe3r2WzwfqLbF5mA/C3p/yO0M0
EHQnYgpcOVFsxlIE+AbhBLgtux8ez9bnivMlt+lElle/sQ/RuiWsbHAXl80IRYTl
oyhlRpfh9FRhJHsHYiCpeRLC6duu4S1fy4whJRNqvZ5ey8Dcp6/izApDfhdkBjFu
KQkgT5wCkAOgrKSGf/xyEPHSq56PKXza7cPwH/uvB9PWewPivVuQ6j5D6bl65euT
Ux5XVl0oDSZcn9i8d7Os67KQ43kKvEtRBm1fQ8+iVXs+idULwYUE5hL/7MWoZN7y
tyf6+op4fY4dmd+phwJWTfqpEn70sN0QyvpZuz0mmcwpnWD6j8L4mAJdcqu3M6TM
e2xBQ8saq6nQsJrehe09WRarxdjWmTeTrgRxmw91gVyTiy00KSvN9gp3mvqWBcoo
vBKRmYCW/58BsnjDglETIJ8jJZyz4IszBG7ycjfnFCrbKlf9dwRcNSY=
-----END CERTIFICATE-----
Certificate:
    Data:
        Version: 3 (0x2)
        Serial Number: 10219423159405941259 (0x8dd2af37f9ca920b)
    Signature Algorithm: sha1WithRSAEncryption
        Issuer: C=BE, CN=txjsonrpc-test-ca
        Validity
            Not Before: Jun 23 15:46:37 2012 GMT
            Not After : Jun 21 15:46:37 2022 GMT
        Subject: C=BE, CN=txjsonrpc-test-ca
        Subject Public Key Info:
            Public Key Algorithm: rsaEncryption
                Public-Key: (4096 bit)
                Modulus:
                    00:d1:25:af:77:c5:a8:72:cf:90:b9:39:10:fb:7b:
                    75:2c:a1:da:6a:95:e5:44:0c:d6:25:4b:58:7f:bb:
                    07:82:59:49:58:32:85:24:cc:3e:77:db:e1:a7:4f:
                    c8:b5:cb:ee:45:38:bd:bc:fb:e3:76:3b:88:04:ca:
                    ab:3a:a3:96:3b:5f:93:9c:28:a6:61:97:dc:a2:3f:
                    a0:93:2b:56:6c:cf:d3:4f:6a:9e:05:d3:1c:cd:ef:
                    75:80:1a:98:b7:92:49:14:33:b8:c4:7c:73:8c:7e:
                    83:a5:81:a2:59:8c:8b:a3:51:36:6d:68:ac:f2:f1:
                    ed:6f:49:d9:af:7a:63:c1:43:31:42:b6:c7:cd:b9:
                    78:b7:33:98:70:92:6c:9e:04:7a:7b:f0:6d:38:87:
                    eb:00:13:17:b9:d9:ec:b4:66:bb:51:d3:fd:81:e3:
                    0e:88:71:23:d2:80:2a:61:de:ab:25:02:47:a9:c1:
                    6b:c9:69:ae:da:47:b6:49:74:ac:a6:e1:c1:76:ba:
                    6d:b1:d9:68:6e:1c:37:a8:e2:18:60:37:b6:58:13:
                    6c:c7:92:7c:c6:45:8c:ef:c3:81:73:10:dc:2f:31:
                    e2:b9:05:5a:9e:28:70:5a:3e:1d:b8:68:71:81:c9:
                    e8:fe:1f:c3:a0:13:f8:e4:24:12:ba:91:8e:15:d2:
                    03:f1:8c:b0:aa:e2:34:e4:6b:f8:06:f6:23:8a:92:
                    43:a6:05:dc:e9:c7:a5:a8:06:d7:6e:91:52:72:47:
                    ab:ae:87:fe:b3:0f:04:87:6f:4b:22:29:e9:a9:06:
                    52:58:7d:03:16:d7:d5:31:44:b4:f1:51:44:a7:2a:
                    ba:5e:09:19:ec:4c:a2:e0:58:fe:0d:4e:b7:90:4d:
                    02:ac:2a:ad:99:14:65:3b:0a:3c:73:45:56:b2:0f:
                    10:25:24:51:79:57:1a:34:1a:10:6f:60:e0:fc:81:
                    db:ca:c2:e2:85:1b:4c:72:13:5c:9d:76:cc:d0:21:
                    33:31:56:82:8f:c5:57:b9:44:fd:8b:76:c1:b6:e4:
                    21:8b:35:9a:ee:54:74:9f:72:6b:19:84:d7:a2:3c:
                    a5:6e:11:0a:f1:93:04:2e:dd:7c:4c:7d:62:10:d4:
                    1b:8b:87:f6:ed:bf:12:b1:8b:f0:9a:7a:ee:02:94:
                    e1:3c:46:2b:7f:9c:54:fb:2e:61:c9:1c:ef:fc:de:
                    25:bc:2d:75:1b:1f:49:5e:44:3b:15:93:ad:c4:89:
                    d9:ae:3c:da:54:ef:d9:af:3a:16:cb:94:1b:6a:14:
                    e4:42:f9:75:33:46:6e:fb:40:bc:f8:82:36:cf:60:
                    f5:c2:a2:98:23:a7:2a:ae:c1:aa:22:f8:87:da:b7:
                    9c:a4:cf
                Exponent: 65537 (0x10001)
        X509v3 extensions:
            X509v3 Subject Key Identifier: 
                9D:8F:84:76:94:CD:07:FE:A3:E8:8B:D7:F9:D9:6E:EF:CA:75:51:7B
            X509v3 Authority Key Identifier: 
                keyid:9D:8F:84:76:94:CD:07:FE:A3:E8:8B:D7:F9:D9:6E:EF:CA:75:51:7B
                DirName:/C=BE/CN=txjsonrpc-test-ca
                serial:8D:D2:AF:37:F9:CA:92:0B

            X509v3 Basic Constraints: critical
                CA:TRUE
            Netscape Cert Type: 
                SSL CA, S/MIME CA
            X509v3 Issuer Alternative Name: 
                <EMPTY>

            Netscape Comment: 
                Test CA for txjsonrcp
            X509v3 Subject Alternative Name: 
                <EMPTY>

            X509v3 Key Usage: critical
                Certificate Sign, CRL Sign
    Signature Algorithm: sha1WithRSAEncryption
         06:82:86:81:a9:1b:7e:2d:ef:f5:fc:cc:d2:9d:d6:82:ad:d0:
         6f:7e:3d:b9:5c:b2:0f:3a:64:21:9a:fb:53:b2:93:81:dc:1a:
         24:fc:b8:30:57:a2:c7:71:0d:9c:1a:0b:8a:6c:89:52:8b:8a:
         f5:af:95:3e:b8:08:39:ee:36:50:ac:60:4d:df:2b:49:a2:72:
         f1:3f:12:3c:d9:55:56:a4:9a:77:2b:77:fa:16:b5:76:d9:f4:
         c4:51:6b:b9:fe:2f:a3:52:e8:64:80:49:22:6d:05:42:87:af:
         9d:85:6c:fa:c9:9b:48:39:7b:89:f5:a0:1e:ff:11:d3:9c:78:
         b1:b2:f6:4d:b1:e8:b3:98:23:2c:d4:20:e1:a1:01:3e:26:0a:
         5b:8e:eb:58:45:22:cf:e1:94:ad:84:40:b0:fb:ff:25:5f:31:
         9a:49:0b:36:ad:c6:1a:b0:42:60:40:e2:a2:3c:5a:36:41:89:
         fc:10:c4:60:ea:d4:85:7b:36:84:df:aa:81:cc:69:e7:52:ca:
         c1:46:b1:79:93:51:4f:24:84:42:14:3a:20:a0:6c:27:76:40:
         0f:96:7e:4e:c3:0c:37:b3:e3:73:49:86:58:31:00:1e:e7:0f:
         87:74:b6:4e:6e:1c:7d:87:a4:33:04:c9:76:ec:e5:3a:85:5f:
         a8:d1:ad:21:64:5e:c5:6a:df:b1:02:6e:65:a4:87:72:06:07:
         da:e5:f2:af:2b:a5:eb:18:80:67:83:a5:3c:e6:ed:d1:58:f9:
         90:5c:d6:e9:2f:76:c1:58:13:b8:bd:88:8a:f3:04:48:bb:42:
         8f:7f:c6:db:b4:30:3f:bb:6c:d5:47:e5:ae:8d:4b:da:92:a5:
         db:d3:6e:a8:9b:c2:6b:56:af:34:63:82:e6:78:f8:1f:54:d7:
         41:aa:a3:c9:7c:a6:83:41:bf:6e:33:7c:ae:e6:92:bd:da:27:
         b4:bc:e2:90:4f:33:1b:01:a1:cd:02:13:7a:31:ef:00:d6:9a:
         6e:38:6b:a7:cb:70:98:a8:0f:ff:1c:56:a8:b7:e6:d2:42:5a:
         bb:f4:78:27:71:13:d0:e8:43:eb:bc:2d:4f:e4:ea:4d:4f:76:
         7f:53:38:34:eb:13:e2:3d:c6:14:98:86:1c:ab:2c:0e:b7:68:
         2e:bd:63:a9:6a:8f:d5:22:2d:ab:13:d7:62:54:51:ff:5c:37:
         08:04:27:da:f9:57:77:05:18:73:88:5f:b0:c1:65:50:36:09:
         d6:c7:f5:ae:6e:3f:04:d1:84:3c:21:74:1d:bd:0a:fb:76:d0:
         13:2b:62:bb:24:48:43:89:d0:18:5c:b4:ad:ea:98:af:6d:fc:
         1c:6b:1f:06:64:54:23:88
-----BEGIN CERTIFICATE-----
MIIFwzCCA6ugAwIBAgIJAI3Srzf5ypILMA0GCSqGSIb3DQEBBQUAMCkxCzAJBgNV
BAYTAkJFMRowGAYDVQQDExF0eGpzb25ycGMtdGVzdC1jYTAeFw0xMjA2MjMxNTQ2
MzdaFw0yMjA2MjExNTQ2MzdaMCkxCzAJBgNVBAYTAkJFMRowGAYDVQQDExF0eGpz
b25ycGMtdGVzdC1jYTCCAiIwDQYJKoZIhvcNAQEBBQADggIPADCCAgoCggIBANEl
r3fFqHLPkLk5EPt7dSyh2mqV5UQM1iVLWH+7B4JZSVgyhSTMPnfb4adPyLXL7kU4
vbz743Y7iATKqzqjljtfk5wopmGX3KI/oJMrVmzP009qngXTHM3vdYAamLeSSRQz
uMR8c4x+g6WBolmMi6NRNm1orPLx7W9J2a96Y8FDMUK2x825eLczmHCSbJ4Eenvw
bTiH6wATF7nZ7LRmu1HT/YHjDohxI9KAKmHeqyUCR6nBa8lprtpHtkl0rKbhwXa6
bbHZaG4cN6jiGGA3tlgTbMeSfMZFjO/DgXMQ3C8x4rkFWp4ocFo+HbhocYHJ6P4f
w6AT+OQkErqRjhXSA/GMsKriNORr+Ab2I4qSQ6YF3OnHpagG126RUnJHq66H/rMP
BIdvSyIp6akGUlh9AxbX1TFEtPFRRKcqul4JGexMouBY/g1Ot5BNAqwqrZkUZTsK
PHNFVrIPECUkUXlXGjQaEG9g4PyB28rC4oUbTHITXJ12zNAhMzFWgo/FV7lE/Yt2
wbbkIYs1mu5UdJ9yaxmE16I8pW4RCvGTBC7dfEx9YhDUG4uH9u2/ErGL8Jp67gKU
4TxGK3+cVPsuYckc7/zeJbwtdRsfSV5EOxWTrcSJ2a482lTv2a86FsuUG2oU5EL5
dTNGbvtAvPiCNs9g9cKimCOnKq7BqiL4h9q3nKTPAgMBAAGjge0wgeowHQYDVR0O
BBYEFJ2PhHaUzQf+o+iL1/nZbu/KdVF7MFkGA1UdIwRSMFCAFJ2PhHaUzQf+o+iL
1/nZbu/KdVF7oS2kKzApMQswCQYDVQQGEwJCRTEaMBgGA1UEAxMRdHhqc29ucnBj
LXRlc3QtY2GCCQCN0q83+cqSCzAPBgNVHRMBAf8EBTADAQH/MBEGCWCGSAGG+EIB
AQQEAwIBBjAJBgNVHRIEAjAAMCQGCWCGSAGG+EIBDQQXFhVUZXN0IENBIGZvciB0
eGpzb25yY3AwCQYDVR0RBAIwADAOBgNVHQ8BAf8EBAMCAQYwDQYJKoZIhvcNAQEF
BQADggIBAAaChoGpG34t7/X8zNKd1oKt0G9+Pblcsg86ZCGa+1Oyk4HcGiT8uDBX
osdxDZwaC4psiVKLivWvlT64CDnuNlCsYE3fK0micvE/EjzZVVakmncrd/oWtXbZ
9MRRa7n+L6NS6GSASSJtBUKHr52FbPrJm0g5e4n1oB7/EdOceLGy9k2x6LOYIyzU
IOGhAT4mCluO61hFIs/hlK2EQLD7/yVfMZpJCzatxhqwQmBA4qI8WjZBifwQxGDq
1IV7NoTfqoHMaedSysFGsXmTUU8khEIUOiCgbCd2QA+Wfk7DDDez43NJhlgxAB7n
D4d0tk5uHH2HpDMEyXbs5TqFX6jRrSFkXsVq37ECbmWkh3IGB9rl8q8rpesYgGeD
pTzm7dFY+ZBc1ukvdsFYE7i9iIrzBEi7Qo9/xtu0MD+7bNVH5a6NS9qSpdvTbqib
wmtWrzRjguZ4+B9U10Gqo8l8poNBv24zfK7mkr3aJ7S84pBPMxsBoc0CE3ox7wDW
mm44a6fLcJioD/8cVqi35tJCWrv0eCdxE9DoQ+u8LU/k6k1Pdn9TODTrE+I9xhSY
hhyrLA63aC69Y6lqj9UiLasT12JUUf9cNwgEJ9r5V3cFGHOIX7DBZVA2CdbH9a5u
PwTRhDwhdB29Cvt20BMrYrskSEOJ0BhctK3qmK9t/BxrHwZkVCOI
-----END CERTIFICATE-----
