Certificate:
    Data:
        Version: 4 (0x3)
        Serial Number: 1 (0x1)
    Signature Algorithm: sha1WithRSAEncryption
        Issuer: CN=www.example.com, C=BE, O=Gremwell bvba
        Validity
            Not Before: Jan  1 00:00:00 1970 GMT
            Not After : Jan 19 03:14:07 2038 GMT
        Subject: CN=www.example.com, C=BE, O=Gremwell bvba
        Subject Public Key Info:
            Public Key Algorithm: rsaEncryption
                Public-Key: (1024 bit)
                Modulus:
                    00:f7:ec:f9:10:78:c1:10:a6:64:7d:bf:10:dd:4a:
                    f8:45:a0:9b:e2:b9:04:c9:b1:0a:97:81:d3:16:28:
                    a9:f6:9a:ed:37:c0:df:ff:4d:59:d7:34:20:7a:68:
                    34:07:22:a0:45:28:4b:d5:0e:99:26:cf:89:cb:f2:
                    56:69:39:7a:c9:55:d4:5e:66:3c:58:f9:82:12:d7:
                    42:b7:ba:ac:6a:5e:ca:cf:dc:ad:91:b3:5f:41:0a:
                    f8:d7:2e:9b:00:81:8b:6c:88:e6:ed:a9:38:7f:63:
                    bc:de:b2:d3:71:c3:db:b0:9c:b1:c0:b5:fb:d1:48:
                    c3:95:be:9b:3e:5f:02:49:39
                Exponent: 65537 (0x10001)
    Signature Algorithm: sha1WithRSAEncryption
         d0:30:45:dd:5b:71:fc:d9:78:68:7b:20:6a:eb:e3:09:ff:b9:
         07:00:fe:73:98:2c:5c:37:c4:47:0a:17:e7:8f:38:b7:07:5a:
         d2:cf:46:52:92:03:97:04:83:9b:c8:2d:d5:5e:9e:61:9f:ae:
         80:42:2b:b3:a5:4f:8c:ef:be:b3:fa:38:aa:15:21:6c:03:54:
         1e:b3:a3:d8:9c:69:8e:40:16:4d:ac:91:02:48:30:73:93:27:
         b2:b2:4d:bf:cc:f1:01:b3:e9:b6:b0:b1:5b:67:87:3a:8a:ee:
         4b:be:7d:a8:45:17:97:fe:37:e8:d6:7a:23:83:22:dd:78:f9:
         ac:73
-----BEGIN CERTIFICATE-----
MIIB8jCCAVugAwIBAwIBATANBgkqhkiG9w0BAQUFADA/MRgwFgYDVQQDEw93d3cu
ZXhhbXBsZS5jb20xCzAJBgNVBAYTAkJFMRYwFAYDVQQKEw1HcmVtd2VsbCBidmJh
MB4XDTcwMDEwMTAwMDAwMFoXDTM4MDExOTAzMTQwN1owPzEYMBYGA1UEAxMPd3d3
LmV4YW1wbGUuY29tMQswCQYDVQQGEwJCRTEWMBQGA1UEChMNR3JlbXdlbGwgYnZi
YTCBnzANBgkqhkiG9w0BAQEFAAOBjQAwgYkCgYEA9+z5EHjBEKZkfb8Q3Ur4RaCb
4rkEybEKl4HTFiip9prtN8Df/01Z1zQgemg0ByKgRShL1Q6ZJs+Jy/JWaTl6yVXU
XmY8WPmCEtdCt7qsal7Kz9ytkbNfQQr41y6bAIGLbIjm7ak4f2O83rLTccPbsJyx
wLX70UjDlb6bPl8CSTkCAwEAATANBgkqhkiG9w0BAQUFAAOBgQDQMEXdW3H82Xho
eyBq6+MJ/7kHAP5zmCxcN8RHChfnjzi3B1rSz0ZSkgOXBIObyC3VXp5hn66AQiuz
pU+M776z+jiqFSFsA1Qes6PYnGmOQBZNrJECSDBzkyeysk2/zPEBs+m2sLFbZ4c6
iu5Lvn2oRReX/jfo1nojgyLdePmscw==
-----END CERTIFICATE-----
