Certificate:
    Data:
        Version: 4 (0x3)
        Serial Number: 1 (0x1)
    Signature Algorithm: sha1WithRSAEncryption
        Issuer: CN=ca-none, C=BE, O=Gremwell bvba
        Validity
            Not Before: Jan  1 00:00:00 1970 GMT
            Not After : Jan 19 03:14:07 2038 GMT
        Subject: CN=www.example.com, C=BE, O=Gremwell bvba
        Subject Public Key Info:
            Public Key Algorithm: rsaEncryption
                Public-Key: (1024 bit)
                Modulus:
                    00:f7:ec:f9:10:78:c1:10:a6:64:7d:bf:10:dd:4a:
                    f8:45:a0:9b:e2:b9:04:c9:b1:0a:97:81:d3:16:28:
                    a9:f6:9a:ed:37:c0:df:ff:4d:59:d7:34:20:7a:68:
                    34:07:22:a0:45:28:4b:d5:0e:99:26:cf:89:cb:f2:
                    56:69:39:7a:c9:55:d4:5e:66:3c:58:f9:82:12:d7:
                    42:b7:ba:ac:6a:5e:ca:cf:dc:ad:91:b3:5f:41:0a:
                    f8:d7:2e:9b:00:81:8b:6c:88:e6:ed:a9:38:7f:63:
                    bc:de:b2:d3:71:c3:db:b0:9c:b1:c0:b5:fb:d1:48:
                    c3:95:be:9b:3e:5f:02:49:39
                Exponent: 65537 (0x10001)
    Signature Algorithm: sha1WithRSAEncryption
         0d:57:d5:c0:11:5f:4d:3d:4b:aa:d5:52:32:05:86:08:7a:3c:
         c3:e8:8f:52:7a:bf:24:0b:94:bc:16:e5:2a:80:f0:d2:49:a0:
         77:cb:72:5d:62:c4:a3:7a:96:8e:a0:80:e9:81:1d:e6:45:cd:
         12:c1:1a:06:d2:5b:87:d4:e2:9f:43:c9:46:be:cc:62:73:cb:
         d9:b4:f9:e3:c1:7a:ab:bc:88:f7:ea:4a:90:22:1c:76:09:20:
         04:3a:c6:ff:89:a9:95:12:21:0c:7a:9a:fc:25:c5:23:1a:f5:
         3d:ee:ea:d1:2f:82:09:13:8a:1e:44:9c:21:c8:f7:87:8b:65:
         19:16
-----BEGIN CERTIFICATE-----
MIIB6jCCAVOgAwIBAwIBATANBgkqhkiG9w0BAQUFADA3MRAwDgYDVQQDEwdjYS1u
b25lMQswCQYDVQQGEwJCRTEWMBQGA1UEChMNR3JlbXdlbGwgYnZiYTAeFw03MDAx
MDEwMDAwMDBaFw0zODAxMTkwMzE0MDdaMD8xGDAWBgNVBAMTD3d3dy5leGFtcGxl
LmNvbTELMAkGA1UEBhMCQkUxFjAUBgNVBAoTDUdyZW13ZWxsIGJ2YmEwgZ8wDQYJ
KoZIhvcNAQEBBQADgY0AMIGJAoGBAPfs+RB4wRCmZH2/EN1K+EWgm+K5BMmxCpeB
0xYoqfaa7TfA3/9NWdc0IHpoNAcioEUoS9UOmSbPicvyVmk5eslV1F5mPFj5ghLX
Qre6rGpeys/crZGzX0EK+NcumwCBi2yI5u2pOH9jvN6y03HD27CcscC1+9FIw5W+
mz5fAkk5AgMBAAEwDQYJKoZIhvcNAQEFBQADgYEADVfVwBFfTT1LqtVSMgWGCHo8
w+iPUnq/JAuUvBblKoDw0kmgd8tyXWLEo3qWjqCA6YEd5kXNEsEaBtJbh9Tin0PJ
Rr7MYnPL2bT548F6q7yI9+pKkCIcdgkgBDrG/4mplRIhDHqa/CXFIxr1Pe7q0S+C
CROKHkScIcj3h4tlGRY=
-----END CERTIFICATE-----
Certificate:
    Data:
        Version: 4 (0x3)
        Serial Number: 1 (0x1)
    Signature Algorithm: sha1WithRSAEncryption
        Issuer: C=BE, CN=txjsonrpc-test-ca
        Validity
            Not Before: Jan  1 00:00:00 1970 GMT
            Not After : Jan 19 03:14:07 2038 GMT
        Subject: CN=ca-none, C=BE, O=Gremwell bvba
        Subject Public Key Info:
            Public Key Algorithm: rsaEncryption
                Public-Key: (1024 bit)
                Modulus:
                    00:aa:da:1b:fe:16:48:30:91:8c:09:6c:6f:4e:c6:
                    3d:26:e8:e8:c1:82:7a:27:0c:eb:ee:fa:fb:32:f6:
                    b8:51:0a:51:44:e0:5f:5d:99:f6:05:42:88:19:34:
                    e9:1a:5a:bf:5d:d5:40:18:42:aa:14:2f:78:cb:0d:
                    6c:a6:f8:80:35:67:75:e2:3f:c2:54:76:98:79:e1:
                    9b:09:87:ee:6a:9e:c1:1e:21:5a:67:a9:2e:ef:07:
                    3e:ff:31:05:bc:21:85:eb:3d:e0:9c:6f:d0:f8:23:
                    36:05:76:88:34:1b:00:51:39:05:43:58:e0:d1:1a:
                    18:9e:fd:4a:2a:b6:02:ec:91
                Exponent: 65537 (0x10001)
    Signature Algorithm: sha1WithRSAEncryption
         65:50:78:40:a0:68:b3:b1:51:90:d9:8e:3c:d6:3c:3e:d0:8b:
         f6:1b:7c:db:36:cc:ba:19:0f:8b:ab:6d:43:c8:9f:99:e3:6c:
         4b:71:d5:c0:10:24:84:35:1a:14:aa:05:f1:28:3d:32:7d:7c:
         47:1b:6d:40:06:06:08:96:06:92:7e:38:1d:c1:b5:69:9a:5e:
         fa:61:b0:d4:0f:7a:aa:bd:0b:b1:8d:ec:0d:35:00:df:49:54:
         19:37:f6:9d:48:9b:8d:35:d2:d8:1b:a0:e8:7b:7d:bf:d0:dd:
         b3:75:46:69:d2:9b:ea:5e:b5:0a:c8:27:73:93:96:37:ce:b4:
         be:02:24:d0:e1:ad:fe:86:5f:39:db:f2:de:40:e9:ef:1a:05:
         8a:55:02:71:25:f4:3b:e8:3b:af:be:63:43:c2:26:0a:a6:29:
         6f:c5:de:de:bd:96:cf:07:ea:2d:b1:79:98:0f:c2:de:9f:f2:
         3b:43:34:10:74:27:62:0a:5c:39:51:6c:c6:52:04:f8:06:e1:
         04:b8:2d:bb:1f:1e:cf:d6:e7:8a:f3:25:b7:e9:44:96:57:bf:
         b1:0f:d1:ba:25:ac:6c:70:17:97:cd:08:45:84:e5:a3:28:65:
         46:97:e1:f4:54:61:24:7b:07:62:20:a9:79:12:c2:e9:db:ae:
         e1:2d:5f:cb:8c:21:25:13:6a:bd:9e:5e:cb:c0:dc:a7:af:e2:
         cc:0a:43:7e:17:64:06:31:6e:29:09:20:4f:9c:02:90:03:a0:
         ac:a4:86:7f:fc:72:10:f1:d2:ab:9e:8f:29:7c:da:ed:c3:f0:
         1f:fb:af:07:d3:d6:7b:03:e2:bd:5b:90:ea:3e:43:e9:b9:7a:
         e5:eb:93:53:1e:57:56:5d:28:0d:26:5c:9f:d8:bc:77:b3:ac:
         eb:b2:90:e3:79:0a:bc:4b:51:06:6d:5f:43:cf:a2:55:7b:3e:
         89:d5:0b:c1:85:04:e6:12:ff:ec:c5:a8:64:de:f2:b7:27:fa:
         fa:8a:78:7d:8e:1d:99:df:a9:87:02:56:4d:fa:a9:12:7e:f4:
         b0:dd:10:ca:fa:59:bb:3d:26:99:cc:29:9d:60:fa:8f:c2:f8:
         98:02:5d:72:ab:b7:33:a4:cc:7b:6c:41:43:cb:1a:ab:a9:d0:
         b0:9a:de:85:ed:3d:59:16:ab:c5:d8:d6:99:37:93:ae:04:71:
         9b:0f:75:81:5c:93:8b:2d:34:29:2b:cd:f6:0a:77:9a:fa:96:
         05:ca:28:bc:12:91:99:80:96:ff:9f:01:b2:78:c3:82:51:13:
         20:9f:23:25:9c:b3:e0:8b:33:04:6e:f2:72:37:e7:14:2a:db:
         2a:57:fd:77:04:5c:35:26
-----BEGIN CERTIFICATE-----
MIIDVTCCAT2gAwIBAwIBATANBgkqhkiG9w0BAQUFADApMQswCQYDVQQGEwJCRTEa
MBgGA1UEAxMRdHhqc29ucnBjLXRlc3QtY2EwHhcNNzAwMTAxMDAwMDAwWhcNMzgw
MTE5MDMxNDA3WjA3MRAwDgYDVQQDEwdjYS1ub25lMQswCQYDVQQGEwJCRTEWMBQG
A1UEChMNR3JlbXdlbGwgYnZiYTCBnzANBgkqhkiG9w0BAQEFAAOBjQAwgYkCgYEA
qtob/hZIMJGMCWxvTsY9JujowYJ6Jwzr7vr7Mva4UQpRROBfXZn2BUKIGTTpGlq/
XdVAGEKqFC94yw1spviANWd14j/CVHaYeeGbCYfuap7BHiFaZ6ku7wc+/zEFvCGF
6z3gnG/Q+CM2BXaINBsAUTkFQ1jg0RoYnv1KKrYC7JECAwEAATANBgkqhkiG9w0B
AQUFAAOCAgEAZVB4QKBos7FRkNmOPNY8PtCL9ht82zbMuhkPi6ttQ8ifmeNsS3HV
wBAkhDUaFKoF8Sg9Mn18RxttQAYGCJYGkn44HcG1aZpe+mGw1A96qr0LsY3sDTUA
30lUGTf2nUibjTXS2Bug6Ht9v9Dds3VGadKb6l61Csgnc5OWN860vgIk0OGt/oZf
Odvy3kDp7xoFilUCcSX0O+g7r75jQ8ImCqYpb8Xe3r2WzwfqLbF5mA/C3p/yO0M0
EHQnYgpcOVFsxlIE+AbhBLgtux8ez9bnivMlt+lElle/sQ/RuiWsbHAXl80IRYTl
oyhlRpfh9FRhJHsHYiCpeRLC6duu4S1fy4whJRNqvZ5ey8Dcp6/izApDfhdkBjFu
KQkgT5wCkAOgrKSGf/xyEPHSq56PKXza7cPwH/uvB9PWewPivVuQ6j5D6bl65euT
Ux5XVl0oDSZcn9i8d7Os67KQ43kKvEtRBm1fQ8+iVXs+idULwYUE5hL/7MWoZN7y
tyf6+op4fY4dmd+phwJWTfqpEn70sN0QyvpZuz0mmcwpnWD6j8L4mAJdcqu3M6TM
e2xBQ8saq6nQsJrehe09WRarxdjWmTeTrgRxmw91gVyTiy00KSvN9gp3mvqWBcoo
vBKRmYCW/58BsnjDglETIJ8jJZyz4IszBG7ycjfnFCrbKlf9dwRcNSY=
-----END CERTIFICATE-----
