Certificate:
    Data:
        Version: 4 (0x3)
        Serial Number: 1 (0x1)
    Signature Algorithm: sha1WithRSAEncryption
        Issuer: CN=ca-true, C=BE, O=Gremwell bvba
        Validity
            Not Before: Jan  1 00:00:00 1970 GMT
            Not After : Jan 19 03:14:07 2038 GMT
        Subject: CN=www.example.com, C=BE, O=Gremwell bvba
        Subject Public Key Info:
            Public Key Algorithm: rsaEncryption
                Public-Key: (1024 bit)
                Modulus:
                    00:f7:ec:f9:10:78:c1:10:a6:64:7d:bf:10:dd:4a:
                    f8:45:a0:9b:e2:b9:04:c9:b1:0a:97:81:d3:16:28:
                    a9:f6:9a:ed:37:c0:df:ff:4d:59:d7:34:20:7a:68:
                    34:07:22:a0:45:28:4b:d5:0e:99:26:cf:89:cb:f2:
                    56:69:39:7a:c9:55:d4:5e:66:3c:58:f9:82:12:d7:
                    42:b7:ba:ac:6a:5e:ca:cf:dc:ad:91:b3:5f:41:0a:
                    f8:d7:2e:9b:00:81:8b:6c:88:e6:ed:a9:38:7f:63:
                    bc:de:b2:d3:71:c3:db:b0:9c:b1:c0:b5:fb:d1:48:
                    c3:95:be:9b:3e:5f:02:49:39
                Exponent: 65537 (0x10001)
    Signature Algorithm: sha1WithRSAEncryption
         65:b9:a5:82:78:b0:62:f5:7f:0c:f6:70:e8:2b:0a:06:17:a5:
         0d:e6:49:f5:9d:48:58:a7:49:60:27:fd:76:4d:71:2c:1e:b5:
         1f:22:3d:1d:a0:b5:aa:e1:78:7a:ba:7d:75:8a:b6:43:f3:a5:
         77:21:69:9d:8d:08:4a:b7:bb:30:af:1f:07:5e:7b:ff:1c:0f:
         49:28:0d:a1:55:56:b7:28:5c:13:81:5c:d2:e3:e3:4c:78:3d:
         84:a1:3d:51:2e:ae:56:81:41:e4:4b:69:cf:8b:35:cc:14:1b:
         9b:a2:56:55:cd:a2:90:84:84:28:49:46:70:c1:d9:63:26:69:
         17:f4
-----BEGIN CERTIFICATE-----
MIIB6jCCAVOgAwIBAwIBATANBgkqhkiG9w0BAQUFADA3MRAwDgYDVQQDEwdjYS10
cnVlMQswCQYDVQQGEwJCRTEWMBQGA1UEChMNR3JlbXdlbGwgYnZiYTAeFw03MDAx
MDEwMDAwMDBaFw0zODAxMTkwMzE0MDdaMD8xGDAWBgNVBAMTD3d3dy5leGFtcGxl
LmNvbTELMAkGA1UEBhMCQkUxFjAUBgNVBAoTDUdyZW13ZWxsIGJ2YmEwgZ8wDQYJ
KoZIhvcNAQEBBQADgY0AMIGJAoGBAPfs+RB4wRCmZH2/EN1K+EWgm+K5BMmxCpeB
0xYoqfaa7TfA3/9NWdc0IHpoNAcioEUoS9UOmSbPicvyVmk5eslV1F5mPFj5ghLX
Qre6rGpeys/crZGzX0EK+NcumwCBi2yI5u2pOH9jvN6y03HD27CcscC1+9FIw5W+
mz5fAkk5AgMBAAEwDQYJKoZIhvcNAQEFBQADgYEAZbmlgniwYvV/DPZw6CsKBhel
DeZJ9Z1IWKdJYCf9dk1xLB61HyI9HaC1quF4erp9dYq2Q/OldyFpnY0ISre7MK8f
B157/xwPSSgNoVVWtyhcE4Fc0uPjTHg9hKE9US6uVoFB5Etpz4s1zBQbm6JWVc2i
kISEKElGcMHZYyZpF/Q=
-----END CERTIFICATE-----
Certificate:
    Data:
        Version: 4 (0x3)
        Serial Number: 1 (0x1)
    Signature Algorithm: sha1WithRSAEncryption
        Issuer: C=BE, CN=txjsonrpc-test-ca
        Validity
            Not Before: Jan  1 00:00:00 1970 GMT
            Not After : Jan 19 03:14:07 2038 GMT
        Subject: CN=ca-true, C=BE, O=Gremwell bvba
        Subject Public Key Info:
            Public Key Algorithm: rsaEncryption
                Public-Key: (1024 bit)
                Modulus:
                    00:cf:2a:6d:d5:47:6b:4d:9a:88:8b:de:9e:e3:95:
                    34:07:0e:5e:da:4d:77:72:b9:74:bb:13:51:b9:97:
                    a8:af:e0:67:e2:83:9e:9f:ad:a2:9f:65:85:91:f1:
                    88:38:02:05:5c:f3:85:a1:be:4f:14:17:6d:03:ef:
                    88:c3:e3:52:c3:35:dd:df:73:e5:45:3a:3f:a6:4c:
                    da:51:fc:21:90:ad:b4:d6:3b:7a:10:c7:15:82:3e:
                    44:e4:99:04:aa:26:dd:66:e0:48:ad:b6:a9:0c:08:
                    05:a3:3a:69:e3:df:5f:57:b0:ba:62:8b:c2:24:22:
                    28:b7:96:fd:cb:50:f5:a0:c9
                Exponent: 65537 (0x10001)
        X509v3 extensions:
            X509v3 Basic Constraints: critical
                CA:TRUE
    Signature Algorithm: sha1WithRSAEncryption
         ac:52:d0:16:5b:5f:5d:65:a3:70:34:d5:2f:2f:93:36:60:df:
         f2:45:70:16:46:dd:71:f5:eb:c6:63:a0:78:d2:ac:13:77:90:
         e8:1d:0c:45:64:26:86:a2:79:dc:31:c7:60:37:51:6f:88:2a:
         ab:6d:4d:96:15:fd:64:d9:60:51:11:e4:6f:13:ec:19:bd:1e:
         8e:35:9f:1a:42:e6:e5:2f:21:62:ec:85:36:fc:18:fb:e6:7a:
         41:f7:0b:37:97:8f:36:07:79:38:5e:62:09:5b:c1:e7:b7:ad:
         c1:70:1d:78:84:5d:96:e0:91:11:8f:0c:ea:71:af:f5:a0:38:
         f1:8a:7e:48:13:9e:1e:51:b7:25:87:71:fc:df:32:db:d0:2d:
         75:c7:c5:34:cd:c6:0a:45:dd:40:5d:d7:2f:ee:d2:74:b4:72:
         3c:bd:cc:61:96:e7:ab:a4:e7:e8:a0:31:9f:1a:ac:64:ea:db:
         5c:36:9f:8c:c7:62:d9:c3:f2:5d:de:a8:3a:40:55:80:a8:2a:
         16:56:6a:78:2c:97:98:f9:a4:29:19:86:b2:6b:bb:a4:90:34:
         23:30:5f:0c:21:4f:ab:8d:59:23:42:cc:ad:76:ce:84:e9:68:
         6a:96:d6:bf:4e:db:9b:d3:49:fb:02:da:a7:f7:f5:10:c2:df:
         e5:c5:47:4c:48:f5:69:64:d8:e7:7a:70:86:54:95:7d:3a:b6:
         1a:a7:97:69:e1:63:d6:67:bb:93:92:66:7f:f5:b1:a2:ef:86:
         4d:b1:ac:09:d0:b5:9c:d7:d3:ea:10:10:01:0d:69:6f:80:84:
         3d:61:b8:1c:77:fa:3a:bb:a6:86:e2:a7:b8:2f:4c:f5:e0:d2:
         98:06:a9:f0:db:62:3a:1d:1f:1c:70:17:29:bc:af:30:14:73:
         cb:60:ab:10:cb:f9:7c:86:4d:a1:dc:04:c1:5a:65:ac:e9:4c:
         d9:12:f0:33:af:80:bd:95:02:49:bc:13:d6:51:2e:c9:58:f5:
         39:69:6d:f9:43:1c:82:92:6f:04:7d:b6:5d:f7:0f:d4:81:25:
         ec:05:91:96:ea:13:7c:32:ea:49:17:c7:63:ee:49:1e:21:fc:
         9e:a1:0e:c8:f8:5b:24:f3:73:a5:b1:88:17:c4:f0:09:b8:23:
         a1:f5:97:4b:de:39:92:ce:84:6b:d5:2d:1b:28:db:6d:7d:22:
         6a:fb:0d:1c:88:8d:5c:da:4f:5b:c8:3d:f5:ce:2d:26:8d:4d:
         c4:45:cc:62:b4:e1:38:50:3e:83:fd:0e:e9:ea:a7:94:43:f5:
         60:71:c1:4b:ff:65:11:b8:25:ce:84:ad:81:7a:7b:35:08:77:
         2b:37:9a:7a:3f:de:36:83
-----BEGIN CERTIFICATE-----
MIIDajCCAVKgAwIBAwIBATANBgkqhkiG9w0BAQUFADApMQswCQYDVQQGEwJCRTEa
MBgGA1UEAxMRdHhqc29ucnBjLXRlc3QtY2EwHhcNNzAwMTAxMDAwMDAwWhcNMzgw
MTE5MDMxNDA3WjA3MRAwDgYDVQQDEwdjYS10cnVlMQswCQYDVQQGEwJCRTEWMBQG
A1UEChMNR3JlbXdlbGwgYnZiYTCBnzANBgkqhkiG9w0BAQEFAAOBjQAwgYkCgYEA
zypt1UdrTZqIi96e45U0Bw5e2k13crl0uxNRuZeor+Bn4oOen62in2WFkfGIOAIF
XPOFob5PFBdtA++Iw+NSwzXd33PlRTo/pkzaUfwhkK201jt6EMcVgj5E5JkEqibd
ZuBIrbapDAgFozpp499fV7C6YovCJCIot5b9y1D1oMkCAwEAAaMTMBEwDwYDVR0T
AQH/BAUwAwEB/zANBgkqhkiG9w0BAQUFAAOCAgEArFLQFltfXWWjcDTVLy+TNmDf
8kVwFkbdcfXrxmOgeNKsE3eQ6B0MRWQmhqJ53DHHYDdRb4gqq21NlhX9ZNlgURHk
bxPsGb0ejjWfGkLm5S8hYuyFNvwY++Z6QfcLN5ePNgd5OF5iCVvB57etwXAdeIRd
luCREY8M6nGv9aA48Yp+SBOeHlG3JYdx/N8y29AtdcfFNM3GCkXdQF3XL+7SdLRy
PL3MYZbnq6Tn6KAxnxqsZOrbXDafjMdi2cPyXd6oOkBVgKgqFlZqeCyXmPmkKRmG
smu7pJA0IzBfDCFPq41ZI0LMrXbOhOloapbWv07bm9NJ+wLap/f1EMLf5cVHTEj1
aWTY53pwhlSVfTq2GqeXaeFj1me7k5Jmf/Wxou+GTbGsCdC1nNfT6hAQAQ1pb4CE
PWG4HHf6OrumhuKnuC9M9eDSmAap8NtiOh0fHHAXKbyvMBRzy2CrEMv5fIZNodwE
wVplrOlM2RLwM6+AvZUCSbwT1lEuyVj1OWlt+UMcgpJvBH22XfcP1IEl7AWRluoT
fDLqSRfHY+5JHiH8nqEOyPhbJPNzpbGIF8TwCbgjofWXS945ks6Ea9UtGyjbbX0i
avsNHIiNXNpPW8g99c4tJo1NxEXMYrThOFA+g/0O6eqnlEP1YHHBS/9lEbglzoSt
gXp7NQh3Kzeaej/eNoM=
-----END CERTIFICATE-----
