Certificate:
    Data:
        Version: 3 (0x2)
        Serial Number: 1 (0x1)
    Signature Algorithm: sha1WithRSAEncryption
        Issuer: C=BE, CN=txjsonrpc-pyserver
        Validity
            Not Before: Jun 23 15:47:38 2012 GMT
            Not After : Jun 23 15:47:38 2013 GMT
        Subject: C=BE, CN=txjsonrpc-pyserver
        Subject Public Key Info:
            Public Key Algorithm: rsaEncryption
                Public-Key: (4096 bit)
                Modulus:
                    00:99:66:1d:c9:8f:e2:7f:65:ea:ab:c5:92:3c:da:
                    b5:33:f6:36:a0:82:a6:fe:d6:25:a6:8a:9b:4a:21:
                    05:54:ce:81:73:11:48:ba:ed:0a:2e:fd:72:93:a0:
                    81:1d:43:6c:c2:65:b3:c2:b8:f5:6b:65:87:e4:3a:
                    e1:27:4c:1d:34:98:b4:05:fd:6a:cb:cc:1c:4c:f4:
                    b9:e6:b5:6d:e7:85:c1:a5:de:1c:f6:84:bf:d2:82:
                    49:ae:2d:5d:30:3a:76:6d:65:d8:34:59:10:7b:2a:
                    aa:1c:6c:47:80:30:6c:56:d4:f5:e9:b6:64:f0:0c:
                    9a:20:d4:82:ed:15:5e:b7:11:66:01:8c:83:fa:c2:
                    d3:23:fa:f5:fc:e5:da:df:5a:77:c5:f0:86:96:3e:
                    9b:6e:0a:4e:50:4e:57:12:79:9f:8b:6b:38:1d:c3:
                    c5:d4:de:be:59:ca:38:ae:4f:dc:db:fc:61:1c:23:
                    49:c8:23:d4:32:19:ce:60:0c:28:36:c1:ef:00:ef:
                    98:59:72:48:3d:8c:04:32:b2:8f:17:5f:23:a3:35:
                    93:b7:12:a8:5b:68:b4:b7:aa:78:c7:8c:a4:a0:8c:
                    ae:86:b1:b6:5b:6e:63:d1:57:d2:44:f3:a5:7f:99:
                    c9:95:a4:a0:62:bb:79:8c:bd:e0:0c:d5:b4:06:42:
                    d5:d9:6c:86:ca:d6:c0:c1:bf:66:21:9c:f0:e2:b3:
                    01:56:cf:ad:75:98:f4:c5:42:d5:11:b6:2b:77:17:
                    7c:da:2e:da:4c:32:c5:75:4e:4f:b5:b7:c9:f8:dd:
                    93:57:a0:1a:2d:69:ed:76:8c:d4:5c:10:f2:4a:57:
                    5b:f1:1d:b6:77:a9:17:60:bd:84:b0:74:c6:7c:8f:
                    19:51:7c:60:ef:41:85:b7:97:93:09:17:7f:1d:91:
                    c0:3c:12:ef:c7:23:14:6a:ba:fa:f6:0c:15:3a:e0:
                    f2:5e:49:df:14:70:88:c0:e5:91:a7:55:2f:e1:f1:
                    09:c3:20:64:cf:5e:7f:12:10:16:9c:47:2e:43:3b:
                    55:5e:65:2e:f2:03:bd:b4:15:32:b2:2a:37:7d:1d:
                    23:1a:ea:55:99:39:c7:2f:9d:38:60:9e:1d:ad:6b:
                    b8:41:25:54:9d:dd:e6:32:4a:d4:a6:7f:5b:8a:0b:
                    c6:66:38:75:76:bd:41:42:c5:8a:56:40:40:fe:fa:
                    19:cf:c8:72:2c:33:77:52:23:2d:b5:56:74:fc:38:
                    28:31:2a:88:26:ac:cc:6e:e3:f0:24:38:0f:a3:1b:
                    56:c0:db:4b:8e:de:c3:e5:6f:81:4a:35:91:b1:b6:
                    c2:94:3c:23:49:ed:a4:a0:d5:f2:d1:d5:4d:42:92:
                    b9:51:5d
                Exponent: 65537 (0x10001)
        X509v3 extensions:
            X509v3 Basic Constraints: 
                CA:FALSE
            Netscape Cert Type: 
                SSL Server
            Netscape Comment: 
                TinyCA Generated Certificate
            X509v3 Subject Key Identifier: 
                26:8C:A5:F9:A6:4A:FE:4C:E8:0F:04:33:7E:04:26:28:BF:4C:92:F3
            X509v3 Authority Key Identifier: 
                keyid:9D:8F:84:76:94:CD:07:FE:A3:E8:8B:D7:F9:D9:6E:EF:CA:75:51:7B
                DirName:/C=BE/CN=txjsonrpc-test-ca
                serial:8D:D2:AF:37:F9:CA:92:0B

            X509v3 Issuer Alternative Name: 
                <EMPTY>

            X509v3 Subject Alternative Name: 
                <EMPTY>

    Signature Algorithm: sha1WithRSAEncryption
         33:c0:3e:46:09:54:a7:eb:89:ad:b8:d3:42:4f:ff:03:a7:06:
         e5:b6:05:c2:79:82:5a:5e:2e:82:a3:81:ab:0b:d4:48:eb:e3:
         cf:92:e5:fe:c9:4e:8d:25:36:b6:5a:66:ba:99:76:c6:a4:3f:
         a7:ff:52:b4:0b:ad:1e:05:00:95:43:e5:4a:53:ec:d6:b7:96:
         4a:16:8e:8c:5f:d4:81:90:05:8c:a7:ad:24:ae:28:09:5f:9b:
         34:1c:0d:db:af:fc:26:99:1d:95:91:5f:10:49:3a:bf:3a:90:
         7d:c6:c9:cd:d2:ea:af:8f:40:32:7b:56:3b:47:39:a8:5e:ad:
         df:00:ae:ff:1c:d0:18:cc:94:90:ba:97:4b:45:6f:63:3c:95:
         7b:30:05:60:5e:d9:ff:13:e3:0e:0f:90:bb:4b:ff:a6:5f:f2:
         b1:3a:76:06:05:9f:90:0e:55:bd:e4:49:38:0f:81:14:3e:00:
         fd:0d:6b:9a:f0:49:7a:f9:54:f3:bc:e3:81:9c:33:87:5c:77:
         f9:3c:8c:b7:6a:2c:67:05:bc:a2:12:9a:82:be:05:8b:ba:37:
         43:90:94:ff:2c:ca:85:46:63:5c:5c:1b:d5:21:ca:92:65:83:
         35:b1:aa:30:37:32:42:84:7f:95:b9:08:30:49:5a:45:9d:5f:
         c9:23:87:c5:ac:c9:e1:0a:d6:dc:39:aa:30:77:34:ec:6f:92:
         00:66:02:22:74:a2:8e:61:5b:73:8d:33:22:2f:e9:47:e6:53:
         b6:8f:08:99:f8:f0:fe:5f:c8:e0:32:ef:13:f0:46:99:cf:05:
         49:32:cf:6e:d4:2f:28:42:bf:82:2e:04:66:a9:66:98:53:3a:
         f5:14:8f:1e:44:2d:e9:a3:f7:b6:ed:f1:d7:5b:2e:c4:f0:ed:
         db:d9:cf:00:e9:dc:e6:9d:9d:88:a1:e4:09:17:1f:68:7b:a2:
         5b:64:42:fe:51:9b:bd:ea:af:12:d0:73:87:7b:c3:48:dc:a2:
         63:89:d5:6d:c9:fd:ed:db:45:c4:ca:bf:aa:a8:fb:75:5c:57:
         01:83:02:7b:7f:e3:0f:23:45:9f:01:44:0b:9d:3c:22:f5:3b:
         27:2f:88:9c:1a:43:e3:7b:98:55:e7:1d:88:df:22:c9:c6:b6:
         fc:f6:27:9c:3a:b6:19:d5:ae:58:e6:01:76:a9:fc:be:a3:c4:
         82:c7:b4:dc:d8:46:c7:55:ac:f8:2c:5d:a6:aa:c8:40:b5:0c:
         10:04:8c:74:89:2d:37:34:ea:7a:15:81:79:a4:d4:1b:e8:15:
         a9:1e:65:d7:f7:b6:bf:0f:57:47:61:89:41:ef:27:0e:6b:c7:
         3a:e6:5d:1c:8f:cc:5d:1c
-----BEGIN CERTIFICATE-----
MIIFrjCCA5agAwIBAgIBATANBgkqhkiG9w0BAQUFADAqMQswCQYDVQQGEwJCRTEb
MBkGA1UEAxMSdHhqc29ucnBjLXB5c2VydmVyMB4XDTEyMDYyMzE1NDczOFoXDTEz
MDYyMzE1NDczOFowKjELMAkGA1UEBhMCQkUxGzAZBgNVBAMTEnR4anNvbnJwYy1w
eXNlcnZlcjCCAiIwDQYJKoZIhvcNAQEBBQADggIPADCCAgoCggIBAJlmHcmP4n9l
6qvFkjzatTP2NqCCpv7WJaaKm0ohBVTOgXMRSLrtCi79cpOggR1DbMJls8K49Wtl
h+Q64SdMHTSYtAX9asvMHEz0uea1beeFwaXeHPaEv9KCSa4tXTA6dm1l2DRZEHsq
qhxsR4AwbFbU9em2ZPAMmiDUgu0VXrcRZgGMg/rC0yP69fzl2t9ad8XwhpY+m24K
TlBOVxJ5n4trOB3DxdTevlnKOK5P3Nv8YRwjScgj1DIZzmAMKDbB7wDvmFlySD2M
BDKyjxdfI6M1k7cSqFtotLeqeMeMpKCMroaxtltuY9FX0kTzpX+ZyZWkoGK7eYy9
4AzVtAZC1dlshsrWwMG/ZiGc8OKzAVbPrXWY9MVC1RG2K3cXfNou2kwyxXVOT7W3
yfjdk1egGi1p7XaM1FwQ8kpXW/EdtnepF2C9hLB0xnyPGVF8YO9BhbeXkwkXfx2R
wDwS78cjFGq6+vYMFTrg8l5J3xRwiMDlkadVL+HxCcMgZM9efxIQFpxHLkM7VV5l
LvIDvbQVMrIqN30dIxrqVZk5xy+dOGCeHa1ruEElVJ3d5jJK1KZ/W4oLxmY4dXa9
QULFilZAQP76Gc/Iciwzd1IjLbVWdPw4KDEqiCaszG7j8CQ4D6MbVsDbS47ew+Vv
gUo1kbG2wpQ8I0ntpKDV8tHVTUKSuVFdAgMBAAGjgd4wgdswCQYDVR0TBAIwADAR
BglghkgBhvhCAQEEBAMCBkAwKwYJYIZIAYb4QgENBB4WHFRpbnlDQSBHZW5lcmF0
ZWQgQ2VydGlmaWNhdGUwHQYDVR0OBBYEFCaMpfmmSv5M6A8EM34EJii/TJLzMFkG
A1UdIwRSMFCAFJ2PhHaUzQf+o+iL1/nZbu/KdVF7oS2kKzApMQswCQYDVQQGEwJC
RTEaMBgGA1UEAxMRdHhqc29ucnBjLXRlc3QtY2GCCQCN0q83+cqSCzAJBgNVHRIE
AjAAMAkGA1UdEQQCMAAwDQYJKoZIhvcNAQEFBQADggIBADPAPkYJVKfria2400JP
/wOnBuW2BcJ5glpeLoKjgasL1Ejr48+S5f7JTo0lNrZaZrqZdsakP6f/UrQLrR4F
AJVD5UpT7Na3lkoWjoxf1IGQBYynrSSuKAlfmzQcDduv/CaZHZWRXxBJOr86kH3G
yc3S6q+PQDJ7VjtHOaherd8Arv8c0BjMlJC6l0tFb2M8lXswBWBe2f8T4w4PkLtL
/6Zf8rE6dgYFn5AOVb3kSTgPgRQ+AP0Na5rwSXr5VPO844GcM4dcd/k8jLdqLGcF
vKISmoK+BYu6N0OQlP8syoVGY1xcG9UhypJlgzWxqjA3MkKEf5W5CDBJWkWdX8kj
h8WsyeEK1tw5qjB3NOxvkgBmAiJ0oo5hW3ONMyIv6UfmU7aPCJn48P5fyOAy7xPw
RpnPBUkyz27ULyhCv4IuBGapZphTOvUUjx5ELemj97bt8ddbLsTw7dvZzwDp3Oad
nYih5AkXH2h7oltkQv5Rm73qrxLQc4d7w0jcomOJ1W3J/e3bRcTKv6qo+3VcVwGD
Ant/4w8jRZ8BRAudPCL1OycviJwaQ+N7mFXnHYjfIsnGtvz2J5w6thnVrljmAXap
/L6jxILHtNzYRsdVrPgsXaaqyEC1DBAEjHSJLTc06noVgXmk1BvoFakeZdf3tr8P
V0dhiUHvJw5rxzrmXRyPzF0c
-----END CERTIFICATE-----
