Certificate:
    Data:
        Version: 4 (0x3)
        Serial Number: 1 (0x1)
    Signature Algorithm: sha1WithRSAEncryption
        Issuer: C=BE, CN=txjsonrpc-test-ca
        Validity
            Not Before: Jan  1 00:00:00 1970 GMT
            Not After : Jan 19 03:14:07 2038 GMT
        Subject: CN=ca-false, C=BE, O=Gremwell bvba
        Subject Public Key Info:
            Public Key Algorithm: rsaEncryption
                Public-Key: (1024 bit)
                Modulus:
                    00:cc:0c:e5:91:18:50:5b:8e:66:12:e3:00:bd:81:
                    a1:e2:38:74:71:25:7e:e0:9e:6e:ee:48:9c:51:2f:
                    ee:be:e3:a0:61:cf:6c:36:ac:db:d8:60:90:36:3e:
                    fd:a8:bb:2a:15:ae:f0:29:70:61:22:33:ee:96:28:
                    66:73:0f:e0:38:6d:89:0b:5f:ab:c0:ce:43:85:93:
                    ca:8a:0d:df:fe:4a:f7:a5:1a:ca:a9:16:07:62:ca:
                    79:ea:45:a1:d5:03:48:2b:ce:0b:f6:2b:da:ee:27:
                    eb:01:1e:34:73:92:55:75:49:c3:b4:ce:f5:cc:35:
                    d4:90:82:da:eb:5e:36:b2:8d
                Exponent: 65537 (0x10001)
        X509v3 extensions:
            X509v3 Basic Constraints: critical
                CA:FALSE
    Signature Algorithm: sha1WithRSAEncryption
         12:25:82:e8:8c:80:2a:2b:58:3d:71:82:c6:6c:8d:4b:46:20:
         11:8c:92:94:71:91:57:45:47:4d:30:d6:c1:fb:6e:ac:1d:dc:
         cf:ba:c1:33:fd:5e:e9:10:5f:8f:82:5b:07:7c:66:98:36:71:
         f7:bb:a1:c6:80:54:4a:27:4d:d2:60:5b:d1:60:92:b0:5b:d0:
         02:bc:f6:5f:3a:fa:74:72:e2:b0:d4:8f:27:f5:23:7f:3b:05:
         17:4f:00:51:65:f0:12:95:1b:81:44:cb:9b:80:38:17:93:47:
         8a:42:50:0c:4b:93:db:7b:17:f0:e4:9e:46:77:87:37:65:d6:
         fb:eb:ee:28:1b:ec:51:57:ee:38:11:17:17:75:ed:2f:68:da:
         27:05:c8:19:98:c1:10:a6:9a:af:b2:77:56:f3:6f:de:cd:7e:
         d4:a2:a7:a9:47:1f:91:50:35:61:8e:a3:2d:69:d9:94:24:0e:
         20:87:32:32:4f:a4:4b:83:e3:3c:0a:35:86:dc:30:51:50:0e:
         32:2b:95:4c:bf:e9:12:b2:d7:95:dc:ae:00:1d:b6:c5:28:8f:
         b4:a6:43:62:fc:e5:04:e5:44:35:1d:31:2a:6f:86:83:19:6a:
         01:02:15:e4:6b:8c:7b:bc:55:da:ce:ac:73:19:f7:f1:72:af:
         1d:39:cf:24:68:34:98:12:9c:90:de:44:dd:53:3d:b0:ee:dd:
         f9:84:8b:01:1d:05:df:28:2f:ef:c4:05:94:22:d8:25:59:bf:
         c4:93:6c:f7:ac:b0:ae:1d:88:3a:f8:c1:5d:17:67:6d:1f:29:
         98:3c:8a:04:9d:16:3c:51:dd:2b:a0:21:6e:d7:03:18:3e:ba:
         98:64:05:e4:f3:cc:54:6f:ce:dc:26:b7:e2:c1:0e:c7:85:4a:
         50:b4:30:3c:ff:e0:85:63:4c:ad:0c:59:6e:00:ad:06:15:1a:
         60:bf:2c:be:68:ab:ff:0d:b6:ea:d7:be:6c:50:95:74:ac:5e:
         36:b9:84:26:49:dc:cd:c9:94:50:da:6f:c4:f7:f0:b9:3d:5c:
         d6:cc:a3:2d:c2:f5:a5:8e:84:3c:98:e6:a2:3e:4f:6d:7d:97:
         0d:f8:19:62:ba:9f:e2:04:11:7f:b8:78:2f:9b:e9:dc:64:58:
         64:a4:cc:93:0b:72:91:b1:ae:55:5f:5b:02:c6:02:c4:30:9e:
         6c:d5:70:9d:ea:57:85:11:07:19:d8:d3:2b:8f:4a:24:c2:f3:
         5e:8f:6f:c1:11:47:f1:a1:ec:75:e9:e4:ba:0f:80:76:83:8b:
         87:a0:86:d0:9c:5e:19:7e:5e:6e:75:64:0b:5f:8b:57:56:2d:
         01:d6:b7:67:30:51:1e:91
-----BEGIN CERTIFICATE-----
MIIDaDCCAVCgAwIBAwIBATANBgkqhkiG9w0BAQUFADApMQswCQYDVQQGEwJCRTEa
MBgGA1UEAxMRdHhqc29ucnBjLXRlc3QtY2EwHhcNNzAwMTAxMDAwMDAwWhcNMzgw
MTE5MDMxNDA3WjA4MREwDwYDVQQDEwhjYS1mYWxzZTELMAkGA1UEBhMCQkUxFjAU
BgNVBAoTDUdyZW13ZWxsIGJ2YmEwgZ8wDQYJKoZIhvcNAQEBBQADgY0AMIGJAoGB
AMwM5ZEYUFuOZhLjAL2BoeI4dHElfuCebu5InFEv7r7joGHPbDas29hgkDY+/ai7
KhWu8ClwYSIz7pYoZnMP4DhtiQtfq8DOQ4WTyooN3/5K96UayqkWB2LKeepFodUD
SCvOC/Yr2u4n6wEeNHOSVXVJw7TO9cw11JCC2uteNrKNAgMBAAGjEDAOMAwGA1Ud
EwEB/wQCMAAwDQYJKoZIhvcNAQEFBQADggIBABIlguiMgCorWD1xgsZsjUtGIBGM
kpRxkVdFR00w1sH7bqwd3M+6wTP9XukQX4+CWwd8Zpg2cfe7ocaAVEonTdJgW9Fg
krBb0AK89l86+nRy4rDUjyf1I387BRdPAFFl8BKVG4FEy5uAOBeTR4pCUAxLk9t7
F/DknkZ3hzdl1vvr7igb7FFX7jgRFxd17S9o2icFyBmYwRCmmq+yd1bzb97NftSi
p6lHH5FQNWGOoy1p2ZQkDiCHMjJPpEuD4zwKNYbcMFFQDjIrlUy/6RKy15XcrgAd
tsUoj7SmQ2L85QTlRDUdMSpvhoMZagECFeRrjHu8VdrOrHMZ9/Fyrx05zyRoNJgS
nJDeRN1TPbDu3fmEiwEdBd8oL+/EBZQi2CVZv8STbPessK4diDr4wV0XZ20fKZg8
igSdFjxR3SugIW7XAxg+uphkBeTzzFRvztwmt+LBDseFSlC0MDz/4IVjTK0MWW4A
rQYVGmC/LL5oq/8NturXvmxQlXSsXja5hCZJ3M3JlFDab8T38Lk9XNbMoy3C9aWO
hDyY5qI+T219lw34GWK6n+IEEX+4eC+b6dxkWGSkzJMLcpGxrlVfWwLGAsQwnmzV
cJ3qV4URBxnY0yuPSiTC816Pb8ERR/Gh7HXp5LoPgHaDi4eghtCcXhl+Xm51ZAtf
i1dWLQHWt2cwUR6R
-----END CERTIFICATE-----
Certificate:
    Data:
        Version: 3 (0x2)
        Serial Number: 10219423159405941259 (0x8dd2af37f9ca920b)
    Signature Algorithm: sha1WithRSAEncryption
        Issuer: C=BE, CN=txjsonrpc-test-ca
        Validity
            Not Before: Jun 23 15:46:37 2012 GMT
            Not After : Jun 21 15:46:37 2022 GMT
        Subject: C=BE, CN=txjsonrpc-test-ca
        Subject Public Key Info:
            Public Key Algorithm: rsaEncryption
                Public-Key: (4096 bit)
                Modulus:
                    00:d1:25:af:77:c5:a8:72:cf:90:b9:39:10:fb:7b:
                    75:2c:a1:da:6a:95:e5:44:0c:d6:25:4b:58:7f:bb:
                    07:82:59:49:58:32:85:24:cc:3e:77:db:e1:a7:4f:
                    c8:b5:cb:ee:45:38:bd:bc:fb:e3:76:3b:88:04:ca:
                    ab:3a:a3:96:3b:5f:93:9c:28:a6:61:97:dc:a2:3f:
                    a0:93:2b:56:6c:cf:d3:4f:6a:9e:05:d3:1c:cd:ef:
                    75:80:1a:98:b7:92:49:14:33:b8:c4:7c:73:8c:7e:
                    83:a5:81:a2:59:8c:8b:a3:51:36:6d:68:ac:f2:f1:
                    ed:6f:49:d9:af:7a:63:c1:43:31:42:b6:c7:cd:b9:
                    78:b7:33:98:70:92:6c:9e:04:7a:7b:f0:6d:38:87:
                    eb:00:13:17:b9:d9:ec:b4:66:bb:51:d3:fd:81:e3:
                    0e:88:71:23:d2:80:2a:61:de:ab:25:02:47:a9:c1:
                    6b:c9:69:ae:da:47:b6:49:74:ac:a6:e1:c1:76:ba:
                    6d:b1:d9:68:6e:1c:37:a8:e2:18:60:37:b6:58:13:
                    6c:c7:92:7c:c6:45:8c:ef:c3:81:73:10:dc:2f:31:
                    e2:b9:05:5a:9e:28:70:5a:3e:1d:b8:68:71:81:c9:
                    e8:fe:1f:c3:a0:13:f8:e4:24:12:ba:91:8e:15:d2:
                    03:f1:8c:b0:aa:e2:34:e4:6b:f8:06:f6:23:8a:92:
                    43:a6:05:dc:e9:c7:a5:a8:06:d7:6e:91:52:72:47:
                    ab:ae:87:fe:b3:0f:04:87:6f:4b:22:29:e9:a9:06:
                    52:58:7d:03:16:d7:d5:31:44:b4:f1:51:44:a7:2a:
                    ba:5e:09:19:ec:4c:a2:e0:58:fe:0d:4e:b7:90:4d:
                    02:ac:2a:ad:99:14:65:3b:0a:3c:73:45:56:b2:0f:
                    10:25:24:51:79:57:1a:34:1a:10:6f:60:e0:fc:81:
                    db:ca:c2:e2:85:1b:4c:72:13:5c:9d:76:cc:d0:21:
                    33:31:56:82:8f:c5:57:b9:44:fd:8b:76:c1:b6:e4:
                    21:8b:35:9a:ee:54:74:9f:72:6b:19:84:d7:a2:3c:
                    a5:6e:11:0a:f1:93:04:2e:dd:7c:4c:7d:62:10:d4:
                    1b:8b:87:f6:ed:bf:12:b1:8b:f0:9a:7a:ee:02:94:
                    e1:3c:46:2b:7f:9c:54:fb:2e:61:c9:1c:ef:fc:de:
                    25:bc:2d:75:1b:1f:49:5e:44:3b:15:93:ad:c4:89:
                    d9:ae:3c:da:54:ef:d9:af:3a:16:cb:94:1b:6a:14:
                    e4:42:f9:75:33:46:6e:fb:40:bc:f8:82:36:cf:60:
                    f5:c2:a2:98:23:a7:2a:ae:c1:aa:22:f8:87:da:b7:
                    9c:a4:cf
                Exponent: 65537 (0x10001)
        X509v3 extensions:
            X509v3 Subject Key Identifier: 
                9D:8F:84:76:94:CD:07:FE:A3:E8:8B:D7:F9:D9:6E:EF:CA:75:51:7B
            X509v3 Authority Key Identifier: 
                keyid:9D:8F:84:76:94:CD:07:FE:A3:E8:8B:D7:F9:D9:6E:EF:CA:75:51:7B
                DirName:/C=BE/CN=txjsonrpc-test-ca
                serial:8D:D2:AF:37:F9:CA:92:0B

            X509v3 Basic Constraints: critical
                CA:TRUE
            Netscape Cert Type: 
                SSL CA, S/MIME CA
            X509v3 Issuer Alternative Name: 
                <EMPTY>

            Netscape Comment: 
                Test CA for txjsonrcp
            X509v3 Subject Alternative Name: 
                <EMPTY>

            X509v3 Key Usage: critical
                Certificate Sign, CRL Sign
    Signature Algorithm: sha1WithRSAEncryption
         06:82:86:81:a9:1b:7e:2d:ef:f5:fc:cc:d2:9d:d6:82:ad:d0:
         6f:7e:3d:b9:5c:b2:0f:3a:64:21:9a:fb:53:b2:93:81:dc:1a:
         24:fc:b8:30:57:a2:c7:71:0d:9c:1a:0b:8a:6c:89:52:8b:8a:
         f5:af:95:3e:b8:08:39:ee:36:50:ac:60:4d:df:2b:49:a2:72:
         f1:3f:12:3c:d9:55:56:a4:9a:77:2b:77:fa:16:b5:76:d9:f4:
         c4:51:6b:b9:fe:2f:a3:52:e8:64:80:49:22:6d:05:42:87:af:
         9d:85:6c:fa:c9:9b:48:39:7b:89:f5:a0:1e:ff:11:d3:9c:78:
         b1:b2:f6:4d:b1:e8:b3:98:23:2c:d4:20:e1:a1:01:3e:26:0a:
         5b:8e:eb:58:45:22:cf:e1:94:ad:84:40:b0:fb:ff:25:5f:31:
         9a:49:0b:36:ad:c6:1a:b0:42:60:40:e2:a2:3c:5a:36:41:89:
         fc:10:c4:60:ea:d4:85:7b:36:84:df:aa:81:cc:69:e7:52:ca:
         c1:46:b1:79:93:51:4f:24:84:42:14:3a:20:a0:6c:27:76:40:
         0f:96:7e:4e:c3:0c:37:b3:e3:73:49:86:58:31:00:1e:e7:0f:
         87:74:b6:4e:6e:1c:7d:87:a4:33:04:c9:76:ec:e5:3a:85:5f:
         a8:d1:ad:21:64:5e:c5:6a:df:b1:02:6e:65:a4:87:72:06:07:
         da:e5:f2:af:2b:a5:eb:18:80:67:83:a5:3c:e6:ed:d1:58:f9:
         90:5c:d6:e9:2f:76:c1:58:13:b8:bd:88:8a:f3:04:48:bb:42:
         8f:7f:c6:db:b4:30:3f:bb:6c:d5:47:e5:ae:8d:4b:da:92:a5:
         db:d3:6e:a8:9b:c2:6b:56:af:34:63:82:e6:78:f8:1f:54:d7:
         41:aa:a3:c9:7c:a6:83:41:bf:6e:33:7c:ae:e6:92:bd:da:27:
         b4:bc:e2:90:4f:33:1b:01:a1:cd:02:13:7a:31:ef:00:d6:9a:
         6e:38:6b:a7:cb:70:98:a8:0f:ff:1c:56:a8:b7:e6:d2:42:5a:
         bb:f4:78:27:71:13:d0:e8:43:eb:bc:2d:4f:e4:ea:4d:4f:76:
         7f:53:38:34:eb:13:e2:3d:c6:14:98:86:1c:ab:2c:0e:b7:68:
         2e:bd:63:a9:6a:8f:d5:22:2d:ab:13:d7:62:54:51:ff:5c:37:
         08:04:27:da:f9:57:77:05:18:73:88:5f:b0:c1:65:50:36:09:
         d6:c7:f5:ae:6e:3f:04:d1:84:3c:21:74:1d:bd:0a:fb:76:d0:
         13:2b:62:bb:24:48:43:89:d0:18:5c:b4:ad:ea:98:af:6d:fc:
         1c:6b:1f:06:64:54:23:88
-----BEGIN CERTIFICATE-----
MIIFwzCCA6ugAwIBAgIJAI3Srzf5ypILMA0GCSqGSIb3DQEBBQUAMCkxCzAJBgNV
BAYTAkJFMRowGAYDVQQDExF0eGpzb25ycGMtdGVzdC1jYTAeFw0xMjA2MjMxNTQ2
MzdaFw0yMjA2MjExNTQ2MzdaMCkxCzAJBgNVBAYTAkJFMRowGAYDVQQDExF0eGpz
b25ycGMtdGVzdC1jYTCCAiIwDQYJKoZIhvcNAQEBBQADggIPADCCAgoCggIBANEl
r3fFqHLPkLk5EPt7dSyh2mqV5UQM1iVLWH+7B4JZSVgyhSTMPnfb4adPyLXL7kU4
vbz743Y7iATKqzqjljtfk5wopmGX3KI/oJMrVmzP009qngXTHM3vdYAamLeSSRQz
uMR8c4x+g6WBolmMi6NRNm1orPLx7W9J2a96Y8FDMUK2x825eLczmHCSbJ4Eenvw
bTiH6wATF7nZ7LRmu1HT/YHjDohxI9KAKmHeqyUCR6nBa8lprtpHtkl0rKbhwXa6
bbHZaG4cN6jiGGA3tlgTbMeSfMZFjO/DgXMQ3C8x4rkFWp4ocFo+HbhocYHJ6P4f
w6AT+OQkErqRjhXSA/GMsKriNORr+Ab2I4qSQ6YF3OnHpagG126RUnJHq66H/rMP
BIdvSyIp6akGUlh9AxbX1TFEtPFRRKcqul4JGexMouBY/g1Ot5BNAqwqrZkUZTsK
PHNFVrIPECUkUXlXGjQaEG9g4PyB28rC4oUbTHITXJ12zNAhMzFWgo/FV7lE/Yt2
wbbkIYs1mu5UdJ9yaxmE16I8pW4RCvGTBC7dfEx9YhDUG4uH9u2/ErGL8Jp67gKU
4TxGK3+cVPsuYckc7/zeJbwtdRsfSV5EOxWTrcSJ2a482lTv2a86FsuUG2oU5EL5
dTNGbvtAvPiCNs9g9cKimCOnKq7BqiL4h9q3nKTPAgMBAAGjge0wgeowHQYDVR0O
BBYEFJ2PhHaUzQf+o+iL1/nZbu/KdVF7MFkGA1UdIwRSMFCAFJ2PhHaUzQf+o+iL
1/nZbu/KdVF7oS2kKzApMQswCQYDVQQGEwJCRTEaMBgGA1UEAxMRdHhqc29ucnBj
LXRlc3QtY2GCCQCN0q83+cqSCzAPBgNVHRMBAf8EBTADAQH/MBEGCWCGSAGG+EIB
AQQEAwIBBjAJBgNVHRIEAjAAMCQGCWCGSAGG+EIBDQQXFhVUZXN0IENBIGZvciB0
eGpzb25yY3AwCQYDVR0RBAIwADAOBgNVHQ8BAf8EBAMCAQYwDQYJKoZIhvcNAQEF
BQADggIBAAaChoGpG34t7/X8zNKd1oKt0G9+Pblcsg86ZCGa+1Oyk4HcGiT8uDBX
osdxDZwaC4psiVKLivWvlT64CDnuNlCsYE3fK0micvE/EjzZVVakmncrd/oWtXbZ
9MRRa7n+L6NS6GSASSJtBUKHr52FbPrJm0g5e4n1oB7/EdOceLGy9k2x6LOYIyzU
IOGhAT4mCluO61hFIs/hlK2EQLD7/yVfMZpJCzatxhqwQmBA4qI8WjZBifwQxGDq
1IV7NoTfqoHMaedSysFGsXmTUU8khEIUOiCgbCd2QA+Wfk7DDDez43NJhlgxAB7n
D4d0tk5uHH2HpDMEyXbs5TqFX6jRrSFkXsVq37ECbmWkh3IGB9rl8q8rpesYgGeD
pTzm7dFY+ZBc1ukvdsFYE7i9iIrzBEi7Qo9/xtu0MD+7bNVH5a6NS9qSpdvTbqib
wmtWrzRjguZ4+B9U10Gqo8l8poNBv24zfK7mkr3aJ7S84pBPMxsBoc0CE3ox7wDW
mm44a6fLcJioD/8cVqi35tJCWrv0eCdxE9DoQ+u8LU/k6k1Pdn9TODTrE+I9xhSY
hhyrLA63aC69Y6lqj9UiLasT12JUUf9cNwgEJ9r5V3cFGHOIX7DBZVA2CdbH9a5u
PwTRhDwhdB29Cvt20BMrYrskSEOJ0BhctK3qmK9t/BxrHwZkVCOI
-----END CERTIFICATE-----
