Certificate:
    Data:
        Version: 4 (0x3)
        Serial Number: 1 (0x1)
    Signature Algorithm: sha1WithRSAEncryption
        Issuer: C=BE, CN=txjsonrpc-test-ca
        Validity
            Not Before: Jan  1 00:00:00 1970 GMT
            Not After : Jan 19 03:14:07 2038 GMT
        Subject: CN=ca-none, C=BE, O=Gremwell bvba
        Subject Public Key Info:
            Public Key Algorithm: rsaEncryption
                Public-Key: (1024 bit)
                Modulus:
                    00:9d:ef:8d:88:94:37:34:6e:5e:88:99:c7:da:06:
                    c1:13:f7:d4:14:55:4b:5f:de:a5:42:b6:ad:d7:f6:
                    f0:37:55:e8:2f:32:e7:8d:a0:4f:61:fb:91:72:a8:
                    b8:46:a5:cc:ee:a0:0d:5a:8d:cd:8a:61:6b:bf:d4:
                    8a:96:80:96:e8:ec:b7:56:e2:ad:17:a4:4b:f8:e4:
                    22:bc:c8:38:8a:70:5e:1d:96:94:3b:7d:99:ef:06:
                    92:e4:0e:8d:d7:b6:64:0f:73:2a:4b:9e:9c:61:99:
                    38:c7:34:9f:7a:35:cd:04:84:9f:ef:94:56:ad:89:
                    4d:cb:f3:36:17:b1:1d:db:93
                Exponent: 65537 (0x10001)
    Signature Algorithm: sha1WithRSAEncryption
         32:44:6d:8b:ff:2f:fc:c8:4f:15:9a:18:a6:fb:18:55:4b:9d:
         ca:9c:eb:80:42:55:e7:aa:23:dd:a3:83:0b:4d:03:04:51:f4:
         06:4a:8f:49:ed:5f:da:b2:87:89:b8:17:f8:39:30:91:62:de:
         2b:03:99:7d:56:e3:5a:f3:24:bf:c2:cc:05:56:5a:72:b2:9d:
         c7:3e:d3:f3:38:9e:8e:60:65:ed:b4:be:5f:a6:63:4f:cc:d7:
         43:dc:4a:40:cf:a5:01:2a:a6:b4:a9:93:63:c7:b2:76:8f:f1:
         4a:0b:5c:bc:e2:40:09:3f:c9:8a:53:9b:fa:f7:a1:a5:2b:c9:
         18:2a:79:bd:04:92:38:ff:ed:ae:2c:3a:77:5a:52:f4:2a:03:
         dc:1c:7b:ac:b7:ea:5d:b7:a3:38:93:c4:45:6f:ef:f5:a0:80:
         e2:7c:bd:f1:13:85:99:8b:d0:5e:67:8e:dd:19:7b:4f:0b:4f:
         a4:fe:ea:d3:fb:3e:8f:2c:c5:de:37:95:01:20:ad:79:d9:b5:
         6a:85:1c:ee:db:a1:a8:60:30:1f:76:f4:57:c8:16:18:9c:e4:
         3f:a4:e6:32:af:6d:b3:0f:38:08:77:b2:4f:72:84:44:14:89:
         22:db:be:48:c9:af:63:7e:fa:0e:47:9a:ab:60:bf:5f:0f:b6:
         91:73:f2:1b:41:ae:34:25:03:ea:c8:2f:14:42:32:8c:2b:ab:
         89:76:5a:cf:34:8a:cb:bf:a5:d6:66:08:8e:d2:c9:86:5e:9f:
         2e:e9:4d:56:f7:ae:27:16:6e:ee:52:38:e8:0b:79:8a:df:cf:
         3a:c3:ef:40:c6:7e:6c:73:fa:7b:ec:08:67:d5:db:52:f1:c2:
         c7:d9:a6:96:b5:b4:73:7a:f8:e3:7c:ac:6a:45:62:42:59:bb:
         93:79:82:cd:89:a8:18:15:09:e4:6e:6d:31:1d:51:dd:8f:14:
         55:09:c7:4c:1a:98:0b:a3:08:59:35:1c:60:1e:11:43:21:65:
         ea:fb:1d:90:c7:51:a6:48:ea:c2:f0:0b:5a:c0:13:38:70:76:
         6a:ad:5e:e4:09:e8:d8:62:13:7a:f3:ea:0b:2b:83:58:b6:b3:
         11:23:9e:2e:2d:20:d7:bb:96:19:90:91:0c:7e:6b:22:a8:08:
         9a:84:3b:2a:a5:25:40:94:60:fc:9d:fa:4f:30:6c:58:15:f9:
         ee:57:b9:52:bf:0c:7e:ee:e1:79:0d:87:b3:2a:34:8a:b4:36:
         0c:76:6b:dd:ff:2c:b6:c8:9f:5b:55:5e:88:8c:fc:4b:d3:46:
         dc:34:cd:1e:55:b8:5f:8f:f8:26:ce:c5:1c:d2:40:fc:5a:7e:
         10:4b:b6:38:2b:1f:b7:77
-----BEGIN CERTIFICATE-----
MIIDVTCCAT2gAwIBAwIBATANBgkqhkiG9w0BAQUFADApMQswCQYDVQQGEwJCRTEa
MBgGA1UEAxMRdHhqc29ucnBjLXRlc3QtY2EwHhcNNzAwMTAxMDAwMDAwWhcNMzgw
MTE5MDMxNDA3WjA3MRAwDgYDVQQDEwdjYS1ub25lMQswCQYDVQQGEwJCRTEWMBQG
A1UEChMNR3JlbXdlbGwgYnZiYTCBnzANBgkqhkiG9w0BAQEFAAOBjQAwgYkCgYEA
ne+NiJQ3NG5eiJnH2gbBE/fUFFVLX96lQrat1/bwN1XoLzLnjaBPYfuRcqi4RqXM
7qANWo3NimFrv9SKloCW6Oy3VuKtF6RL+OQivMg4inBeHZaUO32Z7waS5A6N17Zk
D3MqS56cYZk4xzSfejXNBISf75RWrYlNy/M2F7Ed25MCAwEAATANBgkqhkiG9w0B
AQUFAAOCAgEAMkRti/8v/MhPFZoYpvsYVUudypzrgEJV56oj3aODC00DBFH0BkqP
Se1f2rKHibgX+DkwkWLeKwOZfVbjWvMkv8LMBVZacrKdxz7T8ziejmBl7bS+X6Zj
T8zXQ9xKQM+lASqmtKmTY8eydo/xSgtcvOJACT/JilOb+vehpSvJGCp5vQSSOP/t
riw6d1pS9CoD3Bx7rLfqXbejOJPERW/v9aCA4ny98ROFmYvQXmeO3Rl7TwtPpP7q
0/s+jyzF3jeVASCtedm1aoUc7tuhqGAwH3b0V8gWGJzkP6TmMq9tsw84CHeyT3KE
RBSJItu+SMmvY376Dkeaq2C/Xw+2kXPyG0GuNCUD6sgvFEIyjCuriXZazzSKy7+l
1mYIjtLJhl6fLulNVveuJxZu7lI46At5it/POsPvQMZ+bHP6e+wIZ9XbUvHCx9mm
lrW0c3r443ysakViQlm7k3mCzYmoGBUJ5G5tMR1R3Y8UVQnHTBqYC6MIWTUcYB4R
QyFl6vsdkMdRpkjqwvALWsATOHB2aq1e5Ano2GITevPqCyuDWLazESOeLi0g17uW
GZCRDH5rIqgImoQ7KqUlQJRg/J36TzBsWBX57le5Ur8Mfu7heQ2Hsyo0irQ2DHZr
3f8stsifW1VeiIz8S9NG3DTNHlW4X4/4Js7FHNJA/Fp+EEu2OCsft3c=
-----END CERTIFICATE-----
Certificate:
    Data:
        Version: 3 (0x2)
        Serial Number: 10219423159405941259 (0x8dd2af37f9ca920b)
    Signature Algorithm: sha1WithRSAEncryption
        Issuer: C=BE, CN=txjsonrpc-test-ca
        Validity
            Not Before: Jun 23 15:46:37 2012 GMT
            Not After : Jun 21 15:46:37 2022 GMT
        Subject: C=BE, CN=txjsonrpc-test-ca
        Subject Public Key Info:
            Public Key Algorithm: rsaEncryption
                Public-Key: (4096 bit)
                Modulus:
                    00:d1:25:af:77:c5:a8:72:cf:90:b9:39:10:fb:7b:
                    75:2c:a1:da:6a:95:e5:44:0c:d6:25:4b:58:7f:bb:
                    07:82:59:49:58:32:85:24:cc:3e:77:db:e1:a7:4f:
                    c8:b5:cb:ee:45:38:bd:bc:fb:e3:76:3b:88:04:ca:
                    ab:3a:a3:96:3b:5f:93:9c:28:a6:61:97:dc:a2:3f:
                    a0:93:2b:56:6c:cf:d3:4f:6a:9e:05:d3:1c:cd:ef:
                    75:80:1a:98:b7:92:49:14:33:b8:c4:7c:73:8c:7e:
                    83:a5:81:a2:59:8c:8b:a3:51:36:6d:68:ac:f2:f1:
                    ed:6f:49:d9:af:7a:63:c1:43:31:42:b6:c7:cd:b9:
                    78:b7:33:98:70:92:6c:9e:04:7a:7b:f0:6d:38:87:
                    eb:00:13:17:b9:d9:ec:b4:66:bb:51:d3:fd:81:e3:
                    0e:88:71:23:d2:80:2a:61:de:ab:25:02:47:a9:c1:
                    6b:c9:69:ae:da:47:b6:49:74:ac:a6:e1:c1:76:ba:
                    6d:b1:d9:68:6e:1c:37:a8:e2:18:60:37:b6:58:13:
                    6c:c7:92:7c:c6:45:8c:ef:c3:81:73:10:dc:2f:31:
                    e2:b9:05:5a:9e:28:70:5a:3e:1d:b8:68:71:81:c9:
                    e8:fe:1f:c3:a0:13:f8:e4:24:12:ba:91:8e:15:d2:
                    03:f1:8c:b0:aa:e2:34:e4:6b:f8:06:f6:23:8a:92:
                    43:a6:05:dc:e9:c7:a5:a8:06:d7:6e:91:52:72:47:
                    ab:ae:87:fe:b3:0f:04:87:6f:4b:22:29:e9:a9:06:
                    52:58:7d:03:16:d7:d5:31:44:b4:f1:51:44:a7:2a:
                    ba:5e:09:19:ec:4c:a2:e0:58:fe:0d:4e:b7:90:4d:
                    02:ac:2a:ad:99:14:65:3b:0a:3c:73:45:56:b2:0f:
                    10:25:24:51:79:57:1a:34:1a:10:6f:60:e0:fc:81:
                    db:ca:c2:e2:85:1b:4c:72:13:5c:9d:76:cc:d0:21:
                    33:31:56:82:8f:c5:57:b9:44:fd:8b:76:c1:b6:e4:
                    21:8b:35:9a:ee:54:74:9f:72:6b:19:84:d7:a2:3c:
                    a5:6e:11:0a:f1:93:04:2e:dd:7c:4c:7d:62:10:d4:
                    1b:8b:87:f6:ed:bf:12:b1:8b:f0:9a:7a:ee:02:94:
                    e1:3c:46:2b:7f:9c:54:fb:2e:61:c9:1c:ef:fc:de:
                    25:bc:2d:75:1b:1f:49:5e:44:3b:15:93:ad:c4:89:
                    d9:ae:3c:da:54:ef:d9:af:3a:16:cb:94:1b:6a:14:
                    e4:42:f9:75:33:46:6e:fb:40:bc:f8:82:36:cf:60:
                    f5:c2:a2:98:23:a7:2a:ae:c1:aa:22:f8:87:da:b7:
                    9c:a4:cf
                Exponent: 65537 (0x10001)
        X509v3 extensions:
            X509v3 Subject Key Identifier: 
                9D:8F:84:76:94:CD:07:FE:A3:E8:8B:D7:F9:D9:6E:EF:CA:75:51:7B
            X509v3 Authority Key Identifier: 
                keyid:9D:8F:84:76:94:CD:07:FE:A3:E8:8B:D7:F9:D9:6E:EF:CA:75:51:7B
                DirName:/C=BE/CN=txjsonrpc-test-ca
                serial:8D:D2:AF:37:F9:CA:92:0B

            X509v3 Basic Constraints: critical
                CA:TRUE
            Netscape Cert Type: 
                SSL CA, S/MIME CA
            X509v3 Issuer Alternative Name: 
                <EMPTY>

            Netscape Comment: 
                Test CA for txjsonrcp
            X509v3 Subject Alternative Name: 
                <EMPTY>

            X509v3 Key Usage: critical
                Certificate Sign, CRL Sign
    Signature Algorithm: sha1WithRSAEncryption
         06:82:86:81:a9:1b:7e:2d:ef:f5:fc:cc:d2:9d:d6:82:ad:d0:
         6f:7e:3d:b9:5c:b2:0f:3a:64:21:9a:fb:53:b2:93:81:dc:1a:
         24:fc:b8:30:57:a2:c7:71:0d:9c:1a:0b:8a:6c:89:52:8b:8a:
         f5:af:95:3e:b8:08:39:ee:36:50:ac:60:4d:df:2b:49:a2:72:
         f1:3f:12:3c:d9:55:56:a4:9a:77:2b:77:fa:16:b5:76:d9:f4:
         c4:51:6b:b9:fe:2f:a3:52:e8:64:80:49:22:6d:05:42:87:af:
         9d:85:6c:fa:c9:9b:48:39:7b:89:f5:a0:1e:ff:11:d3:9c:78:
         b1:b2:f6:4d:b1:e8:b3:98:23:2c:d4:20:e1:a1:01:3e:26:0a:
         5b:8e:eb:58:45:22:cf:e1:94:ad:84:40:b0:fb:ff:25:5f:31:
         9a:49:0b:36:ad:c6:1a:b0:42:60:40:e2:a2:3c:5a:36:41:89:
         fc:10:c4:60:ea:d4:85:7b:36:84:df:aa:81:cc:69:e7:52:ca:
         c1:46:b1:79:93:51:4f:24:84:42:14:3a:20:a0:6c:27:76:40:
         0f:96:7e:4e:c3:0c:37:b3:e3:73:49:86:58:31:00:1e:e7:0f:
         87:74:b6:4e:6e:1c:7d:87:a4:33:04:c9:76:ec:e5:3a:85:5f:
         a8:d1:ad:21:64:5e:c5:6a:df:b1:02:6e:65:a4:87:72:06:07:
         da:e5:f2:af:2b:a5:eb:18:80:67:83:a5:3c:e6:ed:d1:58:f9:
         90:5c:d6:e9:2f:76:c1:58:13:b8:bd:88:8a:f3:04:48:bb:42:
         8f:7f:c6:db:b4:30:3f:bb:6c:d5:47:e5:ae:8d:4b:da:92:a5:
         db:d3:6e:a8:9b:c2:6b:56:af:34:63:82:e6:78:f8:1f:54:d7:
         41:aa:a3:c9:7c:a6:83:41:bf:6e:33:7c:ae:e6:92:bd:da:27:
         b4:bc:e2:90:4f:33:1b:01:a1:cd:02:13:7a:31:ef:00:d6:9a:
         6e:38:6b:a7:cb:70:98:a8:0f:ff:1c:56:a8:b7:e6:d2:42:5a:
         bb:f4:78:27:71:13:d0:e8:43:eb:bc:2d:4f:e4:ea:4d:4f:76:
         7f:53:38:34:eb:13:e2:3d:c6:14:98:86:1c:ab:2c:0e:b7:68:
         2e:bd:63:a9:6a:8f:d5:22:2d:ab:13:d7:62:54:51:ff:5c:37:
         08:04:27:da:f9:57:77:05:18:73:88:5f:b0:c1:65:50:36:09:
         d6:c7:f5:ae:6e:3f:04:d1:84:3c:21:74:1d:bd:0a:fb:76:d0:
         13:2b:62:bb:24:48:43:89:d0:18:5c:b4:ad:ea:98:af:6d:fc:
         1c:6b:1f:06:64:54:23:88
-----BEGIN CERTIFICATE-----
MIIFwzCCA6ugAwIBAgIJAI3Srzf5ypILMA0GCSqGSIb3DQEBBQUAMCkxCzAJBgNV
BAYTAkJFMRowGAYDVQQDExF0eGpzb25ycGMtdGVzdC1jYTAeFw0xMjA2MjMxNTQ2
MzdaFw0yMjA2MjExNTQ2MzdaMCkxCzAJBgNVBAYTAkJFMRowGAYDVQQDExF0eGpz
b25ycGMtdGVzdC1jYTCCAiIwDQYJKoZIhvcNAQEBBQADggIPADCCAgoCggIBANEl
r3fFqHLPkLk5EPt7dSyh2mqV5UQM1iVLWH+7B4JZSVgyhSTMPnfb4adPyLXL7kU4
vbz743Y7iATKqzqjljtfk5wopmGX3KI/oJMrVmzP009qngXTHM3vdYAamLeSSRQz
uMR8c4x+g6WBolmMi6NRNm1orPLx7W9J2a96Y8FDMUK2x825eLczmHCSbJ4Eenvw
bTiH6wATF7nZ7LRmu1HT/YHjDohxI9KAKmHeqyUCR6nBa8lprtpHtkl0rKbhwXa6
bbHZaG4cN6jiGGA3tlgTbMeSfMZFjO/DgXMQ3C8x4rkFWp4ocFo+HbhocYHJ6P4f
w6AT+OQkErqRjhXSA/GMsKriNORr+Ab2I4qSQ6YF3OnHpagG126RUnJHq66H/rMP
BIdvSyIp6akGUlh9AxbX1TFEtPFRRKcqul4JGexMouBY/g1Ot5BNAqwqrZkUZTsK
PHNFVrIPECUkUXlXGjQaEG9g4PyB28rC4oUbTHITXJ12zNAhMzFWgo/FV7lE/Yt2
wbbkIYs1mu5UdJ9yaxmE16I8pW4RCvGTBC7dfEx9YhDUG4uH9u2/ErGL8Jp67gKU
4TxGK3+cVPsuYckc7/zeJbwtdRsfSV5EOxWTrcSJ2a482lTv2a86FsuUG2oU5EL5
dTNGbvtAvPiCNs9g9cKimCOnKq7BqiL4h9q3nKTPAgMBAAGjge0wgeowHQYDVR0O
BBYEFJ2PhHaUzQf+o+iL1/nZbu/KdVF7MFkGA1UdIwRSMFCAFJ2PhHaUzQf+o+iL
1/nZbu/KdVF7oS2kKzApMQswCQYDVQQGEwJCRTEaMBgGA1UEAxMRdHhqc29ucnBj
LXRlc3QtY2GCCQCN0q83+cqSCzAPBgNVHRMBAf8EBTADAQH/MBEGCWCGSAGG+EIB
AQQEAwIBBjAJBgNVHRIEAjAAMCQGCWCGSAGG+EIBDQQXFhVUZXN0IENBIGZvciB0
eGpzb25yY3AwCQYDVR0RBAIwADAOBgNVHQ8BAf8EBAMCAQYwDQYJKoZIhvcNAQEF
BQADggIBAAaChoGpG34t7/X8zNKd1oKt0G9+Pblcsg86ZCGa+1Oyk4HcGiT8uDBX
osdxDZwaC4psiVKLivWvlT64CDnuNlCsYE3fK0micvE/EjzZVVakmncrd/oWtXbZ
9MRRa7n+L6NS6GSASSJtBUKHr52FbPrJm0g5e4n1oB7/EdOceLGy9k2x6LOYIyzU
IOGhAT4mCluO61hFIs/hlK2EQLD7/yVfMZpJCzatxhqwQmBA4qI8WjZBifwQxGDq
1IV7NoTfqoHMaedSysFGsXmTUU8khEIUOiCgbCd2QA+Wfk7DDDez43NJhlgxAB7n
D4d0tk5uHH2HpDMEyXbs5TqFX6jRrSFkXsVq37ECbmWkh3IGB9rl8q8rpesYgGeD
pTzm7dFY+ZBc1ukvdsFYE7i9iIrzBEi7Qo9/xtu0MD+7bNVH5a6NS9qSpdvTbqib
wmtWrzRjguZ4+B9U10Gqo8l8poNBv24zfK7mkr3aJ7S84pBPMxsBoc0CE3ox7wDW
mm44a6fLcJioD/8cVqi35tJCWrv0eCdxE9DoQ+u8LU/k6k1Pdn9TODTrE+I9xhSY
hhyrLA63aC69Y6lqj9UiLasT12JUUf9cNwgEJ9r5V3cFGHOIX7DBZVA2CdbH9a5u
PwTRhDwhdB29Cvt20BMrYrskSEOJ0BhctK3qmK9t/BxrHwZkVCOI
-----END CERTIFICATE-----
