Certificate:
    Data:
        Version: 4 (0x3)
        Serial Number: 1 (0x1)
    Signature Algorithm: sha1WithRSAEncryption
        Issuer: CN=ca-false, C=BE, O=Gremwell bvba
        Validity
            Not Before: Jan  1 00:00:00 1970 GMT
            Not After : Jan 19 03:14:07 2038 GMT
        Subject: CN=www.example.com, C=BE, O=Gremwell bvba
        Subject Public Key Info:
            Public Key Algorithm: rsaEncryption
                Public-Key: (1024 bit)
                Modulus:
                    00:a8:36:b3:9a:94:5c:56:c2:2c:e0:32:63:63:87:
                    f5:f0:aa:97:ae:1b:48:e3:8b:3f:52:79:1d:6b:43:
                    67:f0:2c:fc:20:6c:a3:bd:be:44:7e:ce:34:59:d9:
                    03:1d:5e:2c:ee:94:1b:f9:05:8f:47:9f:84:92:bf:
                    d7:4d:9b:e3:ad:0e:21:2b:b5:5f:6f:59:a2:1e:d9:
                    73:5f:0e:18:70:11:8a:f2:00:9d:ec:1b:be:b4:63:
                    6f:c0:cb:14:2c:36:ff:75:03:32:ea:ca:62:21:56:
                    69:2c:f5:2b:80:ac:83:94:55:48:b0:7d:da:08:55:
                    21:fb:95:62:20:7a:5b:47:0b
                Exponent: 65537 (0x10001)
    Signature Algorithm: sha1WithRSAEncryption
         12:db:8f:11:c9:05:2a:0e:43:2d:eb:22:bb:db:30:b5:12:c3:
         d7:e7:44:11:d8:20:bf:2d:ed:3e:26:0c:cc:28:00:69:14:c9:
         0b:e3:f6:28:ce:59:a6:2c:7f:d7:44:54:1d:40:78:8f:8b:48:
         8a:29:1b:1d:5a:fb:22:a0:a4:ff:2f:2d:65:07:aa:18:b7:d2:
         f9:36:52:cf:8d:47:77:a2:90:b3:c2:5e:0f:f3:4d:64:c2:c9:
         3f:8e:70:ba:f7:ee:02:29:1d:ae:45:1b:4a:c8:42:3f:cf:e7:
         5b:f5:bc:64:d3:0c:4a:3f:a7:f0:57:9a:20:ac:1c:2a:0e:2c:
         cd:b6
-----BEGIN CERTIFICATE-----
MIIB6zCCAVSgAwIBAwIBATANBgkqhkiG9w0BAQUFADA4MREwDwYDVQQDEwhjYS1m
YWxzZTELMAkGA1UEBhMCQkUxFjAUBgNVBAoTDUdyZW13ZWxsIGJ2YmEwHhcNNzAw
MTAxMDAwMDAwWhcNMzgwMTE5MDMxNDA3WjA/MRgwFgYDVQQDEw93d3cuZXhhbXBs
ZS5jb20xCzAJBgNVBAYTAkJFMRYwFAYDVQQKEw1HcmVtd2VsbCBidmJhMIGfMA0G
CSqGSIb3DQEBAQUAA4GNADCBiQKBgQCoNrOalFxWwizgMmNjh/XwqpeuG0jjiz9S
eR1rQ2fwLPwgbKO9vkR+zjRZ2QMdXizulBv5BY9Hn4SSv9dNm+OtDiErtV9vWaIe
2XNfDhhwEYryAJ3sG760Y2/AyxQsNv91AzLqymIhVmks9SuArIOUVUiwfdoIVSH7
lWIgeltHCwIDAQABMA0GCSqGSIb3DQEBBQUAA4GBABLbjxHJBSoOQy3rIrvbMLUS
w9fnRBHYIL8t7T4mDMwoAGkUyQvj9ijOWaYsf9dEVB1AeI+LSIopGx1a+yKgpP8v
LWUHqhi30vk2Us+NR3eikLPCXg/zTWTCyT+OcLr37gIpHa5FG0rIQj/P51v1vGTT
DEo/p/BXmiCsHCoOLM22
-----END CERTIFICATE-----
Certificate:
    Data:
        Version: 4 (0x3)
        Serial Number: 1 (0x1)
    Signature Algorithm: sha1WithRSAEncryption
        Issuer: C=BE, CN=txjsonrpc-test-ca
        Validity
            Not Before: Jan  1 00:00:00 1970 GMT
            Not After : Jan 19 03:14:07 2038 GMT
        Subject: CN=ca-false, C=BE, O=Gremwell bvba
        Subject Public Key Info:
            Public Key Algorithm: rsaEncryption
                Public-Key: (1024 bit)
                Modulus:
                    00:cc:0c:e5:91:18:50:5b:8e:66:12:e3:00:bd:81:
                    a1:e2:38:74:71:25:7e:e0:9e:6e:ee:48:9c:51:2f:
                    ee:be:e3:a0:61:cf:6c:36:ac:db:d8:60:90:36:3e:
                    fd:a8:bb:2a:15:ae:f0:29:70:61:22:33:ee:96:28:
                    66:73:0f:e0:38:6d:89:0b:5f:ab:c0:ce:43:85:93:
                    ca:8a:0d:df:fe:4a:f7:a5:1a:ca:a9:16:07:62:ca:
                    79:ea:45:a1:d5:03:48:2b:ce:0b:f6:2b:da:ee:27:
                    eb:01:1e:34:73:92:55:75:49:c3:b4:ce:f5:cc:35:
                    d4:90:82:da:eb:5e:36:b2:8d
                Exponent: 65537 (0x10001)
        X509v3 extensions:
            X509v3 Basic Constraints: critical
                CA:FALSE
    Signature Algorithm: sha1WithRSAEncryption
         12:25:82:e8:8c:80:2a:2b:58:3d:71:82:c6:6c:8d:4b:46:20:
         11:8c:92:94:71:91:57:45:47:4d:30:d6:c1:fb:6e:ac:1d:dc:
         cf:ba:c1:33:fd:5e:e9:10:5f:8f:82:5b:07:7c:66:98:36:71:
         f7:bb:a1:c6:80:54:4a:27:4d:d2:60:5b:d1:60:92:b0:5b:d0:
         02:bc:f6:5f:3a:fa:74:72:e2:b0:d4:8f:27:f5:23:7f:3b:05:
         17:4f:00:51:65:f0:12:95:1b:81:44:cb:9b:80:38:17:93:47:
         8a:42:50:0c:4b:93:db:7b:17:f0:e4:9e:46:77:87:37:65:d6:
         fb:eb:ee:28:1b:ec:51:57:ee:38:11:17:17:75:ed:2f:68:da:
         27:05:c8:19:98:c1:10:a6:9a:af:b2:77:56:f3:6f:de:cd:7e:
         d4:a2:a7:a9:47:1f:91:50:35:61:8e:a3:2d:69:d9:94:24:0e:
         20:87:32:32:4f:a4:4b:83:e3:3c:0a:35:86:dc:30:51:50:0e:
         32:2b:95:4c:bf:e9:12:b2:d7:95:dc:ae:00:1d:b6:c5:28:8f:
         b4:a6:43:62:fc:e5:04:e5:44:35:1d:31:2a:6f:86:83:19:6a:
         01:02:15:e4:6b:8c:7b:bc:55:da:ce:ac:73:19:f7:f1:72:af:
         1d:39:cf:24:68:34:98:12:9c:90:de:44:dd:53:3d:b0:ee:dd:
         f9:84:8b:01:1d:05:df:28:2f:ef:c4:05:94:22:d8:25:59:bf:
         c4:93:6c:f7:ac:b0:ae:1d:88:3a:f8:c1:5d:17:67:6d:1f:29:
         98:3c:8a:04:9d:16:3c:51:dd:2b:a0:21:6e:d7:03:18:3e:ba:
         98:64:05:e4:f3:cc:54:6f:ce:dc:26:b7:e2:c1:0e:c7:85:4a:
         50:b4:30:3c:ff:e0:85:63:4c:ad:0c:59:6e:00:ad:06:15:1a:
         60:bf:2c:be:68:ab:ff:0d:b6:ea:d7:be:6c:50:95:74:ac:5e:
         36:b9:84:26:49:dc:cd:c9:94:50:da:6f:c4:f7:f0:b9:3d:5c:
         d6:cc:a3:2d:c2:f5:a5:8e:84:3c:98:e6:a2:3e:4f:6d:7d:97:
         0d:f8:19:62:ba:9f:e2:04:11:7f:b8:78:2f:9b:e9:dc:64:58:
         64:a4:cc:93:0b:72:91:b1:ae:55:5f:5b:02:c6:02:c4:30:9e:
         6c:d5:70:9d:ea:57:85:11:07:19:d8:d3:2b:8f:4a:24:c2:f3:
         5e:8f:6f:c1:11:47:f1:a1:ec:75:e9:e4:ba:0f:80:76:83:8b:
         87:a0:86:d0:9c:5e:19:7e:5e:6e:75:64:0b:5f:8b:57:56:2d:
         01:d6:b7:67:30:51:1e:91
-----BEGIN CERTIFICATE-----
MIIDaDCCAVCgAwIBAwIBATANBgkqhkiG9w0BAQUFADApMQswCQYDVQQGEwJCRTEa
MBgGA1UEAxMRdHhqc29ucnBjLXRlc3QtY2EwHhcNNzAwMTAxMDAwMDAwWhcNMzgw
MTE5MDMxNDA3WjA4MREwDwYDVQQDEwhjYS1mYWxzZTELMAkGA1UEBhMCQkUxFjAU
BgNVBAoTDUdyZW13ZWxsIGJ2YmEwgZ8wDQYJKoZIhvcNAQEBBQADgY0AMIGJAoGB
AMwM5ZEYUFuOZhLjAL2BoeI4dHElfuCebu5InFEv7r7joGHPbDas29hgkDY+/ai7
KhWu8ClwYSIz7pYoZnMP4DhtiQtfq8DOQ4WTyooN3/5K96UayqkWB2LKeepFodUD
SCvOC/Yr2u4n6wEeNHOSVXVJw7TO9cw11JCC2uteNrKNAgMBAAGjEDAOMAwGA1Ud
EwEB/wQCMAAwDQYJKoZIhvcNAQEFBQADggIBABIlguiMgCorWD1xgsZsjUtGIBGM
kpRxkVdFR00w1sH7bqwd3M+6wTP9XukQX4+CWwd8Zpg2cfe7ocaAVEonTdJgW9Fg
krBb0AK89l86+nRy4rDUjyf1I387BRdPAFFl8BKVG4FEy5uAOBeTR4pCUAxLk9t7
F/DknkZ3hzdl1vvr7igb7FFX7jgRFxd17S9o2icFyBmYwRCmmq+yd1bzb97NftSi
p6lHH5FQNWGOoy1p2ZQkDiCHMjJPpEuD4zwKNYbcMFFQDjIrlUy/6RKy15XcrgAd
tsUoj7SmQ2L85QTlRDUdMSpvhoMZagECFeRrjHu8VdrOrHMZ9/Fyrx05zyRoNJgS
nJDeRN1TPbDu3fmEiwEdBd8oL+/EBZQi2CVZv8STbPessK4diDr4wV0XZ20fKZg8
igSdFjxR3SugIW7XAxg+uphkBeTzzFRvztwmt+LBDseFSlC0MDz/4IVjTK0MWW4A
rQYVGmC/LL5oq/8NturXvmxQlXSsXja5hCZJ3M3JlFDab8T38Lk9XNbMoy3C9aWO
hDyY5qI+T219lw34GWK6n+IEEX+4eC+b6dxkWGSkzJMLcpGxrlVfWwLGAsQwnmzV
cJ3qV4URBxnY0yuPSiTC816Pb8ERR/Gh7HXp5LoPgHaDi4eghtCcXhl+Xm51ZAtf
i1dWLQHWt2cwUR6R
-----END CERTIFICATE-----
