Certificate:
    Data:
        Version: 3 (0x2)
        Serial Number: 1 (0x1)
    Signature Algorithm: sha1WithRSAEncryption
        Issuer: CN=ca-none, C=BE, O=Gremwell bvba
        Validity
            Not Before: Jun 23 15:47:38 2012 GMT
            Not After : Jun 23 15:47:38 2013 GMT
        Subject: C=BE, CN=txjsonrpc-pyserver
        Subject Public Key Info:
            Public Key Algorithm: rsaEncryption
                Public-Key: (4096 bit)
                Modulus:
                    00:99:66:1d:c9:8f:e2:7f:65:ea:ab:c5:92:3c:da:
                    b5:33:f6:36:a0:82:a6:fe:d6:25:a6:8a:9b:4a:21:
                    05:54:ce:81:73:11:48:ba:ed:0a:2e:fd:72:93:a0:
                    81:1d:43:6c:c2:65:b3:c2:b8:f5:6b:65:87:e4:3a:
                    e1:27:4c:1d:34:98:b4:05:fd:6a:cb:cc:1c:4c:f4:
                    b9:e6:b5:6d:e7:85:c1:a5:de:1c:f6:84:bf:d2:82:
                    49:ae:2d:5d:30:3a:76:6d:65:d8:34:59:10:7b:2a:
                    aa:1c:6c:47:80:30:6c:56:d4:f5:e9:b6:64:f0:0c:
                    9a:20:d4:82:ed:15:5e:b7:11:66:01:8c:83:fa:c2:
                    d3:23:fa:f5:fc:e5:da:df:5a:77:c5:f0:86:96:3e:
                    9b:6e:0a:4e:50:4e:57:12:79:9f:8b:6b:38:1d:c3:
                    c5:d4:de:be:59:ca:38:ae:4f:dc:db:fc:61:1c:23:
                    49:c8:23:d4:32:19:ce:60:0c:28:36:c1:ef:00:ef:
                    98:59:72:48:3d:8c:04:32:b2:8f:17:5f:23:a3:35:
                    93:b7:12:a8:5b:68:b4:b7:aa:78:c7:8c:a4:a0:8c:
                    ae:86:b1:b6:5b:6e:63:d1:57:d2:44:f3:a5:7f:99:
                    c9:95:a4:a0:62:bb:79:8c:bd:e0:0c:d5:b4:06:42:
                    d5:d9:6c:86:ca:d6:c0:c1:bf:66:21:9c:f0:e2:b3:
                    01:56:cf:ad:75:98:f4:c5:42:d5:11:b6:2b:77:17:
                    7c:da:2e:da:4c:32:c5:75:4e:4f:b5:b7:c9:f8:dd:
                    93:57:a0:1a:2d:69:ed:76:8c:d4:5c:10:f2:4a:57:
                    5b:f1:1d:b6:77:a9:17:60:bd:84:b0:74:c6:7c:8f:
                    19:51:7c:60:ef:41:85:b7:97:93:09:17:7f:1d:91:
                    c0:3c:12:ef:c7:23:14:6a:ba:fa:f6:0c:15:3a:e0:
                    f2:5e:49:df:14:70:88:c0:e5:91:a7:55:2f:e1:f1:
                    09:c3:20:64:cf:5e:7f:12:10:16:9c:47:2e:43:3b:
                    55:5e:65:2e:f2:03:bd:b4:15:32:b2:2a:37:7d:1d:
                    23:1a:ea:55:99:39:c7:2f:9d:38:60:9e:1d:ad:6b:
                    b8:41:25:54:9d:dd:e6:32:4a:d4:a6:7f:5b:8a:0b:
                    c6:66:38:75:76:bd:41:42:c5:8a:56:40:40:fe:fa:
                    19:cf:c8:72:2c:33:77:52:23:2d:b5:56:74:fc:38:
                    28:31:2a:88:26:ac:cc:6e:e3:f0:24:38:0f:a3:1b:
                    56:c0:db:4b:8e:de:c3:e5:6f:81:4a:35:91:b1:b6:
                    c2:94:3c:23:49:ed:a4:a0:d5:f2:d1:d5:4d:42:92:
                    b9:51:5d
                Exponent: 65537 (0x10001)
        X509v3 extensions:
            X509v3 Basic Constraints: 
                CA:FALSE
            Netscape Cert Type: 
                SSL Server
            Netscape Comment: 
                TinyCA Generated Certificate
            X509v3 Subject Key Identifier: 
                26:8C:A5:F9:A6:4A:FE:4C:E8:0F:04:33:7E:04:26:28:BF:4C:92:F3
            X509v3 Authority Key Identifier: 
                keyid:9D:8F:84:76:94:CD:07:FE:A3:E8:8B:D7:F9:D9:6E:EF:CA:75:51:7B
                DirName:/C=BE/CN=txjsonrpc-test-ca
                serial:8D:D2:AF:37:F9:CA:92:0B

            X509v3 Issuer Alternative Name: 
                <EMPTY>

            X509v3 Subject Alternative Name: 
                <EMPTY>

    Signature Algorithm: sha1WithRSAEncryption
         95:23:5f:d9:80:cd:cb:87:ea:f0:d7:5e:c2:5b:66:4f:8c:15:
         07:e8:77:42:b2:c7:7b:9e:26:2e:6c:93:af:1f:13:da:ae:e6:
         26:81:97:69:d8:cd:b8:44:b3:9f:27:d0:c2:56:4b:04:26:bf:
         4d:98:b7:11:5f:fe:b7:a5:c5:3d:df:48:7f:cf:05:02:58:a2:
         a8:86:1b:01:98:16:ff:67:15:de:1a:e4:ce:a9:14:e5:a3:8e:
         61:ad:80:19:18:b5:dc:b1:39:81:a0:bb:1a:05:83:36:31:a3:
         22:e2:68:2a:32:28:87:4a:6c:bf:4b:15:34:3c:33:dc:c2:bf:
         ae:80
-----BEGIN CERTIFICATE-----
MIIEOjCCA6OgAwIBAgIBATANBgkqhkiG9w0BAQUFADA3MRAwDgYDVQQDEwdjYS1u
b25lMQswCQYDVQQGEwJCRTEWMBQGA1UEChMNR3JlbXdlbGwgYnZiYTAeFw0xMjA2
MjMxNTQ3MzhaFw0xMzA2MjMxNTQ3MzhaMCoxCzAJBgNVBAYTAkJFMRswGQYDVQQD
ExJ0eGpzb25ycGMtcHlzZXJ2ZXIwggIiMA0GCSqGSIb3DQEBAQUAA4ICDwAwggIK
AoICAQCZZh3Jj+J/ZeqrxZI82rUz9jaggqb+1iWmiptKIQVUzoFzEUi67Qou/XKT
oIEdQ2zCZbPCuPVrZYfkOuEnTB00mLQF/WrLzBxM9LnmtW3nhcGl3hz2hL/Sgkmu
LV0wOnZtZdg0WRB7KqocbEeAMGxW1PXptmTwDJog1ILtFV63EWYBjIP6wtMj+vX8
5drfWnfF8IaWPptuCk5QTlcSeZ+Lazgdw8XU3r5ZyjiuT9zb/GEcI0nII9QyGc5g
DCg2we8A75hZckg9jAQyso8XXyOjNZO3EqhbaLS3qnjHjKSgjK6GsbZbbmPRV9JE
86V/mcmVpKBiu3mMveAM1bQGQtXZbIbK1sDBv2YhnPDiswFWz611mPTFQtURtit3
F3zaLtpMMsV1Tk+1t8n43ZNXoBotae12jNRcEPJKV1vxHbZ3qRdgvYSwdMZ8jxlR
fGDvQYW3l5MJF38dkcA8Eu/HIxRquvr2DBU64PJeSd8UcIjA5ZGnVS/h8QnDIGTP
Xn8SEBacRy5DO1VeZS7yA720FTKyKjd9HSMa6lWZOccvnThgnh2ta7hBJVSd3eYy
StSmf1uKC8ZmOHV2vUFCxYpWQED++hnPyHIsM3dSIy21VnT8OCgxKogmrMxu4/Ak
OA+jG1bA20uO3sPlb4FKNZGxtsKUPCNJ7aSg1fLR1U1CkrlRXQIDAQABo4HeMIHb
MAkGA1UdEwQCMAAwEQYJYIZIAYb4QgEBBAQDAgZAMCsGCWCGSAGG+EIBDQQeFhxU
aW55Q0EgR2VuZXJhdGVkIENlcnRpZmljYXRlMB0GA1UdDgQWBBQmjKX5pkr+TOgP
BDN+BCYov0yS8zBZBgNVHSMEUjBQgBSdj4R2lM0H/qPoi9f52W7vynVRe6EtpCsw
KTELMAkGA1UEBhMCQkUxGjAYBgNVBAMTEXR4anNvbnJwYy10ZXN0LWNhggkAjdKv
N/nKkgswCQYDVR0SBAIwADAJBgNVHREEAjAAMA0GCSqGSIb3DQEBBQUAA4GBAJUj
X9mAzcuH6vDXXsJbZk+MFQfod0Kyx3ueJi5sk68fE9qu5iaBl2nYzbhEs58n0MJW
SwQmv02YtxFf/relxT3fSH/PBQJYoqiGGwGYFv9nFd4a5M6pFOWjjmGtgBkYtdyx
OYGguxoFgzYxoyLiaCoyKIdKbL9LFTQ8M9zCv66A
-----END CERTIFICATE-----
Certificate:
    Data:
        Version: 4 (0x3)
        Serial Number: 1 (0x1)
    Signature Algorithm: sha1WithRSAEncryption
        Issuer: C=BE, CN=txjsonrpc-test-ca
        Validity
            Not Before: Jan  1 00:00:00 1970 GMT
            Not After : Jan 19 03:14:07 2038 GMT
        Subject: CN=ca-none, C=BE, O=Gremwell bvba
        Subject Public Key Info:
            Public Key Algorithm: rsaEncryption
                Public-Key: (1024 bit)
                Modulus:
                    00:d8:35:e4:a2:33:43:d1:c3:73:e0:e1:bf:9f:12:
                    89:83:17:88:a6:bd:a1:5b:77:23:75:0f:99:72:51:
                    5c:2c:bf:91:1c:5e:47:86:ba:ad:70:b9:20:03:3f:
                    57:06:50:1b:73:56:aa:d6:1b:0e:fd:51:14:0b:16:
                    bc:fc:0e:66:56:a2:14:12:0b:a3:e3:7e:24:20:14:
                    03:4e:d1:79:3a:16:2f:eb:99:07:11:bd:ea:90:39:
                    e9:bb:48:46:61:da:2f:4b:26:c9:73:43:85:5f:40:
                    5d:a7:77:47:dd:c6:be:45:d0:81:47:f1:bf:44:42:
                    e2:30:3c:50:96:0f:55:78:d5
                Exponent: 65537 (0x10001)
    Signature Algorithm: sha1WithRSAEncryption
         bc:49:27:d8:a8:05:56:65:55:8a:00:bf:14:33:5c:61:30:c7:
         a8:a6:52:3e:9b:fd:eb:9d:57:50:c1:12:a0:17:3d:94:45:4a:
         7b:ff:13:5b:c9:9d:c7:65:4a:d3:fe:cc:72:bd:5a:fa:95:29:
         26:ca:59:b1:0c:76:cc:dd:9c:60:1d:a3:73:35:09:90:52:b8:
         a0:a8:44:c5:ef:c5:fe:d6:1d:03:84:76:51:57:ff:dd:4b:1b:
         ad:82:68:3c:ef:7a:b2:8e:7e:da:82:71:1b:93:48:92:43:64:
         ca:08:c2:1c:ed:17:74:fe:aa:97:a9:05:b2:82:f7:0c:47:b5:
         60:cf:72:69:04:f1:3a:38:41:84:6a:49:1b:84:0c:32:06:ec:
         2e:8e:67:f2:6e:db:a1:0b:24:c5:2b:11:7a:04:d3:f3:0d:9d:
         97:99:3f:ac:51:ee:db:7b:76:01:3c:dd:6c:cd:f3:a9:75:2a:
         dd:d9:b9:10:14:74:ed:ca:2c:86:a5:4f:dd:e8:7c:89:65:d4:
         b9:78:8d:cf:cf:cd:33:48:a7:51:e3:a7:aa:6a:fd:c9:be:cf:
         ae:1c:96:7b:43:22:a5:a0:3d:ec:c0:84:e3:e1:70:9c:58:ac:
         72:a9:dd:a6:2c:49:0b:be:57:cd:95:91:0f:ac:7b:ed:b1:7e:
         fd:66:c3:13:3d:98:eb:ee:0e:17:21:85:22:e4:19:ce:6d:63:
         19:8a:b5:54:66:e9:f0:e4:e7:a0:0a:9f:f3:f4:2a:b8:fa:29:
         5d:f0:e7:21:5b:77:f6:a5:90:39:a5:46:5d:5b:20:4d:c6:ad:
         99:38:60:14:76:18:68:00:de:dc:89:70:02:b4:a2:06:b7:18:
         f4:1f:98:02:f2:a8:f7:17:6c:09:21:65:7b:99:e4:17:36:f0:
         07:34:bc:89:af:a5:fa:5a:f0:29:0c:3f:78:a3:6c:e2:49:90:
         3c:f9:4b:ec:3b:01:92:f4:79:46:61:9a:d1:fa:34:bb:3e:0d:
         00:30:29:72:95:f0:16:0d:11:e1:8d:3c:d4:f9:4e:47:bb:b8:
         17:f5:53:8a:80:e8:39:9e:e7:7b:d6:2a:48:72:51:df:39:b6:
         cc:96:c4:9b:dd:c3:ed:fa:8e:11:96:01:fc:a7:e7:41:9a:45:
         ed:d5:11:f4:57:85:c4:c3:87:3f:31:c3:6f:3e:18:a2:04:e6:
         66:0b:32:95:41:40:d5:80:07:9c:93:d3:87:4b:60:63:36:39:
         b9:c2:d1:78:3a:a4:02:5b:5c:0c:c9:67:a4:63:38:a0:19:66:
         e1:a6:13:d3:7d:b2:04:e0:6a:9a:c2:2b:01:89:0f:fb:0f:72:
         82:7a:af:17:69:e4:2c:f6
-----BEGIN CERTIFICATE-----
MIIDVTCCAT2gAwIBAwIBATANBgkqhkiG9w0BAQUFADApMQswCQYDVQQGEwJCRTEa
MBgGA1UEAxMRdHhqc29ucnBjLXRlc3QtY2EwHhcNNzAwMTAxMDAwMDAwWhcNMzgw
MTE5MDMxNDA3WjA3MRAwDgYDVQQDEwdjYS1ub25lMQswCQYDVQQGEwJCRTEWMBQG
A1UEChMNR3JlbXdlbGwgYnZiYTCBnzANBgkqhkiG9w0BAQEFAAOBjQAwgYkCgYEA
2DXkojND0cNz4OG/nxKJgxeIpr2hW3cjdQ+ZclFcLL+RHF5HhrqtcLkgAz9XBlAb
c1aq1hsO/VEUCxa8/A5mVqIUEguj434kIBQDTtF5OhYv65kHEb3qkDnpu0hGYdov
SybJc0OFX0Bdp3dH3ca+RdCBR/G/RELiMDxQlg9VeNUCAwEAATANBgkqhkiG9w0B
AQUFAAOCAgEAvEkn2KgFVmVVigC/FDNcYTDHqKZSPpv9651XUMESoBc9lEVKe/8T
W8mdx2VK0/7Mcr1a+pUpJspZsQx2zN2cYB2jczUJkFK4oKhExe/F/tYdA4R2UVf/
3UsbrYJoPO96so5+2oJxG5NIkkNkygjCHO0XdP6ql6kFsoL3DEe1YM9yaQTxOjhB
hGpJG4QMMgbsLo5n8m7boQskxSsRegTT8w2dl5k/rFHu23t2ATzdbM3zqXUq3dm5
EBR07coshqVP3eh8iWXUuXiNz8/NM0inUeOnqmr9yb7PrhyWe0MipaA97MCE4+Fw
nFiscqndpixJC75XzZWRD6x77bF+/WbDEz2Y6+4OFyGFIuQZzm1jGYq1VGbp8OTn
oAqf8/QquPopXfDnIVt39qWQOaVGXVsgTcatmThgFHYYaADe3IlwArSiBrcY9B+Y
AvKo9xdsCSFle5nkFzbwBzS8ia+l+lrwKQw/eKNs4kmQPPlL7DsBkvR5RmGa0fo0
uz4NADApcpXwFg0R4Y081PlOR7u4F/VTioDoOZ7ne9YqSHJR3zm2zJbEm93D7fqO
EZYB/KfnQZpF7dUR9FeFxMOHPzHDbz4YogTmZgsylUFA1YAHnJPTh0tgYzY5ucLR
eDqkAltcDMlnpGM4oBlm4aYT032yBOBqmsIrAYkP+w9ygnqvF2nkLPY=
-----END CERTIFICATE-----
