Certificate:
    Data:
        Version: 4 (0x3)
        Serial Number: 1 (0x1)
    Signature Algorithm: sha1WithRSAEncryption
        Issuer: CN=blah-com, C=BE, O=Gremwell bvba
        Validity
            Not Before: Jan  1 00:00:00 1970 GMT
            Not After : Jan 19 03:14:07 2038 GMT
        Subject: CN=blah-com, C=BE, O=Gremwell bvba
        Subject Public Key Info:
            Public Key Algorithm: rsaEncryption
                Public-Key: (1024 bit)
                Modulus:
                    00:fa:ca:95:b8:ae:2a:58:05:8f:8f:98:84:c2:41:
                    f3:29:32:8e:a9:96:ba:09:05:e1:02:7d:b4:4f:87:
                    6a:26:48:a3:da:e5:8f:15:fb:b3:a7:3f:a0:3a:c2:
                    f9:92:35:d4:78:a0:cb:40:84:fb:08:8a:17:72:0b:
                    c1:f5:d7:e0:13:c2:a2:77:e0:cf:05:30:34:aa:e0:
                    78:e8:46:1c:c0:13:d4:0d:b6:4a:f0:0e:c9:c6:41:
                    88:e5:09:aa:7b:1a:44:b3:63:dd:70:4a:cd:3d:54:
                    c5:be:e9:d4:e0:ad:a5:cd:02:5b:6a:81:06:5b:41:
                    60:78:0e:de:c3:ae:8e:28:0d
                Exponent: 65537 (0x10001)
    Signature Algorithm: sha1WithRSAEncryption
         aa:22:c1:e0:3c:91:eb:8f:b3:d2:06:25:c2:f8:5e:46:0c:67:
         7b:a3:28:3f:ac:e8:c0:db:dc:b3:d3:38:8c:51:6b:a1:aa:4c:
         75:9c:8c:13:e8:3b:ac:1c:25:4f:39:95:17:7a:2f:07:59:b5:
         3b:09:62:a9:c2:46:eb:59:8a:c8:07:05:8a:fb:13:4d:89:04:
         59:c6:21:86:e9:bb:36:31:ea:93:0f:da:bf:03:b4:85:b1:ab:
         07:79:75:41:70:d1:eb:f9:8d:b9:ab:20:6a:9a:44:3d:91:d5:
         45:9d:0e:78:51:92:94:bf:1b:2f:46:21:b2:70:3b:72:b9:8b:
         99:a5
-----BEGIN CERTIFICATE-----
MIIB5DCCAU2gAwIBAwIBATANBgkqhkiG9w0BAQUFADA4MREwDwYDVQQDEwhibGFo
LWNvbTELMAkGA1UEBhMCQkUxFjAUBgNVBAoTDUdyZW13ZWxsIGJ2YmEwHhcNNzAw
MTAxMDAwMDAwWhcNMzgwMTE5MDMxNDA3WjA4MREwDwYDVQQDEwhibGFoLWNvbTEL
MAkGA1UEBhMCQkUxFjAUBgNVBAoTDUdyZW13ZWxsIGJ2YmEwgZ8wDQYJKoZIhvcN
AQEBBQADgY0AMIGJAoGBAPrKlbiuKlgFj4+YhMJB8ykyjqmWugkF4QJ9tE+HaiZI
o9rljxX7s6c/oDrC+ZI11Higy0CE+wiKF3ILwfXX4BPConfgzwUwNKrgeOhGHMAT
1A22SvAOycZBiOUJqnsaRLNj3XBKzT1Uxb7p1OCtpc0CW2qBBltBYHgO3sOujigN
AgMBAAEwDQYJKoZIhvcNAQEFBQADgYEAqiLB4DyR64+z0gYlwvheRgxne6MoP6zo
wNvcs9M4jFFroapMdZyME+g7rBwlTzmVF3ovB1m1OwliqcJG61mKyAcFivsTTYkE
WcYhhum7NjHqkw/avwO0hbGrB3l1QXDR6/mNuasgappEPZHVRZ0OeFGSlL8bL0Yh
snA7crmLmaU=
-----END CERTIFICATE-----
