Certificate:
    Data:
        Version: 4 (0x3)
        Serial Number: 1 (0x1)
    Signature Algorithm: sha1WithRSAEncryption
        Issuer: CN=www.example.com, C=BE, O=Gremwell bvba
        Validity
            Not Before: Jan  1 00:00:00 1970 GMT
            Not After : Jan 19 03:14:07 2038 GMT
        Subject: CN=www.example.com, C=BE, O=Gremwell bvba
        Subject Public Key Info:
            Public Key Algorithm: rsaEncryption
                Public-Key: (1024 bit)
                Modulus:
                    00:a8:36:b3:9a:94:5c:56:c2:2c:e0:32:63:63:87:
                    f5:f0:aa:97:ae:1b:48:e3:8b:3f:52:79:1d:6b:43:
                    67:f0:2c:fc:20:6c:a3:bd:be:44:7e:ce:34:59:d9:
                    03:1d:5e:2c:ee:94:1b:f9:05:8f:47:9f:84:92:bf:
                    d7:4d:9b:e3:ad:0e:21:2b:b5:5f:6f:59:a2:1e:d9:
                    73:5f:0e:18:70:11:8a:f2:00:9d:ec:1b:be:b4:63:
                    6f:c0:cb:14:2c:36:ff:75:03:32:ea:ca:62:21:56:
                    69:2c:f5:2b:80:ac:83:94:55:48:b0:7d:da:08:55:
                    21:fb:95:62:20:7a:5b:47:0b
                Exponent: 65537 (0x10001)
    Signature Algorithm: sha1WithRSAEncryption
         22:11:22:ad:55:d8:24:72:e0:d8:43:eb:ee:a5:e3:9c:a4:68:
         7c:c6:75:8e:22:2a:80:6e:0b:7b:6a:2c:c3:5b:86:c7:cd:c4:
         0c:f1:bb:90:db:40:a5:d3:6e:67:7d:9d:11:4d:d5:b8:b0:4b:
         1a:30:91:15:61:d3:99:58:07:28:dd:d5:f6:03:eb:7b:6b:49:
         ed:9a:ef:ba:a7:b8:37:c1:cb:21:bd:80:c7:05:ff:b9:f7:12:
         a1:6c:9d:7b:45:8e:10:39:20:ff:03:15:e7:43:75:d2:18:af:
         29:3c:56:8f:99:63:39:6c:c3:22:5c:0f:ba:8e:f8:dd:f8:79:
         85:6a
-----BEGIN CERTIFICATE-----
MIIB8jCCAVugAwIBAwIBATANBgkqhkiG9w0BAQUFADA/MRgwFgYDVQQDEw93d3cu
ZXhhbXBsZS5jb20xCzAJBgNVBAYTAkJFMRYwFAYDVQQKEw1HcmVtd2VsbCBidmJh
MB4XDTcwMDEwMTAwMDAwMFoXDTM4MDExOTAzMTQwN1owPzEYMBYGA1UEAxMPd3d3
LmV4YW1wbGUuY29tMQswCQYDVQQGEwJCRTEWMBQGA1UEChMNR3JlbXdlbGwgYnZi
YTCBnzANBgkqhkiG9w0BAQEFAAOBjQAwgYkCgYEAqDazmpRcVsIs4DJjY4f18KqX
rhtI44s/Unkda0Nn8Cz8IGyjvb5Efs40WdkDHV4s7pQb+QWPR5+Ekr/XTZvjrQ4h
K7Vfb1miHtlzXw4YcBGK8gCd7Bu+tGNvwMsULDb/dQMy6spiIVZpLPUrgKyDlFVI
sH3aCFUh+5ViIHpbRwsCAwEAATANBgkqhkiG9w0BAQUFAAOBgQAiESKtVdgkcuDY
Q+vupeOcpGh8xnWOIiqAbgt7aizDW4bHzcQM8buQ20Cl025nfZ0RTdW4sEsaMJEV
YdOZWAco3dX2A+t7a0ntmu+6p7g3wcshvYDHBf+59xKhbJ17RY4QOSD/AxXnQ3XS
GK8pPFaPmWM5bMMiXA+6jvjd+HmFag==
-----END CERTIFICATE-----
