Certificate:
    Data:
        Version: 3 (0x2)
        Serial Number: 1 (0x1)
    Signature Algorithm: sha1WithRSAEncryption
        Issuer: CN=ca-true, C=BE, O=Gremwell bvba
        Validity
            Not Before: Jun 23 15:47:38 2012 GMT
            Not After : Jun 23 15:47:38 2013 GMT
        Subject: C=BE, CN=txjsonrpc-pyserver
        Subject Public Key Info:
            Public Key Algorithm: rsaEncryption
                Public-Key: (4096 bit)
                Modulus:
                    00:99:66:1d:c9:8f:e2:7f:65:ea:ab:c5:92:3c:da:
                    b5:33:f6:36:a0:82:a6:fe:d6:25:a6:8a:9b:4a:21:
                    05:54:ce:81:73:11:48:ba:ed:0a:2e:fd:72:93:a0:
                    81:1d:43:6c:c2:65:b3:c2:b8:f5:6b:65:87:e4:3a:
                    e1:27:4c:1d:34:98:b4:05:fd:6a:cb:cc:1c:4c:f4:
                    b9:e6:b5:6d:e7:85:c1:a5:de:1c:f6:84:bf:d2:82:
                    49:ae:2d:5d:30:3a:76:6d:65:d8:34:59:10:7b:2a:
                    aa:1c:6c:47:80:30:6c:56:d4:f5:e9:b6:64:f0:0c:
                    9a:20:d4:82:ed:15:5e:b7:11:66:01:8c:83:fa:c2:
                    d3:23:fa:f5:fc:e5:da:df:5a:77:c5:f0:86:96:3e:
                    9b:6e:0a:4e:50:4e:57:12:79:9f:8b:6b:38:1d:c3:
                    c5:d4:de:be:59:ca:38:ae:4f:dc:db:fc:61:1c:23:
                    49:c8:23:d4:32:19:ce:60:0c:28:36:c1:ef:00:ef:
                    98:59:72:48:3d:8c:04:32:b2:8f:17:5f:23:a3:35:
                    93:b7:12:a8:5b:68:b4:b7:aa:78:c7:8c:a4:a0:8c:
                    ae:86:b1:b6:5b:6e:63:d1:57:d2:44:f3:a5:7f:99:
                    c9:95:a4:a0:62:bb:79:8c:bd:e0:0c:d5:b4:06:42:
                    d5:d9:6c:86:ca:d6:c0:c1:bf:66:21:9c:f0:e2:b3:
                    01:56:cf:ad:75:98:f4:c5:42:d5:11:b6:2b:77:17:
                    7c:da:2e:da:4c:32:c5:75:4e:4f:b5:b7:c9:f8:dd:
                    93:57:a0:1a:2d:69:ed:76:8c:d4:5c:10:f2:4a:57:
                    5b:f1:1d:b6:77:a9:17:60:bd:84:b0:74:c6:7c:8f:
                    19:51:7c:60:ef:41:85:b7:97:93:09:17:7f:1d:91:
                    c0:3c:12:ef:c7:23:14:6a:ba:fa:f6:0c:15:3a:e0:
                    f2:5e:49:df:14:70:88:c0:e5:91:a7:55:2f:e1:f1:
                    09:c3:20:64:cf:5e:7f:12:10:16:9c:47:2e:43:3b:
                    55:5e:65:2e:f2:03:bd:b4:15:32:b2:2a:37:7d:1d:
                    23:1a:ea:55:99:39:c7:2f:9d:38:60:9e:1d:ad:6b:
                    b8:41:25:54:9d:dd:e6:32:4a:d4:a6:7f:5b:8a:0b:
                    c6:66:38:75:76:bd:41:42:c5:8a:56:40:40:fe:fa:
                    19:cf:c8:72:2c:33:77:52:23:2d:b5:56:74:fc:38:
                    28:31:2a:88:26:ac:cc:6e:e3:f0:24:38:0f:a3:1b:
                    56:c0:db:4b:8e:de:c3:e5:6f:81:4a:35:91:b1:b6:
                    c2:94:3c:23:49:ed:a4:a0:d5:f2:d1:d5:4d:42:92:
                    b9:51:5d
                Exponent: 65537 (0x10001)
        X509v3 extensions:
            X509v3 Basic Constraints: 
                CA:FALSE
            Netscape Cert Type: 
                SSL Server
            Netscape Comment: 
                TinyCA Generated Certificate
            X509v3 Subject Key Identifier: 
                26:8C:A5:F9:A6:4A:FE:4C:E8:0F:04:33:7E:04:26:28:BF:4C:92:F3
            X509v3 Authority Key Identifier: 
                keyid:9D:8F:84:76:94:CD:07:FE:A3:E8:8B:D7:F9:D9:6E:EF:CA:75:51:7B
                DirName:/C=BE/CN=txjsonrpc-test-ca
                serial:8D:D2:AF:37:F9:CA:92:0B

            X509v3 Issuer Alternative Name: 
                <EMPTY>

            X509v3 Subject Alternative Name: 
                <EMPTY>

    Signature Algorithm: sha1WithRSAEncryption
         0c:96:87:bf:c6:da:34:32:08:e7:7e:e4:ce:09:8d:4c:bd:9c:
         19:56:2a:41:d8:7e:db:08:45:71:b0:8b:f4:a5:ce:77:2e:72:
         a7:2c:f0:c4:49:09:cc:66:2a:8a:79:04:85:ba:0e:fe:96:23:
         21:82:36:e7:7f:53:a4:4c:a7:1d:ed:d2:0e:90:43:5b:aa:40:
         2a:5c:11:a6:ea:a9:ea:21:58:42:81:03:71:52:02:22:ed:a7:
         d1:f8:66:6b:c4:a7:e2:fc:6f:f5:13:62:d5:1e:17:01:9a:f5:
         74:e3:65:26:e6:e4:56:39:9b:c2:78:59:18:0d:6f:d4:7e:28:
         d9:b9
-----BEGIN CERTIFICATE-----
MIIEOjCCA6OgAwIBAgIBATANBgkqhkiG9w0BAQUFADA3MRAwDgYDVQQDEwdjYS10
cnVlMQswCQYDVQQGEwJCRTEWMBQGA1UEChMNR3JlbXdlbGwgYnZiYTAeFw0xMjA2
MjMxNTQ3MzhaFw0xMzA2MjMxNTQ3MzhaMCoxCzAJBgNVBAYTAkJFMRswGQYDVQQD
ExJ0eGpzb25ycGMtcHlzZXJ2ZXIwggIiMA0GCSqGSIb3DQEBAQUAA4ICDwAwggIK
AoICAQCZZh3Jj+J/ZeqrxZI82rUz9jaggqb+1iWmiptKIQVUzoFzEUi67Qou/XKT
oIEdQ2zCZbPCuPVrZYfkOuEnTB00mLQF/WrLzBxM9LnmtW3nhcGl3hz2hL/Sgkmu
LV0wOnZtZdg0WRB7KqocbEeAMGxW1PXptmTwDJog1ILtFV63EWYBjIP6wtMj+vX8
5drfWnfF8IaWPptuCk5QTlcSeZ+Lazgdw8XU3r5ZyjiuT9zb/GEcI0nII9QyGc5g
DCg2we8A75hZckg9jAQyso8XXyOjNZO3EqhbaLS3qnjHjKSgjK6GsbZbbmPRV9JE
86V/mcmVpKBiu3mMveAM1bQGQtXZbIbK1sDBv2YhnPDiswFWz611mPTFQtURtit3
F3zaLtpMMsV1Tk+1t8n43ZNXoBotae12jNRcEPJKV1vxHbZ3qRdgvYSwdMZ8jxlR
fGDvQYW3l5MJF38dkcA8Eu/HIxRquvr2DBU64PJeSd8UcIjA5ZGnVS/h8QnDIGTP
Xn8SEBacRy5DO1VeZS7yA720FTKyKjd9HSMa6lWZOccvnThgnh2ta7hBJVSd3eYy
StSmf1uKC8ZmOHV2vUFCxYpWQED++hnPyHIsM3dSIy21VnT8OCgxKogmrMxu4/Ak
OA+jG1bA20uO3sPlb4FKNZGxtsKUPCNJ7aSg1fLR1U1CkrlRXQIDAQABo4HeMIHb
MAkGA1UdEwQCMAAwEQYJYIZIAYb4QgEBBAQDAgZAMCsGCWCGSAGG+EIBDQQeFhxU
aW55Q0EgR2VuZXJhdGVkIENlcnRpZmljYXRlMB0GA1UdDgQWBBQmjKX5pkr+TOgP
BDN+BCYov0yS8zBZBgNVHSMEUjBQgBSdj4R2lM0H/qPoi9f52W7vynVRe6EtpCsw
KTELMAkGA1UEBhMCQkUxGjAYBgNVBAMTEXR4anNvbnJwYy10ZXN0LWNhggkAjdKv
N/nKkgswCQYDVR0SBAIwADAJBgNVHREEAjAAMA0GCSqGSIb3DQEBBQUAA4GBAAyW
h7/G2jQyCOd+5M4JjUy9nBlWKkHYftsIRXGwi/Slzncucqcs8MRJCcxmKop5BIW6
Dv6WIyGCNud/U6RMpx3t0g6QQ1uqQCpcEabqqeohWEKBA3FSAiLtp9H4ZmvEp+L8
b/UTYtUeFwGa9XTjZSbm5FY5m8J4WRgNb9R+KNm5
-----END CERTIFICATE-----
Certificate:
    Data:
        Version: 4 (0x3)
        Serial Number: 1 (0x1)
    Signature Algorithm: sha1WithRSAEncryption
        Issuer: C=BE, CN=txjsonrpc-test-ca
        Validity
            Not Before: Jan  1 00:00:00 1970 GMT
            Not After : Jan 19 03:14:07 2038 GMT
        Subject: CN=ca-true, C=BE, O=Gremwell bvba
        Subject Public Key Info:
            Public Key Algorithm: rsaEncryption
                Public-Key: (1024 bit)
                Modulus:
                    00:dc:a1:d9:18:01:25:80:ec:a8:75:9c:a5:43:0c:
                    e9:7b:26:5e:2c:06:ba:e7:64:11:36:7b:76:ab:26:
                    5a:d4:42:12:1c:22:8d:82:e1:30:f7:31:83:09:54:
                    2a:44:4f:42:60:ba:09:03:45:5b:f4:38:68:13:50:
                    73:d3:a3:c8:7d:c9:e9:bb:c8:43:66:ee:c9:2f:8f:
                    93:b4:90:28:52:08:a7:fb:f1:11:a1:af:9a:ca:07:
                    80:4d:11:ce:db:2e:de:57:bb:8b:b5:c7:24:dc:26:
                    73:32:0f:82:36:54:bf:1e:53:26:6b:e0:81:19:4f:
                    a8:57:f2:5d:17:73:4f:f8:2b
                Exponent: 65537 (0x10001)
        X509v3 extensions:
            X509v3 Basic Constraints: critical
                CA:TRUE
    Signature Algorithm: sha1WithRSAEncryption
         62:1f:0b:0f:e9:09:a1:48:4e:be:1e:d6:56:4a:eb:9a:a7:13:
         9e:25:3d:e6:a8:30:5d:be:37:0d:eb:ca:10:7f:3d:91:37:a6:
         2a:90:9b:40:4c:41:c2:d7:9f:24:37:be:6c:3d:f8:28:8e:ff:
         be:94:b5:a6:2f:b9:09:52:de:1e:a2:2a:9a:b2:d1:f6:e5:d0:
         63:75:43:04:19:be:86:1f:70:9d:24:9c:55:47:f1:df:00:32:
         be:1b:a7:0b:9f:a7:3d:b3:d3:8e:c6:cc:21:c8:a3:18:73:22:
         eb:15:d8:de:1e:dd:05:ae:aa:1d:e9:b0:fd:ee:d7:e5:5f:75:
         90:5b:81:bb:b7:33:a5:72:73:34:a0:20:51:b8:79:ff:81:88:
         7c:48:16:79:d1:97:1d:8d:d4:e0:8c:80:19:f3:f9:8d:9c:ca:
         6c:28:47:c9:83:f3:ad:8b:de:ef:46:3e:a1:c9:70:22:af:c0:
         50:40:39:9c:c8:e7:cf:9d:85:0b:39:18:50:54:04:d4:a9:f5:
         e6:24:d1:7f:55:dc:24:e2:bd:55:0c:01:24:6a:98:b8:c4:31:
         17:b2:aa:08:fc:55:08:c1:00:ea:63:94:d5:8b:1b:3a:d7:12:
         71:41:fb:f1:45:22:51:4e:e4:f8:c4:2c:db:93:6f:45:80:bf:
         b8:e3:61:f4:96:f6:36:2a:6e:b0:9b:1a:d5:0a:19:72:a2:07:
         ce:b9:fd:65:a2:fa:cb:17:3a:1b:a5:89:62:2b:9b:f5:cc:85:
         e0:f9:17:a8:e4:c0:95:48:61:8c:1a:95:5f:34:84:55:66:24:
         26:9a:6d:ac:38:68:27:ab:f5:6f:9f:c7:57:47:ee:03:bb:a1:
         d4:57:71:17:da:b6:5c:8b:a7:e8:75:e9:ba:ff:1f:fb:c3:da:
         b2:c8:07:a4:c4:0a:53:d8:45:71:20:aa:ff:4d:c1:3f:60:3c:
         3d:66:49:4b:93:df:d5:75:1c:97:57:db:d6:44:45:67:68:c5:
         bc:5f:e9:80:ef:40:81:99:69:8d:70:e8:2b:00:c1:08:42:7c:
         ec:a6:8d:63:ec:bf:c4:44:c7:78:d0:54:82:67:fa:c4:4e:dc:
         2e:5b:c5:c9:a9:a3:74:71:71:46:83:81:02:fa:ed:cb:89:3b:
         4a:44:15:e1:7a:32:52:d6:8c:1a:48:bc:d0:6e:22:60:16:f1:
         ab:86:1d:81:fc:7b:1d:6c:71:6e:93:3a:86:df:33:5b:7e:8d:
         0b:f0:1d:13:bd:f7:94:22:f0:b1:ae:af:9d:69:fd:3b:d6:4e:
         e7:4c:73:0c:12:08:ba:d0:c7:c9:28:c2:5e:70:a2:b2:f1:c8:
         ff:d3:b8:3c:7a:8c:c6:28
-----BEGIN CERTIFICATE-----
MIIDajCCAVKgAwIBAwIBATANBgkqhkiG9w0BAQUFADApMQswCQYDVQQGEwJCRTEa
MBgGA1UEAxMRdHhqc29ucnBjLXRlc3QtY2EwHhcNNzAwMTAxMDAwMDAwWhcNMzgw
MTE5MDMxNDA3WjA3MRAwDgYDVQQDEwdjYS10cnVlMQswCQYDVQQGEwJCRTEWMBQG
A1UEChMNR3JlbXdlbGwgYnZiYTCBnzANBgkqhkiG9w0BAQEFAAOBjQAwgYkCgYEA
3KHZGAElgOyodZylQwzpeyZeLAa652QRNnt2qyZa1EISHCKNguEw9zGDCVQqRE9C
YLoJA0Vb9DhoE1Bz06PIfcnpu8hDZu7JL4+TtJAoUgin+/ERoa+aygeATRHO2y7e
V7uLtcck3CZzMg+CNlS/HlMma+CBGU+oV/JdF3NP+CsCAwEAAaMTMBEwDwYDVR0T
AQH/BAUwAwEB/zANBgkqhkiG9w0BAQUFAAOCAgEAYh8LD+kJoUhOvh7WVkrrmqcT
niU95qgwXb43DevKEH89kTemKpCbQExBwtefJDe+bD34KI7/vpS1pi+5CVLeHqIq
mrLR9uXQY3VDBBm+hh9wnSScVUfx3wAyvhunC5+nPbPTjsbMIcijGHMi6xXY3h7d
Ba6qHemw/e7X5V91kFuBu7czpXJzNKAgUbh5/4GIfEgWedGXHY3U4IyAGfP5jZzK
bChHyYPzrYve70Y+oclwIq/AUEA5nMjnz52FCzkYUFQE1Kn15iTRf1XcJOK9VQwB
JGqYuMQxF7KqCPxVCMEA6mOU1YsbOtcScUH78UUiUU7k+MQs25NvRYC/uONh9Jb2
NipusJsa1QoZcqIHzrn9ZaL6yxc6G6WJYiub9cyF4PkXqOTAlUhhjBqVXzSEVWYk
JpptrDhoJ6v1b5/HV0fuA7uh1FdxF9q2XIun6HXpuv8f+8PassgHpMQKU9hFcSCq
/03BP2A8PWZJS5Pf1XUcl1fb1kRFZ2jFvF/pgO9AgZlpjXDoKwDBCEJ87KaNY+y/
xETHeNBUgmf6xE7cLlvFyamjdHFxRoOBAvrty4k7SkQV4XoyUtaMGki80G4iYBbx
q4Ydgfx7HWxxbpM6ht8zW36NC/AdE733lCLwsa6vnWn9O9ZO50xzDBIIutDHySjC
XnCisvHI/9O4PHqMxig=
-----END CERTIFICATE-----
