Certificate:
    Data:
        Version: 3 (0x2)
        Serial Number: 1 (0x1)
    Signature Algorithm: sha1WithRSAEncryption
        Issuer: CN=ca-false, C=BE, O=Gremwell bvba
        Validity
            Not Before: Jun 23 15:47:38 2012 GMT
            Not After : Jun 23 15:47:38 2013 GMT
        Subject: C=BE, CN=txjsonrpc-pyserver
        Subject Public Key Info:
            Public Key Algorithm: rsaEncryption
                Public-Key: (4096 bit)
                Modulus:
                    00:99:66:1d:c9:8f:e2:7f:65:ea:ab:c5:92:3c:da:
                    b5:33:f6:36:a0:82:a6:fe:d6:25:a6:8a:9b:4a:21:
                    05:54:ce:81:73:11:48:ba:ed:0a:2e:fd:72:93:a0:
                    81:1d:43:6c:c2:65:b3:c2:b8:f5:6b:65:87:e4:3a:
                    e1:27:4c:1d:34:98:b4:05:fd:6a:cb:cc:1c:4c:f4:
                    b9:e6:b5:6d:e7:85:c1:a5:de:1c:f6:84:bf:d2:82:
                    49:ae:2d:5d:30:3a:76:6d:65:d8:34:59:10:7b:2a:
                    aa:1c:6c:47:80:30:6c:56:d4:f5:e9:b6:64:f0:0c:
                    9a:20:d4:82:ed:15:5e:b7:11:66:01:8c:83:fa:c2:
                    d3:23:fa:f5:fc:e5:da:df:5a:77:c5:f0:86:96:3e:
                    9b:6e:0a:4e:50:4e:57:12:79:9f:8b:6b:38:1d:c3:
                    c5:d4:de:be:59:ca:38:ae:4f:dc:db:fc:61:1c:23:
                    49:c8:23:d4:32:19:ce:60:0c:28:36:c1:ef:00:ef:
                    98:59:72:48:3d:8c:04:32:b2:8f:17:5f:23:a3:35:
                    93:b7:12:a8:5b:68:b4:b7:aa:78:c7:8c:a4:a0:8c:
                    ae:86:b1:b6:5b:6e:63:d1:57:d2:44:f3:a5:7f:99:
                    c9:95:a4:a0:62:bb:79:8c:bd:e0:0c:d5:b4:06:42:
                    d5:d9:6c:86:ca:d6:c0:c1:bf:66:21:9c:f0:e2:b3:
                    01:56:cf:ad:75:98:f4:c5:42:d5:11:b6:2b:77:17:
                    7c:da:2e:da:4c:32:c5:75:4e:4f:b5:b7:c9:f8:dd:
                    93:57:a0:1a:2d:69:ed:76:8c:d4:5c:10:f2:4a:57:
                    5b:f1:1d:b6:77:a9:17:60:bd:84:b0:74:c6:7c:8f:
                    19:51:7c:60:ef:41:85:b7:97:93:09:17:7f:1d:91:
                    c0:3c:12:ef:c7:23:14:6a:ba:fa:f6:0c:15:3a:e0:
                    f2:5e:49:df:14:70:88:c0:e5:91:a7:55:2f:e1:f1:
                    09:c3:20:64:cf:5e:7f:12:10:16:9c:47:2e:43:3b:
                    55:5e:65:2e:f2:03:bd:b4:15:32:b2:2a:37:7d:1d:
                    23:1a:ea:55:99:39:c7:2f:9d:38:60:9e:1d:ad:6b:
                    b8:41:25:54:9d:dd:e6:32:4a:d4:a6:7f:5b:8a:0b:
                    c6:66:38:75:76:bd:41:42:c5:8a:56:40:40:fe:fa:
                    19:cf:c8:72:2c:33:77:52:23:2d:b5:56:74:fc:38:
                    28:31:2a:88:26:ac:cc:6e:e3:f0:24:38:0f:a3:1b:
                    56:c0:db:4b:8e:de:c3:e5:6f:81:4a:35:91:b1:b6:
                    c2:94:3c:23:49:ed:a4:a0:d5:f2:d1:d5:4d:42:92:
                    b9:51:5d
                Exponent: 65537 (0x10001)
        X509v3 extensions:
            X509v3 Basic Constraints: 
                CA:FALSE
            Netscape Cert Type: 
                SSL Server
            Netscape Comment: 
                TinyCA Generated Certificate
            X509v3 Subject Key Identifier: 
                26:8C:A5:F9:A6:4A:FE:4C:E8:0F:04:33:7E:04:26:28:BF:4C:92:F3
            X509v3 Authority Key Identifier: 
                keyid:9D:8F:84:76:94:CD:07:FE:A3:E8:8B:D7:F9:D9:6E:EF:CA:75:51:7B
                DirName:/C=BE/CN=txjsonrpc-test-ca
                serial:8D:D2:AF:37:F9:CA:92:0B

            X509v3 Issuer Alternative Name: 
                <EMPTY>

            X509v3 Subject Alternative Name: 
                <EMPTY>

    Signature Algorithm: sha1WithRSAEncryption
         03:91:a6:a9:c8:b0:be:e4:15:ea:36:19:67:0c:37:ac:1e:2d:
         fd:3f:69:5c:d2:e2:54:95:a4:83:4f:9d:58:82:3e:6e:ad:45:
         33:f4:7c:fa:0d:1c:f8:65:4b:3d:23:70:3e:f2:c7:0f:25:27:
         d8:a3:b6:e6:0f:45:be:61:c6:23:7d:ce:cc:14:d2:d5:d5:be:
         a8:65:e6:b4:fd:6f:71:74:1d:8d:02:c7:4c:47:07:aa:7f:cd:
         cc:a4:41:e4:0e:e5:ea:99:0c:19:66:61:d3:2d:4d:5c:47:ee:
         35:04:99:d5:66:c8:30:01:0d:df:62:b3:3b:6b:9f:df:8c:a6:
         ea:09
-----BEGIN CERTIFICATE-----
MIIEOzCCA6SgAwIBAgIBATANBgkqhkiG9w0BAQUFADA4MREwDwYDVQQDEwhjYS1m
YWxzZTELMAkGA1UEBhMCQkUxFjAUBgNVBAoTDUdyZW13ZWxsIGJ2YmEwHhcNMTIw
NjIzMTU0NzM4WhcNMTMwNjIzMTU0NzM4WjAqMQswCQYDVQQGEwJCRTEbMBkGA1UE
AxMSdHhqc29ucnBjLXB5c2VydmVyMIICIjANBgkqhkiG9w0BAQEFAAOCAg8AMIIC
CgKCAgEAmWYdyY/if2Xqq8WSPNq1M/Y2oIKm/tYlpoqbSiEFVM6BcxFIuu0KLv1y
k6CBHUNswmWzwrj1a2WH5DrhJ0wdNJi0Bf1qy8wcTPS55rVt54XBpd4c9oS/0oJJ
ri1dMDp2bWXYNFkQeyqqHGxHgDBsVtT16bZk8AyaINSC7RVetxFmAYyD+sLTI/r1
/OXa31p3xfCGlj6bbgpOUE5XEnmfi2s4HcPF1N6+Wco4rk/c2/xhHCNJyCPUMhnO
YAwoNsHvAO+YWXJIPYwEMrKPF18jozWTtxKoW2i0t6p4x4ykoIyuhrG2W25j0VfS
RPOlf5nJlaSgYrt5jL3gDNW0BkLV2WyGytbAwb9mIZzw4rMBVs+tdZj0xULVEbYr
dxd82i7aTDLFdU5PtbfJ+N2TV6AaLWntdozUXBDySldb8R22d6kXYL2EsHTGfI8Z
UXxg70GFt5eTCRd/HZHAPBLvxyMUarr69gwVOuDyXknfFHCIwOWRp1Uv4fEJwyBk
z15/EhAWnEcuQztVXmUu8gO9tBUysio3fR0jGupVmTnHL504YJ4drWu4QSVUnd3m
MkrUpn9bigvGZjh1dr1BQsWKVkBA/voZz8hyLDN3UiMttVZ0/DgoMSqIJqzMbuPw
JDgPoxtWwNtLjt7D5W+BSjWRsbbClDwjSe2koNXy0dVNQpK5UV0CAwEAAaOB3jCB
2zAJBgNVHRMEAjAAMBEGCWCGSAGG+EIBAQQEAwIGQDArBglghkgBhvhCAQ0EHhYc
VGlueUNBIEdlbmVyYXRlZCBDZXJ0aWZpY2F0ZTAdBgNVHQ4EFgQUJoyl+aZK/kzo
DwQzfgQmKL9MkvMwWQYDVR0jBFIwUIAUnY+EdpTNB/6j6IvX+dlu78p1UXuhLaQr
MCkxCzAJBgNVBAYTAkJFMRowGAYDVQQDExF0eGpzb25ycGMtdGVzdC1jYYIJAI3S
rzf5ypILMAkGA1UdEgQCMAAwCQYDVR0RBAIwADANBgkqhkiG9w0BAQUFAAOBgQAD
kaapyLC+5BXqNhlnDDesHi39P2lc0uJUlaSDT51Ygj5urUUz9Hz6DRz4ZUs9I3A+
8scPJSfYo7bmD0W+YcYjfc7MFNLV1b6oZea0/W9xdB2NAsdMRweqf83MpEHkDuXq
mQwZZmHTLU1cR+41BJnVZsgwAQ3fYrM7a5/fjKbqCQ==
-----END CERTIFICATE-----
Certificate:
    Data:
        Version: 4 (0x3)
        Serial Number: 1 (0x1)
    Signature Algorithm: sha1WithRSAEncryption
        Issuer: C=BE, CN=txjsonrpc-test-ca
        Validity
            Not Before: Jan  1 00:00:00 1970 GMT
            Not After : Jan 19 03:14:07 2038 GMT
        Subject: CN=ca-false, C=BE, O=Gremwell bvba
        Subject Public Key Info:
            Public Key Algorithm: rsaEncryption
                Public-Key: (1024 bit)
                Modulus:
                    00:9e:eb:73:33:2a:03:ae:53:f8:ca:ad:e7:d0:57:
                    52:c3:b2:b4:d9:b5:bf:7e:ec:2b:d6:b7:82:c0:be:
                    73:36:6a:20:fa:50:df:75:9b:ec:ca:00:6e:79:08:
                    85:7e:e5:df:da:a8:23:40:93:be:d8:4d:3b:44:6f:
                    a6:fa:7c:7f:e7:bc:d1:30:1c:3b:c1:54:ef:99:d0:
                    49:31:72:20:5b:d3:fa:1a:c0:e6:87:76:80:23:bc:
                    91:48:05:77:1f:47:ab:d6:5b:4c:b6:ba:bf:88:cd:
                    89:d7:9e:47:6d:83:fc:ed:52:3d:7c:83:5f:e9:97:
                    7d:1b:23:74:c2:7e:8c:1b:eb
                Exponent: 65537 (0x10001)
        X509v3 extensions:
            X509v3 Basic Constraints: critical
                CA:FALSE
    Signature Algorithm: sha1WithRSAEncryption
         42:a6:23:cc:58:61:0a:8f:61:36:21:e4:df:3d:3b:35:aa:d1:
         34:36:bc:9b:f4:bf:e4:b7:e4:62:8d:2a:dd:ff:d8:6c:86:5c:
         0c:36:6b:18:81:fa:e9:a8:3e:2a:be:5b:9a:b1:1c:42:49:20:
         5d:b9:20:ca:9b:47:38:ab:b3:42:56:0a:c3:28:ea:85:af:0b:
         85:92:74:68:61:75:c5:d6:38:c0:56:d9:f9:33:16:ec:9d:74:
         43:ee:88:78:a9:45:9e:e2:42:6b:ca:93:39:87:52:0c:97:02:
         f5:f8:da:dd:72:5a:e9:52:1f:1d:04:c7:02:db:8d:6a:48:6d:
         43:18:18:45:6e:db:66:b9:d0:22:a8:67:7b:f4:03:7a:fa:8f:
         60:d2:ce:f8:eb:6d:7d:05:d5:b5:11:d9:d2:fa:09:4a:56:86:
         87:19:8f:eb:f6:f7:5b:04:58:a4:ac:03:df:bb:36:cc:77:ce:
         11:43:6e:5d:c3:b7:fc:00:3e:37:08:8d:ef:71:41:6a:20:2a:
         e5:bd:bc:93:9d:df:29:fb:d3:4e:f3:1f:50:bf:2c:56:a7:e5:
         33:b0:4a:43:69:ba:f9:8a:1f:25:ef:c6:bf:78:d6:90:37:af:
         ce:58:2a:ad:b7:0a:db:96:d3:fe:b5:e3:75:f3:62:8d:c6:91:
         16:31:57:1a:e9:6b:99:7d:49:25:c8:58:16:cb:9c:ed:66:6f:
         4c:47:24:26:c5:d1:10:87:b2:cb:9d:44:70:31:70:e9:6a:7f:
         8f:cc:e2:74:de:5b:66:cf:aa:50:b4:3d:a1:8d:c4:05:2b:fd:
         af:9b:74:de:f5:fd:0c:9a:0b:3e:81:2b:e9:0f:06:f7:d7:40:
         a4:9e:1b:43:3f:2d:c8:14:7f:66:32:7b:09:9e:29:b1:2d:82:
         01:f4:69:49:df:1d:8c:f5:0e:8d:70:cd:9b:03:08:03:15:2b:
         04:b8:90:4a:e0:77:f7:b9:4d:e8:02:11:64:d0:7b:69:4b:45:
         81:f6:3a:59:ca:f7:30:d8:b3:55:68:03:30:92:ef:04:98:2c:
         e3:16:fd:65:1b:76:85:36:cd:7a:f3:b5:95:ff:c3:e7:4f:0d:
         a7:5b:81:0a:32:da:63:ef:7c:20:b5:b3:70:35:cf:ab:2a:fb:
         87:68:70:68:58:dc:8e:91:86:25:c4:1e:7c:5f:7c:e8:e9:0c:
         78:ac:4f:77:9d:20:7d:b4:73:6f:6b:5e:13:67:b8:10:f0:87:
         73:4f:f4:a9:1e:04:f3:36:56:98:95:a8:22:73:01:42:17:90:
         6e:65:ac:c4:7c:06:39:8e:55:75:b9:fa:84:a1:93:33:0c:95:
         c9:80:bc:d3:08:09:3d:ed
-----BEGIN CERTIFICATE-----
MIIDaDCCAVCgAwIBAwIBATANBgkqhkiG9w0BAQUFADApMQswCQYDVQQGEwJCRTEa
MBgGA1UEAxMRdHhqc29ucnBjLXRlc3QtY2EwHhcNNzAwMTAxMDAwMDAwWhcNMzgw
MTE5MDMxNDA3WjA4MREwDwYDVQQDEwhjYS1mYWxzZTELMAkGA1UEBhMCQkUxFjAU
BgNVBAoTDUdyZW13ZWxsIGJ2YmEwgZ8wDQYJKoZIhvcNAQEBBQADgY0AMIGJAoGB
AJ7rczMqA65T+Mqt59BXUsOytNm1v37sK9a3gsC+czZqIPpQ33Wb7MoAbnkIhX7l
39qoI0CTvthNO0Rvpvp8f+e80TAcO8FU75nQSTFyIFvT+hrA5od2gCO8kUgFdx9H
q9ZbTLa6v4jNideeR22D/O1SPXyDX+mXfRsjdMJ+jBvrAgMBAAGjEDAOMAwGA1Ud
EwEB/wQCMAAwDQYJKoZIhvcNAQEFBQADggIBAEKmI8xYYQqPYTYh5N89OzWq0TQ2
vJv0v+S35GKNKt3/2GyGXAw2axiB+umoPiq+W5qxHEJJIF25IMqbRzirs0JWCsMo
6oWvC4WSdGhhdcXWOMBW2fkzFuyddEPuiHipRZ7iQmvKkzmHUgyXAvX42t1yWulS
Hx0ExwLbjWpIbUMYGEVu22a50CKoZ3v0A3r6j2DSzvjrbX0F1bUR2dL6CUpWhocZ
j+v291sEWKSsA9+7Nsx3zhFDbl3Dt/wAPjcIje9xQWogKuW9vJOd3yn7007zH1C/
LFan5TOwSkNpuvmKHyXvxr941pA3r85YKq23CtuW0/6143XzYo3GkRYxVxrpa5l9
SSXIWBbLnO1mb0xHJCbF0RCHssudRHAxcOlqf4/M4nTeW2bPqlC0PaGNxAUr/a+b
dN71/QyaCz6BK+kPBvfXQKSeG0M/LcgUf2YyewmeKbEtggH0aUnfHYz1Do1wzZsD
CAMVKwS4kErgd/e5TegCEWTQe2lLRYH2OlnK9zDYs1VoAzCS7wSYLOMW/WUbdoU2
zXrztZX/w+dPDadbgQoy2mPvfCC1s3A1z6sq+4docGhY3I6RhiXEHnxffOjpDHis
T3edIH20c29rXhNnuBDwh3NP9KkeBPM2VpiVqCJzAUIXkG5lrMR8BjmOVXW5+oSh
kzMMlcmAvNMICT3t
-----END CERTIFICATE-----
