Certificate:
    Data:
        Version: 3 (0x2)
        Serial Number: 1 (0x1)
    Signature Algorithm: sha1WithRSAEncryption
        Issuer: C=BE, CN=txjsonrpc-test-ca
        Validity
            Not Before: Jun 23 15:47:38 2012 GMT
            Not After : Jun 23 15:47:38 2013 GMT
        Subject: C=BE, CN=txjsonrpc-pyserver
        Subject Public Key Info:
            Public Key Algorithm: rsaEncryption
                Public-Key: (4096 bit)
                Modulus:
                    00:99:66:1d:c9:8f:e2:7f:65:ea:ab:c5:92:3c:da:
                    b5:33:f6:36:a0:82:a6:fe:d6:25:a6:8a:9b:4a:21:
                    05:54:ce:81:73:11:48:ba:ed:0a:2e:fd:72:93:a0:
                    81:1d:43:6c:c2:65:b3:c2:b8:f5:6b:65:87:e4:3a:
                    e1:27:4c:1d:34:98:b4:05:fd:6a:cb:cc:1c:4c:f4:
                    b9:e6:b5:6d:e7:85:c1:a5:de:1c:f6:84:bf:d2:82:
                    49:ae:2d:5d:30:3a:76:6d:65:d8:34:59:10:7b:2a:
                    aa:1c:6c:47:80:30:6c:56:d4:f5:e9:b6:64:f0:0c:
                    9a:20:d4:82:ed:15:5e:b7:11:66:01:8c:83:fa:c2:
                    d3:23:fa:f5:fc:e5:da:df:5a:77:c5:f0:86:96:3e:
                    9b:6e:0a:4e:50:4e:57:12:79:9f:8b:6b:38:1d:c3:
                    c5:d4:de:be:59:ca:38:ae:4f:dc:db:fc:61:1c:23:
                    49:c8:23:d4:32:19:ce:60:0c:28:36:c1:ef:00:ef:
                    98:59:72:48:3d:8c:04:32:b2:8f:17:5f:23:a3:35:
                    93:b7:12:a8:5b:68:b4:b7:aa:78:c7:8c:a4:a0:8c:
                    ae:86:b1:b6:5b:6e:63:d1:57:d2:44:f3:a5:7f:99:
                    c9:95:a4:a0:62:bb:79:8c:bd:e0:0c:d5:b4:06:42:
                    d5:d9:6c:86:ca:d6:c0:c1:bf:66:21:9c:f0:e2:b3:
                    01:56:cf:ad:75:98:f4:c5:42:d5:11:b6:2b:77:17:
                    7c:da:2e:da:4c:32:c5:75:4e:4f:b5:b7:c9:f8:dd:
                    93:57:a0:1a:2d:69:ed:76:8c:d4:5c:10:f2:4a:57:
                    5b:f1:1d:b6:77:a9:17:60:bd:84:b0:74:c6:7c:8f:
                    19:51:7c:60:ef:41:85:b7:97:93:09:17:7f:1d:91:
                    c0:3c:12:ef:c7:23:14:6a:ba:fa:f6:0c:15:3a:e0:
                    f2:5e:49:df:14:70:88:c0:e5:91:a7:55:2f:e1:f1:
                    09:c3:20:64:cf:5e:7f:12:10:16:9c:47:2e:43:3b:
                    55:5e:65:2e:f2:03:bd:b4:15:32:b2:2a:37:7d:1d:
                    23:1a:ea:55:99:39:c7:2f:9d:38:60:9e:1d:ad:6b:
                    b8:41:25:54:9d:dd:e6:32:4a:d4:a6:7f:5b:8a:0b:
                    c6:66:38:75:76:bd:41:42:c5:8a:56:40:40:fe:fa:
                    19:cf:c8:72:2c:33:77:52:23:2d:b5:56:74:fc:38:
                    28:31:2a:88:26:ac:cc:6e:e3:f0:24:38:0f:a3:1b:
                    56:c0:db:4b:8e:de:c3:e5:6f:81:4a:35:91:b1:b6:
                    c2:94:3c:23:49:ed:a4:a0:d5:f2:d1:d5:4d:42:92:
                    b9:51:5d
                Exponent: 65537 (0x10001)
        X509v3 extensions:
            X509v3 Basic Constraints: 
                CA:FALSE
            Netscape Cert Type: 
                SSL Server
            Netscape Comment: 
                TinyCA Generated Certificate
            X509v3 Subject Key Identifier: 
                26:8C:A5:F9:A6:4A:FE:4C:E8:0F:04:33:7E:04:26:28:BF:4C:92:F3
            X509v3 Authority Key Identifier: 
                keyid:9D:8F:84:76:94:CD:07:FE:A3:E8:8B:D7:F9:D9:6E:EF:CA:75:51:7B
                DirName:/C=BE/CN=txjsonrpc-test-ca
                serial:8D:D2:AF:37:F9:CA:92:0B

            X509v3 Issuer Alternative Name: 
                <EMPTY>

            X509v3 Subject Alternative Name: 
                <EMPTY>

    Signature Algorithm: sha1WithRSAEncryption
         1e:95:4e:02:97:1a:9a:ea:98:4d:f8:a1:a5:ed:0c:e1:8a:97:
         19:a2:7a:7e:c7:d4:da:ef:a2:50:99:84:3d:c9:e7:47:0f:fb:
         f9:56:68:34:5b:6d:57:76:49:39:b3:95:25:3e:c4:b4:f5:66:
         08:f2:9c:11:23:71:26:de:50:7e:f1:db:fe:00:70:5c:dd:94:
         90:bf:85:fc:a1:b4:f8:95:03:a8:b2:24:e6:3d:b7:81:76:9d:
         e5:72:f7:d9:5b:6a:30:4a:50:3b:b0:c4:13:52:d2:34:d9:60:
         18:fc:01:46:8e:3a:d2:ae:f5:85:80:cf:e1:10:d6:c4:17:12:
         0c:ab:d8:90:06:94:4b:02:27:14:42:2a:83:06:e7:af:a1:2c:
         72:22:be:d8:e4:23:d7:47:67:75:f8:a8:05:04:87:c6:dd:c9:
         ea:ea:f0:05:13:13:f0:c2:21:c2:c3:cc:5b:64:15:eb:40:73:
         f9:0b:79:d3:3d:5f:43:aa:39:51:17:ac:26:ab:13:9d:92:60:
         7a:b8:c5:38:83:68:0a:a6:63:a6:e3:8d:04:c8:d5:d7:42:f9:
         8a:ae:35:01:fe:03:03:11:27:ba:43:ed:15:ec:ae:e7:0f:15:
         64:99:50:77:37:b4:59:ed:78:e8:65:60:eb:eb:6d:f2:15:87:
         8a:93:dc:22:4c:48:56:00:d6:6f:5c:7c:32:8a:a9:75:5a:1f:
         55:e3:22:7e:15:d2:68:74:0b:50:d4:e6:c2:9c:b1:88:23:cc:
         ea:1f:61:1b:4a:48:34:84:12:ca:4e:d7:9b:7a:e5:af:5c:e2:
         47:4d:fe:1c:cc:f9:4b:1e:61:74:6b:03:59:00:85:27:c5:87:
         36:c8:3e:da:c3:b8:4a:99:f7:dd:c9:c9:1d:80:bf:84:97:d5:
         84:da:80:de:a6:be:db:8e:2a:cf:d4:46:d7:c8:d6:75:9b:ee:
         89:36:58:1e:62:9c:eb:ce:55:73:93:48:6f:3f:6d:7b:0a:98:
         43:fc:23:b7:33:1a:60:7d:4c:78:0d:a6:3c:4a:2f:16:ca:4b:
         1b:8d:22:c2:5a:48:b5:89:39:36:df:6a:04:0f:fb:d5:fe:76:
         9b:06:a7:3f:d9:cb:77:a0:03:34:e0:11:ca:ec:72:11:08:04:
         da:a8:d7:15:27:4e:ae:03:59:c2:f3:b1:00:81:b4:8a:2b:93:
         b1:99:c2:c9:95:57:b2:60:50:2f:31:78:7a:1b:05:bf:63:21:
         b6:e1:3b:99:93:b8:dc:da:60:d8:de:10:f8:fb:c7:fc:39:13:
         47:d8:35:9c:1a:5b:bb:81:0b:c2:b8:4a:ed:29:6b:0c:ac:7a:
         14:57:43:46:ac:0d:4b:83
-----BEGIN CERTIFICATE-----
MIIFrTCCA5WgAwIBAgIBATANBgkqhkiG9w0BAQUFADApMQswCQYDVQQGEwJCRTEa
MBgGA1UEAxMRdHhqc29ucnBjLXRlc3QtY2EwHhcNMTIwNjIzMTU0NzM4WhcNMTMw
NjIzMTU0NzM4WjAqMQswCQYDVQQGEwJCRTEbMBkGA1UEAxMSdHhqc29ucnBjLXB5
c2VydmVyMIICIjANBgkqhkiG9w0BAQEFAAOCAg8AMIICCgKCAgEAmWYdyY/if2Xq
q8WSPNq1M/Y2oIKm/tYlpoqbSiEFVM6BcxFIuu0KLv1yk6CBHUNswmWzwrj1a2WH
5DrhJ0wdNJi0Bf1qy8wcTPS55rVt54XBpd4c9oS/0oJJri1dMDp2bWXYNFkQeyqq
HGxHgDBsVtT16bZk8AyaINSC7RVetxFmAYyD+sLTI/r1/OXa31p3xfCGlj6bbgpO
UE5XEnmfi2s4HcPF1N6+Wco4rk/c2/xhHCNJyCPUMhnOYAwoNsHvAO+YWXJIPYwE
MrKPF18jozWTtxKoW2i0t6p4x4ykoIyuhrG2W25j0VfSRPOlf5nJlaSgYrt5jL3g
DNW0BkLV2WyGytbAwb9mIZzw4rMBVs+tdZj0xULVEbYrdxd82i7aTDLFdU5PtbfJ
+N2TV6AaLWntdozUXBDySldb8R22d6kXYL2EsHTGfI8ZUXxg70GFt5eTCRd/HZHA
PBLvxyMUarr69gwVOuDyXknfFHCIwOWRp1Uv4fEJwyBkz15/EhAWnEcuQztVXmUu
8gO9tBUysio3fR0jGupVmTnHL504YJ4drWu4QSVUnd3mMkrUpn9bigvGZjh1dr1B
QsWKVkBA/voZz8hyLDN3UiMttVZ0/DgoMSqIJqzMbuPwJDgPoxtWwNtLjt7D5W+B
SjWRsbbClDwjSe2koNXy0dVNQpK5UV0CAwEAAaOB3jCB2zAJBgNVHRMEAjAAMBEG
CWCGSAGG+EIBAQQEAwIGQDArBglghkgBhvhCAQ0EHhYcVGlueUNBIEdlbmVyYXRl
ZCBDZXJ0aWZpY2F0ZTAdBgNVHQ4EFgQUJoyl+aZK/kzoDwQzfgQmKL9MkvMwWQYD
VR0jBFIwUIAUnY+EdpTNB/6j6IvX+dlu78p1UXuhLaQrMCkxCzAJBgNVBAYTAkJF
MRowGAYDVQQDExF0eGpzb25ycGMtdGVzdC1jYYIJAI3Srzf5ypILMAkGA1UdEgQC
MAAwCQYDVR0RBAIwADANBgkqhkiG9w0BAQUFAAOCAgEAHpVOApcamuqYTfihpe0M
4YqXGaJ6fsfU2u+iUJmEPcnnRw/7+VZoNFttV3ZJObOVJT7EtPVmCPKcESNxJt5Q
fvHb/gBwXN2UkL+F/KG0+JUDqLIk5j23gXad5XL32VtqMEpQO7DEE1LSNNlgGPwB
Ro460q71hYDP4RDWxBcSDKvYkAaUSwInFEIqgwbnr6EsciK+2OQj10dndfioBQSH
xt3J6urwBRMT8MIhwsPMW2QV60Bz+Qt50z1fQ6o5UResJqsTnZJgerjFOINoCqZj
puONBMjV10L5iq41Af4DAxEnukPtFeyu5w8VZJlQdze0We146GVg6+tt8hWHipPc
IkxIVgDWb1x8MoqpdVofVeMifhXSaHQLUNTmwpyxiCPM6h9hG0pINIQSyk7Xm3rl
r1ziR03+HMz5Sx5hdGsDWQCFJ8WHNsg+2sO4Spn33cnJHYC/hJfVhNqA3qa+244q
z9RG18jWdZvuiTZYHmKc685Vc5NIbz9tewqYQ/wjtzMaYH1MeA2mPEovFspLG40i
wlpItYk5Nt9qBA/71f52mwanP9nLd6ADNOARyuxyEQgE2qjXFSdOrgNZwvOxAIG0
iiuTsZnCyZVXsmBQLzF4ehsFv2MhtuE7mZO43Npg2N4Q+PvH/DkTR9g1nBpbu4EL
wrhK7SlrDKx6FFdDRqwNS4M=
-----END CERTIFICATE-----
Certificate:
    Data:
        Version: 3 (0x2)
        Serial Number: 10219423159405941259 (0x8dd2af37f9ca920b)
    Signature Algorithm: sha1WithRSAEncryption
        Issuer: C=BE, CN=txjsonrpc-test-ca
        Validity
            Not Before: Jun 23 15:46:37 2012 GMT
            Not After : Jun 21 15:46:37 2022 GMT
        Subject: C=BE, CN=txjsonrpc-test-ca
        Subject Public Key Info:
            Public Key Algorithm: rsaEncryption
                Public-Key: (4096 bit)
                Modulus:
                    00:d1:25:af:77:c5:a8:72:cf:90:b9:39:10:fb:7b:
                    75:2c:a1:da:6a:95:e5:44:0c:d6:25:4b:58:7f:bb:
                    07:82:59:49:58:32:85:24:cc:3e:77:db:e1:a7:4f:
                    c8:b5:cb:ee:45:38:bd:bc:fb:e3:76:3b:88:04:ca:
                    ab:3a:a3:96:3b:5f:93:9c:28:a6:61:97:dc:a2:3f:
                    a0:93:2b:56:6c:cf:d3:4f:6a:9e:05:d3:1c:cd:ef:
                    75:80:1a:98:b7:92:49:14:33:b8:c4:7c:73:8c:7e:
                    83:a5:81:a2:59:8c:8b:a3:51:36:6d:68:ac:f2:f1:
                    ed:6f:49:d9:af:7a:63:c1:43:31:42:b6:c7:cd:b9:
                    78:b7:33:98:70:92:6c:9e:04:7a:7b:f0:6d:38:87:
                    eb:00:13:17:b9:d9:ec:b4:66:bb:51:d3:fd:81:e3:
                    0e:88:71:23:d2:80:2a:61:de:ab:25:02:47:a9:c1:
                    6b:c9:69:ae:da:47:b6:49:74:ac:a6:e1:c1:76:ba:
                    6d:b1:d9:68:6e:1c:37:a8:e2:18:60:37:b6:58:13:
                    6c:c7:92:7c:c6:45:8c:ef:c3:81:73:10:dc:2f:31:
                    e2:b9:05:5a:9e:28:70:5a:3e:1d:b8:68:71:81:c9:
                    e8:fe:1f:c3:a0:13:f8:e4:24:12:ba:91:8e:15:d2:
                    03:f1:8c:b0:aa:e2:34:e4:6b:f8:06:f6:23:8a:92:
                    43:a6:05:dc:e9:c7:a5:a8:06:d7:6e:91:52:72:47:
                    ab:ae:87:fe:b3:0f:04:87:6f:4b:22:29:e9:a9:06:
                    52:58:7d:03:16:d7:d5:31:44:b4:f1:51:44:a7:2a:
                    ba:5e:09:19:ec:4c:a2:e0:58:fe:0d:4e:b7:90:4d:
                    02:ac:2a:ad:99:14:65:3b:0a:3c:73:45:56:b2:0f:
                    10:25:24:51:79:57:1a:34:1a:10:6f:60:e0:fc:81:
                    db:ca:c2:e2:85:1b:4c:72:13:5c:9d:76:cc:d0:21:
                    33:31:56:82:8f:c5:57:b9:44:fd:8b:76:c1:b6:e4:
                    21:8b:35:9a:ee:54:74:9f:72:6b:19:84:d7:a2:3c:
                    a5:6e:11:0a:f1:93:04:2e:dd:7c:4c:7d:62:10:d4:
                    1b:8b:87:f6:ed:bf:12:b1:8b:f0:9a:7a:ee:02:94:
                    e1:3c:46:2b:7f:9c:54:fb:2e:61:c9:1c:ef:fc:de:
                    25:bc:2d:75:1b:1f:49:5e:44:3b:15:93:ad:c4:89:
                    d9:ae:3c:da:54:ef:d9:af:3a:16:cb:94:1b:6a:14:
                    e4:42:f9:75:33:46:6e:fb:40:bc:f8:82:36:cf:60:
                    f5:c2:a2:98:23:a7:2a:ae:c1:aa:22:f8:87:da:b7:
                    9c:a4:cf
                Exponent: 65537 (0x10001)
        X509v3 extensions:
            X509v3 Subject Key Identifier: 
                9D:8F:84:76:94:CD:07:FE:A3:E8:8B:D7:F9:D9:6E:EF:CA:75:51:7B
            X509v3 Authority Key Identifier: 
                keyid:9D:8F:84:76:94:CD:07:FE:A3:E8:8B:D7:F9:D9:6E:EF:CA:75:51:7B
                DirName:/C=BE/CN=txjsonrpc-test-ca
                serial:8D:D2:AF:37:F9:CA:92:0B

            X509v3 Basic Constraints: critical
                CA:TRUE
            Netscape Cert Type: 
                SSL CA, S/MIME CA
            X509v3 Issuer Alternative Name: 
                <EMPTY>

            Netscape Comment: 
                Test CA for txjsonrcp
            X509v3 Subject Alternative Name: 
                <EMPTY>

            X509v3 Key Usage: critical
                Certificate Sign, CRL Sign
    Signature Algorithm: sha1WithRSAEncryption
         06:82:86:81:a9:1b:7e:2d:ef:f5:fc:cc:d2:9d:d6:82:ad:d0:
         6f:7e:3d:b9:5c:b2:0f:3a:64:21:9a:fb:53:b2:93:81:dc:1a:
         24:fc:b8:30:57:a2:c7:71:0d:9c:1a:0b:8a:6c:89:52:8b:8a:
         f5:af:95:3e:b8:08:39:ee:36:50:ac:60:4d:df:2b:49:a2:72:
         f1:3f:12:3c:d9:55:56:a4:9a:77:2b:77:fa:16:b5:76:d9:f4:
         c4:51:6b:b9:fe:2f:a3:52:e8:64:80:49:22:6d:05:42:87:af:
         9d:85:6c:fa:c9:9b:48:39:7b:89:f5:a0:1e:ff:11:d3:9c:78:
         b1:b2:f6:4d:b1:e8:b3:98:23:2c:d4:20:e1:a1:01:3e:26:0a:
         5b:8e:eb:58:45:22:cf:e1:94:ad:84:40:b0:fb:ff:25:5f:31:
         9a:49:0b:36:ad:c6:1a:b0:42:60:40:e2:a2:3c:5a:36:41:89:
         fc:10:c4:60:ea:d4:85:7b:36:84:df:aa:81:cc:69:e7:52:ca:
         c1:46:b1:79:93:51:4f:24:84:42:14:3a:20:a0:6c:27:76:40:
         0f:96:7e:4e:c3:0c:37:b3:e3:73:49:86:58:31:00:1e:e7:0f:
         87:74:b6:4e:6e:1c:7d:87:a4:33:04:c9:76:ec:e5:3a:85:5f:
         a8:d1:ad:21:64:5e:c5:6a:df:b1:02:6e:65:a4:87:72:06:07:
         da:e5:f2:af:2b:a5:eb:18:80:67:83:a5:3c:e6:ed:d1:58:f9:
         90:5c:d6:e9:2f:76:c1:58:13:b8:bd:88:8a:f3:04:48:bb:42:
         8f:7f:c6:db:b4:30:3f:bb:6c:d5:47:e5:ae:8d:4b:da:92:a5:
         db:d3:6e:a8:9b:c2:6b:56:af:34:63:82:e6:78:f8:1f:54:d7:
         41:aa:a3:c9:7c:a6:83:41:bf:6e:33:7c:ae:e6:92:bd:da:27:
         b4:bc:e2:90:4f:33:1b:01:a1:cd:02:13:7a:31:ef:00:d6:9a:
         6e:38:6b:a7:cb:70:98:a8:0f:ff:1c:56:a8:b7:e6:d2:42:5a:
         bb:f4:78:27:71:13:d0:e8:43:eb:bc:2d:4f:e4:ea:4d:4f:76:
         7f:53:38:34:eb:13:e2:3d:c6:14:98:86:1c:ab:2c:0e:b7:68:
         2e:bd:63:a9:6a:8f:d5:22:2d:ab:13:d7:62:54:51:ff:5c:37:
         08:04:27:da:f9:57:77:05:18:73:88:5f:b0:c1:65:50:36:09:
         d6:c7:f5:ae:6e:3f:04:d1:84:3c:21:74:1d:bd:0a:fb:76:d0:
         13:2b:62:bb:24:48:43:89:d0:18:5c:b4:ad:ea:98:af:6d:fc:
         1c:6b:1f:06:64:54:23:88
-----BEGIN CERTIFICATE-----
MIIFwzCCA6ugAwIBAgIJAI3Srzf5ypILMA0GCSqGSIb3DQEBBQUAMCkxCzAJBgNV
BAYTAkJFMRowGAYDVQQDExF0eGpzb25ycGMtdGVzdC1jYTAeFw0xMjA2MjMxNTQ2
MzdaFw0yMjA2MjExNTQ2MzdaMCkxCzAJBgNVBAYTAkJFMRowGAYDVQQDExF0eGpz
b25ycGMtdGVzdC1jYTCCAiIwDQYJKoZIhvcNAQEBBQADggIPADCCAgoCggIBANEl
r3fFqHLPkLk5EPt7dSyh2mqV5UQM1iVLWH+7B4JZSVgyhSTMPnfb4adPyLXL7kU4
vbz743Y7iATKqzqjljtfk5wopmGX3KI/oJMrVmzP009qngXTHM3vdYAamLeSSRQz
uMR8c4x+g6WBolmMi6NRNm1orPLx7W9J2a96Y8FDMUK2x825eLczmHCSbJ4Eenvw
bTiH6wATF7nZ7LRmu1HT/YHjDohxI9KAKmHeqyUCR6nBa8lprtpHtkl0rKbhwXa6
bbHZaG4cN6jiGGA3tlgTbMeSfMZFjO/DgXMQ3C8x4rkFWp4ocFo+HbhocYHJ6P4f
w6AT+OQkErqRjhXSA/GMsKriNORr+Ab2I4qSQ6YF3OnHpagG126RUnJHq66H/rMP
BIdvSyIp6akGUlh9AxbX1TFEtPFRRKcqul4JGexMouBY/g1Ot5BNAqwqrZkUZTsK
PHNFVrIPECUkUXlXGjQaEG9g4PyB28rC4oUbTHITXJ12zNAhMzFWgo/FV7lE/Yt2
wbbkIYs1mu5UdJ9yaxmE16I8pW4RCvGTBC7dfEx9YhDUG4uH9u2/ErGL8Jp67gKU
4TxGK3+cVPsuYckc7/zeJbwtdRsfSV5EOxWTrcSJ2a482lTv2a86FsuUG2oU5EL5
dTNGbvtAvPiCNs9g9cKimCOnKq7BqiL4h9q3nKTPAgMBAAGjge0wgeowHQYDVR0O
BBYEFJ2PhHaUzQf+o+iL1/nZbu/KdVF7MFkGA1UdIwRSMFCAFJ2PhHaUzQf+o+iL
1/nZbu/KdVF7oS2kKzApMQswCQYDVQQGEwJCRTEaMBgGA1UEAxMRdHhqc29ucnBj
LXRlc3QtY2GCCQCN0q83+cqSCzAPBgNVHRMBAf8EBTADAQH/MBEGCWCGSAGG+EIB
AQQEAwIBBjAJBgNVHRIEAjAAMCQGCWCGSAGG+EIBDQQXFhVUZXN0IENBIGZvciB0
eGpzb25yY3AwCQYDVR0RBAIwADAOBgNVHQ8BAf8EBAMCAQYwDQYJKoZIhvcNAQEF
BQADggIBAAaChoGpG34t7/X8zNKd1oKt0G9+Pblcsg86ZCGa+1Oyk4HcGiT8uDBX
osdxDZwaC4psiVKLivWvlT64CDnuNlCsYE3fK0micvE/EjzZVVakmncrd/oWtXbZ
9MRRa7n+L6NS6GSASSJtBUKHr52FbPrJm0g5e4n1oB7/EdOceLGy9k2x6LOYIyzU
IOGhAT4mCluO61hFIs/hlK2EQLD7/yVfMZpJCzatxhqwQmBA4qI8WjZBifwQxGDq
1IV7NoTfqoHMaedSysFGsXmTUU8khEIUOiCgbCd2QA+Wfk7DDDez43NJhlgxAB7n
D4d0tk5uHH2HpDMEyXbs5TqFX6jRrSFkXsVq37ECbmWkh3IGB9rl8q8rpesYgGeD
pTzm7dFY+ZBc1ukvdsFYE7i9iIrzBEi7Qo9/xtu0MD+7bNVH5a6NS9qSpdvTbqib
wmtWrzRjguZ4+B9U10Gqo8l8poNBv24zfK7mkr3aJ7S84pBPMxsBoc0CE3ox7wDW
mm44a6fLcJioD/8cVqi35tJCWrv0eCdxE9DoQ+u8LU/k6k1Pdn9TODTrE+I9xhSY
hhyrLA63aC69Y6lqj9UiLasT12JUUf9cNwgEJ9r5V3cFGHOIX7DBZVA2CdbH9a5u
PwTRhDwhdB29Cvt20BMrYrskSEOJ0BhctK3qmK9t/BxrHwZkVCOI
-----END CERTIFICATE-----
