Certificate:
    Data:
        Version: 4 (0x3)
        Serial Number: 1 (0x1)
    Signature Algorithm: sha1WithRSAEncryption
        Issuer: CN=ca-none, C=BE, O=Gremwell bvba
        Validity
            Not Before: Jan  1 00:00:00 1970 GMT
            Not After : Jan 19 03:14:07 2038 GMT
        Subject: CN=blah-com, C=BE, O=Gremwell bvba
        Subject Public Key Info:
            Public Key Algorithm: rsaEncryption
                Public-Key: (1024 bit)
                Modulus:
                    00:fa:ca:95:b8:ae:2a:58:05:8f:8f:98:84:c2:41:
                    f3:29:32:8e:a9:96:ba:09:05:e1:02:7d:b4:4f:87:
                    6a:26:48:a3:da:e5:8f:15:fb:b3:a7:3f:a0:3a:c2:
                    f9:92:35:d4:78:a0:cb:40:84:fb:08:8a:17:72:0b:
                    c1:f5:d7:e0:13:c2:a2:77:e0:cf:05:30:34:aa:e0:
                    78:e8:46:1c:c0:13:d4:0d:b6:4a:f0:0e:c9:c6:41:
                    88:e5:09:aa:7b:1a:44:b3:63:dd:70:4a:cd:3d:54:
                    c5:be:e9:d4:e0:ad:a5:cd:02:5b:6a:81:06:5b:41:
                    60:78:0e:de:c3:ae:8e:28:0d
                Exponent: 65537 (0x10001)
    Signature Algorithm: sha1WithRSAEncryption
         2a:15:f6:9f:e8:e0:b9:6e:3f:e3:ba:fb:25:d7:a8:0d:98:93:
         3c:d7:cd:aa:13:b9:bf:67:b4:b0:c3:c8:44:c8:e0:b5:2c:59:
         ec:07:74:94:0d:a5:e9:ca:a8:72:a6:50:83:b8:ed:8a:54:ea:
         3f:8a:5d:f1:66:73:21:41:5c:57:5d:b0:d6:eb:a5:1e:b0:9b:
         27:6d:c7:ab:6c:2d:fe:7c:01:69:99:d8:3e:0b:07:71:ed:c2:
         e9:b8:a0:89:37:c9:2e:f2:3c:d0:33:11:50:a1:d9:07:7c:a4:
         a2:59:50:43:12:15:27:b5:32:5f:bb:75:84:c1:b1:6b:93:6a:
         b5:cf
-----BEGIN CERTIFICATE-----
MIIB4zCCAUygAwIBAwIBATANBgkqhkiG9w0BAQUFADA3MRAwDgYDVQQDEwdjYS1u
b25lMQswCQYDVQQGEwJCRTEWMBQGA1UEChMNR3JlbXdlbGwgYnZiYTAeFw03MDAx
MDEwMDAwMDBaFw0zODAxMTkwMzE0MDdaMDgxETAPBgNVBAMTCGJsYWgtY29tMQsw
CQYDVQQGEwJCRTEWMBQGA1UEChMNR3JlbXdlbGwgYnZiYTCBnzANBgkqhkiG9w0B
AQEFAAOBjQAwgYkCgYEA+sqVuK4qWAWPj5iEwkHzKTKOqZa6CQXhAn20T4dqJkij
2uWPFfuzpz+gOsL5kjXUeKDLQIT7CIoXcgvB9dfgE8Kid+DPBTA0quB46EYcwBPU
DbZK8A7JxkGI5QmqexpEs2PdcErNPVTFvunU4K2lzQJbaoEGW0FgeA7ew66OKA0C
AwEAATANBgkqhkiG9w0BAQUFAAOBgQAqFfaf6OC5bj/juvsl16gNmJM8182qE7m/
Z7Sww8hEyOC1LFnsB3SUDaXpyqhyplCDuO2KVOo/il3xZnMhQVxXXbDW66UesJsn
bcerbC3+fAFpmdg+Cwdx7cLpuKCJN8ku8jzQMxFQodkHfKSiWVBDEhUntTJfu3WE
wbFrk2q1zw==
-----END CERTIFICATE-----
Certificate:
    Data:
        Version: 4 (0x3)
        Serial Number: 1 (0x1)
    Signature Algorithm: sha1WithRSAEncryption
        Issuer: C=BE, CN=txjsonrpc-test-ca
        Validity
            Not Before: Jan  1 00:00:00 1970 GMT
            Not After : Jan 19 03:14:07 2038 GMT
        Subject: CN=ca-none, C=BE, O=Gremwell bvba
        Subject Public Key Info:
            Public Key Algorithm: rsaEncryption
                Public-Key: (1024 bit)
                Modulus:
                    00:e0:0f:25:d9:d0:d1:ee:92:64:d2:99:f7:0f:e0:
                    5d:90:2b:59:5b:cf:00:34:ae:72:19:0c:88:15:4d:
                    58:39:bd:71:68:88:3b:2c:99:a2:5a:fc:59:2f:6b:
                    29:1a:79:15:7a:64:a4:fc:1b:92:76:58:d2:fa:c5:
                    6a:ed:87:8f:00:97:74:17:83:67:7b:8e:0e:78:31:
                    3e:4a:c5:6f:09:13:5d:4f:34:f5:ce:d1:86:d1:f3:
                    9b:54:2c:b6:ad:63:c3:b9:cc:cc:cb:be:7f:ab:d5:
                    cd:ee:1f:21:4f:f9:e2:88:cb:f6:3d:8e:07:08:81:
                    d3:d4:ff:66:aa:18:d3:dd:d7
                Exponent: 65537 (0x10001)
    Signature Algorithm: sha1WithRSAEncryption
         c5:c8:33:93:df:65:b7:a2:a5:42:86:cd:9e:d4:00:19:1e:ef:
         78:84:08:0e:64:e8:d1:c5:b8:6b:c4:ac:ed:ba:5a:dd:d0:25:
         ac:52:36:c6:bf:b0:1d:94:8d:5e:b2:4b:8d:f1:b8:55:65:2c:
         12:dc:39:78:7c:4b:8a:d7:e2:d7:d4:05:17:17:af:65:3f:67:
         3d:73:03:d2:ba:80:09:80:e0:89:bd:6a:b2:df:31:a2:33:06:
         2e:33:f0:62:02:6b:9a:e9:0a:f3:c8:5b:78:3f:bb:90:f4:79:
         a8:71:56:3c:57:4c:37:1f:e6:d8:13:3a:b0:60:21:7f:9c:ba:
         02:5e:98:12:3e:44:eb:d1:d5:d1:1e:17:8f:ea:79:fb:0d:0e:
         ab:dd:f6:51:c4:22:37:a3:6f:49:a6:b2:23:e8:7d:34:b8:00:
         50:f6:8b:4d:69:eb:80:26:ac:0d:84:93:4d:0f:b3:94:0f:d8:
         e5:12:22:39:99:d3:a4:b2:b8:1b:f0:7f:7e:bc:31:4f:b9:20:
         ad:b8:f8:3a:d6:6f:dc:2b:f7:ba:54:98:99:9e:da:91:fb:0e:
         51:ce:d9:0d:d7:a7:bb:40:b2:fa:1b:c6:a1:98:58:bc:98:3e:
         72:c3:06:ce:05:e1:5e:42:02:50:e7:8e:e8:d5:66:5d:b2:70:
         cc:19:51:72:9a:8e:cd:5a:94:98:dc:58:5f:4a:49:24:6c:17:
         71:6b:24:99:33:62:1b:f6:1a:e8:a2:3c:2e:57:d9:ba:be:89:
         e8:c4:2d:2d:de:bb:8d:47:8d:6b:58:b6:40:9c:6a:7b:19:6f:
         51:65:76:21:31:84:2a:f2:42:4f:1f:26:99:e8:36:3a:93:0b:
         36:c7:a6:60:54:cd:9d:13:1f:fe:bc:77:ce:9e:1d:b2:16:69:
         0b:4f:5c:d2:2f:e2:cd:b3:bc:72:11:f3:99:50:6d:53:a7:c0:
         5f:e0:a1:2a:a6:2d:c7:41:0b:fa:e4:b4:34:46:ee:10:f9:62:
         c7:a1:08:27:54:d2:ce:05:ef:f1:5a:bb:c9:8e:b8:84:45:86:
         c0:41:19:38:e0:13:8d:d1:06:4b:5f:b9:e0:e2:87:f4:53:6d:
         4d:23:ff:b6:c9:ac:85:4c:f3:22:4b:ef:80:51:92:10:57:aa:
         0b:f6:ab:cc:7d:17:84:8d:d3:76:c7:58:d9:73:dc:8d:fb:ae:
         55:43:43:c0:10:e5:f9:f5:e6:49:03:9d:31:f8:1a:1b:a9:3c:
         20:1f:9c:3d:67:ef:11:b3:e8:fc:a2:b6:f2:9d:2b:d6:65:10:
         cd:7c:55:e0:ae:29:b7:6c:37:6e:61:84:f4:66:80:17:98:da:
         4a:09:f4:a8:30:25:f1:cb
-----BEGIN CERTIFICATE-----
MIIDVTCCAT2gAwIBAwIBATANBgkqhkiG9w0BAQUFADApMQswCQYDVQQGEwJCRTEa
MBgGA1UEAxMRdHhqc29ucnBjLXRlc3QtY2EwHhcNNzAwMTAxMDAwMDAwWhcNMzgw
MTE5MDMxNDA3WjA3MRAwDgYDVQQDEwdjYS1ub25lMQswCQYDVQQGEwJCRTEWMBQG
A1UEChMNR3JlbXdlbGwgYnZiYTCBnzANBgkqhkiG9w0BAQEFAAOBjQAwgYkCgYEA
4A8l2dDR7pJk0pn3D+BdkCtZW88ANK5yGQyIFU1YOb1xaIg7LJmiWvxZL2spGnkV
emSk/BuSdljS+sVq7YePAJd0F4Nne44OeDE+SsVvCRNdTzT1ztGG0fObVCy2rWPD
uczMy75/q9XN7h8hT/niiMv2PY4HCIHT1P9mqhjT3dcCAwEAATANBgkqhkiG9w0B
AQUFAAOCAgEAxcgzk99lt6KlQobNntQAGR7veIQIDmTo0cW4a8Ss7bpa3dAlrFI2
xr+wHZSNXrJLjfG4VWUsEtw5eHxLitfi19QFFxevZT9nPXMD0rqACYDgib1qst8x
ojMGLjPwYgJrmukK88hbeD+7kPR5qHFWPFdMNx/m2BM6sGAhf5y6Al6YEj5E69HV
0R4Xj+p5+w0Oq932UcQiN6NvSaayI+h9NLgAUPaLTWnrgCasDYSTTQ+zlA/Y5RIi
OZnTpLK4G/B/frwxT7kgrbj4OtZv3Cv3ulSYmZ7akfsOUc7ZDdenu0Cy+hvGoZhY
vJg+csMGzgXhXkICUOeO6NVmXbJwzBlRcpqOzVqUmNxYX0pJJGwXcWskmTNiG/Ya
6KI8LlfZur6J6MQtLd67jUeNa1i2QJxqexlvUWV2ITGEKvJCTx8mmeg2OpMLNsem
YFTNnRMf/rx3zp4dshZpC09c0i/izbO8chHzmVBtU6fAX+ChKqYtx0EL+uS0NEbu
EPlix6EIJ1TSzgXv8Vq7yY64hEWGwEEZOOATjdEGS1+54OKH9FNtTSP/tsmshUzz
IkvvgFGSEFeqC/arzH0XhI3TdsdY2XPcjfuuVUNDwBDl+fXmSQOdMfgaG6k8IB+c
PWfvEbPo/KK28p0r1mUQzXxV4K4pt2w3bmGE9GaAF5jaSgn0qDAl8cs=
-----END CERTIFICATE-----
