Certificate:
    Data:
        Version: 4 (0x3)
        Serial Number: 1 (0x1)
    Signature Algorithm: sha1WithRSAEncryption
        Issuer: CN=ca-none, C=BE, O=Gremwell bvba
        Validity
            Not Before: Jan  1 00:00:00 1970 GMT
            Not After : Jan 19 03:14:07 2038 GMT
        Subject: CN=www.example.com, C=BE, O=Gremwell bvba
        Subject Public Key Info:
            Public Key Algorithm: rsaEncryption
                Public-Key: (1024 bit)
                Modulus:
                    00:a8:36:b3:9a:94:5c:56:c2:2c:e0:32:63:63:87:
                    f5:f0:aa:97:ae:1b:48:e3:8b:3f:52:79:1d:6b:43:
                    67:f0:2c:fc:20:6c:a3:bd:be:44:7e:ce:34:59:d9:
                    03:1d:5e:2c:ee:94:1b:f9:05:8f:47:9f:84:92:bf:
                    d7:4d:9b:e3:ad:0e:21:2b:b5:5f:6f:59:a2:1e:d9:
                    73:5f:0e:18:70:11:8a:f2:00:9d:ec:1b:be:b4:63:
                    6f:c0:cb:14:2c:36:ff:75:03:32:ea:ca:62:21:56:
                    69:2c:f5:2b:80:ac:83:94:55:48:b0:7d:da:08:55:
                    21:fb:95:62:20:7a:5b:47:0b
                Exponent: 65537 (0x10001)
    Signature Algorithm: sha1WithRSAEncryption
         56:8b:ea:37:91:23:2b:94:9b:21:6e:2b:54:cd:a0:f2:92:37:
         47:53:52:07:a1:f7:b1:38:1a:6e:cd:d7:58:f4:b0:e8:75:c0:
         bf:e0:30:e9:67:f9:69:ba:36:7d:f5:03:93:5e:bc:9b:b7:7c:
         f1:22:08:1b:ba:db:39:8c:f6:57:fd:7b:a0:0b:52:28:d2:23:
         ac:a7:9c:32:ac:e4:9f:07:1e:9e:46:7d:27:57:0e:1f:3c:e5:
         19:17:ef:f2:cb:5e:8e:f6:87:76:c2:5e:f2:e6:1c:cd:3c:78:
         88:ad:7c:24:b8:41:f5:52:04:8d:9a:20:5e:e6:dc:46:8e:55:
         9b:47
-----BEGIN CERTIFICATE-----
MIIB6jCCAVOgAwIBAwIBATANBgkqhkiG9w0BAQUFADA3MRAwDgYDVQQDEwdjYS1u
b25lMQswCQYDVQQGEwJCRTEWMBQGA1UEChMNR3JlbXdlbGwgYnZiYTAeFw03MDAx
MDEwMDAwMDBaFw0zODAxMTkwMzE0MDdaMD8xGDAWBgNVBAMTD3d3dy5leGFtcGxl
LmNvbTELMAkGA1UEBhMCQkUxFjAUBgNVBAoTDUdyZW13ZWxsIGJ2YmEwgZ8wDQYJ
KoZIhvcNAQEBBQADgY0AMIGJAoGBAKg2s5qUXFbCLOAyY2OH9fCql64bSOOLP1J5
HWtDZ/As/CBso72+RH7ONFnZAx1eLO6UG/kFj0efhJK/102b460OISu1X29Zoh7Z
c18OGHARivIAnewbvrRjb8DLFCw2/3UDMurKYiFWaSz1K4Csg5RVSLB92ghVIfuV
YiB6W0cLAgMBAAEwDQYJKoZIhvcNAQEFBQADgYEAVovqN5EjK5SbIW4rVM2g8pI3
R1NSB6H3sTgabs3XWPSw6HXAv+Aw6Wf5abo2ffUDk168m7d88SIIG7rbOYz2V/17
oAtSKNIjrKecMqzknwcenkZ9J1cOHzzlGRfv8stejvaHdsJe8uYczTx4iK18JLhB
9VIEjZogXubcRo5Vm0c=
-----END CERTIFICATE-----
Certificate:
    Data:
        Version: 4 (0x3)
        Serial Number: 1 (0x1)
    Signature Algorithm: sha1WithRSAEncryption
        Issuer: C=BE, CN=txjsonrpc-test-ca
        Validity
            Not Before: Jan  1 00:00:00 1970 GMT
            Not After : Jan 19 03:14:07 2038 GMT
        Subject: CN=ca-none, C=BE, O=Gremwell bvba
        Subject Public Key Info:
            Public Key Algorithm: rsaEncryption
                Public-Key: (1024 bit)
                Modulus:
                    00:9d:ef:8d:88:94:37:34:6e:5e:88:99:c7:da:06:
                    c1:13:f7:d4:14:55:4b:5f:de:a5:42:b6:ad:d7:f6:
                    f0:37:55:e8:2f:32:e7:8d:a0:4f:61:fb:91:72:a8:
                    b8:46:a5:cc:ee:a0:0d:5a:8d:cd:8a:61:6b:bf:d4:
                    8a:96:80:96:e8:ec:b7:56:e2:ad:17:a4:4b:f8:e4:
                    22:bc:c8:38:8a:70:5e:1d:96:94:3b:7d:99:ef:06:
                    92:e4:0e:8d:d7:b6:64:0f:73:2a:4b:9e:9c:61:99:
                    38:c7:34:9f:7a:35:cd:04:84:9f:ef:94:56:ad:89:
                    4d:cb:f3:36:17:b1:1d:db:93
                Exponent: 65537 (0x10001)
    Signature Algorithm: sha1WithRSAEncryption
         32:44:6d:8b:ff:2f:fc:c8:4f:15:9a:18:a6:fb:18:55:4b:9d:
         ca:9c:eb:80:42:55:e7:aa:23:dd:a3:83:0b:4d:03:04:51:f4:
         06:4a:8f:49:ed:5f:da:b2:87:89:b8:17:f8:39:30:91:62:de:
         2b:03:99:7d:56:e3:5a:f3:24:bf:c2:cc:05:56:5a:72:b2:9d:
         c7:3e:d3:f3:38:9e:8e:60:65:ed:b4:be:5f:a6:63:4f:cc:d7:
         43:dc:4a:40:cf:a5:01:2a:a6:b4:a9:93:63:c7:b2:76:8f:f1:
         4a:0b:5c:bc:e2:40:09:3f:c9:8a:53:9b:fa:f7:a1:a5:2b:c9:
         18:2a:79:bd:04:92:38:ff:ed:ae:2c:3a:77:5a:52:f4:2a:03:
         dc:1c:7b:ac:b7:ea:5d:b7:a3:38:93:c4:45:6f:ef:f5:a0:80:
         e2:7c:bd:f1:13:85:99:8b:d0:5e:67:8e:dd:19:7b:4f:0b:4f:
         a4:fe:ea:d3:fb:3e:8f:2c:c5:de:37:95:01:20:ad:79:d9:b5:
         6a:85:1c:ee:db:a1:a8:60:30:1f:76:f4:57:c8:16:18:9c:e4:
         3f:a4:e6:32:af:6d:b3:0f:38:08:77:b2:4f:72:84:44:14:89:
         22:db:be:48:c9:af:63:7e:fa:0e:47:9a:ab:60:bf:5f:0f:b6:
         91:73:f2:1b:41:ae:34:25:03:ea:c8:2f:14:42:32:8c:2b:ab:
         89:76:5a:cf:34:8a:cb:bf:a5:d6:66:08:8e:d2:c9:86:5e:9f:
         2e:e9:4d:56:f7:ae:27:16:6e:ee:52:38:e8:0b:79:8a:df:cf:
         3a:c3:ef:40:c6:7e:6c:73:fa:7b:ec:08:67:d5:db:52:f1:c2:
         c7:d9:a6:96:b5:b4:73:7a:f8:e3:7c:ac:6a:45:62:42:59:bb:
         93:79:82:cd:89:a8:18:15:09:e4:6e:6d:31:1d:51:dd:8f:14:
         55:09:c7:4c:1a:98:0b:a3:08:59:35:1c:60:1e:11:43:21:65:
         ea:fb:1d:90:c7:51:a6:48:ea:c2:f0:0b:5a:c0:13:38:70:76:
         6a:ad:5e:e4:09:e8:d8:62:13:7a:f3:ea:0b:2b:83:58:b6:b3:
         11:23:9e:2e:2d:20:d7:bb:96:19:90:91:0c:7e:6b:22:a8:08:
         9a:84:3b:2a:a5:25:40:94:60:fc:9d:fa:4f:30:6c:58:15:f9:
         ee:57:b9:52:bf:0c:7e:ee:e1:79:0d:87:b3:2a:34:8a:b4:36:
         0c:76:6b:dd:ff:2c:b6:c8:9f:5b:55:5e:88:8c:fc:4b:d3:46:
         dc:34:cd:1e:55:b8:5f:8f:f8:26:ce:c5:1c:d2:40:fc:5a:7e:
         10:4b:b6:38:2b:1f:b7:77
-----BEGIN CERTIFICATE-----
MIIDVTCCAT2gAwIBAwIBATANBgkqhkiG9w0BAQUFADApMQswCQYDVQQGEwJCRTEa
MBgGA1UEAxMRdHhqc29ucnBjLXRlc3QtY2EwHhcNNzAwMTAxMDAwMDAwWhcNMzgw
MTE5MDMxNDA3WjA3MRAwDgYDVQQDEwdjYS1ub25lMQswCQYDVQQGEwJCRTEWMBQG
A1UEChMNR3JlbXdlbGwgYnZiYTCBnzANBgkqhkiG9w0BAQEFAAOBjQAwgYkCgYEA
ne+NiJQ3NG5eiJnH2gbBE/fUFFVLX96lQrat1/bwN1XoLzLnjaBPYfuRcqi4RqXM
7qANWo3NimFrv9SKloCW6Oy3VuKtF6RL+OQivMg4inBeHZaUO32Z7waS5A6N17Zk
D3MqS56cYZk4xzSfejXNBISf75RWrYlNy/M2F7Ed25MCAwEAATANBgkqhkiG9w0B
AQUFAAOCAgEAMkRti/8v/MhPFZoYpvsYVUudypzrgEJV56oj3aODC00DBFH0BkqP
Se1f2rKHibgX+DkwkWLeKwOZfVbjWvMkv8LMBVZacrKdxz7T8ziejmBl7bS+X6Zj
T8zXQ9xKQM+lASqmtKmTY8eydo/xSgtcvOJACT/JilOb+vehpSvJGCp5vQSSOP/t
riw6d1pS9CoD3Bx7rLfqXbejOJPERW/v9aCA4ny98ROFmYvQXmeO3Rl7TwtPpP7q
0/s+jyzF3jeVASCtedm1aoUc7tuhqGAwH3b0V8gWGJzkP6TmMq9tsw84CHeyT3KE
RBSJItu+SMmvY376Dkeaq2C/Xw+2kXPyG0GuNCUD6sgvFEIyjCuriXZazzSKy7+l
1mYIjtLJhl6fLulNVveuJxZu7lI46At5it/POsPvQMZ+bHP6e+wIZ9XbUvHCx9mm
lrW0c3r443ysakViQlm7k3mCzYmoGBUJ5G5tMR1R3Y8UVQnHTBqYC6MIWTUcYB4R
QyFl6vsdkMdRpkjqwvALWsATOHB2aq1e5Ano2GITevPqCyuDWLazESOeLi0g17uW
GZCRDH5rIqgImoQ7KqUlQJRg/J36TzBsWBX57le5Ur8Mfu7heQ2Hsyo0irQ2DHZr
3f8stsifW1VeiIz8S9NG3DTNHlW4X4/4Js7FHNJA/Fp+EEu2OCsft3c=
-----END CERTIFICATE-----
