Certificate:
    Data:
        Version: 4 (0x3)
        Serial Number: 1 (0x1)
    Signature Algorithm: sha1WithRSAEncryption
        Issuer: C=BE, CN=txjsonrpc-test-ca
        Validity
            Not Before: Jan  1 00:00:00 1970 GMT
            Not After : Jan 19 03:14:07 2038 GMT
        Subject: CN=ca-none, C=BE, O=Gremwell bvba
        Subject Public Key Info:
            Public Key Algorithm: rsaEncryption
                Public-Key: (1024 bit)
                Modulus:
                    00:d8:35:e4:a2:33:43:d1:c3:73:e0:e1:bf:9f:12:
                    89:83:17:88:a6:bd:a1:5b:77:23:75:0f:99:72:51:
                    5c:2c:bf:91:1c:5e:47:86:ba:ad:70:b9:20:03:3f:
                    57:06:50:1b:73:56:aa:d6:1b:0e:fd:51:14:0b:16:
                    bc:fc:0e:66:56:a2:14:12:0b:a3:e3:7e:24:20:14:
                    03:4e:d1:79:3a:16:2f:eb:99:07:11:bd:ea:90:39:
                    e9:bb:48:46:61:da:2f:4b:26:c9:73:43:85:5f:40:
                    5d:a7:77:47:dd:c6:be:45:d0:81:47:f1:bf:44:42:
                    e2:30:3c:50:96:0f:55:78:d5
                Exponent: 65537 (0x10001)
    Signature Algorithm: sha1WithRSAEncryption
         bc:49:27:d8:a8:05:56:65:55:8a:00:bf:14:33:5c:61:30:c7:
         a8:a6:52:3e:9b:fd:eb:9d:57:50:c1:12:a0:17:3d:94:45:4a:
         7b:ff:13:5b:c9:9d:c7:65:4a:d3:fe:cc:72:bd:5a:fa:95:29:
         26:ca:59:b1:0c:76:cc:dd:9c:60:1d:a3:73:35:09:90:52:b8:
         a0:a8:44:c5:ef:c5:fe:d6:1d:03:84:76:51:57:ff:dd:4b:1b:
         ad:82:68:3c:ef:7a:b2:8e:7e:da:82:71:1b:93:48:92:43:64:
         ca:08:c2:1c:ed:17:74:fe:aa:97:a9:05:b2:82:f7:0c:47:b5:
         60:cf:72:69:04:f1:3a:38:41:84:6a:49:1b:84:0c:32:06:ec:
         2e:8e:67:f2:6e:db:a1:0b:24:c5:2b:11:7a:04:d3:f3:0d:9d:
         97:99:3f:ac:51:ee:db:7b:76:01:3c:dd:6c:cd:f3:a9:75:2a:
         dd:d9:b9:10:14:74:ed:ca:2c:86:a5:4f:dd:e8:7c:89:65:d4:
         b9:78:8d:cf:cf:cd:33:48:a7:51:e3:a7:aa:6a:fd:c9:be:cf:
         ae:1c:96:7b:43:22:a5:a0:3d:ec:c0:84:e3:e1:70:9c:58:ac:
         72:a9:dd:a6:2c:49:0b:be:57:cd:95:91:0f:ac:7b:ed:b1:7e:
         fd:66:c3:13:3d:98:eb:ee:0e:17:21:85:22:e4:19:ce:6d:63:
         19:8a:b5:54:66:e9:f0:e4:e7:a0:0a:9f:f3:f4:2a:b8:fa:29:
         5d:f0:e7:21:5b:77:f6:a5:90:39:a5:46:5d:5b:20:4d:c6:ad:
         99:38:60:14:76:18:68:00:de:dc:89:70:02:b4:a2:06:b7:18:
         f4:1f:98:02:f2:a8:f7:17:6c:09:21:65:7b:99:e4:17:36:f0:
         07:34:bc:89:af:a5:fa:5a:f0:29:0c:3f:78:a3:6c:e2:49:90:
         3c:f9:4b:ec:3b:01:92:f4:79:46:61:9a:d1:fa:34:bb:3e:0d:
         00:30:29:72:95:f0:16:0d:11:e1:8d:3c:d4:f9:4e:47:bb:b8:
         17:f5:53:8a:80:e8:39:9e:e7:7b:d6:2a:48:72:51:df:39:b6:
         cc:96:c4:9b:dd:c3:ed:fa:8e:11:96:01:fc:a7:e7:41:9a:45:
         ed:d5:11:f4:57:85:c4:c3:87:3f:31:c3:6f:3e:18:a2:04:e6:
         66:0b:32:95:41:40:d5:80:07:9c:93:d3:87:4b:60:63:36:39:
         b9:c2:d1:78:3a:a4:02:5b:5c:0c:c9:67:a4:63:38:a0:19:66:
         e1:a6:13:d3:7d:b2:04:e0:6a:9a:c2:2b:01:89:0f:fb:0f:72:
         82:7a:af:17:69:e4:2c:f6
-----BEGIN CERTIFICATE-----
MIIDVTCCAT2gAwIBAwIBATANBgkqhkiG9w0BAQUFADApMQswCQYDVQQGEwJCRTEa
MBgGA1UEAxMRdHhqc29ucnBjLXRlc3QtY2EwHhcNNzAwMTAxMDAwMDAwWhcNMzgw
MTE5MDMxNDA3WjA3MRAwDgYDVQQDEwdjYS1ub25lMQswCQYDVQQGEwJCRTEWMBQG
A1UEChMNR3JlbXdlbGwgYnZiYTCBnzANBgkqhkiG9w0BAQEFAAOBjQAwgYkCgYEA
2DXkojND0cNz4OG/nxKJgxeIpr2hW3cjdQ+ZclFcLL+RHF5HhrqtcLkgAz9XBlAb
c1aq1hsO/VEUCxa8/A5mVqIUEguj434kIBQDTtF5OhYv65kHEb3qkDnpu0hGYdov
SybJc0OFX0Bdp3dH3ca+RdCBR/G/RELiMDxQlg9VeNUCAwEAATANBgkqhkiG9w0B
AQUFAAOCAgEAvEkn2KgFVmVVigC/FDNcYTDHqKZSPpv9651XUMESoBc9lEVKe/8T
W8mdx2VK0/7Mcr1a+pUpJspZsQx2zN2cYB2jczUJkFK4oKhExe/F/tYdA4R2UVf/
3UsbrYJoPO96so5+2oJxG5NIkkNkygjCHO0XdP6ql6kFsoL3DEe1YM9yaQTxOjhB
hGpJG4QMMgbsLo5n8m7boQskxSsRegTT8w2dl5k/rFHu23t2ATzdbM3zqXUq3dm5
EBR07coshqVP3eh8iWXUuXiNz8/NM0inUeOnqmr9yb7PrhyWe0MipaA97MCE4+Fw
nFiscqndpixJC75XzZWRD6x77bF+/WbDEz2Y6+4OFyGFIuQZzm1jGYq1VGbp8OTn
oAqf8/QquPopXfDnIVt39qWQOaVGXVsgTcatmThgFHYYaADe3IlwArSiBrcY9B+Y
AvKo9xdsCSFle5nkFzbwBzS8ia+l+lrwKQw/eKNs4kmQPPlL7DsBkvR5RmGa0fo0
uz4NADApcpXwFg0R4Y081PlOR7u4F/VTioDoOZ7ne9YqSHJR3zm2zJbEm93D7fqO
EZYB/KfnQZpF7dUR9FeFxMOHPzHDbz4YogTmZgsylUFA1YAHnJPTh0tgYzY5ucLR
eDqkAltcDMlnpGM4oBlm4aYT032yBOBqmsIrAYkP+w9ygnqvF2nkLPY=
-----END CERTIFICATE-----
Certificate:
    Data:
        Version: 3 (0x2)
        Serial Number: 10219423159405941259 (0x8dd2af37f9ca920b)
    Signature Algorithm: sha1WithRSAEncryption
        Issuer: C=BE, CN=txjsonrpc-test-ca
        Validity
            Not Before: Jun 23 15:46:37 2012 GMT
            Not After : Jun 21 15:46:37 2022 GMT
        Subject: C=BE, CN=txjsonrpc-test-ca
        Subject Public Key Info:
            Public Key Algorithm: rsaEncryption
                Public-Key: (4096 bit)
                Modulus:
                    00:d1:25:af:77:c5:a8:72:cf:90:b9:39:10:fb:7b:
                    75:2c:a1:da:6a:95:e5:44:0c:d6:25:4b:58:7f:bb:
                    07:82:59:49:58:32:85:24:cc:3e:77:db:e1:a7:4f:
                    c8:b5:cb:ee:45:38:bd:bc:fb:e3:76:3b:88:04:ca:
                    ab:3a:a3:96:3b:5f:93:9c:28:a6:61:97:dc:a2:3f:
                    a0:93:2b:56:6c:cf:d3:4f:6a:9e:05:d3:1c:cd:ef:
                    75:80:1a:98:b7:92:49:14:33:b8:c4:7c:73:8c:7e:
                    83:a5:81:a2:59:8c:8b:a3:51:36:6d:68:ac:f2:f1:
                    ed:6f:49:d9:af:7a:63:c1:43:31:42:b6:c7:cd:b9:
                    78:b7:33:98:70:92:6c:9e:04:7a:7b:f0:6d:38:87:
                    eb:00:13:17:b9:d9:ec:b4:66:bb:51:d3:fd:81:e3:
                    0e:88:71:23:d2:80:2a:61:de:ab:25:02:47:a9:c1:
                    6b:c9:69:ae:da:47:b6:49:74:ac:a6:e1:c1:76:ba:
                    6d:b1:d9:68:6e:1c:37:a8:e2:18:60:37:b6:58:13:
                    6c:c7:92:7c:c6:45:8c:ef:c3:81:73:10:dc:2f:31:
                    e2:b9:05:5a:9e:28:70:5a:3e:1d:b8:68:71:81:c9:
                    e8:fe:1f:c3:a0:13:f8:e4:24:12:ba:91:8e:15:d2:
                    03:f1:8c:b0:aa:e2:34:e4:6b:f8:06:f6:23:8a:92:
                    43:a6:05:dc:e9:c7:a5:a8:06:d7:6e:91:52:72:47:
                    ab:ae:87:fe:b3:0f:04:87:6f:4b:22:29:e9:a9:06:
                    52:58:7d:03:16:d7:d5:31:44:b4:f1:51:44:a7:2a:
                    ba:5e:09:19:ec:4c:a2:e0:58:fe:0d:4e:b7:90:4d:
                    02:ac:2a:ad:99:14:65:3b:0a:3c:73:45:56:b2:0f:
                    10:25:24:51:79:57:1a:34:1a:10:6f:60:e0:fc:81:
                    db:ca:c2:e2:85:1b:4c:72:13:5c:9d:76:cc:d0:21:
                    33:31:56:82:8f:c5:57:b9:44:fd:8b:76:c1:b6:e4:
                    21:8b:35:9a:ee:54:74:9f:72:6b:19:84:d7:a2:3c:
                    a5:6e:11:0a:f1:93:04:2e:dd:7c:4c:7d:62:10:d4:
                    1b:8b:87:f6:ed:bf:12:b1:8b:f0:9a:7a:ee:02:94:
                    e1:3c:46:2b:7f:9c:54:fb:2e:61:c9:1c:ef:fc:de:
                    25:bc:2d:75:1b:1f:49:5e:44:3b:15:93:ad:c4:89:
                    d9:ae:3c:da:54:ef:d9:af:3a:16:cb:94:1b:6a:14:
                    e4:42:f9:75:33:46:6e:fb:40:bc:f8:82:36:cf:60:
                    f5:c2:a2:98:23:a7:2a:ae:c1:aa:22:f8:87:da:b7:
                    9c:a4:cf
                Exponent: 65537 (0x10001)
        X509v3 extensions:
            X509v3 Subject Key Identifier: 
                9D:8F:84:76:94:CD:07:FE:A3:E8:8B:D7:F9:D9:6E:EF:CA:75:51:7B
            X509v3 Authority Key Identifier: 
                keyid:9D:8F:84:76:94:CD:07:FE:A3:E8:8B:D7:F9:D9:6E:EF:CA:75:51:7B
                DirName:/C=BE/CN=txjsonrpc-test-ca
                serial:8D:D2:AF:37:F9:CA:92:0B

            X509v3 Basic Constraints: critical
                CA:TRUE
            Netscape Cert Type: 
                SSL CA, S/MIME CA
            X509v3 Issuer Alternative Name: 
                <EMPTY>

            Netscape Comment: 
                Test CA for txjsonrcp
            X509v3 Subject Alternative Name: 
                <EMPTY>

            X509v3 Key Usage: critical
                Certificate Sign, CRL Sign
    Signature Algorithm: sha1WithRSAEncryption
         06:82:86:81:a9:1b:7e:2d:ef:f5:fc:cc:d2:9d:d6:82:ad:d0:
         6f:7e:3d:b9:5c:b2:0f:3a:64:21:9a:fb:53:b2:93:81:dc:1a:
         24:fc:b8:30:57:a2:c7:71:0d:9c:1a:0b:8a:6c:89:52:8b:8a:
         f5:af:95:3e:b8:08:39:ee:36:50:ac:60:4d:df:2b:49:a2:72:
         f1:3f:12:3c:d9:55:56:a4:9a:77:2b:77:fa:16:b5:76:d9:f4:
         c4:51:6b:b9:fe:2f:a3:52:e8:64:80:49:22:6d:05:42:87:af:
         9d:85:6c:fa:c9:9b:48:39:7b:89:f5:a0:1e:ff:11:d3:9c:78:
         b1:b2:f6:4d:b1:e8:b3:98:23:2c:d4:20:e1:a1:01:3e:26:0a:
         5b:8e:eb:58:45:22:cf:e1:94:ad:84:40:b0:fb:ff:25:5f:31:
         9a:49:0b:36:ad:c6:1a:b0:42:60:40:e2:a2:3c:5a:36:41:89:
         fc:10:c4:60:ea:d4:85:7b:36:84:df:aa:81:cc:69:e7:52:ca:
         c1:46:b1:79:93:51:4f:24:84:42:14:3a:20:a0:6c:27:76:40:
         0f:96:7e:4e:c3:0c:37:b3:e3:73:49:86:58:31:00:1e:e7:0f:
         87:74:b6:4e:6e:1c:7d:87:a4:33:04:c9:76:ec:e5:3a:85:5f:
         a8:d1:ad:21:64:5e:c5:6a:df:b1:02:6e:65:a4:87:72:06:07:
         da:e5:f2:af:2b:a5:eb:18:80:67:83:a5:3c:e6:ed:d1:58:f9:
         90:5c:d6:e9:2f:76:c1:58:13:b8:bd:88:8a:f3:04:48:bb:42:
         8f:7f:c6:db:b4:30:3f:bb:6c:d5:47:e5:ae:8d:4b:da:92:a5:
         db:d3:6e:a8:9b:c2:6b:56:af:34:63:82:e6:78:f8:1f:54:d7:
         41:aa:a3:c9:7c:a6:83:41:bf:6e:33:7c:ae:e6:92:bd:da:27:
         b4:bc:e2:90:4f:33:1b:01:a1:cd:02:13:7a:31:ef:00:d6:9a:
         6e:38:6b:a7:cb:70:98:a8:0f:ff:1c:56:a8:b7:e6:d2:42:5a:
         bb:f4:78:27:71:13:d0:e8:43:eb:bc:2d:4f:e4:ea:4d:4f:76:
         7f:53:38:34:eb:13:e2:3d:c6:14:98:86:1c:ab:2c:0e:b7:68:
         2e:bd:63:a9:6a:8f:d5:22:2d:ab:13:d7:62:54:51:ff:5c:37:
         08:04:27:da:f9:57:77:05:18:73:88:5f:b0:c1:65:50:36:09:
         d6:c7:f5:ae:6e:3f:04:d1:84:3c:21:74:1d:bd:0a:fb:76:d0:
         13:2b:62:bb:24:48:43:89:d0:18:5c:b4:ad:ea:98:af:6d:fc:
         1c:6b:1f:06:64:54:23:88
-----BEGIN CERTIFICATE-----
MIIFwzCCA6ugAwIBAgIJAI3Srzf5ypILMA0GCSqGSIb3DQEBBQUAMCkxCzAJBgNV
BAYTAkJFMRowGAYDVQQDExF0eGpzb25ycGMtdGVzdC1jYTAeFw0xMjA2MjMxNTQ2
MzdaFw0yMjA2MjExNTQ2MzdaMCkxCzAJBgNVBAYTAkJFMRowGAYDVQQDExF0eGpz
b25ycGMtdGVzdC1jYTCCAiIwDQYJKoZIhvcNAQEBBQADggIPADCCAgoCggIBANEl
r3fFqHLPkLk5EPt7dSyh2mqV5UQM1iVLWH+7B4JZSVgyhSTMPnfb4adPyLXL7kU4
vbz743Y7iATKqzqjljtfk5wopmGX3KI/oJMrVmzP009qngXTHM3vdYAamLeSSRQz
uMR8c4x+g6WBolmMi6NRNm1orPLx7W9J2a96Y8FDMUK2x825eLczmHCSbJ4Eenvw
bTiH6wATF7nZ7LRmu1HT/YHjDohxI9KAKmHeqyUCR6nBa8lprtpHtkl0rKbhwXa6
bbHZaG4cN6jiGGA3tlgTbMeSfMZFjO/DgXMQ3C8x4rkFWp4ocFo+HbhocYHJ6P4f
w6AT+OQkErqRjhXSA/GMsKriNORr+Ab2I4qSQ6YF3OnHpagG126RUnJHq66H/rMP
BIdvSyIp6akGUlh9AxbX1TFEtPFRRKcqul4JGexMouBY/g1Ot5BNAqwqrZkUZTsK
PHNFVrIPECUkUXlXGjQaEG9g4PyB28rC4oUbTHITXJ12zNAhMzFWgo/FV7lE/Yt2
wbbkIYs1mu5UdJ9yaxmE16I8pW4RCvGTBC7dfEx9YhDUG4uH9u2/ErGL8Jp67gKU
4TxGK3+cVPsuYckc7/zeJbwtdRsfSV5EOxWTrcSJ2a482lTv2a86FsuUG2oU5EL5
dTNGbvtAvPiCNs9g9cKimCOnKq7BqiL4h9q3nKTPAgMBAAGjge0wgeowHQYDVR0O
BBYEFJ2PhHaUzQf+o+iL1/nZbu/KdVF7MFkGA1UdIwRSMFCAFJ2PhHaUzQf+o+iL
1/nZbu/KdVF7oS2kKzApMQswCQYDVQQGEwJCRTEaMBgGA1UEAxMRdHhqc29ucnBj
LXRlc3QtY2GCCQCN0q83+cqSCzAPBgNVHRMBAf8EBTADAQH/MBEGCWCGSAGG+EIB
AQQEAwIBBjAJBgNVHRIEAjAAMCQGCWCGSAGG+EIBDQQXFhVUZXN0IENBIGZvciB0
eGpzb25yY3AwCQYDVR0RBAIwADAOBgNVHQ8BAf8EBAMCAQYwDQYJKoZIhvcNAQEF
BQADggIBAAaChoGpG34t7/X8zNKd1oKt0G9+Pblcsg86ZCGa+1Oyk4HcGiT8uDBX
osdxDZwaC4psiVKLivWvlT64CDnuNlCsYE3fK0micvE/EjzZVVakmncrd/oWtXbZ
9MRRa7n+L6NS6GSASSJtBUKHr52FbPrJm0g5e4n1oB7/EdOceLGy9k2x6LOYIyzU
IOGhAT4mCluO61hFIs/hlK2EQLD7/yVfMZpJCzatxhqwQmBA4qI8WjZBifwQxGDq
1IV7NoTfqoHMaedSysFGsXmTUU8khEIUOiCgbCd2QA+Wfk7DDDez43NJhlgxAB7n
D4d0tk5uHH2HpDMEyXbs5TqFX6jRrSFkXsVq37ECbmWkh3IGB9rl8q8rpesYgGeD
pTzm7dFY+ZBc1ukvdsFYE7i9iIrzBEi7Qo9/xtu0MD+7bNVH5a6NS9qSpdvTbqib
wmtWrzRjguZ4+B9U10Gqo8l8poNBv24zfK7mkr3aJ7S84pBPMxsBoc0CE3ox7wDW
mm44a6fLcJioD/8cVqi35tJCWrv0eCdxE9DoQ+u8LU/k6k1Pdn9TODTrE+I9xhSY
hhyrLA63aC69Y6lqj9UiLasT12JUUf9cNwgEJ9r5V3cFGHOIX7DBZVA2CdbH9a5u
PwTRhDwhdB29Cvt20BMrYrskSEOJ0BhctK3qmK9t/BxrHwZkVCOI
-----END CERTIFICATE-----
