Certificate:
    Data:
        Version: 4 (0x3)
        Serial Number: 1 (0x1)
    Signature Algorithm: sha1WithRSAEncryption
        Issuer: C=BE, CN=txjsonrpc-test-ca
        Validity
            Not Before: Jan  1 00:00:00 1970 GMT
            Not After : Jan 19 03:14:07 2038 GMT
        Subject: CN=ca-none, C=BE, O=Gremwell bvba
        Subject Public Key Info:
            Public Key Algorithm: rsaEncryption
                Public-Key: (1024 bit)
                Modulus:
                    00:e0:0f:25:d9:d0:d1:ee:92:64:d2:99:f7:0f:e0:
                    5d:90:2b:59:5b:cf:00:34:ae:72:19:0c:88:15:4d:
                    58:39:bd:71:68:88:3b:2c:99:a2:5a:fc:59:2f:6b:
                    29:1a:79:15:7a:64:a4:fc:1b:92:76:58:d2:fa:c5:
                    6a:ed:87:8f:00:97:74:17:83:67:7b:8e:0e:78:31:
                    3e:4a:c5:6f:09:13:5d:4f:34:f5:ce:d1:86:d1:f3:
                    9b:54:2c:b6:ad:63:c3:b9:cc:cc:cb:be:7f:ab:d5:
                    cd:ee:1f:21:4f:f9:e2:88:cb:f6:3d:8e:07:08:81:
                    d3:d4:ff:66:aa:18:d3:dd:d7
                Exponent: 65537 (0x10001)
    Signature Algorithm: sha1WithRSAEncryption
         c5:c8:33:93:df:65:b7:a2:a5:42:86:cd:9e:d4:00:19:1e:ef:
         78:84:08:0e:64:e8:d1:c5:b8:6b:c4:ac:ed:ba:5a:dd:d0:25:
         ac:52:36:c6:bf:b0:1d:94:8d:5e:b2:4b:8d:f1:b8:55:65:2c:
         12:dc:39:78:7c:4b:8a:d7:e2:d7:d4:05:17:17:af:65:3f:67:
         3d:73:03:d2:ba:80:09:80:e0:89:bd:6a:b2:df:31:a2:33:06:
         2e:33:f0:62:02:6b:9a:e9:0a:f3:c8:5b:78:3f:bb:90:f4:79:
         a8:71:56:3c:57:4c:37:1f:e6:d8:13:3a:b0:60:21:7f:9c:ba:
         02:5e:98:12:3e:44:eb:d1:d5:d1:1e:17:8f:ea:79:fb:0d:0e:
         ab:dd:f6:51:c4:22:37:a3:6f:49:a6:b2:23:e8:7d:34:b8:00:
         50:f6:8b:4d:69:eb:80:26:ac:0d:84:93:4d:0f:b3:94:0f:d8:
         e5:12:22:39:99:d3:a4:b2:b8:1b:f0:7f:7e:bc:31:4f:b9:20:
         ad:b8:f8:3a:d6:6f:dc:2b:f7:ba:54:98:99:9e:da:91:fb:0e:
         51:ce:d9:0d:d7:a7:bb:40:b2:fa:1b:c6:a1:98:58:bc:98:3e:
         72:c3:06:ce:05:e1:5e:42:02:50:e7:8e:e8:d5:66:5d:b2:70:
         cc:19:51:72:9a:8e:cd:5a:94:98:dc:58:5f:4a:49:24:6c:17:
         71:6b:24:99:33:62:1b:f6:1a:e8:a2:3c:2e:57:d9:ba:be:89:
         e8:c4:2d:2d:de:bb:8d:47:8d:6b:58:b6:40:9c:6a:7b:19:6f:
         51:65:76:21:31:84:2a:f2:42:4f:1f:26:99:e8:36:3a:93:0b:
         36:c7:a6:60:54:cd:9d:13:1f:fe:bc:77:ce:9e:1d:b2:16:69:
         0b:4f:5c:d2:2f:e2:cd:b3:bc:72:11:f3:99:50:6d:53:a7:c0:
         5f:e0:a1:2a:a6:2d:c7:41:0b:fa:e4:b4:34:46:ee:10:f9:62:
         c7:a1:08:27:54:d2:ce:05:ef:f1:5a:bb:c9:8e:b8:84:45:86:
         c0:41:19:38:e0:13:8d:d1:06:4b:5f:b9:e0:e2:87:f4:53:6d:
         4d:23:ff:b6:c9:ac:85:4c:f3:22:4b:ef:80:51:92:10:57:aa:
         0b:f6:ab:cc:7d:17:84:8d:d3:76:c7:58:d9:73:dc:8d:fb:ae:
         55:43:43:c0:10:e5:f9:f5:e6:49:03:9d:31:f8:1a:1b:a9:3c:
         20:1f:9c:3d:67:ef:11:b3:e8:fc:a2:b6:f2:9d:2b:d6:65:10:
         cd:7c:55:e0:ae:29:b7:6c:37:6e:61:84:f4:66:80:17:98:da:
         4a:09:f4:a8:30:25:f1:cb
-----BEGIN CERTIFICATE-----
MIIDVTCCAT2gAwIBAwIBATANBgkqhkiG9w0BAQUFADApMQswCQYDVQQGEwJCRTEa
MBgGA1UEAxMRdHhqc29ucnBjLXRlc3QtY2EwHhcNNzAwMTAxMDAwMDAwWhcNMzgw
MTE5MDMxNDA3WjA3MRAwDgYDVQQDEwdjYS1ub25lMQswCQYDVQQGEwJCRTEWMBQG
A1UEChMNR3JlbXdlbGwgYnZiYTCBnzANBgkqhkiG9w0BAQEFAAOBjQAwgYkCgYEA
4A8l2dDR7pJk0pn3D+BdkCtZW88ANK5yGQyIFU1YOb1xaIg7LJmiWvxZL2spGnkV
emSk/BuSdljS+sVq7YePAJd0F4Nne44OeDE+SsVvCRNdTzT1ztGG0fObVCy2rWPD
uczMy75/q9XN7h8hT/niiMv2PY4HCIHT1P9mqhjT3dcCAwEAATANBgkqhkiG9w0B
AQUFAAOCAgEAxcgzk99lt6KlQobNntQAGR7veIQIDmTo0cW4a8Ss7bpa3dAlrFI2
xr+wHZSNXrJLjfG4VWUsEtw5eHxLitfi19QFFxevZT9nPXMD0rqACYDgib1qst8x
ojMGLjPwYgJrmukK88hbeD+7kPR5qHFWPFdMNx/m2BM6sGAhf5y6Al6YEj5E69HV
0R4Xj+p5+w0Oq932UcQiN6NvSaayI+h9NLgAUPaLTWnrgCasDYSTTQ+zlA/Y5RIi
OZnTpLK4G/B/frwxT7kgrbj4OtZv3Cv3ulSYmZ7akfsOUc7ZDdenu0Cy+hvGoZhY
vJg+csMGzgXhXkICUOeO6NVmXbJwzBlRcpqOzVqUmNxYX0pJJGwXcWskmTNiG/Ya
6KI8LlfZur6J6MQtLd67jUeNa1i2QJxqexlvUWV2ITGEKvJCTx8mmeg2OpMLNsem
YFTNnRMf/rx3zp4dshZpC09c0i/izbO8chHzmVBtU6fAX+ChKqYtx0EL+uS0NEbu
EPlix6EIJ1TSzgXv8Vq7yY64hEWGwEEZOOATjdEGS1+54OKH9FNtTSP/tsmshUzz
IkvvgFGSEFeqC/arzH0XhI3TdsdY2XPcjfuuVUNDwBDl+fXmSQOdMfgaG6k8IB+c
PWfvEbPo/KK28p0r1mUQzXxV4K4pt2w3bmGE9GaAF5jaSgn0qDAl8cs=
-----END CERTIFICATE-----
Certificate:
    Data:
        Version: 3 (0x2)
        Serial Number: 10219423159405941259 (0x8dd2af37f9ca920b)
    Signature Algorithm: sha1WithRSAEncryption
        Issuer: C=BE, CN=txjsonrpc-test-ca
        Validity
            Not Before: Jun 23 15:46:37 2012 GMT
            Not After : Jun 21 15:46:37 2022 GMT
        Subject: C=BE, CN=txjsonrpc-test-ca
        Subject Public Key Info:
            Public Key Algorithm: rsaEncryption
                Public-Key: (4096 bit)
                Modulus:
                    00:d1:25:af:77:c5:a8:72:cf:90:b9:39:10:fb:7b:
                    75:2c:a1:da:6a:95:e5:44:0c:d6:25:4b:58:7f:bb:
                    07:82:59:49:58:32:85:24:cc:3e:77:db:e1:a7:4f:
                    c8:b5:cb:ee:45:38:bd:bc:fb:e3:76:3b:88:04:ca:
                    ab:3a:a3:96:3b:5f:93:9c:28:a6:61:97:dc:a2:3f:
                    a0:93:2b:56:6c:cf:d3:4f:6a:9e:05:d3:1c:cd:ef:
                    75:80:1a:98:b7:92:49:14:33:b8:c4:7c:73:8c:7e:
                    83:a5:81:a2:59:8c:8b:a3:51:36:6d:68:ac:f2:f1:
                    ed:6f:49:d9:af:7a:63:c1:43:31:42:b6:c7:cd:b9:
                    78:b7:33:98:70:92:6c:9e:04:7a:7b:f0:6d:38:87:
                    eb:00:13:17:b9:d9:ec:b4:66:bb:51:d3:fd:81:e3:
                    0e:88:71:23:d2:80:2a:61:de:ab:25:02:47:a9:c1:
                    6b:c9:69:ae:da:47:b6:49:74:ac:a6:e1:c1:76:ba:
                    6d:b1:d9:68:6e:1c:37:a8:e2:18:60:37:b6:58:13:
                    6c:c7:92:7c:c6:45:8c:ef:c3:81:73:10:dc:2f:31:
                    e2:b9:05:5a:9e:28:70:5a:3e:1d:b8:68:71:81:c9:
                    e8:fe:1f:c3:a0:13:f8:e4:24:12:ba:91:8e:15:d2:
                    03:f1:8c:b0:aa:e2:34:e4:6b:f8:06:f6:23:8a:92:
                    43:a6:05:dc:e9:c7:a5:a8:06:d7:6e:91:52:72:47:
                    ab:ae:87:fe:b3:0f:04:87:6f:4b:22:29:e9:a9:06:
                    52:58:7d:03:16:d7:d5:31:44:b4:f1:51:44:a7:2a:
                    ba:5e:09:19:ec:4c:a2:e0:58:fe:0d:4e:b7:90:4d:
                    02:ac:2a:ad:99:14:65:3b:0a:3c:73:45:56:b2:0f:
                    10:25:24:51:79:57:1a:34:1a:10:6f:60:e0:fc:81:
                    db:ca:c2:e2:85:1b:4c:72:13:5c:9d:76:cc:d0:21:
                    33:31:56:82:8f:c5:57:b9:44:fd:8b:76:c1:b6:e4:
                    21:8b:35:9a:ee:54:74:9f:72:6b:19:84:d7:a2:3c:
                    a5:6e:11:0a:f1:93:04:2e:dd:7c:4c:7d:62:10:d4:
                    1b:8b:87:f6:ed:bf:12:b1:8b:f0:9a:7a:ee:02:94:
                    e1:3c:46:2b:7f:9c:54:fb:2e:61:c9:1c:ef:fc:de:
                    25:bc:2d:75:1b:1f:49:5e:44:3b:15:93:ad:c4:89:
                    d9:ae:3c:da:54:ef:d9:af:3a:16:cb:94:1b:6a:14:
                    e4:42:f9:75:33:46:6e:fb:40:bc:f8:82:36:cf:60:
                    f5:c2:a2:98:23:a7:2a:ae:c1:aa:22:f8:87:da:b7:
                    9c:a4:cf
                Exponent: 65537 (0x10001)
        X509v3 extensions:
            X509v3 Subject Key Identifier: 
                9D:8F:84:76:94:CD:07:FE:A3:E8:8B:D7:F9:D9:6E:EF:CA:75:51:7B
            X509v3 Authority Key Identifier: 
                keyid:9D:8F:84:76:94:CD:07:FE:A3:E8:8B:D7:F9:D9:6E:EF:CA:75:51:7B
                DirName:/C=BE/CN=txjsonrpc-test-ca
                serial:8D:D2:AF:37:F9:CA:92:0B

            X509v3 Basic Constraints: critical
                CA:TRUE
            Netscape Cert Type: 
                SSL CA, S/MIME CA
            X509v3 Issuer Alternative Name: 
                <EMPTY>

            Netscape Comment: 
                Test CA for txjsonrcp
            X509v3 Subject Alternative Name: 
                <EMPTY>

            X509v3 Key Usage: critical
                Certificate Sign, CRL Sign
    Signature Algorithm: sha1WithRSAEncryption
         06:82:86:81:a9:1b:7e:2d:ef:f5:fc:cc:d2:9d:d6:82:ad:d0:
         6f:7e:3d:b9:5c:b2:0f:3a:64:21:9a:fb:53:b2:93:81:dc:1a:
         24:fc:b8:30:57:a2:c7:71:0d:9c:1a:0b:8a:6c:89:52:8b:8a:
         f5:af:95:3e:b8:08:39:ee:36:50:ac:60:4d:df:2b:49:a2:72:
         f1:3f:12:3c:d9:55:56:a4:9a:77:2b:77:fa:16:b5:76:d9:f4:
         c4:51:6b:b9:fe:2f:a3:52:e8:64:80:49:22:6d:05:42:87:af:
         9d:85:6c:fa:c9:9b:48:39:7b:89:f5:a0:1e:ff:11:d3:9c:78:
         b1:b2:f6:4d:b1:e8:b3:98:23:2c:d4:20:e1:a1:01:3e:26:0a:
         5b:8e:eb:58:45:22:cf:e1:94:ad:84:40:b0:fb:ff:25:5f:31:
         9a:49:0b:36:ad:c6:1a:b0:42:60:40:e2:a2:3c:5a:36:41:89:
         fc:10:c4:60:ea:d4:85:7b:36:84:df:aa:81:cc:69:e7:52:ca:
         c1:46:b1:79:93:51:4f:24:84:42:14:3a:20:a0:6c:27:76:40:
         0f:96:7e:4e:c3:0c:37:b3:e3:73:49:86:58:31:00:1e:e7:0f:
         87:74:b6:4e:6e:1c:7d:87:a4:33:04:c9:76:ec:e5:3a:85:5f:
         a8:d1:ad:21:64:5e:c5:6a:df:b1:02:6e:65:a4:87:72:06:07:
         da:e5:f2:af:2b:a5:eb:18:80:67:83:a5:3c:e6:ed:d1:58:f9:
         90:5c:d6:e9:2f:76:c1:58:13:b8:bd:88:8a:f3:04:48:bb:42:
         8f:7f:c6:db:b4:30:3f:bb:6c:d5:47:e5:ae:8d:4b:da:92:a5:
         db:d3:6e:a8:9b:c2:6b:56:af:34:63:82:e6:78:f8:1f:54:d7:
         41:aa:a3:c9:7c:a6:83:41:bf:6e:33:7c:ae:e6:92:bd:da:27:
         b4:bc:e2:90:4f:33:1b:01:a1:cd:02:13:7a:31:ef:00:d6:9a:
         6e:38:6b:a7:cb:70:98:a8:0f:ff:1c:56:a8:b7:e6:d2:42:5a:
         bb:f4:78:27:71:13:d0:e8:43:eb:bc:2d:4f:e4:ea:4d:4f:76:
         7f:53:38:34:eb:13:e2:3d:c6:14:98:86:1c:ab:2c:0e:b7:68:
         2e:bd:63:a9:6a:8f:d5:22:2d:ab:13:d7:62:54:51:ff:5c:37:
         08:04:27:da:f9:57:77:05:18:73:88:5f:b0:c1:65:50:36:09:
         d6:c7:f5:ae:6e:3f:04:d1:84:3c:21:74:1d:bd:0a:fb:76:d0:
         13:2b:62:bb:24:48:43:89:d0:18:5c:b4:ad:ea:98:af:6d:fc:
         1c:6b:1f:06:64:54:23:88
-----BEGIN CERTIFICATE-----
MIIFwzCCA6ugAwIBAgIJAI3Srzf5ypILMA0GCSqGSIb3DQEBBQUAMCkxCzAJBgNV
BAYTAkJFMRowGAYDVQQDExF0eGpzb25ycGMtdGVzdC1jYTAeFw0xMjA2MjMxNTQ2
MzdaFw0yMjA2MjExNTQ2MzdaMCkxCzAJBgNVBAYTAkJFMRowGAYDVQQDExF0eGpz
b25ycGMtdGVzdC1jYTCCAiIwDQYJKoZIhvcNAQEBBQADggIPADCCAgoCggIBANEl
r3fFqHLPkLk5EPt7dSyh2mqV5UQM1iVLWH+7B4JZSVgyhSTMPnfb4adPyLXL7kU4
vbz743Y7iATKqzqjljtfk5wopmGX3KI/oJMrVmzP009qngXTHM3vdYAamLeSSRQz
uMR8c4x+g6WBolmMi6NRNm1orPLx7W9J2a96Y8FDMUK2x825eLczmHCSbJ4Eenvw
bTiH6wATF7nZ7LRmu1HT/YHjDohxI9KAKmHeqyUCR6nBa8lprtpHtkl0rKbhwXa6
bbHZaG4cN6jiGGA3tlgTbMeSfMZFjO/DgXMQ3C8x4rkFWp4ocFo+HbhocYHJ6P4f
w6AT+OQkErqRjhXSA/GMsKriNORr+Ab2I4qSQ6YF3OnHpagG126RUnJHq66H/rMP
BIdvSyIp6akGUlh9AxbX1TFEtPFRRKcqul4JGexMouBY/g1Ot5BNAqwqrZkUZTsK
PHNFVrIPECUkUXlXGjQaEG9g4PyB28rC4oUbTHITXJ12zNAhMzFWgo/FV7lE/Yt2
wbbkIYs1mu5UdJ9yaxmE16I8pW4RCvGTBC7dfEx9YhDUG4uH9u2/ErGL8Jp67gKU
4TxGK3+cVPsuYckc7/zeJbwtdRsfSV5EOxWTrcSJ2a482lTv2a86FsuUG2oU5EL5
dTNGbvtAvPiCNs9g9cKimCOnKq7BqiL4h9q3nKTPAgMBAAGjge0wgeowHQYDVR0O
BBYEFJ2PhHaUzQf+o+iL1/nZbu/KdVF7MFkGA1UdIwRSMFCAFJ2PhHaUzQf+o+iL
1/nZbu/KdVF7oS2kKzApMQswCQYDVQQGEwJCRTEaMBgGA1UEAxMRdHhqc29ucnBj
LXRlc3QtY2GCCQCN0q83+cqSCzAPBgNVHRMBAf8EBTADAQH/MBEGCWCGSAGG+EIB
AQQEAwIBBjAJBgNVHRIEAjAAMCQGCWCGSAGG+EIBDQQXFhVUZXN0IENBIGZvciB0
eGpzb25yY3AwCQYDVR0RBAIwADAOBgNVHQ8BAf8EBAMCAQYwDQYJKoZIhvcNAQEF
BQADggIBAAaChoGpG34t7/X8zNKd1oKt0G9+Pblcsg86ZCGa+1Oyk4HcGiT8uDBX
osdxDZwaC4psiVKLivWvlT64CDnuNlCsYE3fK0micvE/EjzZVVakmncrd/oWtXbZ
9MRRa7n+L6NS6GSASSJtBUKHr52FbPrJm0g5e4n1oB7/EdOceLGy9k2x6LOYIyzU
IOGhAT4mCluO61hFIs/hlK2EQLD7/yVfMZpJCzatxhqwQmBA4qI8WjZBifwQxGDq
1IV7NoTfqoHMaedSysFGsXmTUU8khEIUOiCgbCd2QA+Wfk7DDDez43NJhlgxAB7n
D4d0tk5uHH2HpDMEyXbs5TqFX6jRrSFkXsVq37ECbmWkh3IGB9rl8q8rpesYgGeD
pTzm7dFY+ZBc1ukvdsFYE7i9iIrzBEi7Qo9/xtu0MD+7bNVH5a6NS9qSpdvTbqib
wmtWrzRjguZ4+B9U10Gqo8l8poNBv24zfK7mkr3aJ7S84pBPMxsBoc0CE3ox7wDW
mm44a6fLcJioD/8cVqi35tJCWrv0eCdxE9DoQ+u8LU/k6k1Pdn9TODTrE+I9xhSY
hhyrLA63aC69Y6lqj9UiLasT12JUUf9cNwgEJ9r5V3cFGHOIX7DBZVA2CdbH9a5u
PwTRhDwhdB29Cvt20BMrYrskSEOJ0BhctK3qmK9t/BxrHwZkVCOI
-----END CERTIFICATE-----
