Certificate:
    Data:
        Version: 4 (0x3)
        Serial Number: 1 (0x1)
    Signature Algorithm: sha1WithRSAEncryption
        Issuer: CN=ca-true, C=BE, O=Gremwell bvba
        Validity
            Not Before: Jan  1 00:00:00 1970 GMT
            Not After : Jan 19 03:14:07 2038 GMT
        Subject: CN=www.example.com, C=BE, O=Gremwell bvba
        Subject Public Key Info:
            Public Key Algorithm: rsaEncryption
                Public-Key: (1024 bit)
                Modulus:
                    00:a8:36:b3:9a:94:5c:56:c2:2c:e0:32:63:63:87:
                    f5:f0:aa:97:ae:1b:48:e3:8b:3f:52:79:1d:6b:43:
                    67:f0:2c:fc:20:6c:a3:bd:be:44:7e:ce:34:59:d9:
                    03:1d:5e:2c:ee:94:1b:f9:05:8f:47:9f:84:92:bf:
                    d7:4d:9b:e3:ad:0e:21:2b:b5:5f:6f:59:a2:1e:d9:
                    73:5f:0e:18:70:11:8a:f2:00:9d:ec:1b:be:b4:63:
                    6f:c0:cb:14:2c:36:ff:75:03:32:ea:ca:62:21:56:
                    69:2c:f5:2b:80:ac:83:94:55:48:b0:7d:da:08:55:
                    21:fb:95:62:20:7a:5b:47:0b
                Exponent: 65537 (0x10001)
    Signature Algorithm: sha1WithRSAEncryption
         b4:73:f2:87:1a:2d:0a:6e:58:02:9a:3c:1d:25:8f:af:83:bd:
         b7:f3:e3:00:81:1e:3b:b8:34:e0:08:0d:d4:31:4d:9c:40:5e:
         91:93:9f:60:33:d8:9f:e0:62:0b:b1:24:5a:cb:96:1b:92:35:
         6a:6b:9c:4e:b4:db:50:a1:e4:3b:6f:e5:0b:b3:a5:ed:5a:31:
         97:b9:c3:0c:47:73:3b:74:54:8d:9c:0d:c9:73:2d:a7:2b:2f:
         b0:fe:23:b5:cf:31:0d:31:fa:62:67:95:32:f0:76:4a:2e:aa:
         2f:cd:5e:fc:2f:c5:db:85:84:de:c9:3d:4d:42:af:4c:85:f3:
         89:02
-----BEGIN CERTIFICATE-----
MIIB6jCCAVOgAwIBAwIBATANBgkqhkiG9w0BAQUFADA3MRAwDgYDVQQDEwdjYS10
cnVlMQswCQYDVQQGEwJCRTEWMBQGA1UEChMNR3JlbXdlbGwgYnZiYTAeFw03MDAx
MDEwMDAwMDBaFw0zODAxMTkwMzE0MDdaMD8xGDAWBgNVBAMTD3d3dy5leGFtcGxl
LmNvbTELMAkGA1UEBhMCQkUxFjAUBgNVBAoTDUdyZW13ZWxsIGJ2YmEwgZ8wDQYJ
KoZIhvcNAQEBBQADgY0AMIGJAoGBAKg2s5qUXFbCLOAyY2OH9fCql64bSOOLP1J5
HWtDZ/As/CBso72+RH7ONFnZAx1eLO6UG/kFj0efhJK/102b460OISu1X29Zoh7Z
c18OGHARivIAnewbvrRjb8DLFCw2/3UDMurKYiFWaSz1K4Csg5RVSLB92ghVIfuV
YiB6W0cLAgMBAAEwDQYJKoZIhvcNAQEFBQADgYEAtHPyhxotCm5YApo8HSWPr4O9
t/PjAIEeO7g04AgN1DFNnEBekZOfYDPYn+BiC7EkWsuWG5I1amucTrTbUKHkO2/l
C7Ol7Voxl7nDDEdzO3RUjZwNyXMtpysvsP4jtc8xDTH6YmeVMvB2Si6qL81e/C/F
24WE3sk9TUKvTIXziQI=
-----END CERTIFICATE-----
Certificate:
    Data:
        Version: 4 (0x3)
        Serial Number: 1 (0x1)
    Signature Algorithm: sha1WithRSAEncryption
        Issuer: C=BE, CN=txjsonrpc-test-ca
        Validity
            Not Before: Jan  1 00:00:00 1970 GMT
            Not After : Jan 19 03:14:07 2038 GMT
        Subject: CN=ca-true, C=BE, O=Gremwell bvba
        Subject Public Key Info:
            Public Key Algorithm: rsaEncryption
                Public-Key: (1024 bit)
                Modulus:
                    00:bd:19:a0:a8:f8:2e:77:81:15:5f:a8:01:56:e0:
                    7d:a6:1b:82:c1:b9:2f:db:a3:3a:6b:28:51:4b:ac:
                    5e:5d:0b:bd:fe:1a:6c:3d:ed:eb:f0:ad:e3:f4:e9:
                    c5:32:c8:d7:a0:1c:01:12:98:eb:6e:63:48:d0:3e:
                    91:27:f1:f4:e7:68:c2:0d:37:f1:c2:4c:35:d5:07:
                    ce:01:70:49:3c:9b:a1:27:0a:a6:66:96:29:fb:27:
                    5d:05:2b:9e:25:96:d7:69:e5:ee:aa:73:c8:5e:67:
                    dd:35:99:fb:79:ae:aa:ef:87:ab:ea:b5:31:23:56:
                    7e:5d:44:27:36:20:92:b8:db
                Exponent: 65537 (0x10001)
        X509v3 extensions:
            X509v3 Basic Constraints: critical
                CA:TRUE
    Signature Algorithm: sha1WithRSAEncryption
         1c:9a:37:3d:a1:c0:f3:65:39:3f:11:80:0e:28:13:93:9b:c4:
         55:88:dc:1b:1f:59:56:12:83:bc:4e:b5:32:4d:10:d5:8c:96:
         fe:54:af:a1:22:4d:23:17:95:26:5f:a7:90:dc:d4:8b:fe:24:
         10:5f:11:13:be:10:53:15:95:9d:f2:c7:c7:04:76:8c:36:28:
         e0:5e:7e:57:d8:1f:ed:0d:3e:04:be:4b:a1:89:b6:89:ef:07:
         23:26:4c:5e:f3:47:2a:f0:d7:39:0d:46:78:13:a8:15:31:9c:
         4a:f0:9a:3f:cb:92:5e:52:6a:25:d3:60:ad:f2:5c:9a:7d:e3:
         a0:2f:39:4f:7f:60:66:e6:61:5b:8c:dd:3d:51:1b:46:e8:a2:
         46:91:6b:83:fb:b5:a3:6e:6b:b0:ce:8d:7d:7f:9a:30:98:71:
         19:fd:e3:75:e0:a6:b0:e6:23:cb:ef:47:e5:65:36:50:1a:e7:
         a1:55:18:4f:8a:ee:08:5d:ce:36:74:04:b5:c3:7a:2a:d8:ee:
         4d:dc:7d:5d:35:c3:3a:76:d4:4f:04:5a:05:5e:bd:74:1f:36:
         6d:e0:fc:b3:79:0d:c1:ef:a7:68:17:b1:2f:67:6d:a7:b2:25:
         78:63:db:82:0e:e7:d8:67:a5:7e:fa:00:9a:e2:81:0b:73:85:
         65:08:bc:b4:34:97:0d:36:ab:a7:21:1d:9a:eb:ef:24:83:68:
         78:be:02:46:05:23:18:88:f1:b4:47:b9:16:d4:c6:69:48:38:
         54:75:98:7a:dc:7f:01:b3:0f:2d:77:41:6e:36:e0:d3:fd:f5:
         72:75:d9:f2:d1:00:c9:25:4e:e7:76:9f:ac:d3:f6:ad:e1:06:
         dd:fc:51:b4:16:bc:fd:d4:52:e7:02:c8:84:b9:e1:03:d9:ca:
         03:2b:5a:9f:b3:4d:f3:57:36:f2:4e:75:37:cb:6f:ea:99:e7:
         10:48:95:25:e2:5a:46:47:29:2a:74:d8:20:c6:70:ec:68:60:
         32:fc:dc:2f:93:2c:28:1d:a9:38:c7:f8:f7:38:ce:77:85:1b:
         5d:51:ff:e6:13:6e:9e:44:54:a6:bc:d0:11:66:cd:92:ba:e6:
         60:27:6e:d9:7d:8f:0d:86:52:4a:26:9e:4d:c9:bf:7b:4c:53:
         eb:4d:5f:13:a3:15:da:94:ca:c4:e9:c3:30:7a:2b:fe:93:f4:
         bb:48:d2:b9:c5:a7:6a:1e:a3:e3:cf:ce:f8:9a:15:1f:98:1f:
         75:50:a9:48:c5:cc:90:5b:cd:87:78:2d:ef:9c:c3:87:e3:a0:
         79:f9:9c:14:44:97:0f:0a:53:70:73:7f:b3:dc:c0:79:d4:e7:
         7f:67:82:32:91:ed:80:6f
-----BEGIN CERTIFICATE-----
MIIDajCCAVKgAwIBAwIBATANBgkqhkiG9w0BAQUFADApMQswCQYDVQQGEwJCRTEa
MBgGA1UEAxMRdHhqc29ucnBjLXRlc3QtY2EwHhcNNzAwMTAxMDAwMDAwWhcNMzgw
MTE5MDMxNDA3WjA3MRAwDgYDVQQDEwdjYS10cnVlMQswCQYDVQQGEwJCRTEWMBQG
A1UEChMNR3JlbXdlbGwgYnZiYTCBnzANBgkqhkiG9w0BAQEFAAOBjQAwgYkCgYEA
vRmgqPgud4EVX6gBVuB9phuCwbkv26M6ayhRS6xeXQu9/hpsPe3r8K3j9OnFMsjX
oBwBEpjrbmNI0D6RJ/H052jCDTfxwkw11QfOAXBJPJuhJwqmZpYp+yddBSueJZbX
aeXuqnPIXmfdNZn7ea6q74er6rUxI1Z+XUQnNiCSuNsCAwEAAaMTMBEwDwYDVR0T
AQH/BAUwAwEB/zANBgkqhkiG9w0BAQUFAAOCAgEAHJo3PaHA82U5PxGADigTk5vE
VYjcGx9ZVhKDvE61Mk0Q1YyW/lSvoSJNIxeVJl+nkNzUi/4kEF8RE74QUxWVnfLH
xwR2jDYo4F5+V9gf7Q0+BL5LoYm2ie8HIyZMXvNHKvDXOQ1GeBOoFTGcSvCaP8uS
XlJqJdNgrfJcmn3joC85T39gZuZhW4zdPVEbRuiiRpFrg/u1o25rsM6NfX+aMJhx
Gf3jdeCmsOYjy+9H5WU2UBrnoVUYT4ruCF3ONnQEtcN6KtjuTdx9XTXDOnbUTwRa
BV69dB82beD8s3kNwe+naBexL2dtp7IleGPbgg7n2GelfvoAmuKBC3OFZQi8tDSX
DTarpyEdmuvvJINoeL4CRgUjGIjxtEe5FtTGaUg4VHWYetx/AbMPLXdBbjbg0/31
cnXZ8tEAySVO53afrNP2reEG3fxRtBa8/dRS5wLIhLnhA9nKAytan7NN81c28k51
N8tv6pnnEEiVJeJaRkcpKnTYIMZw7GhgMvzcL5MsKB2pOMf49zjOd4UbXVH/5hNu
nkRUprzQEWbNkrrmYCdu2X2PDYZSSiaeTcm/e0xT601fE6MV2pTKxOnDMHor/pP0
u0jSucWnah6j48/O+JoVH5gfdVCpSMXMkFvNh3gt75zDh+OgefmcFESXDwpTcHN/
s9zAedTnf2eCMpHtgG8=
-----END CERTIFICATE-----
