Certificate:
    Data:
        Version: 4 (0x3)
        Serial Number: 1 (0x1)
    Signature Algorithm: sha1WithRSAEncryption
        Issuer: CN=ca-false, C=BE, O=Gremwell bvba
        Validity
            Not Before: Jan  1 00:00:00 1970 GMT
            Not After : Jan 19 03:14:07 2038 GMT
        Subject: CN=blah-com, C=BE, O=Gremwell bvba
        Subject Public Key Info:
            Public Key Algorithm: rsaEncryption
                Public-Key: (1024 bit)
                Modulus:
                    00:fa:ca:95:b8:ae:2a:58:05:8f:8f:98:84:c2:41:
                    f3:29:32:8e:a9:96:ba:09:05:e1:02:7d:b4:4f:87:
                    6a:26:48:a3:da:e5:8f:15:fb:b3:a7:3f:a0:3a:c2:
                    f9:92:35:d4:78:a0:cb:40:84:fb:08:8a:17:72:0b:
                    c1:f5:d7:e0:13:c2:a2:77:e0:cf:05:30:34:aa:e0:
                    78:e8:46:1c:c0:13:d4:0d:b6:4a:f0:0e:c9:c6:41:
                    88:e5:09:aa:7b:1a:44:b3:63:dd:70:4a:cd:3d:54:
                    c5:be:e9:d4:e0:ad:a5:cd:02:5b:6a:81:06:5b:41:
                    60:78:0e:de:c3:ae:8e:28:0d
                Exponent: 65537 (0x10001)
    Signature Algorithm: sha1WithRSAEncryption
         24:2b:6d:89:dc:f2:50:b8:c1:78:d5:04:a7:3d:fd:8a:9e:4f:
         f2:f5:f1:68:ed:ee:db:78:16:7b:d5:c2:13:4e:93:38:2a:6e:
         9f:0e:2e:69:d3:a6:71:e1:86:bb:0a:88:45:17:5f:88:1f:3d:
         3e:df:50:4f:6f:29:56:5c:64:9e:b1:d1:75:66:ff:d9:dc:1f:
         2b:83:0d:c1:fb:42:d4:90:94:f1:0e:e4:42:83:12:f3:07:74:
         ac:58:76:90:f5:3e:37:25:84:b9:0c:7d:9e:03:ad:00:16:b2:
         e3:51:ff:bf:63:34:3c:99:50:23:50:fd:ac:38:e7:61:da:c9:
         e0:8d
-----BEGIN CERTIFICATE-----
MIIB5DCCAU2gAwIBAwIBATANBgkqhkiG9w0BAQUFADA4MREwDwYDVQQDEwhjYS1m
YWxzZTELMAkGA1UEBhMCQkUxFjAUBgNVBAoTDUdyZW13ZWxsIGJ2YmEwHhcNNzAw
MTAxMDAwMDAwWhcNMzgwMTE5MDMxNDA3WjA4MREwDwYDVQQDEwhibGFoLWNvbTEL
MAkGA1UEBhMCQkUxFjAUBgNVBAoTDUdyZW13ZWxsIGJ2YmEwgZ8wDQYJKoZIhvcN
AQEBBQADgY0AMIGJAoGBAPrKlbiuKlgFj4+YhMJB8ykyjqmWugkF4QJ9tE+HaiZI
o9rljxX7s6c/oDrC+ZI11Higy0CE+wiKF3ILwfXX4BPConfgzwUwNKrgeOhGHMAT
1A22SvAOycZBiOUJqnsaRLNj3XBKzT1Uxb7p1OCtpc0CW2qBBltBYHgO3sOujigN
AgMBAAEwDQYJKoZIhvcNAQEFBQADgYEAJCttidzyULjBeNUEpz39ip5P8vXxaO3u
23gWe9XCE06TOCpunw4uadOmceGGuwqIRRdfiB89Pt9QT28pVlxknrHRdWb/2dwf
K4MNwftC1JCU8Q7kQoMS8wd0rFh2kPU+NyWEuQx9ngOtABay41H/v2M0PJlQI1D9
rDjnYdrJ4I0=
-----END CERTIFICATE-----
Certificate:
    Data:
        Version: 4 (0x3)
        Serial Number: 1 (0x1)
    Signature Algorithm: sha1WithRSAEncryption
        Issuer: C=BE, CN=txjsonrpc-test-ca
        Validity
            Not Before: Jan  1 00:00:00 1970 GMT
            Not After : Jan 19 03:14:07 2038 GMT
        Subject: CN=ca-false, C=BE, O=Gremwell bvba
        Subject Public Key Info:
            Public Key Algorithm: rsaEncryption
                Public-Key: (1024 bit)
                Modulus:
                    00:ae:0a:51:ed:fa:99:ab:c1:cd:b3:35:a0:14:80:
                    52:5b:cc:96:dc:81:9e:d7:ab:45:63:b2:2a:7c:eb:
                    7a:1d:9d:87:54:7d:2d:7d:2e:6d:be:fd:79:fa:5b:
                    1e:0c:26:f9:da:d5:a8:cc:2a:f7:8b:1f:06:22:59:
                    38:f7:0c:44:66:3d:a2:bc:ce:2f:b8:d6:76:99:c0:
                    ad:d4:bd:5e:db:14:81:79:4f:da:31:f5:a7:c4:fd:
                    a1:5c:ad:4c:ff:6f:5f:53:77:c6:ab:e1:85:3e:18:
                    38:42:2e:ed:57:e0:8c:74:24:fd:4f:35:73:8b:2c:
                    98:84:d5:e7:79:70:1c:a8:c1
                Exponent: 65537 (0x10001)
        X509v3 extensions:
            X509v3 Basic Constraints: critical
                CA:FALSE
    Signature Algorithm: sha1WithRSAEncryption
         b0:58:08:66:50:73:b7:6c:76:8a:3b:bc:7a:f7:32:29:68:e4:
         f7:d9:9c:17:88:80:81:2d:36:4b:34:be:1b:3e:18:da:7a:8e:
         e5:7a:c4:bb:b8:80:96:16:18:41:d4:7b:76:c6:2e:a9:31:53:
         c1:5f:1b:b8:af:3a:7d:9c:87:14:33:a9:b9:26:f2:d6:f2:59:
         e0:7f:49:ee:64:43:ae:fd:05:bb:2f:c3:95:57:30:dc:7f:d0:
         c5:b0:d0:41:21:eb:bb:2d:1f:14:a2:03:d0:41:08:67:27:7e:
         0c:72:af:f9:3c:9d:6e:7e:76:90:b9:76:43:85:9d:ed:cd:8c:
         ef:96:77:73:96:61:52:2c:bd:5a:cf:8b:11:9e:12:93:11:fc:
         ef:56:4d:19:c2:8d:9d:22:f6:5c:86:f6:62:99:99:77:26:c4:
         e2:22:40:39:71:ca:7b:f1:46:13:93:17:84:e5:e2:dd:e4:8d:
         e8:ff:ad:4d:94:52:99:c1:ca:5f:a9:4a:03:39:78:58:33:20:
         0d:6c:6f:36:ce:04:81:09:4e:fb:b8:ea:54:19:32:37:b1:00:
         fa:89:5f:70:f7:6c:50:40:6c:64:ca:6d:89:c5:30:23:b3:61:
         c2:89:d4:d4:c9:43:a1:6a:f7:a4:c6:d2:2f:07:8b:ab:a6:30:
         e9:26:17:de:9f:87:67:ca:42:06:5f:ef:18:21:93:f7:6e:c1:
         03:58:9f:fb:00:3a:83:78:9b:c0:51:ed:80:68:f8:b4:75:ed:
         3c:09:fd:5b:53:cf:90:bd:48:85:fb:c5:c7:27:3a:b6:03:f3:
         0a:6e:de:4c:5a:ce:54:72:5f:e4:cb:3f:19:5f:16:98:92:98:
         3e:c3:3f:21:40:72:b8:44:ce:f1:27:e5:f5:49:6d:46:29:3d:
         ee:da:07:81:18:56:da:57:75:21:ca:d2:b4:83:65:89:f6:54:
         38:fe:34:5a:cf:a6:c9:92:8b:c1:37:d8:a4:dd:98:01:bd:b0:
         4f:76:d4:42:c3:13:65:dd:7a:79:77:64:18:a3:8c:3c:41:82:
         c8:d9:ed:44:41:4b:a6:af:e5:fb:f6:53:c0:1a:d5:35:66:58:
         c0:e9:bf:e7:6f:ab:8b:f2:a8:1d:60:8c:c6:8d:d1:91:33:93:
         94:5d:c1:79:05:6c:2a:7b:ea:be:68:74:c2:f5:55:86:1b:ab:
         97:5d:6e:a0:ff:40:d5:e7:17:1d:50:a2:70:e8:7f:b0:13:95:
         97:fa:e2:2c:52:db:2f:e7:ab:4f:9e:21:cf:e6:bc:fc:4b:d7:
         07:de:1f:98:02:96:16:1f:a1:9a:6d:ec:74:d7:f5:2c:ac:8b:
         cb:55:7a:05:e4:f7:bf:7c
-----BEGIN CERTIFICATE-----
MIIDaDCCAVCgAwIBAwIBATANBgkqhkiG9w0BAQUFADApMQswCQYDVQQGEwJCRTEa
MBgGA1UEAxMRdHhqc29ucnBjLXRlc3QtY2EwHhcNNzAwMTAxMDAwMDAwWhcNMzgw
MTE5MDMxNDA3WjA4MREwDwYDVQQDEwhjYS1mYWxzZTELMAkGA1UEBhMCQkUxFjAU
BgNVBAoTDUdyZW13ZWxsIGJ2YmEwgZ8wDQYJKoZIhvcNAQEBBQADgY0AMIGJAoGB
AK4KUe36mavBzbM1oBSAUlvMltyBnterRWOyKnzreh2dh1R9LX0ubb79efpbHgwm
+drVqMwq94sfBiJZOPcMRGY9orzOL7jWdpnArdS9XtsUgXlP2jH1p8T9oVytTP9v
X1N3xqvhhT4YOEIu7VfgjHQk/U81c4ssmITV53lwHKjBAgMBAAGjEDAOMAwGA1Ud
EwEB/wQCMAAwDQYJKoZIhvcNAQEFBQADggIBALBYCGZQc7dsdoo7vHr3Milo5PfZ
nBeIgIEtNks0vhs+GNp6juV6xLu4gJYWGEHUe3bGLqkxU8FfG7ivOn2chxQzqbkm
8tbyWeB/Se5kQ679Bbsvw5VXMNx/0MWw0EEh67stHxSiA9BBCGcnfgxyr/k8nW5+
dpC5dkOFne3NjO+Wd3OWYVIsvVrPixGeEpMR/O9WTRnCjZ0i9lyG9mKZmXcmxOIi
QDlxynvxRhOTF4Tl4t3kjej/rU2UUpnByl+pSgM5eFgzIA1sbzbOBIEJTvu46lQZ
MjexAPqJX3D3bFBAbGTKbYnFMCOzYcKJ1NTJQ6Fq96TG0i8Hi6umMOkmF96fh2fK
QgZf7xghk/duwQNYn/sAOoN4m8BR7YBo+LR17TwJ/VtTz5C9SIX7xccnOrYD8wpu
3kxazlRyX+TLPxlfFpiSmD7DPyFAcrhEzvEn5fVJbUYpPe7aB4EYVtpXdSHK0rSD
ZYn2VDj+NFrPpsmSi8E32KTdmAG9sE921ELDE2Xdenl3ZBijjDxBgsjZ7URBS6av
5fv2U8Aa1TVmWMDpv+dvq4vyqB1gjMaN0ZEzk5RdwXkFbCp76r5odML1VYYbq5dd
bqD/QNXnFx1QonDof7ATlZf64ixS2y/nq0+eIc/mvPxL1wfeH5gClhYfoZpt7HTX
9Sysi8tVegXk9798
-----END CERTIFICATE-----
