Certificate:
    Data:
        Version: 4 (0x3)
        Serial Number: 1 (0x1)
    Signature Algorithm: sha1WithRSAEncryption
        Issuer: CN=ca-true, C=BE, O=Gremwell bvba
        Validity
            Not Before: Jan  1 00:00:00 1970 GMT
            Not After : Jan 19 03:14:07 2038 GMT
        Subject: CN=blah-com, C=BE, O=Gremwell bvba
        Subject Public Key Info:
            Public Key Algorithm: rsaEncryption
                Public-Key: (1024 bit)
                Modulus:
                    00:fa:ca:95:b8:ae:2a:58:05:8f:8f:98:84:c2:41:
                    f3:29:32:8e:a9:96:ba:09:05:e1:02:7d:b4:4f:87:
                    6a:26:48:a3:da:e5:8f:15:fb:b3:a7:3f:a0:3a:c2:
                    f9:92:35:d4:78:a0:cb:40:84:fb:08:8a:17:72:0b:
                    c1:f5:d7:e0:13:c2:a2:77:e0:cf:05:30:34:aa:e0:
                    78:e8:46:1c:c0:13:d4:0d:b6:4a:f0:0e:c9:c6:41:
                    88:e5:09:aa:7b:1a:44:b3:63:dd:70:4a:cd:3d:54:
                    c5:be:e9:d4:e0:ad:a5:cd:02:5b:6a:81:06:5b:41:
                    60:78:0e:de:c3:ae:8e:28:0d
                Exponent: 65537 (0x10001)
    Signature Algorithm: sha1WithRSAEncryption
         14:74:fd:34:77:03:84:ce:bd:3d:79:5f:59:76:55:9b:40:ed:
         1e:a5:26:d8:4f:04:28:84:46:0b:52:c6:6e:ff:26:9d:8b:ed:
         a5:8f:3d:49:6f:4f:ff:d0:a8:3b:11:0b:d8:1f:a1:75:67:f4:
         ed:93:59:55:ee:68:28:64:70:2b:04:00:af:b3:44:d3:bc:1b:
         17:75:82:b3:6d:31:45:b8:ff:60:84:27:36:b3:0d:e3:a7:91:
         a2:af:c4:a1:a0:96:b5:24:dd:ea:e9:2d:ba:fa:da:4b:47:aa:
         f5:90:2c:b6:05:18:b1:49:94:80:a7:eb:d4:18:2d:51:05:0b:
         f8:f0
-----BEGIN CERTIFICATE-----
MIIB4zCCAUygAwIBAwIBATANBgkqhkiG9w0BAQUFADA3MRAwDgYDVQQDEwdjYS10
cnVlMQswCQYDVQQGEwJCRTEWMBQGA1UEChMNR3JlbXdlbGwgYnZiYTAeFw03MDAx
MDEwMDAwMDBaFw0zODAxMTkwMzE0MDdaMDgxETAPBgNVBAMTCGJsYWgtY29tMQsw
CQYDVQQGEwJCRTEWMBQGA1UEChMNR3JlbXdlbGwgYnZiYTCBnzANBgkqhkiG9w0B
AQEFAAOBjQAwgYkCgYEA+sqVuK4qWAWPj5iEwkHzKTKOqZa6CQXhAn20T4dqJkij
2uWPFfuzpz+gOsL5kjXUeKDLQIT7CIoXcgvB9dfgE8Kid+DPBTA0quB46EYcwBPU
DbZK8A7JxkGI5QmqexpEs2PdcErNPVTFvunU4K2lzQJbaoEGW0FgeA7ew66OKA0C
AwEAATANBgkqhkiG9w0BAQUFAAOBgQAUdP00dwOEzr09eV9ZdlWbQO0epSbYTwQo
hEYLUsZu/yadi+2ljz1Jb0//0Kg7EQvYH6F1Z/Ttk1lV7mgoZHArBACvs0TTvBsX
dYKzbTFFuP9ghCc2sw3jp5Gir8ShoJa1JN3q6S26+tpLR6r1kCy2BRixSZSAp+vU
GC1RBQv48A==
-----END CERTIFICATE-----
Certificate:
    Data:
        Version: 4 (0x3)
        Serial Number: 1 (0x1)
    Signature Algorithm: sha1WithRSAEncryption
        Issuer: C=BE, CN=txjsonrpc-test-ca
        Validity
            Not Before: Jan  1 00:00:00 1970 GMT
            Not After : Jan 19 03:14:07 2038 GMT
        Subject: CN=ca-true, C=BE, O=Gremwell bvba
        Subject Public Key Info:
            Public Key Algorithm: rsaEncryption
                Public-Key: (1024 bit)
                Modulus:
                    00:d5:18:09:55:0f:40:b4:65:a5:80:b6:08:e1:df:
                    f6:e7:7b:8a:f5:e8:98:5d:eb:19:91:08:d0:5e:f5:
                    9d:2e:86:8f:6f:7a:7f:b1:b6:db:4e:31:53:d8:04:
                    35:09:68:0c:45:d5:4d:02:b6:6d:e6:99:0f:5c:2f:
                    5e:a6:52:e7:b1:3b:1c:87:6a:b3:84:a3:85:8d:ca:
                    bb:21:6c:98:1a:ba:09:d6:6f:92:ff:c8:b4:d4:0a:
                    c2:51:8c:dc:58:ca:bc:a9:35:cb:db:35:b3:77:9e:
                    76:ee:03:54:7d:59:33:18:08:31:0b:95:93:de:55:
                    79:9a:2f:d4:cc:0a:5e:2c:cb
                Exponent: 65537 (0x10001)
        X509v3 extensions:
            X509v3 Basic Constraints: critical
                CA:TRUE
    Signature Algorithm: sha1WithRSAEncryption
         81:ac:45:f2:ab:36:5b:40:c0:e9:40:34:7d:75:b8:f1:93:14:
         fe:08:0f:7f:1c:12:9b:e6:f6:21:e0:72:11:c9:3f:10:1b:af:
         a2:ed:7e:30:5f:10:f5:af:8b:38:81:9b:6c:db:ac:fe:e7:e6:
         ce:d7:5d:c2:58:6b:1e:07:9c:91:e1:ae:cc:e2:fc:63:9b:07:
         bb:27:f1:ba:26:ee:af:0b:f0:62:ce:ab:b9:5c:16:fe:e3:ac:
         99:10:4b:f4:d1:d8:34:58:09:91:3f:59:6e:f8:0d:92:9a:3f:
         5d:ca:57:54:f8:c6:d9:26:85:b5:d9:66:b1:bb:38:3c:50:56:
         7b:06:36:e7:c4:f9:3d:37:b0:0f:7e:a8:e4:28:c4:54:3d:85:
         9f:3b:81:8a:09:b8:1e:f4:34:8b:31:53:c3:71:66:25:32:b4:
         6f:b7:b5:92:7b:83:16:00:d9:11:08:71:c2:89:b6:01:71:c2:
         88:be:49:b3:53:e3:8f:9c:f0:46:ef:c6:38:f9:6a:b1:45:a4:
         86:d6:43:e4:6a:0d:c0:df:e1:1b:ff:03:1f:cc:03:b7:24:c8:
         bd:b9:91:f0:ce:5d:4e:ad:91:43:af:de:5e:5e:45:a4:57:62:
         2e:51:f2:9c:fa:1a:c9:6b:f3:80:39:e7:db:e1:f9:bc:c2:56:
         d1:02:99:74:62:a0:e3:a4:61:98:ed:be:b2:de:bd:1d:ea:af:
         72:45:52:52:be:a0:13:ba:43:06:ec:39:3b:71:d6:76:75:8c:
         aa:74:e6:48:a9:3d:bd:fd:58:cc:c6:03:40:04:a4:d0:53:99:
         27:91:c8:79:5c:24:f0:30:f2:e6:0f:8c:f4:27:34:b8:d6:33:
         7b:01:83:2d:d0:6c:f6:a8:91:0b:2e:50:c6:30:04:7c:d4:07:
         95:74:b2:d5:ad:a6:bb:8b:f8:f6:a1:61:03:b8:0d:4e:ff:3b:
         b0:cf:0e:36:e9:1c:ed:48:c1:2a:cb:0b:d6:a0:28:74:cb:3f:
         16:da:32:77:a2:69:c3:83:1e:4b:68:fd:88:e6:96:e1:08:b5:
         e5:f7:05:61:e3:28:32:e9:90:2f:b7:b7:1c:7a:b3:bc:1e:72:
         2b:b3:cd:52:30:8a:88:47:68:65:08:3b:e1:8b:7d:86:33:de:
         34:47:56:0a:7d:0a:dd:7b:05:cc:af:d0:94:a5:fe:a5:3f:3a:
         25:b1:cd:c9:3a:cf:de:00:6e:0f:ea:be:d6:2d:00:ec:ae:25:
         e1:0d:14:a2:14:18:e8:fa:fc:b5:f8:03:06:cd:92:48:65:de:
         cf:f8:21:be:53:f0:f9:59:35:8d:63:f2:2c:7a:3b:c2:b3:bc:
         f1:fe:8d:87:d5:c0:30:79
-----BEGIN CERTIFICATE-----
MIIDajCCAVKgAwIBAwIBATANBgkqhkiG9w0BAQUFADApMQswCQYDVQQGEwJCRTEa
MBgGA1UEAxMRdHhqc29ucnBjLXRlc3QtY2EwHhcNNzAwMTAxMDAwMDAwWhcNMzgw
MTE5MDMxNDA3WjA3MRAwDgYDVQQDEwdjYS10cnVlMQswCQYDVQQGEwJCRTEWMBQG
A1UEChMNR3JlbXdlbGwgYnZiYTCBnzANBgkqhkiG9w0BAQEFAAOBjQAwgYkCgYEA
1RgJVQ9AtGWlgLYI4d/253uK9eiYXesZkQjQXvWdLoaPb3p/sbbbTjFT2AQ1CWgM
RdVNArZt5pkPXC9eplLnsTsch2qzhKOFjcq7IWyYGroJ1m+S/8i01ArCUYzcWMq8
qTXL2zWzd5527gNUfVkzGAgxC5WT3lV5mi/UzApeLMsCAwEAAaMTMBEwDwYDVR0T
AQH/BAUwAwEB/zANBgkqhkiG9w0BAQUFAAOCAgEAgaxF8qs2W0DA6UA0fXW48ZMU
/ggPfxwSm+b2IeByEck/EBuvou1+MF8Q9a+LOIGbbNus/ufmztddwlhrHgeckeGu
zOL8Y5sHuyfxuiburwvwYs6ruVwW/uOsmRBL9NHYNFgJkT9ZbvgNkpo/XcpXVPjG
2SaFtdlmsbs4PFBWewY258T5PTewD36o5CjEVD2FnzuBigm4HvQ0izFTw3FmJTK0
b7e1knuDFgDZEQhxwom2AXHCiL5Js1Pjj5zwRu/GOPlqsUWkhtZD5GoNwN/hG/8D
H8wDtyTIvbmR8M5dTq2RQ6/eXl5FpFdiLlHynPoayWvzgDnn2+H5vMJW0QKZdGKg
46RhmO2+st69HeqvckVSUr6gE7pDBuw5O3HWdnWMqnTmSKk9vf1YzMYDQASk0FOZ
J5HIeVwk8DDy5g+M9Cc0uNYzewGDLdBs9qiRCy5QxjAEfNQHlXSy1a2mu4v49qFh
A7gNTv87sM8ONukc7UjBKssL1qAodMs/Ftoyd6Jpw4MeS2j9iOaW4Qi15fcFYeMo
MumQL7e3HHqzvB5yK7PNUjCKiEdoZQg74Yt9hjPeNEdWCn0K3XsFzK/QlKX+pT86
JbHNyTrP3gBuD+q+1i0A7K4l4Q0UohQY6Pr8tfgDBs2SSGXez/ghvlPw+Vk1jWPy
LHo7wrO88f6Nh9XAMHk=
-----END CERTIFICATE-----
