Certificate:
    Data:
        Version: 4 (0x3)
        Serial Number: 1 (0x1)
    Signature Algorithm: sha1WithRSAEncryption
        Issuer: C=BE, CN=txjsonrpc-test-ca
        Validity
            Not Before: Jan  1 00:00:00 1970 GMT
            Not After : Jan 19 03:14:07 2038 GMT
        Subject: CN=www.example.com, C=BE, O=Gremwell bvba
        Subject Public Key Info:
            Public Key Algorithm: rsaEncryption
                Public-Key: (1024 bit)
                Modulus:
                    00:a8:36:b3:9a:94:5c:56:c2:2c:e0:32:63:63:87:
                    f5:f0:aa:97:ae:1b:48:e3:8b:3f:52:79:1d:6b:43:
                    67:f0:2c:fc:20:6c:a3:bd:be:44:7e:ce:34:59:d9:
                    03:1d:5e:2c:ee:94:1b:f9:05:8f:47:9f:84:92:bf:
                    d7:4d:9b:e3:ad:0e:21:2b:b5:5f:6f:59:a2:1e:d9:
                    73:5f:0e:18:70:11:8a:f2:00:9d:ec:1b:be:b4:63:
                    6f:c0:cb:14:2c:36:ff:75:03:32:ea:ca:62:21:56:
                    69:2c:f5:2b:80:ac:83:94:55:48:b0:7d:da:08:55:
                    21:fb:95:62:20:7a:5b:47:0b
                Exponent: 65537 (0x10001)
    Signature Algorithm: sha1WithRSAEncryption
         1a:ac:2c:7c:00:43:02:51:0e:3f:81:a4:d1:62:5f:f4:80:c3:
         f6:b0:d4:30:3b:e7:f4:67:bb:66:3c:fa:35:cc:7e:6c:ea:87:
         eb:2f:0b:e5:50:85:18:34:08:97:26:5a:00:d6:03:57:0c:eb:
         a4:ab:dd:fa:1c:f7:d6:55:13:23:58:7a:7a:54:02:fb:ae:eb:
         e2:bc:18:93:50:8a:9c:99:7d:ee:ca:c9:4b:8e:0b:b2:fb:7e:
         fb:a8:7c:33:40:b4:c4:9e:5e:ab:42:4e:71:4b:8b:d4:c7:fa:
         d9:a1:2e:ce:dc:30:fe:ed:ca:ad:1d:ea:29:2a:89:7d:9a:80:
         9e:7f:40:b2:c7:b4:c3:00:6d:7d:75:cd:d2:7d:bf:b0:22:ae:
         fd:a1:0a:18:d4:4b:41:c9:d3:50:8c:de:14:e8:9b:98:25:4b:
         96:c2:be:f6:bf:e2:41:c4:83:a5:46:87:05:ae:63:a6:2d:7e:
         f8:12:2a:19:5d:b7:29:5e:06:f2:4d:22:22:6e:fd:73:00:09:
         b2:b7:09:1a:8f:5a:df:f6:8d:e4:59:f7:7f:b7:1e:92:33:09:
         8b:d6:6c:ec:e4:c1:9e:0c:e7:35:07:92:1d:c6:92:3e:64:50:
         94:2e:02:5d:8b:a4:bf:8d:00:25:0a:bf:3f:58:b2:d4:99:16:
         f7:08:17:69:87:76:e8:bd:93:5e:9a:5e:4c:b0:0f:d0:10:f5:
         76:c9:6d:02:98:8c:87:10:60:ec:d1:83:c3:56:73:c9:66:48:
         f5:29:11:97:47:77:6a:d6:90:46:26:fc:e1:c1:03:3c:e2:38:
         72:fa:5c:4d:ed:bb:10:b5:26:7e:aa:8e:05:25:a8:0a:50:cc:
         1d:d0:50:cb:aa:52:7d:13:63:04:af:f8:2d:d1:a9:17:ab:dc:
         12:e9:03:8f:15:77:fb:87:99:2a:10:82:51:ff:24:b3:75:44:
         8f:c0:2b:a6:e1:52:7f:70:2e:ce:c0:97:7a:4b:52:90:17:ef:
         0e:78:6c:9f:de:4a:f5:d9:55:24:75:d8:12:80:d8:f6:a3:0c:
         ed:c9:ee:2a:f9:bb:1a:b0:84:1c:07:22:72:04:37:09:36:58:
         9f:90:2d:90:8d:a5:c7:58:81:36:b1:6a:8f:cc:79:a8:33:57:
         51:99:ac:97:44:74:c1:36:fc:e6:39:ff:d0:a9:e6:58:8c:51:
         48:3b:78:32:2a:78:4c:44:82:1d:ae:e6:db:65:f6:a7:30:80:
         bf:a7:ef:b8:13:c5:8d:d4:ee:21:89:22:08:59:c7:72:ca:79:
         4a:68:28:43:03:1f:c3:bb:ec:3b:6c:72:50:b1:a7:08:fb:93:
         84:6c:06:9f:51:de:06:7a
-----BEGIN CERTIFICATE-----
MIIDXTCCAUWgAwIBAwIBATANBgkqhkiG9w0BAQUFADApMQswCQYDVQQGEwJCRTEa
MBgGA1UEAxMRdHhqc29ucnBjLXRlc3QtY2EwHhcNNzAwMTAxMDAwMDAwWhcNMzgw
MTE5MDMxNDA3WjA/MRgwFgYDVQQDEw93d3cuZXhhbXBsZS5jb20xCzAJBgNVBAYT
AkJFMRYwFAYDVQQKEw1HcmVtd2VsbCBidmJhMIGfMA0GCSqGSIb3DQEBAQUAA4GN
ADCBiQKBgQCoNrOalFxWwizgMmNjh/XwqpeuG0jjiz9SeR1rQ2fwLPwgbKO9vkR+
zjRZ2QMdXizulBv5BY9Hn4SSv9dNm+OtDiErtV9vWaIe2XNfDhhwEYryAJ3sG760
Y2/AyxQsNv91AzLqymIhVmks9SuArIOUVUiwfdoIVSH7lWIgeltHCwIDAQABMA0G
CSqGSIb3DQEBBQUAA4ICAQAarCx8AEMCUQ4/gaTRYl/0gMP2sNQwO+f0Z7tmPPo1
zH5s6ofrLwvlUIUYNAiXJloA1gNXDOukq936HPfWVRMjWHp6VAL7ruvivBiTUIqc
mX3uyslLjguy+377qHwzQLTEnl6rQk5xS4vUx/rZoS7O3DD+7cqtHeopKol9moCe
f0Cyx7TDAG19dc3Sfb+wIq79oQoY1EtBydNQjN4U6JuYJUuWwr72v+JBxIOlRocF
rmOmLX74EioZXbcpXgbyTSIibv1zAAmytwkaj1rf9o3kWfd/tx6SMwmL1mzs5MGe
DOc1B5IdxpI+ZFCULgJdi6S/jQAlCr8/WLLUmRb3CBdph3bovZNeml5MsA/QEPV2
yW0CmIyHEGDs0YPDVnPJZkj1KRGXR3dq1pBGJvzhwQM84jhy+lxN7bsQtSZ+qo4F
JagKUMwd0FDLqlJ9E2MEr/gt0akXq9wS6QOPFXf7h5kqEIJR/ySzdUSPwCum4VJ/
cC7OwJd6S1KQF+8OeGyf3kr12VUkddgSgNj2owztye4q+bsasIQcByJyBDcJNlif
kC2QjaXHWIE2sWqPzHmoM1dRmayXRHTBNvzmOf/QqeZYjFFIO3gyKnhMRIIdrubb
ZfanMIC/p++4E8WN1O4hiSIIWcdyynlKaChDAx/Du+w7bHJQsacI+5OEbAafUd4G
eg==
-----END CERTIFICATE-----
Certificate:
    Data:
        Version: 3 (0x2)
        Serial Number: 10219423159405941259 (0x8dd2af37f9ca920b)
    Signature Algorithm: sha1WithRSAEncryption
        Issuer: C=BE, CN=txjsonrpc-test-ca
        Validity
            Not Before: Jun 23 15:46:37 2012 GMT
            Not After : Jun 21 15:46:37 2022 GMT
        Subject: C=BE, CN=txjsonrpc-test-ca
        Subject Public Key Info:
            Public Key Algorithm: rsaEncryption
                Public-Key: (4096 bit)
                Modulus:
                    00:d1:25:af:77:c5:a8:72:cf:90:b9:39:10:fb:7b:
                    75:2c:a1:da:6a:95:e5:44:0c:d6:25:4b:58:7f:bb:
                    07:82:59:49:58:32:85:24:cc:3e:77:db:e1:a7:4f:
                    c8:b5:cb:ee:45:38:bd:bc:fb:e3:76:3b:88:04:ca:
                    ab:3a:a3:96:3b:5f:93:9c:28:a6:61:97:dc:a2:3f:
                    a0:93:2b:56:6c:cf:d3:4f:6a:9e:05:d3:1c:cd:ef:
                    75:80:1a:98:b7:92:49:14:33:b8:c4:7c:73:8c:7e:
                    83:a5:81:a2:59:8c:8b:a3:51:36:6d:68:ac:f2:f1:
                    ed:6f:49:d9:af:7a:63:c1:43:31:42:b6:c7:cd:b9:
                    78:b7:33:98:70:92:6c:9e:04:7a:7b:f0:6d:38:87:
                    eb:00:13:17:b9:d9:ec:b4:66:bb:51:d3:fd:81:e3:
                    0e:88:71:23:d2:80:2a:61:de:ab:25:02:47:a9:c1:
                    6b:c9:69:ae:da:47:b6:49:74:ac:a6:e1:c1:76:ba:
                    6d:b1:d9:68:6e:1c:37:a8:e2:18:60:37:b6:58:13:
                    6c:c7:92:7c:c6:45:8c:ef:c3:81:73:10:dc:2f:31:
                    e2:b9:05:5a:9e:28:70:5a:3e:1d:b8:68:71:81:c9:
                    e8:fe:1f:c3:a0:13:f8:e4:24:12:ba:91:8e:15:d2:
                    03:f1:8c:b0:aa:e2:34:e4:6b:f8:06:f6:23:8a:92:
                    43:a6:05:dc:e9:c7:a5:a8:06:d7:6e:91:52:72:47:
                    ab:ae:87:fe:b3:0f:04:87:6f:4b:22:29:e9:a9:06:
                    52:58:7d:03:16:d7:d5:31:44:b4:f1:51:44:a7:2a:
                    ba:5e:09:19:ec:4c:a2:e0:58:fe:0d:4e:b7:90:4d:
                    02:ac:2a:ad:99:14:65:3b:0a:3c:73:45:56:b2:0f:
                    10:25:24:51:79:57:1a:34:1a:10:6f:60:e0:fc:81:
                    db:ca:c2:e2:85:1b:4c:72:13:5c:9d:76:cc:d0:21:
                    33:31:56:82:8f:c5:57:b9:44:fd:8b:76:c1:b6:e4:
                    21:8b:35:9a:ee:54:74:9f:72:6b:19:84:d7:a2:3c:
                    a5:6e:11:0a:f1:93:04:2e:dd:7c:4c:7d:62:10:d4:
                    1b:8b:87:f6:ed:bf:12:b1:8b:f0:9a:7a:ee:02:94:
                    e1:3c:46:2b:7f:9c:54:fb:2e:61:c9:1c:ef:fc:de:
                    25:bc:2d:75:1b:1f:49:5e:44:3b:15:93:ad:c4:89:
                    d9:ae:3c:da:54:ef:d9:af:3a:16:cb:94:1b:6a:14:
                    e4:42:f9:75:33:46:6e:fb:40:bc:f8:82:36:cf:60:
                    f5:c2:a2:98:23:a7:2a:ae:c1:aa:22:f8:87:da:b7:
                    9c:a4:cf
                Exponent: 65537 (0x10001)
        X509v3 extensions:
            X509v3 Subject Key Identifier: 
                9D:8F:84:76:94:CD:07:FE:A3:E8:8B:D7:F9:D9:6E:EF:CA:75:51:7B
            X509v3 Authority Key Identifier: 
                keyid:9D:8F:84:76:94:CD:07:FE:A3:E8:8B:D7:F9:D9:6E:EF:CA:75:51:7B
                DirName:/C=BE/CN=txjsonrpc-test-ca
                serial:8D:D2:AF:37:F9:CA:92:0B

            X509v3 Basic Constraints: critical
                CA:TRUE
            Netscape Cert Type: 
                SSL CA, S/MIME CA
            X509v3 Issuer Alternative Name: 
                <EMPTY>

            Netscape Comment: 
                Test CA for txjsonrcp
            X509v3 Subject Alternative Name: 
                <EMPTY>

            X509v3 Key Usage: critical
                Certificate Sign, CRL Sign
    Signature Algorithm: sha1WithRSAEncryption
         06:82:86:81:a9:1b:7e:2d:ef:f5:fc:cc:d2:9d:d6:82:ad:d0:
         6f:7e:3d:b9:5c:b2:0f:3a:64:21:9a:fb:53:b2:93:81:dc:1a:
         24:fc:b8:30:57:a2:c7:71:0d:9c:1a:0b:8a:6c:89:52:8b:8a:
         f5:af:95:3e:b8:08:39:ee:36:50:ac:60:4d:df:2b:49:a2:72:
         f1:3f:12:3c:d9:55:56:a4:9a:77:2b:77:fa:16:b5:76:d9:f4:
         c4:51:6b:b9:fe:2f:a3:52:e8:64:80:49:22:6d:05:42:87:af:
         9d:85:6c:fa:c9:9b:48:39:7b:89:f5:a0:1e:ff:11:d3:9c:78:
         b1:b2:f6:4d:b1:e8:b3:98:23:2c:d4:20:e1:a1:01:3e:26:0a:
         5b:8e:eb:58:45:22:cf:e1:94:ad:84:40:b0:fb:ff:25:5f:31:
         9a:49:0b:36:ad:c6:1a:b0:42:60:40:e2:a2:3c:5a:36:41:89:
         fc:10:c4:60:ea:d4:85:7b:36:84:df:aa:81:cc:69:e7:52:ca:
         c1:46:b1:79:93:51:4f:24:84:42:14:3a:20:a0:6c:27:76:40:
         0f:96:7e:4e:c3:0c:37:b3:e3:73:49:86:58:31:00:1e:e7:0f:
         87:74:b6:4e:6e:1c:7d:87:a4:33:04:c9:76:ec:e5:3a:85:5f:
         a8:d1:ad:21:64:5e:c5:6a:df:b1:02:6e:65:a4:87:72:06:07:
         da:e5:f2:af:2b:a5:eb:18:80:67:83:a5:3c:e6:ed:d1:58:f9:
         90:5c:d6:e9:2f:76:c1:58:13:b8:bd:88:8a:f3:04:48:bb:42:
         8f:7f:c6:db:b4:30:3f:bb:6c:d5:47:e5:ae:8d:4b:da:92:a5:
         db:d3:6e:a8:9b:c2:6b:56:af:34:63:82:e6:78:f8:1f:54:d7:
         41:aa:a3:c9:7c:a6:83:41:bf:6e:33:7c:ae:e6:92:bd:da:27:
         b4:bc:e2:90:4f:33:1b:01:a1:cd:02:13:7a:31:ef:00:d6:9a:
         6e:38:6b:a7:cb:70:98:a8:0f:ff:1c:56:a8:b7:e6:d2:42:5a:
         bb:f4:78:27:71:13:d0:e8:43:eb:bc:2d:4f:e4:ea:4d:4f:76:
         7f:53:38:34:eb:13:e2:3d:c6:14:98:86:1c:ab:2c:0e:b7:68:
         2e:bd:63:a9:6a:8f:d5:22:2d:ab:13:d7:62:54:51:ff:5c:37:
         08:04:27:da:f9:57:77:05:18:73:88:5f:b0:c1:65:50:36:09:
         d6:c7:f5:ae:6e:3f:04:d1:84:3c:21:74:1d:bd:0a:fb:76:d0:
         13:2b:62:bb:24:48:43:89:d0:18:5c:b4:ad:ea:98:af:6d:fc:
         1c:6b:1f:06:64:54:23:88
-----BEGIN CERTIFICATE-----
MIIFwzCCA6ugAwIBAgIJAI3Srzf5ypILMA0GCSqGSIb3DQEBBQUAMCkxCzAJBgNV
BAYTAkJFMRowGAYDVQQDExF0eGpzb25ycGMtdGVzdC1jYTAeFw0xMjA2MjMxNTQ2
MzdaFw0yMjA2MjExNTQ2MzdaMCkxCzAJBgNVBAYTAkJFMRowGAYDVQQDExF0eGpz
b25ycGMtdGVzdC1jYTCCAiIwDQYJKoZIhvcNAQEBBQADggIPADCCAgoCggIBANEl
r3fFqHLPkLk5EPt7dSyh2mqV5UQM1iVLWH+7B4JZSVgyhSTMPnfb4adPyLXL7kU4
vbz743Y7iATKqzqjljtfk5wopmGX3KI/oJMrVmzP009qngXTHM3vdYAamLeSSRQz
uMR8c4x+g6WBolmMi6NRNm1orPLx7W9J2a96Y8FDMUK2x825eLczmHCSbJ4Eenvw
bTiH6wATF7nZ7LRmu1HT/YHjDohxI9KAKmHeqyUCR6nBa8lprtpHtkl0rKbhwXa6
bbHZaG4cN6jiGGA3tlgTbMeSfMZFjO/DgXMQ3C8x4rkFWp4ocFo+HbhocYHJ6P4f
w6AT+OQkErqRjhXSA/GMsKriNORr+Ab2I4qSQ6YF3OnHpagG126RUnJHq66H/rMP
BIdvSyIp6akGUlh9AxbX1TFEtPFRRKcqul4JGexMouBY/g1Ot5BNAqwqrZkUZTsK
PHNFVrIPECUkUXlXGjQaEG9g4PyB28rC4oUbTHITXJ12zNAhMzFWgo/FV7lE/Yt2
wbbkIYs1mu5UdJ9yaxmE16I8pW4RCvGTBC7dfEx9YhDUG4uH9u2/ErGL8Jp67gKU
4TxGK3+cVPsuYckc7/zeJbwtdRsfSV5EOxWTrcSJ2a482lTv2a86FsuUG2oU5EL5
dTNGbvtAvPiCNs9g9cKimCOnKq7BqiL4h9q3nKTPAgMBAAGjge0wgeowHQYDVR0O
BBYEFJ2PhHaUzQf+o+iL1/nZbu/KdVF7MFkGA1UdIwRSMFCAFJ2PhHaUzQf+o+iL
1/nZbu/KdVF7oS2kKzApMQswCQYDVQQGEwJCRTEaMBgGA1UEAxMRdHhqc29ucnBj
LXRlc3QtY2GCCQCN0q83+cqSCzAPBgNVHRMBAf8EBTADAQH/MBEGCWCGSAGG+EIB
AQQEAwIBBjAJBgNVHRIEAjAAMCQGCWCGSAGG+EIBDQQXFhVUZXN0IENBIGZvciB0
eGpzb25yY3AwCQYDVR0RBAIwADAOBgNVHQ8BAf8EBAMCAQYwDQYJKoZIhvcNAQEF
BQADggIBAAaChoGpG34t7/X8zNKd1oKt0G9+Pblcsg86ZCGa+1Oyk4HcGiT8uDBX
osdxDZwaC4psiVKLivWvlT64CDnuNlCsYE3fK0micvE/EjzZVVakmncrd/oWtXbZ
9MRRa7n+L6NS6GSASSJtBUKHr52FbPrJm0g5e4n1oB7/EdOceLGy9k2x6LOYIyzU
IOGhAT4mCluO61hFIs/hlK2EQLD7/yVfMZpJCzatxhqwQmBA4qI8WjZBifwQxGDq
1IV7NoTfqoHMaedSysFGsXmTUU8khEIUOiCgbCd2QA+Wfk7DDDez43NJhlgxAB7n
D4d0tk5uHH2HpDMEyXbs5TqFX6jRrSFkXsVq37ECbmWkh3IGB9rl8q8rpesYgGeD
pTzm7dFY+ZBc1ukvdsFYE7i9iIrzBEi7Qo9/xtu0MD+7bNVH5a6NS9qSpdvTbqib
wmtWrzRjguZ4+B9U10Gqo8l8poNBv24zfK7mkr3aJ7S84pBPMxsBoc0CE3ox7wDW
mm44a6fLcJioD/8cVqi35tJCWrv0eCdxE9DoQ+u8LU/k6k1Pdn9TODTrE+I9xhSY
hhyrLA63aC69Y6lqj9UiLasT12JUUf9cNwgEJ9r5V3cFGHOIX7DBZVA2CdbH9a5u
PwTRhDwhdB29Cvt20BMrYrskSEOJ0BhctK3qmK9t/BxrHwZkVCOI
-----END CERTIFICATE-----
