Certificate:
    Data:
        Version: 4 (0x3)
        Serial Number: 1 (0x1)
    Signature Algorithm: sha1WithRSAEncryption
        Issuer: CN=ca-none, C=BE, O=Gremwell bvba
        Validity
            Not Before: Jan  1 00:00:00 1970 GMT
            Not After : Jan 19 03:14:07 2038 GMT
        Subject: CN=www.example.com, C=BE, O=Gremwell bvba
        Subject Public Key Info:
            Public Key Algorithm: rsaEncryption
                Public-Key: (1024 bit)
                Modulus:
                    00:9b:46:d8:f3:5d:fa:1b:ce:52:e2:77:2b:3d:0a:
                    3c:a8:3e:70:04:e6:9d:6c:94:ce:bb:bb:c0:91:29:
                    41:f0:e3:f9:6f:95:23:d0:9f:cf:ee:82:f6:46:e0:
                    ef:9e:11:ee:7a:3f:b5:33:18:50:a3:b1:a0:85:4d:
                    85:61:2a:a7:a6:8b:f6:4d:a9:44:fd:fe:6c:0b:46:
                    6c:a2:98:9e:93:87:14:59:85:70:4b:bc:bf:bb:78:
                    b4:a1:90:7d:94:9c:11:cc:5c:a6:10:9a:cd:1e:d8:
                    70:a3:c7:be:b4:10:4a:e1:67:67:d0:0c:90:e4:8a:
                    9c:3f:9a:ff:01:ce:dd:3e:71
                Exponent: 65537 (0x10001)
    Signature Algorithm: sha1WithRSAEncryption
         67:23:9a:33:07:57:8f:74:e3:5d:b8:1e:8d:25:96:2a:6b:50:
         05:b7:73:1d:55:f9:25:a4:27:e7:e7:f3:6f:e0:53:bb:10:59:
         23:2d:e1:35:f2:cb:7a:ca:6c:58:6d:b9:b1:32:e9:ce:4b:d9:
         b3:e3:dc:a1:1b:b5:8f:c6:3e:43:1c:38:d3:a9:fe:87:53:67:
         a4:66:e7:9a:5c:2d:3c:4a:b1:b7:b1:ed:30:02:53:66:3e:3a:
         0d:90:30:f8:b2:d0:f8:d6:7e:fa:2b:76:3c:d2:4f:02:e0:70:
         1a:04:43:bf:1c:d2:82:13:73:13:69:84:da:16:af:c9:e5:76:
         2d:b9
-----BEGIN CERTIFICATE-----
MIIB6jCCAVOgAwIBAwIBATANBgkqhkiG9w0BAQUFADA3MRAwDgYDVQQDEwdjYS1u
b25lMQswCQYDVQQGEwJCRTEWMBQGA1UEChMNR3JlbXdlbGwgYnZiYTAeFw03MDAx
MDEwMDAwMDBaFw0zODAxMTkwMzE0MDdaMD8xGDAWBgNVBAMTD3d3dy5leGFtcGxl
LmNvbTELMAkGA1UEBhMCQkUxFjAUBgNVBAoTDUdyZW13ZWxsIGJ2YmEwgZ8wDQYJ
KoZIhvcNAQEBBQADgY0AMIGJAoGBAJtG2PNd+hvOUuJ3Kz0KPKg+cATmnWyUzru7
wJEpQfDj+W+VI9Cfz+6C9kbg754R7no/tTMYUKOxoIVNhWEqp6aL9k2pRP3+bAtG
bKKYnpOHFFmFcEu8v7t4tKGQfZScEcxcphCazR7YcKPHvrQQSuFnZ9AMkOSKnD+a
/wHO3T5xAgMBAAEwDQYJKoZIhvcNAQEFBQADgYEAZyOaMwdXj3TjXbgejSWWKmtQ
BbdzHVX5JaQn5+fzb+BTuxBZIy3hNfLLespsWG25sTLpzkvZs+PcoRu1j8Y+Qxw4
06n+h1NnpGbnmlwtPEqxt7HtMAJTZj46DZAw+LLQ+NZ++it2PNJPAuBwGgRDvxzS
ghNzE2mE2havyeV2Lbk=
-----END CERTIFICATE-----
Certificate:
    Data:
        Version: 4 (0x3)
        Serial Number: 1 (0x1)
    Signature Algorithm: sha1WithRSAEncryption
        Issuer: C=BE, CN=txjsonrpc-test-ca
        Validity
            Not Before: Jan  1 00:00:00 1970 GMT
            Not After : Jan 19 03:14:07 2038 GMT
        Subject: CN=ca-none, C=BE, O=Gremwell bvba
        Subject Public Key Info:
            Public Key Algorithm: rsaEncryption
                Public-Key: (1024 bit)
                Modulus:
                    00:d1:0b:a6:6a:1e:c5:9a:31:de:9a:d2:a2:78:cb:
                    5d:a8:a2:cd:31:ff:1d:94:3e:2b:9d:8c:df:0d:c3:
                    43:cb:70:62:66:b8:29:aa:d8:55:4e:28:95:cc:93:
                    86:07:24:7a:cf:06:3d:80:05:ba:1f:bb:7c:06:a8:
                    ae:16:18:68:20:ad:6c:3e:85:75:8e:08:78:c2:cb:
                    c9:cf:71:b8:f9:b5:e6:16:d2:b0:df:12:c2:af:75:
                    40:48:f9:83:97:dd:7f:97:08:ef:31:5b:17:63:f4:
                    a9:d3:a4:49:fb:ba:f9:00:2b:ed:ae:4e:04:8a:4a:
                    79:88:34:ef:7f:e6:33:e5:f3
                Exponent: 65537 (0x10001)
    Signature Algorithm: sha1WithRSAEncryption
         2b:1f:96:53:56:0e:62:d8:4e:86:65:ac:40:9b:6a:e2:86:f5:
         3d:2f:cf:48:9e:13:7f:71:02:e2:1d:7f:67:2e:43:fb:3b:f9:
         ac:cf:e8:aa:81:2c:52:7e:80:af:13:f6:9a:b8:9c:d7:aa:73:
         ea:b3:cf:24:10:1e:39:d2:28:47:fe:29:27:43:4e:7e:ce:b0:
         02:2e:5d:13:11:e5:eb:1a:23:30:82:b5:8b:41:69:a9:6d:62:
         60:3e:ed:61:60:ab:a1:e6:20:98:8d:65:1a:38:fb:8a:e6:46:
         33:42:93:11:b4:59:f3:b5:fd:2d:6a:5c:f2:bf:19:6d:4b:59:
         22:9b:66:22:10:28:04:ed:3b:5a:9a:84:8c:7e:d2:cb:70:15:
         84:fd:28:3c:e4:8a:70:20:42:91:c3:9f:a4:a2:71:0d:91:da:
         21:30:50:0d:51:e7:c7:38:e4:16:03:f6:2c:ee:ff:d1:b0:91:
         f5:76:0a:15:d8:88:bb:e5:cc:71:6c:ec:fc:11:ce:33:08:bc:
         2f:dc:81:43:f5:be:3c:c8:07:34:27:2b:a6:fe:f8:b2:f4:c5:
         e8:90:52:fc:31:3b:90:40:0a:b8:93:4d:90:b1:56:08:69:3b:
         0a:5f:63:60:de:bb:93:b1:c3:e5:fd:0a:4c:c2:0f:68:69:51:
         2b:dd:33:81:4f:15:eb:8b:ac:fc:6d:c4:7e:89:53:33:62:c7:
         4a:d5:4d:76:c4:aa:c0:8f:55:10:f0:59:6a:e4:79:67:9d:26:
         7c:c6:70:12:ea:a7:5e:79:cd:12:2b:6a:7e:3a:d1:bc:52:12:
         cf:9a:15:8f:be:7b:8c:6a:8a:08:84:9e:94:5c:68:c3:10:8b:
         37:70:61:bf:d9:8f:bf:5f:3a:84:67:0d:66:23:43:38:26:0e:
         cf:38:ab:a7:5f:8d:6c:b3:b8:57:36:c3:6a:ee:01:c8:f7:c8:
         ce:6c:40:ff:f4:74:5a:95:64:9b:41:53:82:4b:9a:bd:89:84:
         d3:6a:2a:1b:6f:a8:e1:54:77:bb:be:dc:e7:bd:58:b3:8d:8b:
         69:4f:71:49:ab:44:f0:af:02:64:0e:70:03:32:d6:df:03:69:
         59:e6:67:27:62:73:62:f6:28:09:b9:e9:2d:44:20:4c:70:c1:
         18:76:53:f4:5c:07:72:3f:40:0b:63:5d:59:43:35:ca:1e:f2:
         f9:67:6c:2b:98:3e:96:82:35:20:6a:08:fe:69:a2:47:63:91:
         14:19:c0:d5:69:8c:55:1d:0b:f8:6e:c2:b2:41:3e:a1:b3:4d:
         81:4e:d7:8c:5a:30:65:9a:ab:3c:a4:d2:48:f1:3f:b7:99:e5:
         b0:d2:09:62:96:c4:90:51
-----BEGIN CERTIFICATE-----
MIIDVTCCAT2gAwIBAwIBATANBgkqhkiG9w0BAQUFADApMQswCQYDVQQGEwJCRTEa
MBgGA1UEAxMRdHhqc29ucnBjLXRlc3QtY2EwHhcNNzAwMTAxMDAwMDAwWhcNMzgw
MTE5MDMxNDA3WjA3MRAwDgYDVQQDEwdjYS1ub25lMQswCQYDVQQGEwJCRTEWMBQG
A1UEChMNR3JlbXdlbGwgYnZiYTCBnzANBgkqhkiG9w0BAQEFAAOBjQAwgYkCgYEA
0Qumah7FmjHemtKieMtdqKLNMf8dlD4rnYzfDcNDy3BiZrgpqthVTiiVzJOGByR6
zwY9gAW6H7t8BqiuFhhoIK1sPoV1jgh4wsvJz3G4+bXmFtKw3xLCr3VASPmDl91/
lwjvMVsXY/Sp06RJ+7r5ACvtrk4Eikp5iDTvf+Yz5fMCAwEAATANBgkqhkiG9w0B
AQUFAAOCAgEAKx+WU1YOYthOhmWsQJtq4ob1PS/PSJ4Tf3EC4h1/Zy5D+zv5rM/o
qoEsUn6ArxP2mric16pz6rPPJBAeOdIoR/4pJ0NOfs6wAi5dExHl6xojMIK1i0Fp
qW1iYD7tYWCroeYgmI1lGjj7iuZGM0KTEbRZ87X9LWpc8r8ZbUtZIptmIhAoBO07
WpqEjH7Sy3AVhP0oPOSKcCBCkcOfpKJxDZHaITBQDVHnxzjkFgP2LO7/0bCR9XYK
FdiIu+XMcWzs/BHOMwi8L9yBQ/W+PMgHNCcrpv74svTF6JBS/DE7kEAKuJNNkLFW
CGk7Cl9jYN67k7HD5f0KTMIPaGlRK90zgU8V64us/G3EfolTM2LHStVNdsSqwI9V
EPBZauR5Z50mfMZwEuqnXnnNEitqfjrRvFISz5oVj757jGqKCISelFxowxCLN3Bh
v9mPv186hGcNZiNDOCYOzzirp1+NbLO4VzbDau4ByPfIzmxA//R0WpVkm0FTgkua
vYmE02oqG2+o4VR3u77c571Ys42LaU9xSatE8K8CZA5wAzLW3wNpWeZnJ2JzYvYo
CbnpLUQgTHDBGHZT9FwHcj9AC2NdWUM1yh7y+WdsK5g+loI1IGoI/mmiR2ORFBnA
1WmMVR0L+G7CskE+obNNgU7XjFowZZqrPKTSSPE/t5nlsNIJYpbEkFE=
-----END CERTIFICATE-----
