Certificate:
    Data:
        Version: 4 (0x3)
        Serial Number: 1 (0x1)
    Signature Algorithm: sha1WithRSAEncryption
        Issuer: CN=ca-false, C=BE, O=Gremwell bvba
        Validity
            Not Before: Jan  1 00:00:00 1970 GMT
            Not After : Jan 19 03:14:07 2038 GMT
        Subject: CN=www.example.com, C=BE, O=Gremwell bvba
        Subject Public Key Info:
            Public Key Algorithm: rsaEncryption
                Public-Key: (1024 bit)
                Modulus:
                    00:9b:46:d8:f3:5d:fa:1b:ce:52:e2:77:2b:3d:0a:
                    3c:a8:3e:70:04:e6:9d:6c:94:ce:bb:bb:c0:91:29:
                    41:f0:e3:f9:6f:95:23:d0:9f:cf:ee:82:f6:46:e0:
                    ef:9e:11:ee:7a:3f:b5:33:18:50:a3:b1:a0:85:4d:
                    85:61:2a:a7:a6:8b:f6:4d:a9:44:fd:fe:6c:0b:46:
                    6c:a2:98:9e:93:87:14:59:85:70:4b:bc:bf:bb:78:
                    b4:a1:90:7d:94:9c:11:cc:5c:a6:10:9a:cd:1e:d8:
                    70:a3:c7:be:b4:10:4a:e1:67:67:d0:0c:90:e4:8a:
                    9c:3f:9a:ff:01:ce:dd:3e:71
                Exponent: 65537 (0x10001)
    Signature Algorithm: sha1WithRSAEncryption
         69:49:16:1a:75:23:e3:eb:75:bc:31:f2:99:59:2b:71:3f:9c:
         15:af:96:41:53:98:b1:d1:7b:61:4a:21:8a:85:f9:81:5a:35:
         cc:46:74:86:3b:6d:78:69:28:a1:22:73:ee:06:7b:f3:e7:e0:
         5a:e8:69:f3:8d:bd:33:00:8c:c0:d8:bf:cc:1b:21:b2:dd:6d:
         68:0b:6e:a1:b6:50:37:09:af:a3:cb:73:e0:c4:3f:cb:a4:32:
         f4:29:12:16:f5:b8:07:80:15:60:b9:af:53:7d:e5:33:ba:44:
         1d:1a:c5:bb:c3:87:42:6e:8f:e0:88:16:f8:44:07:9a:e5:23:
         0a:43
-----BEGIN CERTIFICATE-----
MIIB6zCCAVSgAwIBAwIBATANBgkqhkiG9w0BAQUFADA4MREwDwYDVQQDEwhjYS1m
YWxzZTELMAkGA1UEBhMCQkUxFjAUBgNVBAoTDUdyZW13ZWxsIGJ2YmEwHhcNNzAw
MTAxMDAwMDAwWhcNMzgwMTE5MDMxNDA3WjA/MRgwFgYDVQQDEw93d3cuZXhhbXBs
ZS5jb20xCzAJBgNVBAYTAkJFMRYwFAYDVQQKEw1HcmVtd2VsbCBidmJhMIGfMA0G
CSqGSIb3DQEBAQUAA4GNADCBiQKBgQCbRtjzXfobzlLidys9CjyoPnAE5p1slM67
u8CRKUHw4/lvlSPQn8/ugvZG4O+eEe56P7UzGFCjsaCFTYVhKqemi/ZNqUT9/mwL
RmyimJ6ThxRZhXBLvL+7eLShkH2UnBHMXKYQms0e2HCjx760EErhZ2fQDJDkipw/
mv8Bzt0+cQIDAQABMA0GCSqGSIb3DQEBBQUAA4GBAGlJFhp1I+Prdbwx8plZK3E/
nBWvlkFTmLHRe2FKIYqF+YFaNcxGdIY7bXhpKKEic+4Ge/Pn4FroafONvTMAjMDY
v8wbIbLdbWgLbqG2UDcJr6PLc+DEP8ukMvQpEhb1uAeAFWC5r1N95TO6RB0axbvD
h0Juj+CIFvhEB5rlIwpD
-----END CERTIFICATE-----
Certificate:
    Data:
        Version: 4 (0x3)
        Serial Number: 1 (0x1)
    Signature Algorithm: sha1WithRSAEncryption
        Issuer: C=BE, CN=txjsonrpc-test-ca
        Validity
            Not Before: Jan  1 00:00:00 1970 GMT
            Not After : Jan 19 03:14:07 2038 GMT
        Subject: CN=ca-false, C=BE, O=Gremwell bvba
        Subject Public Key Info:
            Public Key Algorithm: rsaEncryption
                Public-Key: (1024 bit)
                Modulus:
                    00:ca:92:f3:a1:a6:bf:98:fd:15:13:c5:89:1e:a1:
                    da:c5:68:92:bc:bb:f4:55:e9:7a:ed:d8:34:d2:52:
                    0a:54:da:f8:42:2a:77:71:22:cd:7d:04:52:f6:ba:
                    1f:5f:8c:16:62:3b:06:0e:50:33:9a:69:19:67:84:
                    f8:be:ee:ef:1e:68:4c:ca:66:04:e1:46:6a:e0:50:
                    70:0c:b1:65:98:a4:0b:50:37:bb:c3:fc:62:03:34:
                    f7:c8:00:16:ac:38:63:b9:c6:05:24:3d:d4:3f:6e:
                    9a:22:06:34:d1:ee:d8:55:16:f5:fd:8a:7f:a7:f2:
                    03:a2:82:e3:80:a0:65:37:71
                Exponent: 65537 (0x10001)
        X509v3 extensions:
            X509v3 Basic Constraints: critical
                CA:FALSE
    Signature Algorithm: sha1WithRSAEncryption
         7b:26:a9:35:8c:c8:bb:76:88:7c:8b:53:b3:24:6b:04:65:1a:
         2b:a9:f7:13:e2:20:36:cf:e1:5f:ff:ce:21:a9:de:85:40:b4:
         6d:b2:c8:08:92:51:66:c7:26:a5:13:2e:68:dd:3a:59:ed:82:
         b8:21:08:b9:c3:77:79:f9:62:d0:75:88:ad:70:aa:6d:96:14:
         6b:03:6d:a7:ce:80:6a:63:b8:a2:02:4d:16:d1:4c:46:c6:00:
         63:13:d3:88:b2:57:25:19:a2:0e:0d:0b:eb:0c:74:f5:89:5e:
         e7:9c:29:b0:97:10:c1:ce:d1:1e:16:b6:7a:b5:c4:9d:96:9c:
         f8:72:4e:4e:f6:e8:cc:b0:61:0f:22:62:3a:41:0e:1b:21:06:
         0f:cd:3b:30:c7:5e:0b:1a:aa:07:86:a4:f9:0c:55:1b:fe:90:
         7b:c3:23:2d:99:63:62:e6:a5:2a:53:c1:09:21:2b:63:8c:18:
         79:93:ae:d6:d8:34:d3:26:b5:3c:d1:51:3a:79:ac:0c:4d:8f:
         e7:35:67:e1:b9:db:91:da:55:33:06:db:9d:1a:0b:d2:51:95:
         b6:0b:95:d2:b3:01:d7:5f:a1:80:39:f3:f9:08:3d:eb:45:1c:
         43:c6:d8:7b:24:50:62:e6:ac:34:c2:90:bf:fc:69:ff:d8:ad:
         c5:50:24:a8:f1:51:46:37:55:1d:0d:ca:94:21:bd:d7:05:77:
         9e:bd:41:0f:22:fe:81:11:06:02:86:e6:32:ac:ef:12:5d:76:
         7d:48:09:11:fc:89:25:f5:5e:01:ea:73:bb:92:e3:f6:bd:30:
         f5:dd:34:26:9a:58:89:56:85:6a:b3:97:6e:7c:f7:d0:65:54:
         b3:cf:4a:c4:c1:46:72:fd:6e:fd:73:cb:33:ec:84:a3:04:9f:
         3d:9c:89:7a:b7:41:8e:28:94:4c:bb:0d:48:38:0c:ef:63:3e:
         bb:9e:6a:48:5a:87:69:e7:58:4e:5c:ef:45:b0:65:b9:c2:a4:
         31:04:cc:f5:3a:76:a9:34:70:d6:2f:c6:5a:1d:9f:41:d4:2f:
         73:94:38:4a:4b:e5:06:09:e7:ff:13:6c:bf:cb:b8:a1:55:74:
         4c:74:bc:9b:c4:bb:13:a5:9d:a2:2f:e4:a3:b1:37:0e:12:c7:
         54:ca:c5:14:66:60:e9:0a:4e:2c:ec:bf:8f:36:90:84:e4:33:
         7a:e5:5a:69:0e:c2:95:ea:02:46:e4:ff:9a:95:be:29:22:be:
         29:6f:59:00:5c:6f:36:e3:7f:f7:a8:7b:95:19:3b:a4:12:a8:
         4e:94:64:62:aa:91:db:c2:2e:36:58:f8:31:5c:c5:f3:bc:55:
         a2:32:19:70:a1:fa:59:6c
-----BEGIN CERTIFICATE-----
MIIDaDCCAVCgAwIBAwIBATANBgkqhkiG9w0BAQUFADApMQswCQYDVQQGEwJCRTEa
MBgGA1UEAxMRdHhqc29ucnBjLXRlc3QtY2EwHhcNNzAwMTAxMDAwMDAwWhcNMzgw
MTE5MDMxNDA3WjA4MREwDwYDVQQDEwhjYS1mYWxzZTELMAkGA1UEBhMCQkUxFjAU
BgNVBAoTDUdyZW13ZWxsIGJ2YmEwgZ8wDQYJKoZIhvcNAQEBBQADgY0AMIGJAoGB
AMqS86Gmv5j9FRPFiR6h2sVokry79FXpeu3YNNJSClTa+EIqd3EizX0EUva6H1+M
FmI7Bg5QM5ppGWeE+L7u7x5oTMpmBOFGauBQcAyxZZikC1A3u8P8YgM098gAFqw4
Y7nGBSQ91D9umiIGNNHu2FUW9f2Kf6fyA6KC44CgZTdxAgMBAAGjEDAOMAwGA1Ud
EwEB/wQCMAAwDQYJKoZIhvcNAQEFBQADggIBAHsmqTWMyLt2iHyLU7MkawRlGiup
9xPiIDbP4V//ziGp3oVAtG2yyAiSUWbHJqUTLmjdOlntgrghCLnDd3n5YtB1iK1w
qm2WFGsDbafOgGpjuKICTRbRTEbGAGMT04iyVyUZog4NC+sMdPWJXuecKbCXEMHO
0R4Wtnq1xJ2WnPhyTk726MywYQ8iYjpBDhshBg/NOzDHXgsaqgeGpPkMVRv+kHvD
Iy2ZY2LmpSpTwQkhK2OMGHmTrtbYNNMmtTzRUTp5rAxNj+c1Z+G525HaVTMG250a
C9JRlbYLldKzAddfoYA58/kIPetFHEPG2HskUGLmrDTCkL/8af/YrcVQJKjxUUY3
VR0NypQhvdcFd569QQ8i/oERBgKG5jKs7xJddn1ICRH8iSX1XgHqc7uS4/a9MPXd
NCaaWIlWhWqzl25899BlVLPPSsTBRnL9bv1zyzPshKMEnz2ciXq3QY4olEy7DUg4
DO9jPrueakhah2nnWE5c70WwZbnCpDEEzPU6dqk0cNYvxlodn0HUL3OUOEpL5QYJ
5/8TbL/LuKFVdEx0vJvEuxOlnaIv5KOxNw4Sx1TKxRRmYOkKTizsv482kITkM3rl
WmkOwpXqAkbk/5qVvikivilvWQBcbzbjf/eoe5UZO6QSqE6UZGKqkdvCLjZY+DFc
xfO8VaIyGXCh+lls
-----END CERTIFICATE-----
