Certificate:
    Data:
        Version: 4 (0x3)
        Serial Number: 1 (0x1)
    Signature Algorithm: sha1WithRSAEncryption
        Issuer: CN=ca-true, C=BE, O=Gremwell bvba
        Validity
            Not Before: Jan  1 00:00:00 1970 GMT
            Not After : Jan 19 03:14:07 2038 GMT
        Subject: CN=www.example.com, C=BE, O=Gremwell bvba
        Subject Public Key Info:
            Public Key Algorithm: rsaEncryption
                Public-Key: (1024 bit)
                Modulus:
                    00:9b:46:d8:f3:5d:fa:1b:ce:52:e2:77:2b:3d:0a:
                    3c:a8:3e:70:04:e6:9d:6c:94:ce:bb:bb:c0:91:29:
                    41:f0:e3:f9:6f:95:23:d0:9f:cf:ee:82:f6:46:e0:
                    ef:9e:11:ee:7a:3f:b5:33:18:50:a3:b1:a0:85:4d:
                    85:61:2a:a7:a6:8b:f6:4d:a9:44:fd:fe:6c:0b:46:
                    6c:a2:98:9e:93:87:14:59:85:70:4b:bc:bf:bb:78:
                    b4:a1:90:7d:94:9c:11:cc:5c:a6:10:9a:cd:1e:d8:
                    70:a3:c7:be:b4:10:4a:e1:67:67:d0:0c:90:e4:8a:
                    9c:3f:9a:ff:01:ce:dd:3e:71
                Exponent: 65537 (0x10001)
    Signature Algorithm: sha1WithRSAEncryption
         aa:2d:73:2c:d4:ad:a3:f2:01:46:76:81:a8:90:e3:59:23:ff:
         96:6e:92:25:9f:ce:90:88:66:02:0a:55:5d:07:0f:f1:c6:44:
         cf:15:4c:37:7d:2e:34:b9:28:13:97:bf:8c:0c:c0:1f:4f:ee:
         d3:96:f6:ff:7f:28:f6:48:fc:a4:59:e1:a7:27:dd:7b:fb:0b:
         f0:65:ee:d7:5f:8f:8b:aa:4f:a5:c4:53:20:72:9c:be:a5:c2:
         fb:9a:82:ae:ee:51:22:c0:c7:01:af:c7:11:5f:ac:27:1b:e5:
         3f:1f:52:10:41:63:58:ae:ef:1d:21:ff:24:24:18:fb:3e:66:
         63:d4
-----BEGIN CERTIFICATE-----
MIIB6jCCAVOgAwIBAwIBATANBgkqhkiG9w0BAQUFADA3MRAwDgYDVQQDEwdjYS10
cnVlMQswCQYDVQQGEwJCRTEWMBQGA1UEChMNR3JlbXdlbGwgYnZiYTAeFw03MDAx
MDEwMDAwMDBaFw0zODAxMTkwMzE0MDdaMD8xGDAWBgNVBAMTD3d3dy5leGFtcGxl
LmNvbTELMAkGA1UEBhMCQkUxFjAUBgNVBAoTDUdyZW13ZWxsIGJ2YmEwgZ8wDQYJ
KoZIhvcNAQEBBQADgY0AMIGJAoGBAJtG2PNd+hvOUuJ3Kz0KPKg+cATmnWyUzru7
wJEpQfDj+W+VI9Cfz+6C9kbg754R7no/tTMYUKOxoIVNhWEqp6aL9k2pRP3+bAtG
bKKYnpOHFFmFcEu8v7t4tKGQfZScEcxcphCazR7YcKPHvrQQSuFnZ9AMkOSKnD+a
/wHO3T5xAgMBAAEwDQYJKoZIhvcNAQEFBQADgYEAqi1zLNSto/IBRnaBqJDjWSP/
lm6SJZ/OkIhmAgpVXQcP8cZEzxVMN30uNLkoE5e/jAzAH0/u05b2/38o9kj8pFnh
pyfde/sL8GXu11+Pi6pPpcRTIHKcvqXC+5qCru5RIsDHAa/HEV+sJxvlPx9SEEFj
WK7vHSH/JCQY+z5mY9Q=
-----END CERTIFICATE-----
Certificate:
    Data:
        Version: 4 (0x3)
        Serial Number: 1 (0x1)
    Signature Algorithm: sha1WithRSAEncryption
        Issuer: C=BE, CN=txjsonrpc-test-ca
        Validity
            Not Before: Jan  1 00:00:00 1970 GMT
            Not After : Jan 19 03:14:07 2038 GMT
        Subject: CN=ca-true, C=BE, O=Gremwell bvba
        Subject Public Key Info:
            Public Key Algorithm: rsaEncryption
                Public-Key: (1024 bit)
                Modulus:
                    00:bd:34:d2:a1:41:db:41:a6:d4:37:1f:f2:93:01:
                    b5:4a:93:40:e4:f4:67:1f:dc:0a:16:64:69:c7:49:
                    9a:1f:f6:b0:7b:13:e3:09:cd:af:4e:fa:06:15:1d:
                    13:0c:53:57:00:c4:a8:b7:af:f2:6d:5d:82:e4:27:
                    e9:10:a4:96:65:72:12:43:6f:78:9b:6d:5c:f2:0f:
                    0d:19:15:29:1e:1e:43:5e:11:2e:78:75:e9:40:18:
                    8f:37:d8:60:c1:15:7c:8a:bd:25:5b:24:5d:cc:23:
                    84:e9:ca:00:34:38:cf:c0:b8:6f:33:6c:1c:88:42:
                    bc:ba:87:13:56:c2:95:6e:f7
                Exponent: 65537 (0x10001)
        X509v3 extensions:
            X509v3 Basic Constraints: critical
                CA:TRUE
    Signature Algorithm: sha1WithRSAEncryption
         03:66:8f:97:cc:bd:2a:42:d8:26:a1:0e:92:12:38:50:b8:5a:
         67:44:b2:59:fa:41:5b:47:9a:3c:f0:22:cb:b1:7d:bd:04:14:
         0a:d2:59:2a:3f:19:fa:94:4f:36:86:4f:f8:c3:9f:6f:eb:df:
         b4:ac:66:95:1f:17:91:6e:53:30:21:92:e9:7f:5e:20:56:fc:
         4e:cb:0b:e4:c2:7a:13:6e:d5:d6:c3:17:b1:3e:21:c6:ad:2a:
         43:c4:05:9b:b5:11:9e:7c:3d:e6:71:4d:75:e5:fa:72:81:d9:
         26:bb:58:94:55:fe:64:91:1b:95:a2:1e:98:c9:08:36:5a:ba:
         9e:66:58:31:8b:5d:65:5b:68:96:f5:7f:44:4b:b2:f8:dc:ae:
         cf:ef:da:53:31:43:d9:3b:0b:c4:8e:cb:df:de:d8:61:3a:e7:
         25:59:e5:f8:4f:64:7a:60:88:37:b3:8d:e9:53:79:a7:11:85:
         62:c6:8d:34:85:16:31:27:6c:52:8b:da:9a:4e:05:87:28:aa:
         d7:d6:b1:60:dc:5d:15:0f:9d:14:e9:ad:50:5a:ea:6c:4c:b1:
         cf:3b:9e:81:fa:d3:5e:57:72:98:c9:11:4b:c7:87:60:0d:c1:
         10:56:86:e0:02:77:2f:37:d6:b3:fe:7a:a9:19:a4:c2:4b:19:
         27:81:76:3e:09:c5:ce:b2:73:5d:30:d5:c5:fa:d9:9b:99:0d:
         06:f3:50:00:5e:8f:7d:db:7f:e3:19:5e:09:e4:fa:03:00:b3:
         93:c4:e3:f2:86:54:ec:0d:3c:15:67:24:ab:02:23:5b:7c:e0:
         20:dd:04:7e:b2:50:2a:a0:db:25:ae:d3:46:04:74:6d:d7:51:
         d8:28:f4:85:19:a6:f5:5c:96:b2:30:49:07:68:35:71:72:af:
         20:18:2e:d8:1e:65:35:1f:55:e3:b6:65:9c:b1:bc:1a:44:91:
         93:f6:24:db:d3:4c:f2:ed:56:87:3a:d9:f3:83:a9:3a:03:17:
         b7:14:f0:3e:67:89:bc:72:88:8e:72:f6:6e:a8:54:5c:d9:cf:
         41:23:73:52:dd:37:4d:e7:74:e5:83:64:38:aa:e6:d0:4f:c0:
         01:9f:26:4b:6b:b6:0c:b5:4d:ea:48:7f:ee:63:c7:7a:e0:87:
         09:1e:1d:2a:5b:78:1b:7b:87:72:70:a2:33:d5:08:57:c0:6c:
         1a:2d:fd:8c:69:6a:fc:70:75:3b:f9:db:30:77:a5:2a:d6:30:
         d4:fa:82:3f:85:66:49:da:c4:d3:d0:1a:be:83:61:39:95:21:
         e9:f7:5e:1c:c9:f7:b1:5c:79:5d:42:c8:96:5a:09:63:d7:32:
         85:c3:fe:44:bd:ba:e3:5c
-----BEGIN CERTIFICATE-----
MIIDajCCAVKgAwIBAwIBATANBgkqhkiG9w0BAQUFADApMQswCQYDVQQGEwJCRTEa
MBgGA1UEAxMRdHhqc29ucnBjLXRlc3QtY2EwHhcNNzAwMTAxMDAwMDAwWhcNMzgw
MTE5MDMxNDA3WjA3MRAwDgYDVQQDEwdjYS10cnVlMQswCQYDVQQGEwJCRTEWMBQG
A1UEChMNR3JlbXdlbGwgYnZiYTCBnzANBgkqhkiG9w0BAQEFAAOBjQAwgYkCgYEA
vTTSoUHbQabUNx/ykwG1SpNA5PRnH9wKFmRpx0maH/awexPjCc2vTvoGFR0TDFNX
AMSot6/ybV2C5CfpEKSWZXISQ294m21c8g8NGRUpHh5DXhEueHXpQBiPN9hgwRV8
ir0lWyRdzCOE6coANDjPwLhvM2wciEK8uocTVsKVbvcCAwEAAaMTMBEwDwYDVR0T
AQH/BAUwAwEB/zANBgkqhkiG9w0BAQUFAAOCAgEAA2aPl8y9KkLYJqEOkhI4ULha
Z0SyWfpBW0eaPPAiy7F9vQQUCtJZKj8Z+pRPNoZP+MOfb+vftKxmlR8XkW5TMCGS
6X9eIFb8TssL5MJ6E27V1sMXsT4hxq0qQ8QFm7URnnw95nFNdeX6coHZJrtYlFX+
ZJEblaIemMkINlq6nmZYMYtdZVtolvV/REuy+Nyuz+/aUzFD2TsLxI7L397YYTrn
JVnl+E9kemCIN7ON6VN5pxGFYsaNNIUWMSdsUovamk4Fhyiq19axYNxdFQ+dFOmt
UFrqbEyxzzuegfrTXldymMkRS8eHYA3BEFaG4AJ3LzfWs/56qRmkwksZJ4F2PgnF
zrJzXTDVxfrZm5kNBvNQAF6Pfdt/4xleCeT6AwCzk8Tj8oZU7A08FWckqwIjW3zg
IN0EfrJQKqDbJa7TRgR0bddR2Cj0hRmm9VyWsjBJB2g1cXKvIBgu2B5lNR9V47Zl
nLG8GkSRk/Yk29NM8u1WhzrZ84OpOgMXtxTwPmeJvHKIjnL2bqhUXNnPQSNzUt03
Ted05YNkOKrm0E/AAZ8mS2u2DLVN6kh/7mPHeuCHCR4dKlt4G3uHcnCiM9UIV8Bs
Gi39jGlq/HB1O/nbMHelKtYw1PqCP4VmSdrE09AavoNhOZUh6fdeHMn3sVx5XULI
lloJY9cyhcP+RL2641w=
-----END CERTIFICATE-----
