Certificate:
    Data:
        Version: 4 (0x3)
        Serial Number: 1 (0x1)
    Signature Algorithm: sha1WithRSAEncryption
        Issuer: C=BE, CN=txjsonrpc-test-ca
        Validity
            Not Before: Jan  1 00:00:00 1970 GMT
            Not After : Jan 19 03:14:07 2038 GMT
        Subject: CN=ca-none, C=BE, O=Gremwell bvba
        Subject Public Key Info:
            Public Key Algorithm: rsaEncryption
                Public-Key: (1024 bit)
                Modulus:
                    00:d1:0b:a6:6a:1e:c5:9a:31:de:9a:d2:a2:78:cb:
                    5d:a8:a2:cd:31:ff:1d:94:3e:2b:9d:8c:df:0d:c3:
                    43:cb:70:62:66:b8:29:aa:d8:55:4e:28:95:cc:93:
                    86:07:24:7a:cf:06:3d:80:05:ba:1f:bb:7c:06:a8:
                    ae:16:18:68:20:ad:6c:3e:85:75:8e:08:78:c2:cb:
                    c9:cf:71:b8:f9:b5:e6:16:d2:b0:df:12:c2:af:75:
                    40:48:f9:83:97:dd:7f:97:08:ef:31:5b:17:63:f4:
                    a9:d3:a4:49:fb:ba:f9:00:2b:ed:ae:4e:04:8a:4a:
                    79:88:34:ef:7f:e6:33:e5:f3
                Exponent: 65537 (0x10001)
    Signature Algorithm: sha1WithRSAEncryption
         2b:1f:96:53:56:0e:62:d8:4e:86:65:ac:40:9b:6a:e2:86:f5:
         3d:2f:cf:48:9e:13:7f:71:02:e2:1d:7f:67:2e:43:fb:3b:f9:
         ac:cf:e8:aa:81:2c:52:7e:80:af:13:f6:9a:b8:9c:d7:aa:73:
         ea:b3:cf:24:10:1e:39:d2:28:47:fe:29:27:43:4e:7e:ce:b0:
         02:2e:5d:13:11:e5:eb:1a:23:30:82:b5:8b:41:69:a9:6d:62:
         60:3e:ed:61:60:ab:a1:e6:20:98:8d:65:1a:38:fb:8a:e6:46:
         33:42:93:11:b4:59:f3:b5:fd:2d:6a:5c:f2:bf:19:6d:4b:59:
         22:9b:66:22:10:28:04:ed:3b:5a:9a:84:8c:7e:d2:cb:70:15:
         84:fd:28:3c:e4:8a:70:20:42:91:c3:9f:a4:a2:71:0d:91:da:
         21:30:50:0d:51:e7:c7:38:e4:16:03:f6:2c:ee:ff:d1:b0:91:
         f5:76:0a:15:d8:88:bb:e5:cc:71:6c:ec:fc:11:ce:33:08:bc:
         2f:dc:81:43:f5:be:3c:c8:07:34:27:2b:a6:fe:f8:b2:f4:c5:
         e8:90:52:fc:31:3b:90:40:0a:b8:93:4d:90:b1:56:08:69:3b:
         0a:5f:63:60:de:bb:93:b1:c3:e5:fd:0a:4c:c2:0f:68:69:51:
         2b:dd:33:81:4f:15:eb:8b:ac:fc:6d:c4:7e:89:53:33:62:c7:
         4a:d5:4d:76:c4:aa:c0:8f:55:10:f0:59:6a:e4:79:67:9d:26:
         7c:c6:70:12:ea:a7:5e:79:cd:12:2b:6a:7e:3a:d1:bc:52:12:
         cf:9a:15:8f:be:7b:8c:6a:8a:08:84:9e:94:5c:68:c3:10:8b:
         37:70:61:bf:d9:8f:bf:5f:3a:84:67:0d:66:23:43:38:26:0e:
         cf:38:ab:a7:5f:8d:6c:b3:b8:57:36:c3:6a:ee:01:c8:f7:c8:
         ce:6c:40:ff:f4:74:5a:95:64:9b:41:53:82:4b:9a:bd:89:84:
         d3:6a:2a:1b:6f:a8:e1:54:77:bb:be:dc:e7:bd:58:b3:8d:8b:
         69:4f:71:49:ab:44:f0:af:02:64:0e:70:03:32:d6:df:03:69:
         59:e6:67:27:62:73:62:f6:28:09:b9:e9:2d:44:20:4c:70:c1:
         18:76:53:f4:5c:07:72:3f:40:0b:63:5d:59:43:35:ca:1e:f2:
         f9:67:6c:2b:98:3e:96:82:35:20:6a:08:fe:69:a2:47:63:91:
         14:19:c0:d5:69:8c:55:1d:0b:f8:6e:c2:b2:41:3e:a1:b3:4d:
         81:4e:d7:8c:5a:30:65:9a:ab:3c:a4:d2:48:f1:3f:b7:99:e5:
         b0:d2:09:62:96:c4:90:51
-----BEGIN CERTIFICATE-----
MIIDVTCCAT2gAwIBAwIBATANBgkqhkiG9w0BAQUFADApMQswCQYDVQQGEwJCRTEa
MBgGA1UEAxMRdHhqc29ucnBjLXRlc3QtY2EwHhcNNzAwMTAxMDAwMDAwWhcNMzgw
MTE5MDMxNDA3WjA3MRAwDgYDVQQDEwdjYS1ub25lMQswCQYDVQQGEwJCRTEWMBQG
A1UEChMNR3JlbXdlbGwgYnZiYTCBnzANBgkqhkiG9w0BAQEFAAOBjQAwgYkCgYEA
0Qumah7FmjHemtKieMtdqKLNMf8dlD4rnYzfDcNDy3BiZrgpqthVTiiVzJOGByR6
zwY9gAW6H7t8BqiuFhhoIK1sPoV1jgh4wsvJz3G4+bXmFtKw3xLCr3VASPmDl91/
lwjvMVsXY/Sp06RJ+7r5ACvtrk4Eikp5iDTvf+Yz5fMCAwEAATANBgkqhkiG9w0B
AQUFAAOCAgEAKx+WU1YOYthOhmWsQJtq4ob1PS/PSJ4Tf3EC4h1/Zy5D+zv5rM/o
qoEsUn6ArxP2mric16pz6rPPJBAeOdIoR/4pJ0NOfs6wAi5dExHl6xojMIK1i0Fp
qW1iYD7tYWCroeYgmI1lGjj7iuZGM0KTEbRZ87X9LWpc8r8ZbUtZIptmIhAoBO07
WpqEjH7Sy3AVhP0oPOSKcCBCkcOfpKJxDZHaITBQDVHnxzjkFgP2LO7/0bCR9XYK
FdiIu+XMcWzs/BHOMwi8L9yBQ/W+PMgHNCcrpv74svTF6JBS/DE7kEAKuJNNkLFW
CGk7Cl9jYN67k7HD5f0KTMIPaGlRK90zgU8V64us/G3EfolTM2LHStVNdsSqwI9V
EPBZauR5Z50mfMZwEuqnXnnNEitqfjrRvFISz5oVj757jGqKCISelFxowxCLN3Bh
v9mPv186hGcNZiNDOCYOzzirp1+NbLO4VzbDau4ByPfIzmxA//R0WpVkm0FTgkua
vYmE02oqG2+o4VR3u77c571Ys42LaU9xSatE8K8CZA5wAzLW3wNpWeZnJ2JzYvYo
CbnpLUQgTHDBGHZT9FwHcj9AC2NdWUM1yh7y+WdsK5g+loI1IGoI/mmiR2ORFBnA
1WmMVR0L+G7CskE+obNNgU7XjFowZZqrPKTSSPE/t5nlsNIJYpbEkFE=
-----END CERTIFICATE-----
Certificate:
    Data:
        Version: 3 (0x2)
        Serial Number: 10219423159405941259 (0x8dd2af37f9ca920b)
    Signature Algorithm: sha1WithRSAEncryption
        Issuer: C=BE, CN=txjsonrpc-test-ca
        Validity
            Not Before: Jun 23 15:46:37 2012 GMT
            Not After : Jun 21 15:46:37 2022 GMT
        Subject: C=BE, CN=txjsonrpc-test-ca
        Subject Public Key Info:
            Public Key Algorithm: rsaEncryption
                Public-Key: (4096 bit)
                Modulus:
                    00:d1:25:af:77:c5:a8:72:cf:90:b9:39:10:fb:7b:
                    75:2c:a1:da:6a:95:e5:44:0c:d6:25:4b:58:7f:bb:
                    07:82:59:49:58:32:85:24:cc:3e:77:db:e1:a7:4f:
                    c8:b5:cb:ee:45:38:bd:bc:fb:e3:76:3b:88:04:ca:
                    ab:3a:a3:96:3b:5f:93:9c:28:a6:61:97:dc:a2:3f:
                    a0:93:2b:56:6c:cf:d3:4f:6a:9e:05:d3:1c:cd:ef:
                    75:80:1a:98:b7:92:49:14:33:b8:c4:7c:73:8c:7e:
                    83:a5:81:a2:59:8c:8b:a3:51:36:6d:68:ac:f2:f1:
                    ed:6f:49:d9:af:7a:63:c1:43:31:42:b6:c7:cd:b9:
                    78:b7:33:98:70:92:6c:9e:04:7a:7b:f0:6d:38:87:
                    eb:00:13:17:b9:d9:ec:b4:66:bb:51:d3:fd:81:e3:
                    0e:88:71:23:d2:80:2a:61:de:ab:25:02:47:a9:c1:
                    6b:c9:69:ae:da:47:b6:49:74:ac:a6:e1:c1:76:ba:
                    6d:b1:d9:68:6e:1c:37:a8:e2:18:60:37:b6:58:13:
                    6c:c7:92:7c:c6:45:8c:ef:c3:81:73:10:dc:2f:31:
                    e2:b9:05:5a:9e:28:70:5a:3e:1d:b8:68:71:81:c9:
                    e8:fe:1f:c3:a0:13:f8:e4:24:12:ba:91:8e:15:d2:
                    03:f1:8c:b0:aa:e2:34:e4:6b:f8:06:f6:23:8a:92:
                    43:a6:05:dc:e9:c7:a5:a8:06:d7:6e:91:52:72:47:
                    ab:ae:87:fe:b3:0f:04:87:6f:4b:22:29:e9:a9:06:
                    52:58:7d:03:16:d7:d5:31:44:b4:f1:51:44:a7:2a:
                    ba:5e:09:19:ec:4c:a2:e0:58:fe:0d:4e:b7:90:4d:
                    02:ac:2a:ad:99:14:65:3b:0a:3c:73:45:56:b2:0f:
                    10:25:24:51:79:57:1a:34:1a:10:6f:60:e0:fc:81:
                    db:ca:c2:e2:85:1b:4c:72:13:5c:9d:76:cc:d0:21:
                    33:31:56:82:8f:c5:57:b9:44:fd:8b:76:c1:b6:e4:
                    21:8b:35:9a:ee:54:74:9f:72:6b:19:84:d7:a2:3c:
                    a5:6e:11:0a:f1:93:04:2e:dd:7c:4c:7d:62:10:d4:
                    1b:8b:87:f6:ed:bf:12:b1:8b:f0:9a:7a:ee:02:94:
                    e1:3c:46:2b:7f:9c:54:fb:2e:61:c9:1c:ef:fc:de:
                    25:bc:2d:75:1b:1f:49:5e:44:3b:15:93:ad:c4:89:
                    d9:ae:3c:da:54:ef:d9:af:3a:16:cb:94:1b:6a:14:
                    e4:42:f9:75:33:46:6e:fb:40:bc:f8:82:36:cf:60:
                    f5:c2:a2:98:23:a7:2a:ae:c1:aa:22:f8:87:da:b7:
                    9c:a4:cf
                Exponent: 65537 (0x10001)
        X509v3 extensions:
            X509v3 Subject Key Identifier: 
                9D:8F:84:76:94:CD:07:FE:A3:E8:8B:D7:F9:D9:6E:EF:CA:75:51:7B
            X509v3 Authority Key Identifier: 
                keyid:9D:8F:84:76:94:CD:07:FE:A3:E8:8B:D7:F9:D9:6E:EF:CA:75:51:7B
                DirName:/C=BE/CN=txjsonrpc-test-ca
                serial:8D:D2:AF:37:F9:CA:92:0B

            X509v3 Basic Constraints: critical
                CA:TRUE
            Netscape Cert Type: 
                SSL CA, S/MIME CA
            X509v3 Issuer Alternative Name: 
                <EMPTY>

            Netscape Comment: 
                Test CA for txjsonrcp
            X509v3 Subject Alternative Name: 
                <EMPTY>

            X509v3 Key Usage: critical
                Certificate Sign, CRL Sign
    Signature Algorithm: sha1WithRSAEncryption
         06:82:86:81:a9:1b:7e:2d:ef:f5:fc:cc:d2:9d:d6:82:ad:d0:
         6f:7e:3d:b9:5c:b2:0f:3a:64:21:9a:fb:53:b2:93:81:dc:1a:
         24:fc:b8:30:57:a2:c7:71:0d:9c:1a:0b:8a:6c:89:52:8b:8a:
         f5:af:95:3e:b8:08:39:ee:36:50:ac:60:4d:df:2b:49:a2:72:
         f1:3f:12:3c:d9:55:56:a4:9a:77:2b:77:fa:16:b5:76:d9:f4:
         c4:51:6b:b9:fe:2f:a3:52:e8:64:80:49:22:6d:05:42:87:af:
         9d:85:6c:fa:c9:9b:48:39:7b:89:f5:a0:1e:ff:11:d3:9c:78:
         b1:b2:f6:4d:b1:e8:b3:98:23:2c:d4:20:e1:a1:01:3e:26:0a:
         5b:8e:eb:58:45:22:cf:e1:94:ad:84:40:b0:fb:ff:25:5f:31:
         9a:49:0b:36:ad:c6:1a:b0:42:60:40:e2:a2:3c:5a:36:41:89:
         fc:10:c4:60:ea:d4:85:7b:36:84:df:aa:81:cc:69:e7:52:ca:
         c1:46:b1:79:93:51:4f:24:84:42:14:3a:20:a0:6c:27:76:40:
         0f:96:7e:4e:c3:0c:37:b3:e3:73:49:86:58:31:00:1e:e7:0f:
         87:74:b6:4e:6e:1c:7d:87:a4:33:04:c9:76:ec:e5:3a:85:5f:
         a8:d1:ad:21:64:5e:c5:6a:df:b1:02:6e:65:a4:87:72:06:07:
         da:e5:f2:af:2b:a5:eb:18:80:67:83:a5:3c:e6:ed:d1:58:f9:
         90:5c:d6:e9:2f:76:c1:58:13:b8:bd:88:8a:f3:04:48:bb:42:
         8f:7f:c6:db:b4:30:3f:bb:6c:d5:47:e5:ae:8d:4b:da:92:a5:
         db:d3:6e:a8:9b:c2:6b:56:af:34:63:82:e6:78:f8:1f:54:d7:
         41:aa:a3:c9:7c:a6:83:41:bf:6e:33:7c:ae:e6:92:bd:da:27:
         b4:bc:e2:90:4f:33:1b:01:a1:cd:02:13:7a:31:ef:00:d6:9a:
         6e:38:6b:a7:cb:70:98:a8:0f:ff:1c:56:a8:b7:e6:d2:42:5a:
         bb:f4:78:27:71:13:d0:e8:43:eb:bc:2d:4f:e4:ea:4d:4f:76:
         7f:53:38:34:eb:13:e2:3d:c6:14:98:86:1c:ab:2c:0e:b7:68:
         2e:bd:63:a9:6a:8f:d5:22:2d:ab:13:d7:62:54:51:ff:5c:37:
         08:04:27:da:f9:57:77:05:18:73:88:5f:b0:c1:65:50:36:09:
         d6:c7:f5:ae:6e:3f:04:d1:84:3c:21:74:1d:bd:0a:fb:76:d0:
         13:2b:62:bb:24:48:43:89:d0:18:5c:b4:ad:ea:98:af:6d:fc:
         1c:6b:1f:06:64:54:23:88
-----BEGIN CERTIFICATE-----
MIIFwzCCA6ugAwIBAgIJAI3Srzf5ypILMA0GCSqGSIb3DQEBBQUAMCkxCzAJBgNV
BAYTAkJFMRowGAYDVQQDExF0eGpzb25ycGMtdGVzdC1jYTAeFw0xMjA2MjMxNTQ2
MzdaFw0yMjA2MjExNTQ2MzdaMCkxCzAJBgNVBAYTAkJFMRowGAYDVQQDExF0eGpz
b25ycGMtdGVzdC1jYTCCAiIwDQYJKoZIhvcNAQEBBQADggIPADCCAgoCggIBANEl
r3fFqHLPkLk5EPt7dSyh2mqV5UQM1iVLWH+7B4JZSVgyhSTMPnfb4adPyLXL7kU4
vbz743Y7iATKqzqjljtfk5wopmGX3KI/oJMrVmzP009qngXTHM3vdYAamLeSSRQz
uMR8c4x+g6WBolmMi6NRNm1orPLx7W9J2a96Y8FDMUK2x825eLczmHCSbJ4Eenvw
bTiH6wATF7nZ7LRmu1HT/YHjDohxI9KAKmHeqyUCR6nBa8lprtpHtkl0rKbhwXa6
bbHZaG4cN6jiGGA3tlgTbMeSfMZFjO/DgXMQ3C8x4rkFWp4ocFo+HbhocYHJ6P4f
w6AT+OQkErqRjhXSA/GMsKriNORr+Ab2I4qSQ6YF3OnHpagG126RUnJHq66H/rMP
BIdvSyIp6akGUlh9AxbX1TFEtPFRRKcqul4JGexMouBY/g1Ot5BNAqwqrZkUZTsK
PHNFVrIPECUkUXlXGjQaEG9g4PyB28rC4oUbTHITXJ12zNAhMzFWgo/FV7lE/Yt2
wbbkIYs1mu5UdJ9yaxmE16I8pW4RCvGTBC7dfEx9YhDUG4uH9u2/ErGL8Jp67gKU
4TxGK3+cVPsuYckc7/zeJbwtdRsfSV5EOxWTrcSJ2a482lTv2a86FsuUG2oU5EL5
dTNGbvtAvPiCNs9g9cKimCOnKq7BqiL4h9q3nKTPAgMBAAGjge0wgeowHQYDVR0O
BBYEFJ2PhHaUzQf+o+iL1/nZbu/KdVF7MFkGA1UdIwRSMFCAFJ2PhHaUzQf+o+iL
1/nZbu/KdVF7oS2kKzApMQswCQYDVQQGEwJCRTEaMBgGA1UEAxMRdHhqc29ucnBj
LXRlc3QtY2GCCQCN0q83+cqSCzAPBgNVHRMBAf8EBTADAQH/MBEGCWCGSAGG+EIB
AQQEAwIBBjAJBgNVHRIEAjAAMCQGCWCGSAGG+EIBDQQXFhVUZXN0IENBIGZvciB0
eGpzb25yY3AwCQYDVR0RBAIwADAOBgNVHQ8BAf8EBAMCAQYwDQYJKoZIhvcNAQEF
BQADggIBAAaChoGpG34t7/X8zNKd1oKt0G9+Pblcsg86ZCGa+1Oyk4HcGiT8uDBX
osdxDZwaC4psiVKLivWvlT64CDnuNlCsYE3fK0micvE/EjzZVVakmncrd/oWtXbZ
9MRRa7n+L6NS6GSASSJtBUKHr52FbPrJm0g5e4n1oB7/EdOceLGy9k2x6LOYIyzU
IOGhAT4mCluO61hFIs/hlK2EQLD7/yVfMZpJCzatxhqwQmBA4qI8WjZBifwQxGDq
1IV7NoTfqoHMaedSysFGsXmTUU8khEIUOiCgbCd2QA+Wfk7DDDez43NJhlgxAB7n
D4d0tk5uHH2HpDMEyXbs5TqFX6jRrSFkXsVq37ECbmWkh3IGB9rl8q8rpesYgGeD
pTzm7dFY+ZBc1ukvdsFYE7i9iIrzBEi7Qo9/xtu0MD+7bNVH5a6NS9qSpdvTbqib
wmtWrzRjguZ4+B9U10Gqo8l8poNBv24zfK7mkr3aJ7S84pBPMxsBoc0CE3ox7wDW
mm44a6fLcJioD/8cVqi35tJCWrv0eCdxE9DoQ+u8LU/k6k1Pdn9TODTrE+I9xhSY
hhyrLA63aC69Y6lqj9UiLasT12JUUf9cNwgEJ9r5V3cFGHOIX7DBZVA2CdbH9a5u
PwTRhDwhdB29Cvt20BMrYrskSEOJ0BhctK3qmK9t/BxrHwZkVCOI
-----END CERTIFICATE-----
