Certificate:
    Data:
        Version: 4 (0x3)
        Serial Number: 1 (0x1)
    Signature Algorithm: sha1WithRSAEncryption
        Issuer: C=BE, CN=txjsonrpc-test-ca
        Validity
            Not Before: Jan  1 00:00:00 1970 GMT
            Not After : Jan 19 03:14:07 2038 GMT
        Subject: CN=www.example.com, C=BE, O=Gremwell bvba
        Subject Public Key Info:
            Public Key Algorithm: rsaEncryption
                Public-Key: (1024 bit)
                Modulus:
                    00:9b:46:d8:f3:5d:fa:1b:ce:52:e2:77:2b:3d:0a:
                    3c:a8:3e:70:04:e6:9d:6c:94:ce:bb:bb:c0:91:29:
                    41:f0:e3:f9:6f:95:23:d0:9f:cf:ee:82:f6:46:e0:
                    ef:9e:11:ee:7a:3f:b5:33:18:50:a3:b1:a0:85:4d:
                    85:61:2a:a7:a6:8b:f6:4d:a9:44:fd:fe:6c:0b:46:
                    6c:a2:98:9e:93:87:14:59:85:70:4b:bc:bf:bb:78:
                    b4:a1:90:7d:94:9c:11:cc:5c:a6:10:9a:cd:1e:d8:
                    70:a3:c7:be:b4:10:4a:e1:67:67:d0:0c:90:e4:8a:
                    9c:3f:9a:ff:01:ce:dd:3e:71
                Exponent: 65537 (0x10001)
    Signature Algorithm: sha1WithRSAEncryption
         1c:2b:b9:9d:c0:99:e6:c0:62:15:1a:fc:41:0e:bb:4b:e9:56:
         39:1f:fb:17:7f:93:5d:43:9b:21:ee:f9:5d:d5:5d:be:50:7a:
         fd:bf:26:08:fe:a6:d2:58:4f:69:57:a8:c4:e8:6f:1f:7b:f9:
         94:4c:ad:1f:62:1f:74:ad:c7:e9:11:21:2d:85:ff:7a:35:b5:
         80:84:f8:64:18:33:58:16:a5:a4:89:93:7d:7a:d3:44:1d:fe:
         78:bc:c3:08:e8:08:b0:84:f6:2a:ec:16:80:78:6e:e5:03:a2:
         9f:6d:c8:0f:82:d5:90:c7:f5:df:52:73:20:92:ab:8e:df:4e:
         8a:ca:49:12:fb:69:68:9a:88:e6:70:e8:9f:e2:98:77:97:6c:
         9d:54:91:d0:e4:02:f9:c3:db:f4:68:c1:40:29:b2:6d:1a:01:
         bf:c9:52:7e:c2:59:a1:c5:8a:76:49:88:9c:c9:bd:46:21:79:
         03:71:3f:58:57:2b:df:63:9e:2e:39:c2:99:28:36:33:0b:33:
         43:ab:44:06:6a:4c:ef:32:dc:30:f0:4f:aa:d4:3a:31:c9:ee:
         12:bb:81:b4:f2:25:53:12:5d:d8:35:a5:cf:1c:68:61:f5:d2:
         fc:a1:b4:4b:b2:97:8f:e6:8a:21:64:11:54:bf:a8:76:4c:b9:
         05:2b:19:ba:d0:d9:ee:4a:2f:1c:1e:94:a3:9f:7e:d3:41:72:
         43:33:c5:53:3f:e8:9f:c5:7a:c1:cc:8f:df:3a:aa:1e:5f:96:
         c2:4b:e2:90:47:56:4d:3c:f2:7a:ac:48:e8:28:54:1e:67:67:
         da:98:da:14:ff:db:4a:35:2f:a8:32:76:33:d2:31:6b:b0:3b:
         5e:88:e0:c8:a7:e4:c0:61:3b:a7:f6:69:1c:45:c5:5a:7d:b8:
         b2:b1:65:65:26:aa:13:a1:f5:af:62:b7:16:84:e6:c5:69:23:
         5b:23:f4:fa:1b:24:02:1b:77:f0:92:a7:b4:90:63:37:5d:a0:
         f2:f0:79:52:fc:96:72:c5:bb:c8:6b:71:a9:2a:9e:c2:56:55:
         4d:c2:7c:1c:8b:bc:0d:0e:bb:d0:97:17:04:ac:6f:04:52:65:
         c7:39:a6:15:76:d4:a5:11:2f:06:db:24:92:a6:89:be:68:dc:
         af:08:6c:13:d6:47:ce:67:98:4b:11:7c:6b:c1:22:0a:70:bc:
         db:0f:bf:a5:ab:94:41:38:eb:38:b6:59:9f:b6:8e:52:46:6e:
         50:da:f9:11:3d:ea:47:9b:cf:b8:da:04:62:49:71:8d:62:7e:
         b4:70:c5:7a:4d:db:bd:04:fe:3c:a2:63:3b:23:f4:47:9b:44:
         b9:d5:10:50:87:9f:a1:8b
-----BEGIN CERTIFICATE-----
MIIDXTCCAUWgAwIBAwIBATANBgkqhkiG9w0BAQUFADApMQswCQYDVQQGEwJCRTEa
MBgGA1UEAxMRdHhqc29ucnBjLXRlc3QtY2EwHhcNNzAwMTAxMDAwMDAwWhcNMzgw
MTE5MDMxNDA3WjA/MRgwFgYDVQQDEw93d3cuZXhhbXBsZS5jb20xCzAJBgNVBAYT
AkJFMRYwFAYDVQQKEw1HcmVtd2VsbCBidmJhMIGfMA0GCSqGSIb3DQEBAQUAA4GN
ADCBiQKBgQCbRtjzXfobzlLidys9CjyoPnAE5p1slM67u8CRKUHw4/lvlSPQn8/u
gvZG4O+eEe56P7UzGFCjsaCFTYVhKqemi/ZNqUT9/mwLRmyimJ6ThxRZhXBLvL+7
eLShkH2UnBHMXKYQms0e2HCjx760EErhZ2fQDJDkipw/mv8Bzt0+cQIDAQABMA0G
CSqGSIb3DQEBBQUAA4ICAQAcK7mdwJnmwGIVGvxBDrtL6VY5H/sXf5NdQ5sh7vld
1V2+UHr9vyYI/qbSWE9pV6jE6G8fe/mUTK0fYh90rcfpESEthf96NbWAhPhkGDNY
FqWkiZN9etNEHf54vMMI6AiwhPYq7BaAeG7lA6KfbcgPgtWQx/XfUnMgkquO306K
ykkS+2lomojmcOif4ph3l2ydVJHQ5AL5w9v0aMFAKbJtGgG/yVJ+wlmhxYp2SYic
yb1GIXkDcT9YVyvfY54uOcKZKDYzCzNDq0QGakzvMtww8E+q1Doxye4Su4G08iVT
El3YNaXPHGhh9dL8obRLspeP5oohZBFUv6h2TLkFKxm60NnuSi8cHpSjn37TQXJD
M8VTP+ifxXrBzI/fOqoeX5bCS+KQR1ZNPPJ6rEjoKFQeZ2famNoU/9tKNS+oMnYz
0jFrsDteiODIp+TAYTun9mkcRcVafbiysWVlJqoTofWvYrcWhObFaSNbI/T6GyQC
G3fwkqe0kGM3XaDy8HlS/JZyxbvIa3GpKp7CVlVNwnwci7wNDrvQlxcErG8EUmXH
OaYVdtSlES8G2ySSpom+aNyvCGwT1kfOZ5hLEXxrwSIKcLzbD7+lq5RBOOs4tlmf
to5SRm5Q2vkRPepHm8+42gRiSXGNYn60cMV6Tdu9BP48omM7I/RHm0S51RBQh5+h
iw==
-----END CERTIFICATE-----
Certificate:
    Data:
        Version: 3 (0x2)
        Serial Number: 10219423159405941259 (0x8dd2af37f9ca920b)
    Signature Algorithm: sha1WithRSAEncryption
        Issuer: C=BE, CN=txjsonrpc-test-ca
        Validity
            Not Before: Jun 23 15:46:37 2012 GMT
            Not After : Jun 21 15:46:37 2022 GMT
        Subject: C=BE, CN=txjsonrpc-test-ca
        Subject Public Key Info:
            Public Key Algorithm: rsaEncryption
                Public-Key: (4096 bit)
                Modulus:
                    00:d1:25:af:77:c5:a8:72:cf:90:b9:39:10:fb:7b:
                    75:2c:a1:da:6a:95:e5:44:0c:d6:25:4b:58:7f:bb:
                    07:82:59:49:58:32:85:24:cc:3e:77:db:e1:a7:4f:
                    c8:b5:cb:ee:45:38:bd:bc:fb:e3:76:3b:88:04:ca:
                    ab:3a:a3:96:3b:5f:93:9c:28:a6:61:97:dc:a2:3f:
                    a0:93:2b:56:6c:cf:d3:4f:6a:9e:05:d3:1c:cd:ef:
                    75:80:1a:98:b7:92:49:14:33:b8:c4:7c:73:8c:7e:
                    83:a5:81:a2:59:8c:8b:a3:51:36:6d:68:ac:f2:f1:
                    ed:6f:49:d9:af:7a:63:c1:43:31:42:b6:c7:cd:b9:
                    78:b7:33:98:70:92:6c:9e:04:7a:7b:f0:6d:38:87:
                    eb:00:13:17:b9:d9:ec:b4:66:bb:51:d3:fd:81:e3:
                    0e:88:71:23:d2:80:2a:61:de:ab:25:02:47:a9:c1:
                    6b:c9:69:ae:da:47:b6:49:74:ac:a6:e1:c1:76:ba:
                    6d:b1:d9:68:6e:1c:37:a8:e2:18:60:37:b6:58:13:
                    6c:c7:92:7c:c6:45:8c:ef:c3:81:73:10:dc:2f:31:
                    e2:b9:05:5a:9e:28:70:5a:3e:1d:b8:68:71:81:c9:
                    e8:fe:1f:c3:a0:13:f8:e4:24:12:ba:91:8e:15:d2:
                    03:f1:8c:b0:aa:e2:34:e4:6b:f8:06:f6:23:8a:92:
                    43:a6:05:dc:e9:c7:a5:a8:06:d7:6e:91:52:72:47:
                    ab:ae:87:fe:b3:0f:04:87:6f:4b:22:29:e9:a9:06:
                    52:58:7d:03:16:d7:d5:31:44:b4:f1:51:44:a7:2a:
                    ba:5e:09:19:ec:4c:a2:e0:58:fe:0d:4e:b7:90:4d:
                    02:ac:2a:ad:99:14:65:3b:0a:3c:73:45:56:b2:0f:
                    10:25:24:51:79:57:1a:34:1a:10:6f:60:e0:fc:81:
                    db:ca:c2:e2:85:1b:4c:72:13:5c:9d:76:cc:d0:21:
                    33:31:56:82:8f:c5:57:b9:44:fd:8b:76:c1:b6:e4:
                    21:8b:35:9a:ee:54:74:9f:72:6b:19:84:d7:a2:3c:
                    a5:6e:11:0a:f1:93:04:2e:dd:7c:4c:7d:62:10:d4:
                    1b:8b:87:f6:ed:bf:12:b1:8b:f0:9a:7a:ee:02:94:
                    e1:3c:46:2b:7f:9c:54:fb:2e:61:c9:1c:ef:fc:de:
                    25:bc:2d:75:1b:1f:49:5e:44:3b:15:93:ad:c4:89:
                    d9:ae:3c:da:54:ef:d9:af:3a:16:cb:94:1b:6a:14:
                    e4:42:f9:75:33:46:6e:fb:40:bc:f8:82:36:cf:60:
                    f5:c2:a2:98:23:a7:2a:ae:c1:aa:22:f8:87:da:b7:
                    9c:a4:cf
                Exponent: 65537 (0x10001)
        X509v3 extensions:
            X509v3 Subject Key Identifier: 
                9D:8F:84:76:94:CD:07:FE:A3:E8:8B:D7:F9:D9:6E:EF:CA:75:51:7B
            X509v3 Authority Key Identifier: 
                keyid:9D:8F:84:76:94:CD:07:FE:A3:E8:8B:D7:F9:D9:6E:EF:CA:75:51:7B
                DirName:/C=BE/CN=txjsonrpc-test-ca
                serial:8D:D2:AF:37:F9:CA:92:0B

            X509v3 Basic Constraints: critical
                CA:TRUE
            Netscape Cert Type: 
                SSL CA, S/MIME CA
            X509v3 Issuer Alternative Name: 
                <EMPTY>

            Netscape Comment: 
                Test CA for txjsonrcp
            X509v3 Subject Alternative Name: 
                <EMPTY>

            X509v3 Key Usage: critical
                Certificate Sign, CRL Sign
    Signature Algorithm: sha1WithRSAEncryption
         06:82:86:81:a9:1b:7e:2d:ef:f5:fc:cc:d2:9d:d6:82:ad:d0:
         6f:7e:3d:b9:5c:b2:0f:3a:64:21:9a:fb:53:b2:93:81:dc:1a:
         24:fc:b8:30:57:a2:c7:71:0d:9c:1a:0b:8a:6c:89:52:8b:8a:
         f5:af:95:3e:b8:08:39:ee:36:50:ac:60:4d:df:2b:49:a2:72:
         f1:3f:12:3c:d9:55:56:a4:9a:77:2b:77:fa:16:b5:76:d9:f4:
         c4:51:6b:b9:fe:2f:a3:52:e8:64:80:49:22:6d:05:42:87:af:
         9d:85:6c:fa:c9:9b:48:39:7b:89:f5:a0:1e:ff:11:d3:9c:78:
         b1:b2:f6:4d:b1:e8:b3:98:23:2c:d4:20:e1:a1:01:3e:26:0a:
         5b:8e:eb:58:45:22:cf:e1:94:ad:84:40:b0:fb:ff:25:5f:31:
         9a:49:0b:36:ad:c6:1a:b0:42:60:40:e2:a2:3c:5a:36:41:89:
         fc:10:c4:60:ea:d4:85:7b:36:84:df:aa:81:cc:69:e7:52:ca:
         c1:46:b1:79:93:51:4f:24:84:42:14:3a:20:a0:6c:27:76:40:
         0f:96:7e:4e:c3:0c:37:b3:e3:73:49:86:58:31:00:1e:e7:0f:
         87:74:b6:4e:6e:1c:7d:87:a4:33:04:c9:76:ec:e5:3a:85:5f:
         a8:d1:ad:21:64:5e:c5:6a:df:b1:02:6e:65:a4:87:72:06:07:
         da:e5:f2:af:2b:a5:eb:18:80:67:83:a5:3c:e6:ed:d1:58:f9:
         90:5c:d6:e9:2f:76:c1:58:13:b8:bd:88:8a:f3:04:48:bb:42:
         8f:7f:c6:db:b4:30:3f:bb:6c:d5:47:e5:ae:8d:4b:da:92:a5:
         db:d3:6e:a8:9b:c2:6b:56:af:34:63:82:e6:78:f8:1f:54:d7:
         41:aa:a3:c9:7c:a6:83:41:bf:6e:33:7c:ae:e6:92:bd:da:27:
         b4:bc:e2:90:4f:33:1b:01:a1:cd:02:13:7a:31:ef:00:d6:9a:
         6e:38:6b:a7:cb:70:98:a8:0f:ff:1c:56:a8:b7:e6:d2:42:5a:
         bb:f4:78:27:71:13:d0:e8:43:eb:bc:2d:4f:e4:ea:4d:4f:76:
         7f:53:38:34:eb:13:e2:3d:c6:14:98:86:1c:ab:2c:0e:b7:68:
         2e:bd:63:a9:6a:8f:d5:22:2d:ab:13:d7:62:54:51:ff:5c:37:
         08:04:27:da:f9:57:77:05:18:73:88:5f:b0:c1:65:50:36:09:
         d6:c7:f5:ae:6e:3f:04:d1:84:3c:21:74:1d:bd:0a:fb:76:d0:
         13:2b:62:bb:24:48:43:89:d0:18:5c:b4:ad:ea:98:af:6d:fc:
         1c:6b:1f:06:64:54:23:88
-----BEGIN CERTIFICATE-----
MIIFwzCCA6ugAwIBAgIJAI3Srzf5ypILMA0GCSqGSIb3DQEBBQUAMCkxCzAJBgNV
BAYTAkJFMRowGAYDVQQDExF0eGpzb25ycGMtdGVzdC1jYTAeFw0xMjA2MjMxNTQ2
MzdaFw0yMjA2MjExNTQ2MzdaMCkxCzAJBgNVBAYTAkJFMRowGAYDVQQDExF0eGpz
b25ycGMtdGVzdC1jYTCCAiIwDQYJKoZIhvcNAQEBBQADggIPADCCAgoCggIBANEl
r3fFqHLPkLk5EPt7dSyh2mqV5UQM1iVLWH+7B4JZSVgyhSTMPnfb4adPyLXL7kU4
vbz743Y7iATKqzqjljtfk5wopmGX3KI/oJMrVmzP009qngXTHM3vdYAamLeSSRQz
uMR8c4x+g6WBolmMi6NRNm1orPLx7W9J2a96Y8FDMUK2x825eLczmHCSbJ4Eenvw
bTiH6wATF7nZ7LRmu1HT/YHjDohxI9KAKmHeqyUCR6nBa8lprtpHtkl0rKbhwXa6
bbHZaG4cN6jiGGA3tlgTbMeSfMZFjO/DgXMQ3C8x4rkFWp4ocFo+HbhocYHJ6P4f
w6AT+OQkErqRjhXSA/GMsKriNORr+Ab2I4qSQ6YF3OnHpagG126RUnJHq66H/rMP
BIdvSyIp6akGUlh9AxbX1TFEtPFRRKcqul4JGexMouBY/g1Ot5BNAqwqrZkUZTsK
PHNFVrIPECUkUXlXGjQaEG9g4PyB28rC4oUbTHITXJ12zNAhMzFWgo/FV7lE/Yt2
wbbkIYs1mu5UdJ9yaxmE16I8pW4RCvGTBC7dfEx9YhDUG4uH9u2/ErGL8Jp67gKU
4TxGK3+cVPsuYckc7/zeJbwtdRsfSV5EOxWTrcSJ2a482lTv2a86FsuUG2oU5EL5
dTNGbvtAvPiCNs9g9cKimCOnKq7BqiL4h9q3nKTPAgMBAAGjge0wgeowHQYDVR0O
BBYEFJ2PhHaUzQf+o+iL1/nZbu/KdVF7MFkGA1UdIwRSMFCAFJ2PhHaUzQf+o+iL
1/nZbu/KdVF7oS2kKzApMQswCQYDVQQGEwJCRTEaMBgGA1UEAxMRdHhqc29ucnBj
LXRlc3QtY2GCCQCN0q83+cqSCzAPBgNVHRMBAf8EBTADAQH/MBEGCWCGSAGG+EIB
AQQEAwIBBjAJBgNVHRIEAjAAMCQGCWCGSAGG+EIBDQQXFhVUZXN0IENBIGZvciB0
eGpzb25yY3AwCQYDVR0RBAIwADAOBgNVHQ8BAf8EBAMCAQYwDQYJKoZIhvcNAQEF
BQADggIBAAaChoGpG34t7/X8zNKd1oKt0G9+Pblcsg86ZCGa+1Oyk4HcGiT8uDBX
osdxDZwaC4psiVKLivWvlT64CDnuNlCsYE3fK0micvE/EjzZVVakmncrd/oWtXbZ
9MRRa7n+L6NS6GSASSJtBUKHr52FbPrJm0g5e4n1oB7/EdOceLGy9k2x6LOYIyzU
IOGhAT4mCluO61hFIs/hlK2EQLD7/yVfMZpJCzatxhqwQmBA4qI8WjZBifwQxGDq
1IV7NoTfqoHMaedSysFGsXmTUU8khEIUOiCgbCd2QA+Wfk7DDDez43NJhlgxAB7n
D4d0tk5uHH2HpDMEyXbs5TqFX6jRrSFkXsVq37ECbmWkh3IGB9rl8q8rpesYgGeD
pTzm7dFY+ZBc1ukvdsFYE7i9iIrzBEi7Qo9/xtu0MD+7bNVH5a6NS9qSpdvTbqib
wmtWrzRjguZ4+B9U10Gqo8l8poNBv24zfK7mkr3aJ7S84pBPMxsBoc0CE3ox7wDW
mm44a6fLcJioD/8cVqi35tJCWrv0eCdxE9DoQ+u8LU/k6k1Pdn9TODTrE+I9xhSY
hhyrLA63aC69Y6lqj9UiLasT12JUUf9cNwgEJ9r5V3cFGHOIX7DBZVA2CdbH9a5u
PwTRhDwhdB29Cvt20BMrYrskSEOJ0BhctK3qmK9t/BxrHwZkVCOI
-----END CERTIFICATE-----
