Certificate:
    Data:
        Version: 4 (0x3)
        Serial Number: 1 (0x1)
    Signature Algorithm: sha1WithRSAEncryption
        Issuer: C=BE, CN=txjsonrpc-test-ca
        Validity
            Not Before: Jan  1 00:00:00 1970 GMT
            Not After : Jan 19 03:14:07 2038 GMT
        Subject: CN=ca-none, C=BE, O=Gremwell bvba
        Subject Public Key Info:
            Public Key Algorithm: rsaEncryption
                Public-Key: (1024 bit)
                Modulus:
                    00:bd:be:a0:7c:9e:5f:62:42:68:8b:cf:60:52:1a:
                    0a:45:f6:5c:34:c2:35:8c:14:3f:0e:51:05:94:f7:
                    6f:94:13:2d:96:4c:b7:2a:d9:ca:b0:4e:e3:17:70:
                    5a:66:08:c5:ef:68:ce:cb:17:5c:ba:c5:ba:1b:e6:
                    ea:41:a3:59:af:94:23:8f:0e:4a:16:47:e1:11:36:
                    c1:a8:8f:c3:ba:5f:95:29:56:cf:a9:6c:a9:9e:cc:
                    84:fd:48:c4:75:91:96:f9:66:ad:32:e6:7b:46:5c:
                    f0:ab:2f:65:6b:d8:af:be:e0:a0:c5:d4:ad:e2:91:
                    4d:1f:76:ba:ea:5a:78:7f:d5
                Exponent: 65537 (0x10001)
    Signature Algorithm: sha1WithRSAEncryption
         c3:52:a6:8d:57:12:21:79:1c:02:ac:76:7b:5b:3e:49:d3:ce:
         82:81:58:f4:11:9c:29:7d:6c:e6:2e:f0:09:f1:1d:c8:eb:ae:
         a6:4d:49:84:21:b2:79:84:51:8b:a4:b8:a6:a4:3e:a6:79:16:
         95:d3:dc:25:f8:8c:c4:71:ce:c6:fe:f3:a5:a0:ab:40:53:69:
         3c:fc:c6:f8:83:c9:c6:72:94:af:ba:23:33:0a:c7:05:ec:4e:
         f7:cb:12:ff:c0:78:67:c1:14:b9:3a:34:34:13:27:b4:d0:60:
         27:39:4c:fc:a3:17:c7:10:ae:5b:71:79:99:4c:07:17:83:30:
         78:9a:34:8c:b5:db:69:aa:f5:e2:52:60:dc:85:a8:c7:b5:62:
         a8:6b:57:42:5e:8b:30:71:31:1b:4b:f4:e2:a0:62:0c:d0:69:
         4e:dd:55:c8:8f:a0:dc:fc:0d:53:b1:95:22:a8:3a:b9:52:30:
         e0:c9:37:01:a6:72:34:cd:1b:c1:c7:af:fe:71:a2:8f:cf:88:
         42:05:73:66:4f:05:18:13:03:2a:18:bb:17:41:10:6d:7d:e9:
         e0:05:65:7b:28:7b:90:0c:62:84:93:68:f1:d7:27:27:90:93:
         cf:ae:24:a8:4b:c2:d5:34:54:78:66:3f:8e:30:e4:c8:f7:e3:
         05:8b:89:32:ca:3f:86:ce:c4:7a:ff:cd:4b:9f:35:2d:0f:29:
         25:ee:bf:76:2f:0b:13:1a:35:24:a6:86:e0:75:19:ca:00:8c:
         01:e0:64:2b:30:07:c6:b4:91:b6:11:d3:e3:71:cf:99:d5:ca:
         1e:99:36:12:ba:89:44:0d:13:f3:9d:2d:04:b5:83:79:21:ce:
         d3:bf:ec:ee:3b:a3:37:5e:2a:e2:ce:28:12:8c:be:11:11:1c:
         ea:26:ee:83:07:d8:93:2b:57:23:84:de:1a:c7:26:53:72:75:
         a5:0d:d9:56:72:70:19:87:d0:ea:8d:1a:d5:60:6d:2e:81:eb:
         c1:4b:21:17:e2:54:55:86:0a:38:d5:be:a9:55:9d:da:56:f7:
         d2:3a:a3:b7:7c:f9:4f:e2:7f:eb:46:75:16:c0:88:3a:86:f1:
         0d:df:f0:42:bb:6c:98:96:d3:6b:43:27:8d:12:b1:e4:ac:f8:
         b7:f6:26:2b:1a:f0:9d:0e:4d:93:8c:76:e6:9c:58:d8:60:a9:
         e4:d1:05:80:86:32:c3:ab:de:99:68:d2:14:d3:fc:e6:8a:89:
         2f:13:46:e9:55:62:24:74:21:ed:e2:e9:46:88:a7:55:c6:e6:
         10:56:b7:70:a5:bd:78:69:e9:04:5c:86:f8:82:e5:92:3a:3d:
         4c:ac:6c:29:ea:02:20:05
-----BEGIN CERTIFICATE-----
MIIDVTCCAT2gAwIBAwIBATANBgkqhkiG9w0BAQUFADApMQswCQYDVQQGEwJCRTEa
MBgGA1UEAxMRdHhqc29ucnBjLXRlc3QtY2EwHhcNNzAwMTAxMDAwMDAwWhcNMzgw
MTE5MDMxNDA3WjA3MRAwDgYDVQQDEwdjYS1ub25lMQswCQYDVQQGEwJCRTEWMBQG
A1UEChMNR3JlbXdlbGwgYnZiYTCBnzANBgkqhkiG9w0BAQEFAAOBjQAwgYkCgYEA
vb6gfJ5fYkJoi89gUhoKRfZcNMI1jBQ/DlEFlPdvlBMtlky3KtnKsE7jF3BaZgjF
72jOyxdcusW6G+bqQaNZr5Qjjw5KFkfhETbBqI/Dul+VKVbPqWypnsyE/UjEdZGW
+WatMuZ7Rlzwqy9la9ivvuCgxdSt4pFNH3a66lp4f9UCAwEAATANBgkqhkiG9w0B
AQUFAAOCAgEAw1KmjVcSIXkcAqx2e1s+SdPOgoFY9BGcKX1s5i7wCfEdyOuupk1J
hCGyeYRRi6S4pqQ+pnkWldPcJfiMxHHOxv7zpaCrQFNpPPzG+IPJxnKUr7ojMwrH
BexO98sS/8B4Z8EUuTo0NBMntNBgJzlM/KMXxxCuW3F5mUwHF4MweJo0jLXbaar1
4lJg3IWox7ViqGtXQl6LMHExG0v04qBiDNBpTt1VyI+g3PwNU7GVIqg6uVIw4Mk3
AaZyNM0bwcev/nGij8+IQgVzZk8FGBMDKhi7F0EQbX3p4AVleyh7kAxihJNo8dcn
J5CTz64kqEvC1TRUeGY/jjDkyPfjBYuJMso/hs7Eev/NS581LQ8pJe6/di8LExo1
JKaG4HUZygCMAeBkKzAHxrSRthHT43HPmdXKHpk2ErqJRA0T850tBLWDeSHO07/s
7jujN14q4s4oEoy+EREc6ibugwfYkytXI4TeGscmU3J1pQ3ZVnJwGYfQ6o0a1WBt
LoHrwUshF+JUVYYKONW+qVWd2lb30jqjt3z5T+J/60Z1FsCIOobxDd/wQrtsmJbT
a0MnjRKx5Kz4t/YmKxrwnQ5Nk4x25pxY2GCp5NEFgIYyw6vemWjSFNP85oqJLxNG
6VViJHQh7eLpRoinVcbmEFa3cKW9eGnpBFyG+ILlkjo9TKxsKeoCIAU=
-----END CERTIFICATE-----
Certificate:
    Data:
        Version: 3 (0x2)
        Serial Number: 10219423159405941259 (0x8dd2af37f9ca920b)
    Signature Algorithm: sha1WithRSAEncryption
        Issuer: C=BE, CN=txjsonrpc-test-ca
        Validity
            Not Before: Jun 23 15:46:37 2012 GMT
            Not After : Jun 21 15:46:37 2022 GMT
        Subject: C=BE, CN=txjsonrpc-test-ca
        Subject Public Key Info:
            Public Key Algorithm: rsaEncryption
                Public-Key: (4096 bit)
                Modulus:
                    00:d1:25:af:77:c5:a8:72:cf:90:b9:39:10:fb:7b:
                    75:2c:a1:da:6a:95:e5:44:0c:d6:25:4b:58:7f:bb:
                    07:82:59:49:58:32:85:24:cc:3e:77:db:e1:a7:4f:
                    c8:b5:cb:ee:45:38:bd:bc:fb:e3:76:3b:88:04:ca:
                    ab:3a:a3:96:3b:5f:93:9c:28:a6:61:97:dc:a2:3f:
                    a0:93:2b:56:6c:cf:d3:4f:6a:9e:05:d3:1c:cd:ef:
                    75:80:1a:98:b7:92:49:14:33:b8:c4:7c:73:8c:7e:
                    83:a5:81:a2:59:8c:8b:a3:51:36:6d:68:ac:f2:f1:
                    ed:6f:49:d9:af:7a:63:c1:43:31:42:b6:c7:cd:b9:
                    78:b7:33:98:70:92:6c:9e:04:7a:7b:f0:6d:38:87:
                    eb:00:13:17:b9:d9:ec:b4:66:bb:51:d3:fd:81:e3:
                    0e:88:71:23:d2:80:2a:61:de:ab:25:02:47:a9:c1:
                    6b:c9:69:ae:da:47:b6:49:74:ac:a6:e1:c1:76:ba:
                    6d:b1:d9:68:6e:1c:37:a8:e2:18:60:37:b6:58:13:
                    6c:c7:92:7c:c6:45:8c:ef:c3:81:73:10:dc:2f:31:
                    e2:b9:05:5a:9e:28:70:5a:3e:1d:b8:68:71:81:c9:
                    e8:fe:1f:c3:a0:13:f8:e4:24:12:ba:91:8e:15:d2:
                    03:f1:8c:b0:aa:e2:34:e4:6b:f8:06:f6:23:8a:92:
                    43:a6:05:dc:e9:c7:a5:a8:06:d7:6e:91:52:72:47:
                    ab:ae:87:fe:b3:0f:04:87:6f:4b:22:29:e9:a9:06:
                    52:58:7d:03:16:d7:d5:31:44:b4:f1:51:44:a7:2a:
                    ba:5e:09:19:ec:4c:a2:e0:58:fe:0d:4e:b7:90:4d:
                    02:ac:2a:ad:99:14:65:3b:0a:3c:73:45:56:b2:0f:
                    10:25:24:51:79:57:1a:34:1a:10:6f:60:e0:fc:81:
                    db:ca:c2:e2:85:1b:4c:72:13:5c:9d:76:cc:d0:21:
                    33:31:56:82:8f:c5:57:b9:44:fd:8b:76:c1:b6:e4:
                    21:8b:35:9a:ee:54:74:9f:72:6b:19:84:d7:a2:3c:
                    a5:6e:11:0a:f1:93:04:2e:dd:7c:4c:7d:62:10:d4:
                    1b:8b:87:f6:ed:bf:12:b1:8b:f0:9a:7a:ee:02:94:
                    e1:3c:46:2b:7f:9c:54:fb:2e:61:c9:1c:ef:fc:de:
                    25:bc:2d:75:1b:1f:49:5e:44:3b:15:93:ad:c4:89:
                    d9:ae:3c:da:54:ef:d9:af:3a:16:cb:94:1b:6a:14:
                    e4:42:f9:75:33:46:6e:fb:40:bc:f8:82:36:cf:60:
                    f5:c2:a2:98:23:a7:2a:ae:c1:aa:22:f8:87:da:b7:
                    9c:a4:cf
                Exponent: 65537 (0x10001)
        X509v3 extensions:
            X509v3 Subject Key Identifier: 
                9D:8F:84:76:94:CD:07:FE:A3:E8:8B:D7:F9:D9:6E:EF:CA:75:51:7B
            X509v3 Authority Key Identifier: 
                keyid:9D:8F:84:76:94:CD:07:FE:A3:E8:8B:D7:F9:D9:6E:EF:CA:75:51:7B
                DirName:/C=BE/CN=txjsonrpc-test-ca
                serial:8D:D2:AF:37:F9:CA:92:0B

            X509v3 Basic Constraints: critical
                CA:TRUE
            Netscape Cert Type: 
                SSL CA, S/MIME CA
            X509v3 Issuer Alternative Name: 
                <EMPTY>

            Netscape Comment: 
                Test CA for txjsonrcp
            X509v3 Subject Alternative Name: 
                <EMPTY>

            X509v3 Key Usage: critical
                Certificate Sign, CRL Sign
    Signature Algorithm: sha1WithRSAEncryption
         06:82:86:81:a9:1b:7e:2d:ef:f5:fc:cc:d2:9d:d6:82:ad:d0:
         6f:7e:3d:b9:5c:b2:0f:3a:64:21:9a:fb:53:b2:93:81:dc:1a:
         24:fc:b8:30:57:a2:c7:71:0d:9c:1a:0b:8a:6c:89:52:8b:8a:
         f5:af:95:3e:b8:08:39:ee:36:50:ac:60:4d:df:2b:49:a2:72:
         f1:3f:12:3c:d9:55:56:a4:9a:77:2b:77:fa:16:b5:76:d9:f4:
         c4:51:6b:b9:fe:2f:a3:52:e8:64:80:49:22:6d:05:42:87:af:
         9d:85:6c:fa:c9:9b:48:39:7b:89:f5:a0:1e:ff:11:d3:9c:78:
         b1:b2:f6:4d:b1:e8:b3:98:23:2c:d4:20:e1:a1:01:3e:26:0a:
         5b:8e:eb:58:45:22:cf:e1:94:ad:84:40:b0:fb:ff:25:5f:31:
         9a:49:0b:36:ad:c6:1a:b0:42:60:40:e2:a2:3c:5a:36:41:89:
         fc:10:c4:60:ea:d4:85:7b:36:84:df:aa:81:cc:69:e7:52:ca:
         c1:46:b1:79:93:51:4f:24:84:42:14:3a:20:a0:6c:27:76:40:
         0f:96:7e:4e:c3:0c:37:b3:e3:73:49:86:58:31:00:1e:e7:0f:
         87:74:b6:4e:6e:1c:7d:87:a4:33:04:c9:76:ec:e5:3a:85:5f:
         a8:d1:ad:21:64:5e:c5:6a:df:b1:02:6e:65:a4:87:72:06:07:
         da:e5:f2:af:2b:a5:eb:18:80:67:83:a5:3c:e6:ed:d1:58:f9:
         90:5c:d6:e9:2f:76:c1:58:13:b8:bd:88:8a:f3:04:48:bb:42:
         8f:7f:c6:db:b4:30:3f:bb:6c:d5:47:e5:ae:8d:4b:da:92:a5:
         db:d3:6e:a8:9b:c2:6b:56:af:34:63:82:e6:78:f8:1f:54:d7:
         41:aa:a3:c9:7c:a6:83:41:bf:6e:33:7c:ae:e6:92:bd:da:27:
         b4:bc:e2:90:4f:33:1b:01:a1:cd:02:13:7a:31:ef:00:d6:9a:
         6e:38:6b:a7:cb:70:98:a8:0f:ff:1c:56:a8:b7:e6:d2:42:5a:
         bb:f4:78:27:71:13:d0:e8:43:eb:bc:2d:4f:e4:ea:4d:4f:76:
         7f:53:38:34:eb:13:e2:3d:c6:14:98:86:1c:ab:2c:0e:b7:68:
         2e:bd:63:a9:6a:8f:d5:22:2d:ab:13:d7:62:54:51:ff:5c:37:
         08:04:27:da:f9:57:77:05:18:73:88:5f:b0:c1:65:50:36:09:
         d6:c7:f5:ae:6e:3f:04:d1:84:3c:21:74:1d:bd:0a:fb:76:d0:
         13:2b:62:bb:24:48:43:89:d0:18:5c:b4:ad:ea:98:af:6d:fc:
         1c:6b:1f:06:64:54:23:88
-----BEGIN CERTIFICATE-----
MIIFwzCCA6ugAwIBAgIJAI3Srzf5ypILMA0GCSqGSIb3DQEBBQUAMCkxCzAJBgNV
BAYTAkJFMRowGAYDVQQDExF0eGpzb25ycGMtdGVzdC1jYTAeFw0xMjA2MjMxNTQ2
MzdaFw0yMjA2MjExNTQ2MzdaMCkxCzAJBgNVBAYTAkJFMRowGAYDVQQDExF0eGpz
b25ycGMtdGVzdC1jYTCCAiIwDQYJKoZIhvcNAQEBBQADggIPADCCAgoCggIBANEl
r3fFqHLPkLk5EPt7dSyh2mqV5UQM1iVLWH+7B4JZSVgyhSTMPnfb4adPyLXL7kU4
vbz743Y7iATKqzqjljtfk5wopmGX3KI/oJMrVmzP009qngXTHM3vdYAamLeSSRQz
uMR8c4x+g6WBolmMi6NRNm1orPLx7W9J2a96Y8FDMUK2x825eLczmHCSbJ4Eenvw
bTiH6wATF7nZ7LRmu1HT/YHjDohxI9KAKmHeqyUCR6nBa8lprtpHtkl0rKbhwXa6
bbHZaG4cN6jiGGA3tlgTbMeSfMZFjO/DgXMQ3C8x4rkFWp4ocFo+HbhocYHJ6P4f
w6AT+OQkErqRjhXSA/GMsKriNORr+Ab2I4qSQ6YF3OnHpagG126RUnJHq66H/rMP
BIdvSyIp6akGUlh9AxbX1TFEtPFRRKcqul4JGexMouBY/g1Ot5BNAqwqrZkUZTsK
PHNFVrIPECUkUXlXGjQaEG9g4PyB28rC4oUbTHITXJ12zNAhMzFWgo/FV7lE/Yt2
wbbkIYs1mu5UdJ9yaxmE16I8pW4RCvGTBC7dfEx9YhDUG4uH9u2/ErGL8Jp67gKU
4TxGK3+cVPsuYckc7/zeJbwtdRsfSV5EOxWTrcSJ2a482lTv2a86FsuUG2oU5EL5
dTNGbvtAvPiCNs9g9cKimCOnKq7BqiL4h9q3nKTPAgMBAAGjge0wgeowHQYDVR0O
BBYEFJ2PhHaUzQf+o+iL1/nZbu/KdVF7MFkGA1UdIwRSMFCAFJ2PhHaUzQf+o+iL
1/nZbu/KdVF7oS2kKzApMQswCQYDVQQGEwJCRTEaMBgGA1UEAxMRdHhqc29ucnBj
LXRlc3QtY2GCCQCN0q83+cqSCzAPBgNVHRMBAf8EBTADAQH/MBEGCWCGSAGG+EIB
AQQEAwIBBjAJBgNVHRIEAjAAMCQGCWCGSAGG+EIBDQQXFhVUZXN0IENBIGZvciB0
eGpzb25yY3AwCQYDVR0RBAIwADAOBgNVHQ8BAf8EBAMCAQYwDQYJKoZIhvcNAQEF
BQADggIBAAaChoGpG34t7/X8zNKd1oKt0G9+Pblcsg86ZCGa+1Oyk4HcGiT8uDBX
osdxDZwaC4psiVKLivWvlT64CDnuNlCsYE3fK0micvE/EjzZVVakmncrd/oWtXbZ
9MRRa7n+L6NS6GSASSJtBUKHr52FbPrJm0g5e4n1oB7/EdOceLGy9k2x6LOYIyzU
IOGhAT4mCluO61hFIs/hlK2EQLD7/yVfMZpJCzatxhqwQmBA4qI8WjZBifwQxGDq
1IV7NoTfqoHMaedSysFGsXmTUU8khEIUOiCgbCd2QA+Wfk7DDDez43NJhlgxAB7n
D4d0tk5uHH2HpDMEyXbs5TqFX6jRrSFkXsVq37ECbmWkh3IGB9rl8q8rpesYgGeD
pTzm7dFY+ZBc1ukvdsFYE7i9iIrzBEi7Qo9/xtu0MD+7bNVH5a6NS9qSpdvTbqib
wmtWrzRjguZ4+B9U10Gqo8l8poNBv24zfK7mkr3aJ7S84pBPMxsBoc0CE3ox7wDW
mm44a6fLcJioD/8cVqi35tJCWrv0eCdxE9DoQ+u8LU/k6k1Pdn9TODTrE+I9xhSY
hhyrLA63aC69Y6lqj9UiLasT12JUUf9cNwgEJ9r5V3cFGHOIX7DBZVA2CdbH9a5u
PwTRhDwhdB29Cvt20BMrYrskSEOJ0BhctK3qmK9t/BxrHwZkVCOI
-----END CERTIFICATE-----
