Certificate:
    Data:
        Version: 4 (0x3)
        Serial Number: 1 (0x1)
    Signature Algorithm: sha1WithRSAEncryption
        Issuer: CN=www.example.com, C=BE, O=Gremwell bvba
        Validity
            Not Before: Jan  1 00:00:00 1970 GMT
            Not After : Jan 19 03:14:07 2038 GMT
        Subject: CN=www.example.com, C=BE, O=Gremwell bvba
        Subject Public Key Info:
            Public Key Algorithm: rsaEncryption
                Public-Key: (1024 bit)
                Modulus:
                    00:9b:46:d8:f3:5d:fa:1b:ce:52:e2:77:2b:3d:0a:
                    3c:a8:3e:70:04:e6:9d:6c:94:ce:bb:bb:c0:91:29:
                    41:f0:e3:f9:6f:95:23:d0:9f:cf:ee:82:f6:46:e0:
                    ef:9e:11:ee:7a:3f:b5:33:18:50:a3:b1:a0:85:4d:
                    85:61:2a:a7:a6:8b:f6:4d:a9:44:fd:fe:6c:0b:46:
                    6c:a2:98:9e:93:87:14:59:85:70:4b:bc:bf:bb:78:
                    b4:a1:90:7d:94:9c:11:cc:5c:a6:10:9a:cd:1e:d8:
                    70:a3:c7:be:b4:10:4a:e1:67:67:d0:0c:90:e4:8a:
                    9c:3f:9a:ff:01:ce:dd:3e:71
                Exponent: 65537 (0x10001)
    Signature Algorithm: sha1WithRSAEncryption
         19:7b:75:84:39:54:0d:12:be:36:b8:f6:d9:51:42:28:04:69:
         4c:7d:dc:03:33:bc:29:46:dd:2a:26:64:69:f4:83:8f:d1:55:
         f0:c6:1e:db:31:40:b7:e1:93:41:a5:0d:a9:99:0d:6c:66:87:
         fd:06:18:3e:8b:e2:fa:39:56:bf:47:a5:35:83:59:2c:7c:d0:
         9a:17:0e:4b:03:d4:34:7d:58:10:16:ac:f0:03:0c:b4:e4:7c:
         75:64:60:3f:c7:2f:b5:e5:ce:fa:02:0c:46:51:54:fa:98:ad:
         13:a1:31:07:58:1c:f4:86:82:a7:34:44:fd:50:b9:df:00:0d:
         5a:b1
-----BEGIN CERTIFICATE-----
MIIB8jCCAVugAwIBAwIBATANBgkqhkiG9w0BAQUFADA/MRgwFgYDVQQDEw93d3cu
ZXhhbXBsZS5jb20xCzAJBgNVBAYTAkJFMRYwFAYDVQQKEw1HcmVtd2VsbCBidmJh
MB4XDTcwMDEwMTAwMDAwMFoXDTM4MDExOTAzMTQwN1owPzEYMBYGA1UEAxMPd3d3
LmV4YW1wbGUuY29tMQswCQYDVQQGEwJCRTEWMBQGA1UEChMNR3JlbXdlbGwgYnZi
YTCBnzANBgkqhkiG9w0BAQEFAAOBjQAwgYkCgYEAm0bY8136G85S4ncrPQo8qD5w
BOadbJTOu7vAkSlB8OP5b5Uj0J/P7oL2RuDvnhHuej+1MxhQo7GghU2FYSqnpov2
TalE/f5sC0Zsopiek4cUWYVwS7y/u3i0oZB9lJwRzFymEJrNHthwo8e+tBBK4Wdn
0AyQ5IqcP5r/Ac7dPnECAwEAATANBgkqhkiG9w0BAQUFAAOBgQAZe3WEOVQNEr42
uPbZUUIoBGlMfdwDM7wpRt0qJmRp9IOP0VXwxh7bMUC34ZNBpQ2pmQ1sZof9Bhg+
i+L6OVa/R6U1g1ksfNCaFw5LA9Q0fVgQFqzwAwy05Hx1ZGA/xy+15c76AgxGUVT6
mK0ToTEHWBz0hoKnNET9ULnfAA1asQ==
-----END CERTIFICATE-----
