Certificate:
    Data:
        Version: 3 (0x2)
        Serial Number: 1 (0x1)
    Signature Algorithm: sha1WithRSAEncryption
        Issuer: C=BE, CN=txjsonrpc-pyserver
        Validity
            Not Before: Jun 23 15:47:38 2012 GMT
            Not After : Jun 23 15:47:38 2013 GMT
        Subject: C=BE, CN=txjsonrpc-pyserver
        Subject Public Key Info:
            Public Key Algorithm: rsaEncryption
                Public-Key: (4096 bit)
                Modulus:
                    00:c5:a5:26:f9:f2:d2:87:c8:ae:9d:1c:5f:a3:15:
                    0e:2c:14:03:8c:a8:58:ca:20:df:4e:9c:e3:f7:0a:
                    98:c5:cf:c7:1c:34:38:1c:2f:7b:13:f7:2c:c7:ab:
                    8e:e4:58:87:74:6e:9e:5f:72:29:4d:b9:fe:2e:40:
                    15:27:65:73:8d:0c:21:52:96:ca:41:2d:c9:34:14:
                    74:44:16:11:94:bd:f8:3a:c7:2c:07:85:eb:02:6e:
                    46:36:81:af:89:37:28:36:5b:10:f3:75:57:7c:6a:
                    10:86:dc:e6:1d:8c:05:61:39:c0:a0:01:1d:61:4a:
                    ab:4a:9b:ff:c0:fb:eb:a4:bd:2c:60:3b:9d:22:f8:
                    3f:d7:9b:73:55:34:ef:73:7a:56:14:ae:8c:21:f4:
                    da:eb:49:cf:b5:d9:6d:ac:43:19:7d:55:7e:3a:c2:
                    16:6b:62:0e:2f:97:e5:b0:b0:45:35:5b:6a:3e:52:
                    02:48:ae:cc:6a:d8:ab:07:1a:b1:a7:7a:06:66:54:
                    b5:e4:01:a8:9d:30:26:7b:a1:ae:83:d7:35:8b:42:
                    81:0f:bd:2c:87:ce:10:fa:4d:c2:2b:b9:e7:8e:3d:
                    a0:42:48:a4:4d:29:5c:4c:68:5f:18:7a:5f:c7:96:
                    9d:b1:b8:09:be:34:db:26:51:8f:cd:26:af:7b:60:
                    c9:a8:38:fe:9b:c0:bb:ec:b8:81:ae:eb:a0:5e:67:
                    ad:76:3e:02:b3:ea:be:06:6c:77:ae:16:6b:4f:e2:
                    ea:ec:55:4c:59:87:88:12:5b:42:0e:3c:ab:bf:99:
                    d6:88:80:87:5d:2a:51:c6:de:2a:70:9b:ad:29:fa:
                    0a:23:e3:ac:70:97:45:64:cf:c5:f5:de:97:52:0c:
                    54:7e:e7:62:6e:65:0a:3a:4b:89:0b:83:34:35:a0:
                    36:ce:d3:b2:0e:3e:48:e8:2d:25:11:7f:82:2d:b9:
                    5d:68:7b:40:06:12:54:7a:cb:2a:46:1b:48:75:3a:
                    4e:0e:ca:1a:6a:7a:52:35:50:3a:ff:ed:0d:fc:89:
                    fe:55:38:b4:24:dd:1d:a5:ca:3b:c4:e0:aa:c8:f6:
                    c4:84:91:a7:c7:99:49:58:70:34:2b:33:e1:ef:bf:
                    fc:fa:b8:58:5e:7b:68:a1:94:29:09:c5:2b:2b:8c:
                    ef:27:48:a1:be:9c:5e:0b:ea:be:53:ae:f2:79:8c:
                    92:a4:8c:ce:dc:ff:f2:74:26:3d:ca:f5:ef:99:35:
                    53:0e:5a:bd:5e:81:29:8d:e4:ba:82:cb:7c:4c:3d:
                    02:6c:25:f7:6f:6c:a1:b1:c2:ef:d9:2b:f6:8c:13:
                    d3:e0:b9:55:bd:5c:28:9c:2c:42:e2:bf:01:7c:56:
                    9b:5f:9f
                Exponent: 65537 (0x10001)
        X509v3 extensions:
            X509v3 Basic Constraints: 
                CA:FALSE
            Netscape Cert Type: 
                SSL Server
            Netscape Comment: 
                TinyCA Generated Certificate
            X509v3 Subject Key Identifier: 
                26:8C:A5:F9:A6:4A:FE:4C:E8:0F:04:33:7E:04:26:28:BF:4C:92:F3
            X509v3 Authority Key Identifier: 
                keyid:9D:8F:84:76:94:CD:07:FE:A3:E8:8B:D7:F9:D9:6E:EF:CA:75:51:7B
                DirName:/C=BE/CN=txjsonrpc-test-ca
                serial:8D:D2:AF:37:F9:CA:92:0B

            X509v3 Issuer Alternative Name: 
                <EMPTY>

            X509v3 Subject Alternative Name: 
                <EMPTY>

    Signature Algorithm: sha1WithRSAEncryption
         0f:e0:d1:02:a2:5e:21:c5:21:14:87:f9:8d:24:57:bd:fc:d0:
         35:69:60:9f:3d:8b:48:40:6b:59:b6:2e:94:96:86:64:2f:0a:
         1f:86:19:40:32:95:08:9e:fb:62:d2:13:4f:0e:be:3f:99:a9:
         2e:3a:67:44:68:44:5a:51:1e:e7:bc:39:5e:27:d4:46:67:5b:
         04:e9:6e:ec:5d:51:be:d3:2b:57:f9:5c:7b:ec:5e:5b:12:4e:
         ac:21:8d:5d:f7:8b:c2:89:6b:ac:fa:2e:8c:2e:ab:16:55:85:
         62:18:fb:e3:84:08:29:1f:3e:fe:f1:08:9c:31:81:39:1d:69:
         ee:c5:ce:f6:08:93:d3:29:37:51:84:bb:69:19:3a:18:3b:ab:
         88:73:22:85:0d:ce:c3:e7:2f:b8:a7:e3:e1:14:dc:a7:da:d8:
         f8:b3:0a:e9:ba:98:df:78:6e:92:b7:a1:90:9b:00:5f:05:be:
         86:60:ea:d8:29:32:55:23:e8:f0:99:b4:91:fa:25:de:0e:04:
         85:68:d3:6d:ec:ec:b9:91:73:64:63:0c:13:56:f2:7c:69:4a:
         ab:c6:34:41:52:30:0a:55:83:6b:d4:f5:29:c8:8c:2b:ef:76:
         d8:54:ae:44:87:ff:79:de:ac:90:51:ba:e3:f4:17:f0:3e:21:
         b6:34:d9:49:47:e0:00:94:1a:4e:59:55:b6:89:57:bf:e1:c4:
         55:a2:ef:4f:de:3a:bd:c8:fe:c3:dd:2e:1a:0a:1d:83:6b:17:
         27:b6:bd:19:4a:af:53:4d:2a:e9:4b:34:fa:5b:12:6e:04:8a:
         9f:84:8d:c1:87:86:60:e9:c8:3b:5f:27:fb:ee:8a:20:0c:50:
         6b:6e:13:52:52:7f:8f:b7:ae:c1:13:1a:e2:c3:14:d9:78:c8:
         4c:d4:10:42:9b:eb:ce:ac:22:eb:ad:e2:c6:29:c8:17:94:5b:
         b2:23:d1:5c:80:3b:ba:f0:ca:37:73:2e:6e:df:01:ce:43:09:
         2e:f0:4b:38:94:60:34:90:61:06:07:a5:38:ea:38:d6:db:fa:
         33:56:3f:49:8f:65:82:c3:5e:43:09:95:95:f1:49:c6:52:40:
         8f:03:1c:bf:71:f6:de:36:cb:71:38:a4:f7:5f:15:97:e3:8d:
         f8:8d:ae:ac:5c:98:48:ff:b9:53:13:93:2a:f9:9b:16:68:67:
         37:08:b4:51:fe:0d:72:bf:6d:47:22:ae:37:31:3b:ba:b7:2a:
         55:54:3e:a5:5a:12:c7:76:dc:8a:3b:7f:d5:ae:30:89:21:03:
         ef:8f:fb:48:91:49:8a:33:55:2c:21:55:fc:77:e4:be:70:37:
         06:ef:c7:a6:87:5b:0b:10
-----BEGIN CERTIFICATE-----
MIIFrjCCA5agAwIBAgIBATANBgkqhkiG9w0BAQUFADAqMQswCQYDVQQGEwJCRTEb
MBkGA1UEAxMSdHhqc29ucnBjLXB5c2VydmVyMB4XDTEyMDYyMzE1NDczOFoXDTEz
MDYyMzE1NDczOFowKjELMAkGA1UEBhMCQkUxGzAZBgNVBAMTEnR4anNvbnJwYy1w
eXNlcnZlcjCCAiIwDQYJKoZIhvcNAQEBBQADggIPADCCAgoCggIBAMWlJvny0ofI
rp0cX6MVDiwUA4yoWMog306c4/cKmMXPxxw0OBwvexP3LMerjuRYh3Runl9yKU25
/i5AFSdlc40MIVKWykEtyTQUdEQWEZS9+DrHLAeF6wJuRjaBr4k3KDZbEPN1V3xq
EIbc5h2MBWE5wKABHWFKq0qb/8D766S9LGA7nSL4P9ebc1U073N6VhSujCH02utJ
z7XZbaxDGX1VfjrCFmtiDi+X5bCwRTVbaj5SAkiuzGrYqwcasad6BmZUteQBqJ0w
JnuhroPXNYtCgQ+9LIfOEPpNwiu55449oEJIpE0pXExoXxh6X8eWnbG4Cb402yZR
j80mr3tgyag4/pvAu+y4ga7roF5nrXY+ArPqvgZsd64Wa0/i6uxVTFmHiBJbQg48
q7+Z1oiAh10qUcbeKnCbrSn6CiPjrHCXRWTPxfXel1IMVH7nYm5lCjpLiQuDNDWg
Ns7Tsg4+SOgtJRF/gi25XWh7QAYSVHrLKkYbSHU6Tg7KGmp6UjVQOv/tDfyJ/lU4
tCTdHaXKO8Tgqsj2xISRp8eZSVhwNCsz4e+//Pq4WF57aKGUKQnFKyuM7ydIob6c
XgvqvlOu8nmMkqSMztz/8nQmPcr175k1Uw5avV6BKY3kuoLLfEw9Amwl929sobHC
79kr9owT0+C5Vb1cKJwsQuK/AXxWm1+fAgMBAAGjgd4wgdswCQYDVR0TBAIwADAR
BglghkgBhvhCAQEEBAMCBkAwKwYJYIZIAYb4QgENBB4WHFRpbnlDQSBHZW5lcmF0
ZWQgQ2VydGlmaWNhdGUwHQYDVR0OBBYEFCaMpfmmSv5M6A8EM34EJii/TJLzMFkG
A1UdIwRSMFCAFJ2PhHaUzQf+o+iL1/nZbu/KdVF7oS2kKzApMQswCQYDVQQGEwJC
RTEaMBgGA1UEAxMRdHhqc29ucnBjLXRlc3QtY2GCCQCN0q83+cqSCzAJBgNVHRIE
AjAAMAkGA1UdEQQCMAAwDQYJKoZIhvcNAQEFBQADggIBAA/g0QKiXiHFIRSH+Y0k
V7380DVpYJ89i0hAa1m2LpSWhmQvCh+GGUAylQie+2LSE08Ovj+ZqS46Z0RoRFpR
Hue8OV4n1EZnWwTpbuxdUb7TK1f5XHvsXlsSTqwhjV33i8KJa6z6LowuqxZVhWIY
++OECCkfPv7xCJwxgTkdae7FzvYIk9MpN1GEu2kZOhg7q4hzIoUNzsPnL7in4+EU
3Kfa2PizCum6mN94bpK3oZCbAF8FvoZg6tgpMlUj6PCZtJH6Jd4OBIVo023s7LmR
c2RjDBNW8nxpSqvGNEFSMApVg2vU9SnIjCvvdthUrkSH/3nerJBRuuP0F/A+IbY0
2UlH4ACUGk5ZVbaJV7/hxFWi70/eOr3I/sPdLhoKHYNrFye2vRlKr1NNKulLNPpb
Em4Eip+EjcGHhmDpyDtfJ/vuiiAMUGtuE1JSf4+3rsETGuLDFNl4yEzUEEKb686s
Iuut4sYpyBeUW7Ij0VyAO7rwyjdzLm7fAc5DCS7wSziUYDSQYQYHpTjqONbb+jNW
P0mPZYLDXkMJlZXxScZSQI8DHL9x9t42y3E4pPdfFZfjjfiNrqxcmEj/uVMTkyr5
mxZoZzcItFH+DXK/bUcirjcxO7q3KlVUPqVaEsd23Io7f9WuMIkhA++P+0iRSYoz
VSwhVfx35L5wNwbvx6aHWwsQ
-----END CERTIFICATE-----
