Certificate:
    Data:
        Version: 3 (0x2)
        Serial Number: 1 (0x1)
    Signature Algorithm: sha1WithRSAEncryption
        Issuer: CN=ca-true, C=BE, O=Gremwell bvba
        Validity
            Not Before: Jun 23 15:47:38 2012 GMT
            Not After : Jun 23 15:47:38 2013 GMT
        Subject: C=BE, CN=txjsonrpc-pyserver
        Subject Public Key Info:
            Public Key Algorithm: rsaEncryption
                Public-Key: (4096 bit)
                Modulus:
                    00:c5:a5:26:f9:f2:d2:87:c8:ae:9d:1c:5f:a3:15:
                    0e:2c:14:03:8c:a8:58:ca:20:df:4e:9c:e3:f7:0a:
                    98:c5:cf:c7:1c:34:38:1c:2f:7b:13:f7:2c:c7:ab:
                    8e:e4:58:87:74:6e:9e:5f:72:29:4d:b9:fe:2e:40:
                    15:27:65:73:8d:0c:21:52:96:ca:41:2d:c9:34:14:
                    74:44:16:11:94:bd:f8:3a:c7:2c:07:85:eb:02:6e:
                    46:36:81:af:89:37:28:36:5b:10:f3:75:57:7c:6a:
                    10:86:dc:e6:1d:8c:05:61:39:c0:a0:01:1d:61:4a:
                    ab:4a:9b:ff:c0:fb:eb:a4:bd:2c:60:3b:9d:22:f8:
                    3f:d7:9b:73:55:34:ef:73:7a:56:14:ae:8c:21:f4:
                    da:eb:49:cf:b5:d9:6d:ac:43:19:7d:55:7e:3a:c2:
                    16:6b:62:0e:2f:97:e5:b0:b0:45:35:5b:6a:3e:52:
                    02:48:ae:cc:6a:d8:ab:07:1a:b1:a7:7a:06:66:54:
                    b5:e4:01:a8:9d:30:26:7b:a1:ae:83:d7:35:8b:42:
                    81:0f:bd:2c:87:ce:10:fa:4d:c2:2b:b9:e7:8e:3d:
                    a0:42:48:a4:4d:29:5c:4c:68:5f:18:7a:5f:c7:96:
                    9d:b1:b8:09:be:34:db:26:51:8f:cd:26:af:7b:60:
                    c9:a8:38:fe:9b:c0:bb:ec:b8:81:ae:eb:a0:5e:67:
                    ad:76:3e:02:b3:ea:be:06:6c:77:ae:16:6b:4f:e2:
                    ea:ec:55:4c:59:87:88:12:5b:42:0e:3c:ab:bf:99:
                    d6:88:80:87:5d:2a:51:c6:de:2a:70:9b:ad:29:fa:
                    0a:23:e3:ac:70:97:45:64:cf:c5:f5:de:97:52:0c:
                    54:7e:e7:62:6e:65:0a:3a:4b:89:0b:83:34:35:a0:
                    36:ce:d3:b2:0e:3e:48:e8:2d:25:11:7f:82:2d:b9:
                    5d:68:7b:40:06:12:54:7a:cb:2a:46:1b:48:75:3a:
                    4e:0e:ca:1a:6a:7a:52:35:50:3a:ff:ed:0d:fc:89:
                    fe:55:38:b4:24:dd:1d:a5:ca:3b:c4:e0:aa:c8:f6:
                    c4:84:91:a7:c7:99:49:58:70:34:2b:33:e1:ef:bf:
                    fc:fa:b8:58:5e:7b:68:a1:94:29:09:c5:2b:2b:8c:
                    ef:27:48:a1:be:9c:5e:0b:ea:be:53:ae:f2:79:8c:
                    92:a4:8c:ce:dc:ff:f2:74:26:3d:ca:f5:ef:99:35:
                    53:0e:5a:bd:5e:81:29:8d:e4:ba:82:cb:7c:4c:3d:
                    02:6c:25:f7:6f:6c:a1:b1:c2:ef:d9:2b:f6:8c:13:
                    d3:e0:b9:55:bd:5c:28:9c:2c:42:e2:bf:01:7c:56:
                    9b:5f:9f
                Exponent: 65537 (0x10001)
        X509v3 extensions:
            X509v3 Basic Constraints: 
                CA:FALSE
            Netscape Cert Type: 
                SSL Server
            Netscape Comment: 
                TinyCA Generated Certificate
            X509v3 Subject Key Identifier: 
                26:8C:A5:F9:A6:4A:FE:4C:E8:0F:04:33:7E:04:26:28:BF:4C:92:F3
            X509v3 Authority Key Identifier: 
                keyid:9D:8F:84:76:94:CD:07:FE:A3:E8:8B:D7:F9:D9:6E:EF:CA:75:51:7B
                DirName:/C=BE/CN=txjsonrpc-test-ca
                serial:8D:D2:AF:37:F9:CA:92:0B

            X509v3 Issuer Alternative Name: 
                <EMPTY>

            X509v3 Subject Alternative Name: 
                <EMPTY>

    Signature Algorithm: sha1WithRSAEncryption
         ad:9a:78:03:66:bc:c7:83:07:d1:9e:ce:0f:d0:27:cb:d5:48:
         62:57:21:53:50:4d:47:a3:2b:fd:8d:2b:be:52:01:97:38:29:
         79:aa:5a:a8:43:0e:0d:0c:53:73:0e:6c:f0:b8:e0:69:0a:cd:
         41:25:92:d1:14:34:87:ef:8e:d6:12:15:9a:d5:24:d0:dd:57:
         32:0a:ca:7e:f2:28:c4:09:8c:18:d5:42:5b:04:af:c7:88:40:
         be:d3:95:60:e7:c0:2b:7b:99:29:7c:29:e7:ac:0d:44:82:9b:
         40:fc:68:42:62:d5:a8:24:0c:d3:ac:c8:77:38:d5:65:b8:0d:
         cc:57
-----BEGIN CERTIFICATE-----
MIIEOjCCA6OgAwIBAgIBATANBgkqhkiG9w0BAQUFADA3MRAwDgYDVQQDEwdjYS10
cnVlMQswCQYDVQQGEwJCRTEWMBQGA1UEChMNR3JlbXdlbGwgYnZiYTAeFw0xMjA2
MjMxNTQ3MzhaFw0xMzA2MjMxNTQ3MzhaMCoxCzAJBgNVBAYTAkJFMRswGQYDVQQD
ExJ0eGpzb25ycGMtcHlzZXJ2ZXIwggIiMA0GCSqGSIb3DQEBAQUAA4ICDwAwggIK
AoICAQDFpSb58tKHyK6dHF+jFQ4sFAOMqFjKIN9OnOP3CpjFz8ccNDgcL3sT9yzH
q47kWId0bp5fcilNuf4uQBUnZXONDCFSlspBLck0FHREFhGUvfg6xywHhesCbkY2
ga+JNyg2WxDzdVd8ahCG3OYdjAVhOcCgAR1hSqtKm//A++ukvSxgO50i+D/Xm3NV
NO9zelYUrowh9NrrSc+12W2sQxl9VX46whZrYg4vl+WwsEU1W2o+UgJIrsxq2KsH
GrGnegZmVLXkAaidMCZ7oa6D1zWLQoEPvSyHzhD6TcIrueeOPaBCSKRNKVxMaF8Y
el/Hlp2xuAm+NNsmUY/NJq97YMmoOP6bwLvsuIGu66BeZ612PgKz6r4GbHeuFmtP
4ursVUxZh4gSW0IOPKu/mdaIgIddKlHG3ipwm60p+goj46xwl0Vkz8X13pdSDFR+
52JuZQo6S4kLgzQ1oDbO07IOPkjoLSURf4ItuV1oe0AGElR6yypGG0h1Ok4Oyhpq
elI1UDr/7Q38if5VOLQk3R2lyjvE4KrI9sSEkafHmUlYcDQrM+Hvv/z6uFhee2ih
lCkJxSsrjO8nSKG+nF4L6r5TrvJ5jJKkjM7c//J0Jj3K9e+ZNVMOWr1egSmN5LqC
y3xMPQJsJfdvbKGxwu/ZK/aME9PguVW9XCicLELivwF8VptfnwIDAQABo4HeMIHb
MAkGA1UdEwQCMAAwEQYJYIZIAYb4QgEBBAQDAgZAMCsGCWCGSAGG+EIBDQQeFhxU
aW55Q0EgR2VuZXJhdGVkIENlcnRpZmljYXRlMB0GA1UdDgQWBBQmjKX5pkr+TOgP
BDN+BCYov0yS8zBZBgNVHSMEUjBQgBSdj4R2lM0H/qPoi9f52W7vynVRe6EtpCsw
KTELMAkGA1UEBhMCQkUxGjAYBgNVBAMTEXR4anNvbnJwYy10ZXN0LWNhggkAjdKv
N/nKkgswCQYDVR0SBAIwADAJBgNVHREEAjAAMA0GCSqGSIb3DQEBBQUAA4GBAK2a
eANmvMeDB9Gezg/QJ8vVSGJXIVNQTUejK/2NK75SAZc4KXmqWqhDDg0MU3MObPC4
4GkKzUElktEUNIfvjtYSFZrVJNDdVzIKyn7yKMQJjBjVQlsEr8eIQL7TlWDnwCt7
mSl8KeesDUSCm0D8aEJi1agkDNOsyHc41WW4DcxX
-----END CERTIFICATE-----
Certificate:
    Data:
        Version: 4 (0x3)
        Serial Number: 1 (0x1)
    Signature Algorithm: sha1WithRSAEncryption
        Issuer: C=BE, CN=txjsonrpc-test-ca
        Validity
            Not Before: Jan  1 00:00:00 1970 GMT
            Not After : Jan 19 03:14:07 2038 GMT
        Subject: CN=ca-true, C=BE, O=Gremwell bvba
        Subject Public Key Info:
            Public Key Algorithm: rsaEncryption
                Public-Key: (1024 bit)
                Modulus:
                    00:c2:77:37:fc:b5:6b:3c:28:b1:83:de:6e:1e:59:
                    e3:55:fe:7a:3b:7f:31:48:dc:72:cd:32:22:21:b3:
                    0d:1a:11:fd:75:40:ab:43:69:f3:24:53:7f:76:35:
                    34:d0:7a:4a:7b:d1:d1:df:50:af:b6:73:a8:27:ce:
                    62:01:bc:b3:e2:1c:9f:6a:a9:f5:d0:c0:a1:84:c2:
                    79:84:f9:64:86:f9:bd:c7:ab:09:31:5d:4f:76:34:
                    1b:f2:76:83:84:43:87:73:3f:36:f3:50:b4:73:f2:
                    95:af:b4:f9:ad:64:11:9b:ba:ff:22:4d:a7:c7:92:
                    7c:15:d5:5c:de:81:00:d3:bd
                Exponent: 65537 (0x10001)
        X509v3 extensions:
            X509v3 Basic Constraints: critical
                CA:TRUE
    Signature Algorithm: sha1WithRSAEncryption
         27:7f:a0:b2:f4:c7:fd:dc:9c:bc:83:f1:85:a0:cd:2c:70:97:
         34:cb:b8:2f:68:ba:e8:0f:14:39:17:05:08:9c:60:9f:df:cc:
         3f:90:46:31:0a:ae:ef:9e:48:2c:d7:c2:0c:b3:0a:70:8d:db:
         64:3e:78:dd:f8:70:a4:83:34:d3:5a:e6:d7:e5:c4:f9:fd:d6:
         e5:a0:7c:de:0c:e9:34:92:26:e0:4e:8d:15:dc:4b:d2:dd:f7:
         96:1e:fa:1c:39:46:ae:f1:55:f2:c3:bf:91:96:04:4e:ad:7b:
         eb:57:3c:30:da:da:4c:4c:56:81:cc:70:77:35:89:3a:7a:4f:
         87:31:ed:00:c4:50:23:fa:c0:52:cd:19:11:ec:1c:48:65:cf:
         b7:3e:be:80:1f:07:6d:b8:33:f3:40:c8:1e:27:85:de:8e:1b:
         83:d4:c7:a2:27:8b:5e:25:7f:52:ec:75:59:65:3a:91:ad:de:
         14:5e:92:d3:ae:0a:44:dd:f8:d6:b0:f6:64:73:23:3c:85:5f:
         79:05:49:4a:bb:dd:7a:9c:20:49:06:55:46:f4:a6:72:2b:dd:
         d6:4a:6b:82:0c:1f:8e:c2:53:5f:23:41:63:0a:42:f1:39:13:
         14:5b:31:e7:c0:f7:1d:de:ba:47:0a:38:04:e0:7e:7e:86:93:
         1f:6b:7c:4a:09:ee:0c:5f:92:b6:f4:7d:8b:2a:e0:fb:c2:9f:
         bd:7c:d0:0c:4c:ec:57:89:59:42:1f:6a:6c:06:f2:36:15:18:
         1d:b0:04:1a:c9:58:3c:b1:1d:98:a1:d1:44:a4:b3:af:c6:37:
         cc:f7:b1:32:5c:f8:b7:25:fb:8b:16:bc:6d:f0:b7:cb:c7:6b:
         fa:79:54:8a:81:39:01:e6:cb:7f:35:83:4f:dd:f6:61:9a:c7:
         3a:ba:90:cf:78:34:7a:65:cd:a3:38:b3:d4:7a:0a:0b:de:29:
         df:a4:99:9f:6c:32:d0:db:c6:8b:32:03:c1:07:f6:39:34:a3:
         bc:fb:30:6c:31:43:a2:d9:51:09:cc:ae:05:2a:8c:73:eb:6b:
         6e:17:52:ac:4d:d2:07:79:c0:67:0b:7c:f5:e0:34:9a:e6:73:
         c3:57:7f:b1:f0:45:58:15:af:5d:a3:4f:e3:ce:bc:e4:4c:11:
         05:2e:58:b1:6f:59:1d:13:eb:ff:c4:f6:25:f4:f2:b8:54:03:
         70:60:f0:09:af:32:35:f5:b2:05:df:43:f7:46:20:6d:91:ca:
         f3:20:d6:ff:6c:80:db:be:c5:30:76:de:27:25:45:c9:6f:f1:
         f1:c0:7b:94:b8:19:1a:c6:ad:46:2d:ac:97:54:34:8c:3e:32:
         bb:2d:c9:a6:7e:42:36:4f
-----BEGIN CERTIFICATE-----
MIIDajCCAVKgAwIBAwIBATANBgkqhkiG9w0BAQUFADApMQswCQYDVQQGEwJCRTEa
MBgGA1UEAxMRdHhqc29ucnBjLXRlc3QtY2EwHhcNNzAwMTAxMDAwMDAwWhcNMzgw
MTE5MDMxNDA3WjA3MRAwDgYDVQQDEwdjYS10cnVlMQswCQYDVQQGEwJCRTEWMBQG
A1UEChMNR3JlbXdlbGwgYnZiYTCBnzANBgkqhkiG9w0BAQEFAAOBjQAwgYkCgYEA
wnc3/LVrPCixg95uHlnjVf56O38xSNxyzTIiIbMNGhH9dUCrQ2nzJFN/djU00HpK
e9HR31CvtnOoJ85iAbyz4hyfaqn10MChhMJ5hPlkhvm9x6sJMV1PdjQb8naDhEOH
cz8281C0c/KVr7T5rWQRm7r/Ik2nx5J8FdVc3oEA070CAwEAAaMTMBEwDwYDVR0T
AQH/BAUwAwEB/zANBgkqhkiG9w0BAQUFAAOCAgEAJ3+gsvTH/dycvIPxhaDNLHCX
NMu4L2i66A8UORcFCJxgn9/MP5BGMQqu755ILNfCDLMKcI3bZD543fhwpIM001rm
1+XE+f3W5aB83gzpNJIm4E6NFdxL0t33lh76HDlGrvFV8sO/kZYETq1761c8MNra
TExWgcxwdzWJOnpPhzHtAMRQI/rAUs0ZEewcSGXPtz6+gB8Hbbgz80DIHieF3o4b
g9THoieLXiV/Uux1WWU6ka3eFF6S064KRN341rD2ZHMjPIVfeQVJSrvdepwgSQZV
RvSmcivd1kprggwfjsJTXyNBYwpC8TkTFFsx58D3Hd66Rwo4BOB+foaTH2t8Sgnu
DF+StvR9iyrg+8KfvXzQDEzsV4lZQh9qbAbyNhUYHbAEGslYPLEdmKHRRKSzr8Y3
zPexMlz4tyX7ixa8bfC3y8dr+nlUioE5AebLfzWDT932YZrHOrqQz3g0emXNoziz
1HoKC94p36SZn2wy0NvGizIDwQf2OTSjvPswbDFDotlRCcyuBSqMc+trbhdSrE3S
B3nAZwt89eA0muZzw1d/sfBFWBWvXaNP48685EwRBS5YsW9ZHRPr/8T2JfTyuFQD
cGDwCa8yNfWyBd9D90YgbZHK8yDW/2yA277FMHbeJyVFyW/x8cB7lLgZGsatRi2s
l1Q0jD4yuy3Jpn5CNk8=
-----END CERTIFICATE-----
