Certificate:
    Data:
        Version: 3 (0x2)
        Serial Number: 1 (0x1)
    Signature Algorithm: sha1WithRSAEncryption
        Issuer: C=BE, CN=txjsonrpc-test-ca
        Validity
            Not Before: Jun 23 15:47:38 2012 GMT
            Not After : Jun 23 15:47:38 2013 GMT
        Subject: C=BE, CN=txjsonrpc-pyserver
        Subject Public Key Info:
            Public Key Algorithm: rsaEncryption
                Public-Key: (4096 bit)
                Modulus:
                    00:c5:a5:26:f9:f2:d2:87:c8:ae:9d:1c:5f:a3:15:
                    0e:2c:14:03:8c:a8:58:ca:20:df:4e:9c:e3:f7:0a:
                    98:c5:cf:c7:1c:34:38:1c:2f:7b:13:f7:2c:c7:ab:
                    8e:e4:58:87:74:6e:9e:5f:72:29:4d:b9:fe:2e:40:
                    15:27:65:73:8d:0c:21:52:96:ca:41:2d:c9:34:14:
                    74:44:16:11:94:bd:f8:3a:c7:2c:07:85:eb:02:6e:
                    46:36:81:af:89:37:28:36:5b:10:f3:75:57:7c:6a:
                    10:86:dc:e6:1d:8c:05:61:39:c0:a0:01:1d:61:4a:
                    ab:4a:9b:ff:c0:fb:eb:a4:bd:2c:60:3b:9d:22:f8:
                    3f:d7:9b:73:55:34:ef:73:7a:56:14:ae:8c:21:f4:
                    da:eb:49:cf:b5:d9:6d:ac:43:19:7d:55:7e:3a:c2:
                    16:6b:62:0e:2f:97:e5:b0:b0:45:35:5b:6a:3e:52:
                    02:48:ae:cc:6a:d8:ab:07:1a:b1:a7:7a:06:66:54:
                    b5:e4:01:a8:9d:30:26:7b:a1:ae:83:d7:35:8b:42:
                    81:0f:bd:2c:87:ce:10:fa:4d:c2:2b:b9:e7:8e:3d:
                    a0:42:48:a4:4d:29:5c:4c:68:5f:18:7a:5f:c7:96:
                    9d:b1:b8:09:be:34:db:26:51:8f:cd:26:af:7b:60:
                    c9:a8:38:fe:9b:c0:bb:ec:b8:81:ae:eb:a0:5e:67:
                    ad:76:3e:02:b3:ea:be:06:6c:77:ae:16:6b:4f:e2:
                    ea:ec:55:4c:59:87:88:12:5b:42:0e:3c:ab:bf:99:
                    d6:88:80:87:5d:2a:51:c6:de:2a:70:9b:ad:29:fa:
                    0a:23:e3:ac:70:97:45:64:cf:c5:f5:de:97:52:0c:
                    54:7e:e7:62:6e:65:0a:3a:4b:89:0b:83:34:35:a0:
                    36:ce:d3:b2:0e:3e:48:e8:2d:25:11:7f:82:2d:b9:
                    5d:68:7b:40:06:12:54:7a:cb:2a:46:1b:48:75:3a:
                    4e:0e:ca:1a:6a:7a:52:35:50:3a:ff:ed:0d:fc:89:
                    fe:55:38:b4:24:dd:1d:a5:ca:3b:c4:e0:aa:c8:f6:
                    c4:84:91:a7:c7:99:49:58:70:34:2b:33:e1:ef:bf:
                    fc:fa:b8:58:5e:7b:68:a1:94:29:09:c5:2b:2b:8c:
                    ef:27:48:a1:be:9c:5e:0b:ea:be:53:ae:f2:79:8c:
                    92:a4:8c:ce:dc:ff:f2:74:26:3d:ca:f5:ef:99:35:
                    53:0e:5a:bd:5e:81:29:8d:e4:ba:82:cb:7c:4c:3d:
                    02:6c:25:f7:6f:6c:a1:b1:c2:ef:d9:2b:f6:8c:13:
                    d3:e0:b9:55:bd:5c:28:9c:2c:42:e2:bf:01:7c:56:
                    9b:5f:9f
                Exponent: 65537 (0x10001)
        X509v3 extensions:
            X509v3 Basic Constraints: 
                CA:FALSE
            Netscape Cert Type: 
                SSL Server
            Netscape Comment: 
                TinyCA Generated Certificate
            X509v3 Subject Key Identifier: 
                26:8C:A5:F9:A6:4A:FE:4C:E8:0F:04:33:7E:04:26:28:BF:4C:92:F3
            X509v3 Authority Key Identifier: 
                keyid:9D:8F:84:76:94:CD:07:FE:A3:E8:8B:D7:F9:D9:6E:EF:CA:75:51:7B
                DirName:/C=BE/CN=txjsonrpc-test-ca
                serial:8D:D2:AF:37:F9:CA:92:0B

            X509v3 Issuer Alternative Name: 
                <EMPTY>

            X509v3 Subject Alternative Name: 
                <EMPTY>

    Signature Algorithm: sha1WithRSAEncryption
         b9:36:0a:ee:ef:b5:c5:e3:c2:55:7e:ee:97:39:be:db:b3:7f:
         0c:99:46:0f:50:00:da:93:f2:1b:71:90:b8:27:ae:08:39:5b:
         d3:cf:40:14:40:1d:c0:16:01:40:c9:d5:bd:5d:46:86:1f:e6:
         97:9b:ca:e6:11:56:86:54:d5:de:bb:f1:3a:5f:ab:5d:da:74:
         a3:e5:e6:a5:57:0b:08:f6:d7:62:84:0c:7f:3f:d4:17:75:d5:
         5f:6a:79:61:87:94:f8:5c:f6:b4:4b:cc:13:ba:8e:96:26:54:
         53:af:ce:b5:42:c3:d7:17:88:6f:0a:87:72:b1:ef:18:6a:75:
         d5:f2:f9:f4:4c:46:fa:00:a5:1b:24:60:7c:f0:b3:59:1d:d2:
         d8:9c:ac:dd:95:91:0e:3d:3e:16:00:42:4b:d6:95:52:87:39:
         4a:ef:8d:93:da:4f:76:86:98:c9:5e:d7:89:99:b9:b3:32:7b:
         fd:05:81:8c:f3:ce:2a:70:de:8f:ea:80:62:ce:56:6c:61:bf:
         22:6a:0e:8b:c7:a5:7c:e8:dc:4e:6e:0f:e7:89:e4:5d:55:87:
         1b:69:53:80:bc:27:bf:30:3a:12:8d:36:51:9d:d9:e4:5f:69:
         66:46:95:e2:9d:20:c3:a6:ee:ca:4b:88:5f:bb:92:00:cc:5d:
         c5:8c:1f:7f:4d:7f:48:0d:25:90:11:4a:5d:b4:e9:c7:22:51:
         23:f0:d8:72:ca:16:1e:9f:b9:7c:79:cd:ce:7d:07:c8:9b:a9:
         d8:bd:92:5f:bc:f2:e8:b9:a8:86:f7:42:16:c8:83:9a:79:0d:
         05:92:4c:b6:00:78:7c:61:db:92:e8:50:f2:49:5b:71:7b:02:
         8f:c1:2b:41:c9:0c:eb:cf:33:b1:47:cf:42:6b:29:13:04:d8:
         be:8c:d5:87:c8:f8:03:97:14:7e:32:bc:27:97:26:de:ab:6a:
         21:3e:42:f0:7e:36:34:f9:93:1e:44:ea:ba:8d:17:72:b8:6a:
         d9:c8:1b:12:c1:23:5b:de:4b:66:00:92:eb:44:4c:a6:59:0d:
         67:2e:c0:89:16:40:8b:e8:d1:1b:e6:ba:1c:f7:d6:9d:de:22:
         49:6f:07:ae:4d:21:2b:ed:02:ed:f4:05:e9:b8:b3:9f:3e:ac:
         fc:f3:46:49:1a:c8:cb:25:c3:54:dc:66:ea:b1:31:9d:58:f2:
         20:22:a9:26:7b:14:68:59:b4:41:89:45:fb:95:e2:b2:44:e7:
         08:d6:8a:58:50:9e:88:36:74:f3:0f:be:f6:68:c8:7a:1b:f3:
         0c:74:54:34:09:c4:09:b1:5c:fa:d6:f3:0f:80:3b:3b:26:9a:
         31:2b:2d:8e:13:80:95:89
-----BEGIN CERTIFICATE-----
MIIFrTCCA5WgAwIBAgIBATANBgkqhkiG9w0BAQUFADApMQswCQYDVQQGEwJCRTEa
MBgGA1UEAxMRdHhqc29ucnBjLXRlc3QtY2EwHhcNMTIwNjIzMTU0NzM4WhcNMTMw
NjIzMTU0NzM4WjAqMQswCQYDVQQGEwJCRTEbMBkGA1UEAxMSdHhqc29ucnBjLXB5
c2VydmVyMIICIjANBgkqhkiG9w0BAQEFAAOCAg8AMIICCgKCAgEAxaUm+fLSh8iu
nRxfoxUOLBQDjKhYyiDfTpzj9wqYxc/HHDQ4HC97E/csx6uO5FiHdG6eX3IpTbn+
LkAVJ2VzjQwhUpbKQS3JNBR0RBYRlL34OscsB4XrAm5GNoGviTcoNlsQ83VXfGoQ
htzmHYwFYTnAoAEdYUqrSpv/wPvrpL0sYDudIvg/15tzVTTvc3pWFK6MIfTa60nP
tdltrEMZfVV+OsIWa2IOL5flsLBFNVtqPlICSK7MatirBxqxp3oGZlS15AGonTAm
e6Gug9c1i0KBD70sh84Q+k3CK7nnjj2gQkikTSlcTGhfGHpfx5adsbgJvjTbJlGP
zSave2DJqDj+m8C77LiBruugXmetdj4Cs+q+Bmx3rhZrT+Lq7FVMWYeIEltCDjyr
v5nWiICHXSpRxt4qcJutKfoKI+OscJdFZM/F9d6XUgxUfudibmUKOkuJC4M0NaA2
ztOyDj5I6C0lEX+CLbldaHtABhJUessqRhtIdTpODsoaanpSNVA6/+0N/In+VTi0
JN0dpco7xOCqyPbEhJGnx5lJWHA0KzPh77/8+rhYXntooZQpCcUrK4zvJ0ihvpxe
C+q+U67yeYySpIzO3P/ydCY9yvXvmTVTDlq9XoEpjeS6gst8TD0CbCX3b2yhscLv
2Sv2jBPT4LlVvVwonCxC4r8BfFabX58CAwEAAaOB3jCB2zAJBgNVHRMEAjAAMBEG
CWCGSAGG+EIBAQQEAwIGQDArBglghkgBhvhCAQ0EHhYcVGlueUNBIEdlbmVyYXRl
ZCBDZXJ0aWZpY2F0ZTAdBgNVHQ4EFgQUJoyl+aZK/kzoDwQzfgQmKL9MkvMwWQYD
VR0jBFIwUIAUnY+EdpTNB/6j6IvX+dlu78p1UXuhLaQrMCkxCzAJBgNVBAYTAkJF
MRowGAYDVQQDExF0eGpzb25ycGMtdGVzdC1jYYIJAI3Srzf5ypILMAkGA1UdEgQC
MAAwCQYDVR0RBAIwADANBgkqhkiG9w0BAQUFAAOCAgEAuTYK7u+1xePCVX7ulzm+
27N/DJlGD1AA2pPyG3GQuCeuCDlb089AFEAdwBYBQMnVvV1Ghh/ml5vK5hFWhlTV
3rvxOl+rXdp0o+XmpVcLCPbXYoQMfz/UF3XVX2p5YYeU+Fz2tEvME7qOliZUU6/O
tULD1xeIbwqHcrHvGGp11fL59ExG+gClGyRgfPCzWR3S2Jys3ZWRDj0+FgBCS9aV
Uoc5Su+Nk9pPdoaYyV7XiZm5szJ7/QWBjPPOKnDej+qAYs5WbGG/ImoOi8elfOjc
Tm4P54nkXVWHG2lTgLwnvzA6Eo02UZ3Z5F9pZkaV4p0gw6buykuIX7uSAMxdxYwf
f01/SA0lkBFKXbTpxyJRI/DYcsoWHp+5fHnNzn0HyJup2L2SX7zy6LmohvdCFsiD
mnkNBZJMtgB4fGHbkuhQ8klbcXsCj8ErQckM688zsUfPQmspEwTYvozVh8j4A5cU
fjK8J5cm3qtqIT5C8H42NPmTHkTquo0Xcrhq2cgbEsEjW95LZgCS60RMplkNZy7A
iRZAi+jRG+a6HPfWnd4iSW8Hrk0hK+0C7fQF6biznz6s/PNGSRrIyyXDVNxm6rEx
nVjyICKpJnsUaFm0QYlF+5XiskTnCNaKWFCeiDZ08w++9mjIehvzDHRUNAnECbFc
+tbzD4A7OyaaMSstjhOAlYk=
-----END CERTIFICATE-----
Certificate:
    Data:
        Version: 3 (0x2)
        Serial Number: 10219423159405941259 (0x8dd2af37f9ca920b)
    Signature Algorithm: sha1WithRSAEncryption
        Issuer: C=BE, CN=txjsonrpc-test-ca
        Validity
            Not Before: Jun 23 15:46:37 2012 GMT
            Not After : Jun 21 15:46:37 2022 GMT
        Subject: C=BE, CN=txjsonrpc-test-ca
        Subject Public Key Info:
            Public Key Algorithm: rsaEncryption
                Public-Key: (4096 bit)
                Modulus:
                    00:d1:25:af:77:c5:a8:72:cf:90:b9:39:10:fb:7b:
                    75:2c:a1:da:6a:95:e5:44:0c:d6:25:4b:58:7f:bb:
                    07:82:59:49:58:32:85:24:cc:3e:77:db:e1:a7:4f:
                    c8:b5:cb:ee:45:38:bd:bc:fb:e3:76:3b:88:04:ca:
                    ab:3a:a3:96:3b:5f:93:9c:28:a6:61:97:dc:a2:3f:
                    a0:93:2b:56:6c:cf:d3:4f:6a:9e:05:d3:1c:cd:ef:
                    75:80:1a:98:b7:92:49:14:33:b8:c4:7c:73:8c:7e:
                    83:a5:81:a2:59:8c:8b:a3:51:36:6d:68:ac:f2:f1:
                    ed:6f:49:d9:af:7a:63:c1:43:31:42:b6:c7:cd:b9:
                    78:b7:33:98:70:92:6c:9e:04:7a:7b:f0:6d:38:87:
                    eb:00:13:17:b9:d9:ec:b4:66:bb:51:d3:fd:81:e3:
                    0e:88:71:23:d2:80:2a:61:de:ab:25:02:47:a9:c1:
                    6b:c9:69:ae:da:47:b6:49:74:ac:a6:e1:c1:76:ba:
                    6d:b1:d9:68:6e:1c:37:a8:e2:18:60:37:b6:58:13:
                    6c:c7:92:7c:c6:45:8c:ef:c3:81:73:10:dc:2f:31:
                    e2:b9:05:5a:9e:28:70:5a:3e:1d:b8:68:71:81:c9:
                    e8:fe:1f:c3:a0:13:f8:e4:24:12:ba:91:8e:15:d2:
                    03:f1:8c:b0:aa:e2:34:e4:6b:f8:06:f6:23:8a:92:
                    43:a6:05:dc:e9:c7:a5:a8:06:d7:6e:91:52:72:47:
                    ab:ae:87:fe:b3:0f:04:87:6f:4b:22:29:e9:a9:06:
                    52:58:7d:03:16:d7:d5:31:44:b4:f1:51:44:a7:2a:
                    ba:5e:09:19:ec:4c:a2:e0:58:fe:0d:4e:b7:90:4d:
                    02:ac:2a:ad:99:14:65:3b:0a:3c:73:45:56:b2:0f:
                    10:25:24:51:79:57:1a:34:1a:10:6f:60:e0:fc:81:
                    db:ca:c2:e2:85:1b:4c:72:13:5c:9d:76:cc:d0:21:
                    33:31:56:82:8f:c5:57:b9:44:fd:8b:76:c1:b6:e4:
                    21:8b:35:9a:ee:54:74:9f:72:6b:19:84:d7:a2:3c:
                    a5:6e:11:0a:f1:93:04:2e:dd:7c:4c:7d:62:10:d4:
                    1b:8b:87:f6:ed:bf:12:b1:8b:f0:9a:7a:ee:02:94:
                    e1:3c:46:2b:7f:9c:54:fb:2e:61:c9:1c:ef:fc:de:
                    25:bc:2d:75:1b:1f:49:5e:44:3b:15:93:ad:c4:89:
                    d9:ae:3c:da:54:ef:d9:af:3a:16:cb:94:1b:6a:14:
                    e4:42:f9:75:33:46:6e:fb:40:bc:f8:82:36:cf:60:
                    f5:c2:a2:98:23:a7:2a:ae:c1:aa:22:f8:87:da:b7:
                    9c:a4:cf
                Exponent: 65537 (0x10001)
        X509v3 extensions:
            X509v3 Subject Key Identifier: 
                9D:8F:84:76:94:CD:07:FE:A3:E8:8B:D7:F9:D9:6E:EF:CA:75:51:7B
            X509v3 Authority Key Identifier: 
                keyid:9D:8F:84:76:94:CD:07:FE:A3:E8:8B:D7:F9:D9:6E:EF:CA:75:51:7B
                DirName:/C=BE/CN=txjsonrpc-test-ca
                serial:8D:D2:AF:37:F9:CA:92:0B

            X509v3 Basic Constraints: critical
                CA:TRUE
            Netscape Cert Type: 
                SSL CA, S/MIME CA
            X509v3 Issuer Alternative Name: 
                <EMPTY>

            Netscape Comment: 
                Test CA for txjsonrcp
            X509v3 Subject Alternative Name: 
                <EMPTY>

            X509v3 Key Usage: critical
                Certificate Sign, CRL Sign
    Signature Algorithm: sha1WithRSAEncryption
         06:82:86:81:a9:1b:7e:2d:ef:f5:fc:cc:d2:9d:d6:82:ad:d0:
         6f:7e:3d:b9:5c:b2:0f:3a:64:21:9a:fb:53:b2:93:81:dc:1a:
         24:fc:b8:30:57:a2:c7:71:0d:9c:1a:0b:8a:6c:89:52:8b:8a:
         f5:af:95:3e:b8:08:39:ee:36:50:ac:60:4d:df:2b:49:a2:72:
         f1:3f:12:3c:d9:55:56:a4:9a:77:2b:77:fa:16:b5:76:d9:f4:
         c4:51:6b:b9:fe:2f:a3:52:e8:64:80:49:22:6d:05:42:87:af:
         9d:85:6c:fa:c9:9b:48:39:7b:89:f5:a0:1e:ff:11:d3:9c:78:
         b1:b2:f6:4d:b1:e8:b3:98:23:2c:d4:20:e1:a1:01:3e:26:0a:
         5b:8e:eb:58:45:22:cf:e1:94:ad:84:40:b0:fb:ff:25:5f:31:
         9a:49:0b:36:ad:c6:1a:b0:42:60:40:e2:a2:3c:5a:36:41:89:
         fc:10:c4:60:ea:d4:85:7b:36:84:df:aa:81:cc:69:e7:52:ca:
         c1:46:b1:79:93:51:4f:24:84:42:14:3a:20:a0:6c:27:76:40:
         0f:96:7e:4e:c3:0c:37:b3:e3:73:49:86:58:31:00:1e:e7:0f:
         87:74:b6:4e:6e:1c:7d:87:a4:33:04:c9:76:ec:e5:3a:85:5f:
         a8:d1:ad:21:64:5e:c5:6a:df:b1:02:6e:65:a4:87:72:06:07:
         da:e5:f2:af:2b:a5:eb:18:80:67:83:a5:3c:e6:ed:d1:58:f9:
         90:5c:d6:e9:2f:76:c1:58:13:b8:bd:88:8a:f3:04:48:bb:42:
         8f:7f:c6:db:b4:30:3f:bb:6c:d5:47:e5:ae:8d:4b:da:92:a5:
         db:d3:6e:a8:9b:c2:6b:56:af:34:63:82:e6:78:f8:1f:54:d7:
         41:aa:a3:c9:7c:a6:83:41:bf:6e:33:7c:ae:e6:92:bd:da:27:
         b4:bc:e2:90:4f:33:1b:01:a1:cd:02:13:7a:31:ef:00:d6:9a:
         6e:38:6b:a7:cb:70:98:a8:0f:ff:1c:56:a8:b7:e6:d2:42:5a:
         bb:f4:78:27:71:13:d0:e8:43:eb:bc:2d:4f:e4:ea:4d:4f:76:
         7f:53:38:34:eb:13:e2:3d:c6:14:98:86:1c:ab:2c:0e:b7:68:
         2e:bd:63:a9:6a:8f:d5:22:2d:ab:13:d7:62:54:51:ff:5c:37:
         08:04:27:da:f9:57:77:05:18:73:88:5f:b0:c1:65:50:36:09:
         d6:c7:f5:ae:6e:3f:04:d1:84:3c:21:74:1d:bd:0a:fb:76:d0:
         13:2b:62:bb:24:48:43:89:d0:18:5c:b4:ad:ea:98:af:6d:fc:
         1c:6b:1f:06:64:54:23:88
-----BEGIN CERTIFICATE-----
MIIFwzCCA6ugAwIBAgIJAI3Srzf5ypILMA0GCSqGSIb3DQEBBQUAMCkxCzAJBgNV
BAYTAkJFMRowGAYDVQQDExF0eGpzb25ycGMtdGVzdC1jYTAeFw0xMjA2MjMxNTQ2
MzdaFw0yMjA2MjExNTQ2MzdaMCkxCzAJBgNVBAYTAkJFMRowGAYDVQQDExF0eGpz
b25ycGMtdGVzdC1jYTCCAiIwDQYJKoZIhvcNAQEBBQADggIPADCCAgoCggIBANEl
r3fFqHLPkLk5EPt7dSyh2mqV5UQM1iVLWH+7B4JZSVgyhSTMPnfb4adPyLXL7kU4
vbz743Y7iATKqzqjljtfk5wopmGX3KI/oJMrVmzP009qngXTHM3vdYAamLeSSRQz
uMR8c4x+g6WBolmMi6NRNm1orPLx7W9J2a96Y8FDMUK2x825eLczmHCSbJ4Eenvw
bTiH6wATF7nZ7LRmu1HT/YHjDohxI9KAKmHeqyUCR6nBa8lprtpHtkl0rKbhwXa6
bbHZaG4cN6jiGGA3tlgTbMeSfMZFjO/DgXMQ3C8x4rkFWp4ocFo+HbhocYHJ6P4f
w6AT+OQkErqRjhXSA/GMsKriNORr+Ab2I4qSQ6YF3OnHpagG126RUnJHq66H/rMP
BIdvSyIp6akGUlh9AxbX1TFEtPFRRKcqul4JGexMouBY/g1Ot5BNAqwqrZkUZTsK
PHNFVrIPECUkUXlXGjQaEG9g4PyB28rC4oUbTHITXJ12zNAhMzFWgo/FV7lE/Yt2
wbbkIYs1mu5UdJ9yaxmE16I8pW4RCvGTBC7dfEx9YhDUG4uH9u2/ErGL8Jp67gKU
4TxGK3+cVPsuYckc7/zeJbwtdRsfSV5EOxWTrcSJ2a482lTv2a86FsuUG2oU5EL5
dTNGbvtAvPiCNs9g9cKimCOnKq7BqiL4h9q3nKTPAgMBAAGjge0wgeowHQYDVR0O
BBYEFJ2PhHaUzQf+o+iL1/nZbu/KdVF7MFkGA1UdIwRSMFCAFJ2PhHaUzQf+o+iL
1/nZbu/KdVF7oS2kKzApMQswCQYDVQQGEwJCRTEaMBgGA1UEAxMRdHhqc29ucnBj
LXRlc3QtY2GCCQCN0q83+cqSCzAPBgNVHRMBAf8EBTADAQH/MBEGCWCGSAGG+EIB
AQQEAwIBBjAJBgNVHRIEAjAAMCQGCWCGSAGG+EIBDQQXFhVUZXN0IENBIGZvciB0
eGpzb25yY3AwCQYDVR0RBAIwADAOBgNVHQ8BAf8EBAMCAQYwDQYJKoZIhvcNAQEF
BQADggIBAAaChoGpG34t7/X8zNKd1oKt0G9+Pblcsg86ZCGa+1Oyk4HcGiT8uDBX
osdxDZwaC4psiVKLivWvlT64CDnuNlCsYE3fK0micvE/EjzZVVakmncrd/oWtXbZ
9MRRa7n+L6NS6GSASSJtBUKHr52FbPrJm0g5e4n1oB7/EdOceLGy9k2x6LOYIyzU
IOGhAT4mCluO61hFIs/hlK2EQLD7/yVfMZpJCzatxhqwQmBA4qI8WjZBifwQxGDq
1IV7NoTfqoHMaedSysFGsXmTUU8khEIUOiCgbCd2QA+Wfk7DDDez43NJhlgxAB7n
D4d0tk5uHH2HpDMEyXbs5TqFX6jRrSFkXsVq37ECbmWkh3IGB9rl8q8rpesYgGeD
pTzm7dFY+ZBc1ukvdsFYE7i9iIrzBEi7Qo9/xtu0MD+7bNVH5a6NS9qSpdvTbqib
wmtWrzRjguZ4+B9U10Gqo8l8poNBv24zfK7mkr3aJ7S84pBPMxsBoc0CE3ox7wDW
mm44a6fLcJioD/8cVqi35tJCWrv0eCdxE9DoQ+u8LU/k6k1Pdn9TODTrE+I9xhSY
hhyrLA63aC69Y6lqj9UiLasT12JUUf9cNwgEJ9r5V3cFGHOIX7DBZVA2CdbH9a5u
PwTRhDwhdB29Cvt20BMrYrskSEOJ0BhctK3qmK9t/BxrHwZkVCOI
-----END CERTIFICATE-----
