Certificate:
    Data:
        Version: 3 (0x2)
        Serial Number: 1 (0x1)
    Signature Algorithm: sha1WithRSAEncryption
        Issuer: CN=ca-false, C=BE, O=Gremwell bvba
        Validity
            Not Before: Jun 23 15:47:38 2012 GMT
            Not After : Jun 23 15:47:38 2013 GMT
        Subject: C=BE, CN=txjsonrpc-pyserver
        Subject Public Key Info:
            Public Key Algorithm: rsaEncryption
                Public-Key: (4096 bit)
                Modulus:
                    00:c5:a5:26:f9:f2:d2:87:c8:ae:9d:1c:5f:a3:15:
                    0e:2c:14:03:8c:a8:58:ca:20:df:4e:9c:e3:f7:0a:
                    98:c5:cf:c7:1c:34:38:1c:2f:7b:13:f7:2c:c7:ab:
                    8e:e4:58:87:74:6e:9e:5f:72:29:4d:b9:fe:2e:40:
                    15:27:65:73:8d:0c:21:52:96:ca:41:2d:c9:34:14:
                    74:44:16:11:94:bd:f8:3a:c7:2c:07:85:eb:02:6e:
                    46:36:81:af:89:37:28:36:5b:10:f3:75:57:7c:6a:
                    10:86:dc:e6:1d:8c:05:61:39:c0:a0:01:1d:61:4a:
                    ab:4a:9b:ff:c0:fb:eb:a4:bd:2c:60:3b:9d:22:f8:
                    3f:d7:9b:73:55:34:ef:73:7a:56:14:ae:8c:21:f4:
                    da:eb:49:cf:b5:d9:6d:ac:43:19:7d:55:7e:3a:c2:
                    16:6b:62:0e:2f:97:e5:b0:b0:45:35:5b:6a:3e:52:
                    02:48:ae:cc:6a:d8:ab:07:1a:b1:a7:7a:06:66:54:
                    b5:e4:01:a8:9d:30:26:7b:a1:ae:83:d7:35:8b:42:
                    81:0f:bd:2c:87:ce:10:fa:4d:c2:2b:b9:e7:8e:3d:
                    a0:42:48:a4:4d:29:5c:4c:68:5f:18:7a:5f:c7:96:
                    9d:b1:b8:09:be:34:db:26:51:8f:cd:26:af:7b:60:
                    c9:a8:38:fe:9b:c0:bb:ec:b8:81:ae:eb:a0:5e:67:
                    ad:76:3e:02:b3:ea:be:06:6c:77:ae:16:6b:4f:e2:
                    ea:ec:55:4c:59:87:88:12:5b:42:0e:3c:ab:bf:99:
                    d6:88:80:87:5d:2a:51:c6:de:2a:70:9b:ad:29:fa:
                    0a:23:e3:ac:70:97:45:64:cf:c5:f5:de:97:52:0c:
                    54:7e:e7:62:6e:65:0a:3a:4b:89:0b:83:34:35:a0:
                    36:ce:d3:b2:0e:3e:48:e8:2d:25:11:7f:82:2d:b9:
                    5d:68:7b:40:06:12:54:7a:cb:2a:46:1b:48:75:3a:
                    4e:0e:ca:1a:6a:7a:52:35:50:3a:ff:ed:0d:fc:89:
                    fe:55:38:b4:24:dd:1d:a5:ca:3b:c4:e0:aa:c8:f6:
                    c4:84:91:a7:c7:99:49:58:70:34:2b:33:e1:ef:bf:
                    fc:fa:b8:58:5e:7b:68:a1:94:29:09:c5:2b:2b:8c:
                    ef:27:48:a1:be:9c:5e:0b:ea:be:53:ae:f2:79:8c:
                    92:a4:8c:ce:dc:ff:f2:74:26:3d:ca:f5:ef:99:35:
                    53:0e:5a:bd:5e:81:29:8d:e4:ba:82:cb:7c:4c:3d:
                    02:6c:25:f7:6f:6c:a1:b1:c2:ef:d9:2b:f6:8c:13:
                    d3:e0:b9:55:bd:5c:28:9c:2c:42:e2:bf:01:7c:56:
                    9b:5f:9f
                Exponent: 65537 (0x10001)
        X509v3 extensions:
            X509v3 Basic Constraints: 
                CA:FALSE
            Netscape Cert Type: 
                SSL Server
            Netscape Comment: 
                TinyCA Generated Certificate
            X509v3 Subject Key Identifier: 
                26:8C:A5:F9:A6:4A:FE:4C:E8:0F:04:33:7E:04:26:28:BF:4C:92:F3
            X509v3 Authority Key Identifier: 
                keyid:9D:8F:84:76:94:CD:07:FE:A3:E8:8B:D7:F9:D9:6E:EF:CA:75:51:7B
                DirName:/C=BE/CN=txjsonrpc-test-ca
                serial:8D:D2:AF:37:F9:CA:92:0B

            X509v3 Issuer Alternative Name: 
                <EMPTY>

            X509v3 Subject Alternative Name: 
                <EMPTY>

    Signature Algorithm: sha1WithRSAEncryption
         05:ad:25:33:5f:e0:68:4f:83:c6:1d:e5:d7:d4:56:eb:47:cf:
         d6:f2:69:26:a3:45:c5:b0:91:38:1c:2a:da:fb:d2:cd:23:d1:
         1b:77:a4:f6:59:26:41:ad:38:1c:44:98:dc:a8:dc:22:5d:b8:
         56:15:45:e0:0c:7c:03:62:99:43:73:7b:18:54:45:c3:f2:63:
         06:87:7c:3e:76:b0:7a:76:79:31:55:fa:82:4c:a7:64:37:54:
         7c:31:2a:2d:82:9d:72:78:10:cc:73:16:f3:a1:05:30:4c:99:
         88:4e:ea:b5:ab:1d:ae:12:85:87:17:0d:ad:9b:05:da:f6:20:
         27:5e
-----BEGIN CERTIFICATE-----
MIIEOzCCA6SgAwIBAgIBATANBgkqhkiG9w0BAQUFADA4MREwDwYDVQQDEwhjYS1m
YWxzZTELMAkGA1UEBhMCQkUxFjAUBgNVBAoTDUdyZW13ZWxsIGJ2YmEwHhcNMTIw
NjIzMTU0NzM4WhcNMTMwNjIzMTU0NzM4WjAqMQswCQYDVQQGEwJCRTEbMBkGA1UE
AxMSdHhqc29ucnBjLXB5c2VydmVyMIICIjANBgkqhkiG9w0BAQEFAAOCAg8AMIIC
CgKCAgEAxaUm+fLSh8iunRxfoxUOLBQDjKhYyiDfTpzj9wqYxc/HHDQ4HC97E/cs
x6uO5FiHdG6eX3IpTbn+LkAVJ2VzjQwhUpbKQS3JNBR0RBYRlL34OscsB4XrAm5G
NoGviTcoNlsQ83VXfGoQhtzmHYwFYTnAoAEdYUqrSpv/wPvrpL0sYDudIvg/15tz
VTTvc3pWFK6MIfTa60nPtdltrEMZfVV+OsIWa2IOL5flsLBFNVtqPlICSK7Matir
Bxqxp3oGZlS15AGonTAme6Gug9c1i0KBD70sh84Q+k3CK7nnjj2gQkikTSlcTGhf
GHpfx5adsbgJvjTbJlGPzSave2DJqDj+m8C77LiBruugXmetdj4Cs+q+Bmx3rhZr
T+Lq7FVMWYeIEltCDjyrv5nWiICHXSpRxt4qcJutKfoKI+OscJdFZM/F9d6XUgxU
fudibmUKOkuJC4M0NaA2ztOyDj5I6C0lEX+CLbldaHtABhJUessqRhtIdTpODsoa
anpSNVA6/+0N/In+VTi0JN0dpco7xOCqyPbEhJGnx5lJWHA0KzPh77/8+rhYXnto
oZQpCcUrK4zvJ0ihvpxeC+q+U67yeYySpIzO3P/ydCY9yvXvmTVTDlq9XoEpjeS6
gst8TD0CbCX3b2yhscLv2Sv2jBPT4LlVvVwonCxC4r8BfFabX58CAwEAAaOB3jCB
2zAJBgNVHRMEAjAAMBEGCWCGSAGG+EIBAQQEAwIGQDArBglghkgBhvhCAQ0EHhYc
VGlueUNBIEdlbmVyYXRlZCBDZXJ0aWZpY2F0ZTAdBgNVHQ4EFgQUJoyl+aZK/kzo
DwQzfgQmKL9MkvMwWQYDVR0jBFIwUIAUnY+EdpTNB/6j6IvX+dlu78p1UXuhLaQr
MCkxCzAJBgNVBAYTAkJFMRowGAYDVQQDExF0eGpzb25ycGMtdGVzdC1jYYIJAI3S
rzf5ypILMAkGA1UdEgQCMAAwCQYDVR0RBAIwADANBgkqhkiG9w0BAQUFAAOBgQAF
rSUzX+BoT4PGHeXX1FbrR8/W8mkmo0XFsJE4HCra+9LNI9Ebd6T2WSZBrTgcRJjc
qNwiXbhWFUXgDHwDYplDc3sYVEXD8mMGh3w+drB6dnkxVfqCTKdkN1R8MSotgp1y
eBDMcxbzoQUwTJmITuq1qx2uEoWHFw2tmwXa9iAnXg==
-----END CERTIFICATE-----
Certificate:
    Data:
        Version: 4 (0x3)
        Serial Number: 1 (0x1)
    Signature Algorithm: sha1WithRSAEncryption
        Issuer: C=BE, CN=txjsonrpc-test-ca
        Validity
            Not Before: Jan  1 00:00:00 1970 GMT
            Not After : Jan 19 03:14:07 2038 GMT
        Subject: CN=ca-false, C=BE, O=Gremwell bvba
        Subject Public Key Info:
            Public Key Algorithm: rsaEncryption
                Public-Key: (1024 bit)
                Modulus:
                    00:b7:fc:ba:c5:6a:02:ce:3b:22:3c:e2:4a:90:09:
                    ed:01:72:52:e2:99:2d:ff:bf:19:f8:0f:05:dc:96:
                    56:5c:d1:7e:aa:c9:4c:bc:37:11:e3:b7:68:e2:d7:
                    27:04:ba:c8:d2:fc:5d:7a:3e:c2:1d:78:7c:e2:3d:
                    92:31:29:1c:47:02:d0:2b:87:0e:6c:87:93:72:25:
                    2e:2a:a1:9e:45:74:4b:3e:4d:7c:b3:e6:a5:3b:c0:
                    b5:9e:58:db:26:8a:76:a2:65:a6:94:63:2a:f1:28:
                    00:f5:f3:6c:72:7a:72:70:1c:2e:c7:a4:d2:05:fc:
                    45:68:65:73:c8:a4:83:a2:3b
                Exponent: 65537 (0x10001)
        X509v3 extensions:
            X509v3 Basic Constraints: critical
                CA:FALSE
    Signature Algorithm: sha1WithRSAEncryption
         9c:a7:5a:f1:53:e9:fd:dd:72:5d:47:14:a0:5b:20:63:a4:71:
         8e:57:35:c8:71:67:86:52:3f:af:69:4b:67:13:4b:b9:9c:4c:
         d3:a8:c7:72:43:d8:64:a8:c6:a8:d8:ea:af:ca:10:a5:78:05:
         3b:6f:28:4f:0e:43:5f:06:c7:95:37:ba:80:12:a0:99:22:d0:
         d8:8e:09:ee:b7:99:98:69:7f:f0:29:60:de:24:89:24:84:c5:
         40:8f:5a:2b:91:6d:63:d1:6f:33:66:5a:13:87:63:3c:3c:2e:
         7a:58:3e:45:5d:c7:2f:d2:65:74:0c:e9:d8:df:a4:25:42:78:
         81:58:5a:fe:a3:8e:be:9f:9c:cf:86:56:30:8d:71:63:97:bc:
         8e:2e:7e:d4:19:d6:e4:f4:a3:74:31:37:21:8e:d8:b3:da:1f:
         64:1b:1c:cb:7c:12:a9:d0:d4:f4:f8:7d:3d:9b:1c:64:c0:dc:
         22:5d:01:a8:22:4a:2e:3e:35:86:eb:71:e4:f0:85:7b:78:93:
         0a:03:0b:29:b6:5e:a1:03:86:6a:d2:a4:75:f8:d2:c9:53:60:
         00:d3:e8:d6:5d:f7:57:bd:62:ea:d3:6a:66:19:0b:b4:d1:59:
         d0:04:89:60:ca:96:e0:70:bc:8e:13:42:5c:03:9f:d2:04:c0:
         e9:b2:f9:30:6f:19:18:32:20:28:e6:a8:cc:bd:05:77:cb:83:
         de:38:77:e5:21:5f:20:56:a0:c0:83:76:75:fd:a3:87:e7:01:
         64:46:2c:f8:c9:c1:e7:05:67:3a:25:bf:04:e4:3f:c5:e3:78:
         09:c1:0e:fd:28:55:90:4d:dc:75:3a:ba:1c:f4:c7:68:43:a2:
         c8:9c:d6:03:d1:7e:6c:c8:44:b7:a6:34:63:1f:db:2c:84:0e:
         5b:42:e7:6d:d4:ea:fd:d7:0e:d2:01:d1:32:97:b3:59:37:be:
         4d:b0:b1:37:6d:13:8e:bb:13:5e:cb:c9:bd:da:0c:47:8a:32:
         54:c7:1d:00:b9:60:96:2b:9f:a7:eb:3d:fe:7b:1f:25:e1:70:
         5c:a3:17:11:32:56:dc:fe:b0:67:f1:34:b6:14:30:91:16:66:
         69:87:4a:08:5d:53:f3:fe:1e:7e:fd:30:30:56:29:0f:2d:e2:
         76:96:de:a1:a2:2d:a6:16:05:43:6d:8b:48:0e:7c:c5:13:aa:
         24:90:32:0a:f9:d5:f5:5b:a5:67:89:0b:6c:c5:c4:1c:d7:2a:
         f1:95:97:f1:13:da:84:4b:eb:54:a7:ee:91:0f:db:82:30:a0:
         fa:9d:d3:17:d7:19:0e:6e:a4:33:76:8d:9b:aa:c8:21:2d:10:
         a0:a2:06:c7:ce:7d:9f:93
-----BEGIN CERTIFICATE-----
MIIDaDCCAVCgAwIBAwIBATANBgkqhkiG9w0BAQUFADApMQswCQYDVQQGEwJCRTEa
MBgGA1UEAxMRdHhqc29ucnBjLXRlc3QtY2EwHhcNNzAwMTAxMDAwMDAwWhcNMzgw
MTE5MDMxNDA3WjA4MREwDwYDVQQDEwhjYS1mYWxzZTELMAkGA1UEBhMCQkUxFjAU
BgNVBAoTDUdyZW13ZWxsIGJ2YmEwgZ8wDQYJKoZIhvcNAQEBBQADgY0AMIGJAoGB
ALf8usVqAs47IjziSpAJ7QFyUuKZLf+/GfgPBdyWVlzRfqrJTLw3EeO3aOLXJwS6
yNL8XXo+wh14fOI9kjEpHEcC0CuHDmyHk3IlLiqhnkV0Sz5NfLPmpTvAtZ5Y2yaK
dqJlppRjKvEoAPXzbHJ6cnAcLsek0gX8RWhlc8ikg6I7AgMBAAGjEDAOMAwGA1Ud
EwEB/wQCMAAwDQYJKoZIhvcNAQEFBQADggIBAJynWvFT6f3dcl1HFKBbIGOkcY5X
NchxZ4ZSP69pS2cTS7mcTNOox3JD2GSoxqjY6q/KEKV4BTtvKE8OQ18Gx5U3uoAS
oJki0NiOCe63mZhpf/ApYN4kiSSExUCPWiuRbWPRbzNmWhOHYzw8LnpYPkVdxy/S
ZXQM6djfpCVCeIFYWv6jjr6fnM+GVjCNcWOXvI4uftQZ1uT0o3QxNyGO2LPaH2Qb
HMt8EqnQ1PT4fT2bHGTA3CJdAagiSi4+NYbrceTwhXt4kwoDCym2XqEDhmrSpHX4
0slTYADT6NZd91e9YurTamYZC7TRWdAEiWDKluBwvI4TQlwDn9IEwOmy+TBvGRgy
ICjmqMy9BXfLg944d+UhXyBWoMCDdnX9o4fnAWRGLPjJwecFZzolvwTkP8XjeAnB
Dv0oVZBN3HU6uhz0x2hDosic1gPRfmzIRLemNGMf2yyEDltC523U6v3XDtIB0TKX
s1k3vk2wsTdtE467E17Lyb3aDEeKMlTHHQC5YJYrn6frPf57HyXhcFyjFxEyVtz+
sGfxNLYUMJEWZmmHSghdU/P+Hn79MDBWKQ8t4naW3qGiLaYWBUNti0gOfMUTqiSQ
Mgr51fVbpWeJC2zFxBzXKvGVl/ET2oRL61Sn7pEP24IwoPqd0xfXGQ5upDN2jZuq
yCEtEKCiBsfOfZ+T
-----END CERTIFICATE-----
