Certificate:
    Data:
        Version: 3 (0x2)
        Serial Number: 1 (0x1)
    Signature Algorithm: sha1WithRSAEncryption
        Issuer: CN=ca-none, C=BE, O=Gremwell bvba
        Validity
            Not Before: Jun 23 15:47:38 2012 GMT
            Not After : Jun 23 15:47:38 2013 GMT
        Subject: C=BE, CN=txjsonrpc-pyserver
        Subject Public Key Info:
            Public Key Algorithm: rsaEncryption
                Public-Key: (4096 bit)
                Modulus:
                    00:c5:a5:26:f9:f2:d2:87:c8:ae:9d:1c:5f:a3:15:
                    0e:2c:14:03:8c:a8:58:ca:20:df:4e:9c:e3:f7:0a:
                    98:c5:cf:c7:1c:34:38:1c:2f:7b:13:f7:2c:c7:ab:
                    8e:e4:58:87:74:6e:9e:5f:72:29:4d:b9:fe:2e:40:
                    15:27:65:73:8d:0c:21:52:96:ca:41:2d:c9:34:14:
                    74:44:16:11:94:bd:f8:3a:c7:2c:07:85:eb:02:6e:
                    46:36:81:af:89:37:28:36:5b:10:f3:75:57:7c:6a:
                    10:86:dc:e6:1d:8c:05:61:39:c0:a0:01:1d:61:4a:
                    ab:4a:9b:ff:c0:fb:eb:a4:bd:2c:60:3b:9d:22:f8:
                    3f:d7:9b:73:55:34:ef:73:7a:56:14:ae:8c:21:f4:
                    da:eb:49:cf:b5:d9:6d:ac:43:19:7d:55:7e:3a:c2:
                    16:6b:62:0e:2f:97:e5:b0:b0:45:35:5b:6a:3e:52:
                    02:48:ae:cc:6a:d8:ab:07:1a:b1:a7:7a:06:66:54:
                    b5:e4:01:a8:9d:30:26:7b:a1:ae:83:d7:35:8b:42:
                    81:0f:bd:2c:87:ce:10:fa:4d:c2:2b:b9:e7:8e:3d:
                    a0:42:48:a4:4d:29:5c:4c:68:5f:18:7a:5f:c7:96:
                    9d:b1:b8:09:be:34:db:26:51:8f:cd:26:af:7b:60:
                    c9:a8:38:fe:9b:c0:bb:ec:b8:81:ae:eb:a0:5e:67:
                    ad:76:3e:02:b3:ea:be:06:6c:77:ae:16:6b:4f:e2:
                    ea:ec:55:4c:59:87:88:12:5b:42:0e:3c:ab:bf:99:
                    d6:88:80:87:5d:2a:51:c6:de:2a:70:9b:ad:29:fa:
                    0a:23:e3:ac:70:97:45:64:cf:c5:f5:de:97:52:0c:
                    54:7e:e7:62:6e:65:0a:3a:4b:89:0b:83:34:35:a0:
                    36:ce:d3:b2:0e:3e:48:e8:2d:25:11:7f:82:2d:b9:
                    5d:68:7b:40:06:12:54:7a:cb:2a:46:1b:48:75:3a:
                    4e:0e:ca:1a:6a:7a:52:35:50:3a:ff:ed:0d:fc:89:
                    fe:55:38:b4:24:dd:1d:a5:ca:3b:c4:e0:aa:c8:f6:
                    c4:84:91:a7:c7:99:49:58:70:34:2b:33:e1:ef:bf:
                    fc:fa:b8:58:5e:7b:68:a1:94:29:09:c5:2b:2b:8c:
                    ef:27:48:a1:be:9c:5e:0b:ea:be:53:ae:f2:79:8c:
                    92:a4:8c:ce:dc:ff:f2:74:26:3d:ca:f5:ef:99:35:
                    53:0e:5a:bd:5e:81:29:8d:e4:ba:82:cb:7c:4c:3d:
                    02:6c:25:f7:6f:6c:a1:b1:c2:ef:d9:2b:f6:8c:13:
                    d3:e0:b9:55:bd:5c:28:9c:2c:42:e2:bf:01:7c:56:
                    9b:5f:9f
                Exponent: 65537 (0x10001)
        X509v3 extensions:
            X509v3 Basic Constraints: 
                CA:FALSE
            Netscape Cert Type: 
                SSL Server
            Netscape Comment: 
                TinyCA Generated Certificate
            X509v3 Subject Key Identifier: 
                26:8C:A5:F9:A6:4A:FE:4C:E8:0F:04:33:7E:04:26:28:BF:4C:92:F3
            X509v3 Authority Key Identifier: 
                keyid:9D:8F:84:76:94:CD:07:FE:A3:E8:8B:D7:F9:D9:6E:EF:CA:75:51:7B
                DirName:/C=BE/CN=txjsonrpc-test-ca
                serial:8D:D2:AF:37:F9:CA:92:0B

            X509v3 Issuer Alternative Name: 
                <EMPTY>

            X509v3 Subject Alternative Name: 
                <EMPTY>

    Signature Algorithm: sha1WithRSAEncryption
         2a:4c:1b:2b:2e:07:02:f6:0d:7d:2d:d0:61:75:4a:4e:f5:95:
         4e:e6:d6:91:14:01:37:4c:f4:cc:5c:88:e2:2a:8b:b1:96:88:
         15:31:99:d1:4d:6d:02:47:d4:3e:8f:31:1e:c0:d9:30:3d:c4:
         0e:1e:d0:1f:8e:16:4d:f7:1f:f1:c8:15:33:33:52:a8:54:38:
         ea:8e:80:eb:c8:10:40:43:eb:31:aa:cb:f1:ec:aa:ad:06:b0:
         01:29:a6:65:44:79:28:f7:0d:93:ce:90:75:03:5b:7d:32:f5:
         77:c8:5f:79:82:d3:01:20:2a:73:d5:17:30:71:cb:11:5c:03:
         90:31
-----BEGIN CERTIFICATE-----
MIIEOjCCA6OgAwIBAgIBATANBgkqhkiG9w0BAQUFADA3MRAwDgYDVQQDEwdjYS1u
b25lMQswCQYDVQQGEwJCRTEWMBQGA1UEChMNR3JlbXdlbGwgYnZiYTAeFw0xMjA2
MjMxNTQ3MzhaFw0xMzA2MjMxNTQ3MzhaMCoxCzAJBgNVBAYTAkJFMRswGQYDVQQD
ExJ0eGpzb25ycGMtcHlzZXJ2ZXIwggIiMA0GCSqGSIb3DQEBAQUAA4ICDwAwggIK
AoICAQDFpSb58tKHyK6dHF+jFQ4sFAOMqFjKIN9OnOP3CpjFz8ccNDgcL3sT9yzH
q47kWId0bp5fcilNuf4uQBUnZXONDCFSlspBLck0FHREFhGUvfg6xywHhesCbkY2
ga+JNyg2WxDzdVd8ahCG3OYdjAVhOcCgAR1hSqtKm//A++ukvSxgO50i+D/Xm3NV
NO9zelYUrowh9NrrSc+12W2sQxl9VX46whZrYg4vl+WwsEU1W2o+UgJIrsxq2KsH
GrGnegZmVLXkAaidMCZ7oa6D1zWLQoEPvSyHzhD6TcIrueeOPaBCSKRNKVxMaF8Y
el/Hlp2xuAm+NNsmUY/NJq97YMmoOP6bwLvsuIGu66BeZ612PgKz6r4GbHeuFmtP
4ursVUxZh4gSW0IOPKu/mdaIgIddKlHG3ipwm60p+goj46xwl0Vkz8X13pdSDFR+
52JuZQo6S4kLgzQ1oDbO07IOPkjoLSURf4ItuV1oe0AGElR6yypGG0h1Ok4Oyhpq
elI1UDr/7Q38if5VOLQk3R2lyjvE4KrI9sSEkafHmUlYcDQrM+Hvv/z6uFhee2ih
lCkJxSsrjO8nSKG+nF4L6r5TrvJ5jJKkjM7c//J0Jj3K9e+ZNVMOWr1egSmN5LqC
y3xMPQJsJfdvbKGxwu/ZK/aME9PguVW9XCicLELivwF8VptfnwIDAQABo4HeMIHb
MAkGA1UdEwQCMAAwEQYJYIZIAYb4QgEBBAQDAgZAMCsGCWCGSAGG+EIBDQQeFhxU
aW55Q0EgR2VuZXJhdGVkIENlcnRpZmljYXRlMB0GA1UdDgQWBBQmjKX5pkr+TOgP
BDN+BCYov0yS8zBZBgNVHSMEUjBQgBSdj4R2lM0H/qPoi9f52W7vynVRe6EtpCsw
KTELMAkGA1UEBhMCQkUxGjAYBgNVBAMTEXR4anNvbnJwYy10ZXN0LWNhggkAjdKv
N/nKkgswCQYDVR0SBAIwADAJBgNVHREEAjAAMA0GCSqGSIb3DQEBBQUAA4GBACpM
GysuBwL2DX0t0GF1Sk71lU7m1pEUATdM9MxciOIqi7GWiBUxmdFNbQJH1D6PMR7A
2TA9xA4e0B+OFk33H/HIFTMzUqhUOOqOgOvIEEBD6zGqy/Hsqq0GsAEppmVEeSj3
DZPOkHUDW30y9XfIX3mC0wEgKnPVFzBxyxFcA5Ax
-----END CERTIFICATE-----
Certificate:
    Data:
        Version: 4 (0x3)
        Serial Number: 1 (0x1)
    Signature Algorithm: sha1WithRSAEncryption
        Issuer: C=BE, CN=txjsonrpc-test-ca
        Validity
            Not Before: Jan  1 00:00:00 1970 GMT
            Not After : Jan 19 03:14:07 2038 GMT
        Subject: CN=ca-none, C=BE, O=Gremwell bvba
        Subject Public Key Info:
            Public Key Algorithm: rsaEncryption
                Public-Key: (1024 bit)
                Modulus:
                    00:bd:be:a0:7c:9e:5f:62:42:68:8b:cf:60:52:1a:
                    0a:45:f6:5c:34:c2:35:8c:14:3f:0e:51:05:94:f7:
                    6f:94:13:2d:96:4c:b7:2a:d9:ca:b0:4e:e3:17:70:
                    5a:66:08:c5:ef:68:ce:cb:17:5c:ba:c5:ba:1b:e6:
                    ea:41:a3:59:af:94:23:8f:0e:4a:16:47:e1:11:36:
                    c1:a8:8f:c3:ba:5f:95:29:56:cf:a9:6c:a9:9e:cc:
                    84:fd:48:c4:75:91:96:f9:66:ad:32:e6:7b:46:5c:
                    f0:ab:2f:65:6b:d8:af:be:e0:a0:c5:d4:ad:e2:91:
                    4d:1f:76:ba:ea:5a:78:7f:d5
                Exponent: 65537 (0x10001)
    Signature Algorithm: sha1WithRSAEncryption
         c3:52:a6:8d:57:12:21:79:1c:02:ac:76:7b:5b:3e:49:d3:ce:
         82:81:58:f4:11:9c:29:7d:6c:e6:2e:f0:09:f1:1d:c8:eb:ae:
         a6:4d:49:84:21:b2:79:84:51:8b:a4:b8:a6:a4:3e:a6:79:16:
         95:d3:dc:25:f8:8c:c4:71:ce:c6:fe:f3:a5:a0:ab:40:53:69:
         3c:fc:c6:f8:83:c9:c6:72:94:af:ba:23:33:0a:c7:05:ec:4e:
         f7:cb:12:ff:c0:78:67:c1:14:b9:3a:34:34:13:27:b4:d0:60:
         27:39:4c:fc:a3:17:c7:10:ae:5b:71:79:99:4c:07:17:83:30:
         78:9a:34:8c:b5:db:69:aa:f5:e2:52:60:dc:85:a8:c7:b5:62:
         a8:6b:57:42:5e:8b:30:71:31:1b:4b:f4:e2:a0:62:0c:d0:69:
         4e:dd:55:c8:8f:a0:dc:fc:0d:53:b1:95:22:a8:3a:b9:52:30:
         e0:c9:37:01:a6:72:34:cd:1b:c1:c7:af:fe:71:a2:8f:cf:88:
         42:05:73:66:4f:05:18:13:03:2a:18:bb:17:41:10:6d:7d:e9:
         e0:05:65:7b:28:7b:90:0c:62:84:93:68:f1:d7:27:27:90:93:
         cf:ae:24:a8:4b:c2:d5:34:54:78:66:3f:8e:30:e4:c8:f7:e3:
         05:8b:89:32:ca:3f:86:ce:c4:7a:ff:cd:4b:9f:35:2d:0f:29:
         25:ee:bf:76:2f:0b:13:1a:35:24:a6:86:e0:75:19:ca:00:8c:
         01:e0:64:2b:30:07:c6:b4:91:b6:11:d3:e3:71:cf:99:d5:ca:
         1e:99:36:12:ba:89:44:0d:13:f3:9d:2d:04:b5:83:79:21:ce:
         d3:bf:ec:ee:3b:a3:37:5e:2a:e2:ce:28:12:8c:be:11:11:1c:
         ea:26:ee:83:07:d8:93:2b:57:23:84:de:1a:c7:26:53:72:75:
         a5:0d:d9:56:72:70:19:87:d0:ea:8d:1a:d5:60:6d:2e:81:eb:
         c1:4b:21:17:e2:54:55:86:0a:38:d5:be:a9:55:9d:da:56:f7:
         d2:3a:a3:b7:7c:f9:4f:e2:7f:eb:46:75:16:c0:88:3a:86:f1:
         0d:df:f0:42:bb:6c:98:96:d3:6b:43:27:8d:12:b1:e4:ac:f8:
         b7:f6:26:2b:1a:f0:9d:0e:4d:93:8c:76:e6:9c:58:d8:60:a9:
         e4:d1:05:80:86:32:c3:ab:de:99:68:d2:14:d3:fc:e6:8a:89:
         2f:13:46:e9:55:62:24:74:21:ed:e2:e9:46:88:a7:55:c6:e6:
         10:56:b7:70:a5:bd:78:69:e9:04:5c:86:f8:82:e5:92:3a:3d:
         4c:ac:6c:29:ea:02:20:05
-----BEGIN CERTIFICATE-----
MIIDVTCCAT2gAwIBAwIBATANBgkqhkiG9w0BAQUFADApMQswCQYDVQQGEwJCRTEa
MBgGA1UEAxMRdHhqc29ucnBjLXRlc3QtY2EwHhcNNzAwMTAxMDAwMDAwWhcNMzgw
MTE5MDMxNDA3WjA3MRAwDgYDVQQDEwdjYS1ub25lMQswCQYDVQQGEwJCRTEWMBQG
A1UEChMNR3JlbXdlbGwgYnZiYTCBnzANBgkqhkiG9w0BAQEFAAOBjQAwgYkCgYEA
vb6gfJ5fYkJoi89gUhoKRfZcNMI1jBQ/DlEFlPdvlBMtlky3KtnKsE7jF3BaZgjF
72jOyxdcusW6G+bqQaNZr5Qjjw5KFkfhETbBqI/Dul+VKVbPqWypnsyE/UjEdZGW
+WatMuZ7Rlzwqy9la9ivvuCgxdSt4pFNH3a66lp4f9UCAwEAATANBgkqhkiG9w0B
AQUFAAOCAgEAw1KmjVcSIXkcAqx2e1s+SdPOgoFY9BGcKX1s5i7wCfEdyOuupk1J
hCGyeYRRi6S4pqQ+pnkWldPcJfiMxHHOxv7zpaCrQFNpPPzG+IPJxnKUr7ojMwrH
BexO98sS/8B4Z8EUuTo0NBMntNBgJzlM/KMXxxCuW3F5mUwHF4MweJo0jLXbaar1
4lJg3IWox7ViqGtXQl6LMHExG0v04qBiDNBpTt1VyI+g3PwNU7GVIqg6uVIw4Mk3
AaZyNM0bwcev/nGij8+IQgVzZk8FGBMDKhi7F0EQbX3p4AVleyh7kAxihJNo8dcn
J5CTz64kqEvC1TRUeGY/jjDkyPfjBYuJMso/hs7Eev/NS581LQ8pJe6/di8LExo1
JKaG4HUZygCMAeBkKzAHxrSRthHT43HPmdXKHpk2ErqJRA0T850tBLWDeSHO07/s
7jujN14q4s4oEoy+EREc6ibugwfYkytXI4TeGscmU3J1pQ3ZVnJwGYfQ6o0a1WBt
LoHrwUshF+JUVYYKONW+qVWd2lb30jqjt3z5T+J/60Z1FsCIOobxDd/wQrtsmJbT
a0MnjRKx5Kz4t/YmKxrwnQ5Nk4x25pxY2GCp5NEFgIYyw6vemWjSFNP85oqJLxNG
6VViJHQh7eLpRoinVcbmEFa3cKW9eGnpBFyG+ILlkjo9TKxsKeoCIAU=
-----END CERTIFICATE-----
