Certificate:
    Data:
        Version: 3 (0x2)
        Serial Number: 1 (0x1)
    Signature Algorithm: sha1WithRSAEncryption
        Issuer: C=BE, CN=txjsonrpc-test-ca
        Validity
            Not Before: Jun 23 15:47:38 2012 GMT
            Not After : Jun 23 15:47:38 2013 GMT
        Subject: C=BE, CN=txjsonrpc-pyserver
        Subject Public Key Info:
            Public Key Algorithm: rsaEncryption
                Public-Key: (4096 bit)
                Modulus:
                    00:ce:7c:0c:28:a5:3d:7a:2b:12:38:7d:e6:f6:82:
                    70:af:b0:c3:ff:75:9a:98:a7:d2:b3:75:9c:c1:b4:
                    09:1b:a3:cf:b6:b5:14:0f:c1:e4:c0:43:3e:6a:5b:
                    df:08:b7:17:70:d4:e4:a8:11:b9:dd:6e:c1:f9:22:
                    28:a2:69:bb:a9:b5:ee:91:d9:03:b7:2c:d5:41:cf:
                    7b:d8:22:a6:bb:fa:c5:cd:1d:d9:a7:04:2e:70:a7:
                    15:df:80:fc:28:db:90:6c:be:78:4d:33:89:60:92:
                    2d:64:32:09:f4:d2:f0:c1:a7:ff:19:73:85:51:ad:
                    99:4f:de:70:fb:ba:1d:79:b0:e5:52:fd:83:95:ff:
                    d6:81:65:91:b8:bb:be:ab:7e:e2:62:c6:1c:e5:5a:
                    b0:79:ce:da:f8:7e:46:88:87:d4:c5:2b:03:5b:88:
                    fd:8b:89:8e:92:97:f0:cc:04:c0:8d:1c:d0:37:6b:
                    1d:f3:6e:96:7f:65:22:64:d1:14:65:9d:37:bb:2f:
                    bf:7b:fa:8f:b5:16:20:28:86:6c:1d:72:e7:1b:0a:
                    23:16:8d:28:20:09:39:4e:35:69:24:a6:c0:56:26:
                    00:56:0a:69:c8:b5:10:86:12:60:64:91:9a:00:7e:
                    c8:41:62:f9:a5:17:13:79:e1:d3:f2:bd:46:6f:b9:
                    4c:be:89:c7:6b:52:ef:e9:e1:03:3c:44:e1:af:c0:
                    e1:6c:a7:47:eb:d8:47:35:f4:d1:44:04:68:47:c4:
                    f2:2e:95:cd:1f:7a:da:68:8e:1c:84:7d:51:58:c2:
                    2d:0d:1e:4e:09:ff:be:6c:0e:35:72:9e:ab:1c:0d:
                    94:a2:0c:d2:5b:c6:c7:8b:84:b3:7d:37:9f:60:36:
                    a7:8e:9c:61:92:1b:75:5e:e1:d0:b6:c3:89:45:40:
                    a5:56:1c:66:37:49:36:c5:f2:08:50:9c:4c:fb:a1:
                    91:c5:3f:e1:d2:19:9e:48:f7:e3:19:0f:40:49:e3:
                    13:e4:97:3e:04:f9:0c:bd:61:71:21:13:20:f6:99:
                    6f:e3:bd:b6:88:80:05:fe:d7:38:a7:61:0d:d7:c4:
                    47:85:e9:bd:48:93:fd:6c:6f:8d:60:f1:fc:b2:42:
                    d2:bb:aa:1c:0c:f3:90:62:07:09:03:ba:ab:bb:38:
                    55:09:c4:74:93:27:b5:b5:cd:00:bb:12:9b:55:4f:
                    1b:67:a9:9b:29:46:22:7f:0c:4b:1b:a6:ad:14:09:
                    96:29:c8:2c:43:a4:0f:cd:29:73:f8:8d:27:d3:5e:
                    56:51:63:2e:66:77:bc:58:66:32:a2:b8:6c:c7:80:
                    bf:64:1e:c7:05:6e:36:9d:6d:84:1f:cf:07:74:c8:
                    d2:72:b7
                Exponent: 65537 (0x10001)
        X509v3 extensions:
            X509v3 Basic Constraints: 
                CA:FALSE
            Netscape Cert Type: 
                SSL Server
            Netscape Comment: 
                TinyCA Generated Certificate
            X509v3 Subject Key Identifier: 
                26:8C:A5:F9:A6:4A:FE:4C:E8:0F:04:33:7E:04:26:28:BF:4C:92:F3
            X509v3 Authority Key Identifier: 
                keyid:9D:8F:84:76:94:CD:07:FE:A3:E8:8B:D7:F9:D9:6E:EF:CA:75:51:7B
                DirName:/C=BE/CN=txjsonrpc-test-ca
                serial:8D:D2:AF:37:F9:CA:92:0B

            X509v3 Issuer Alternative Name: 
                <EMPTY>

            X509v3 Subject Alternative Name: 
                <EMPTY>

    Signature Algorithm: sha1WithRSAEncryption
         8a:67:4a:d7:ee:4a:e7:07:05:70:99:95:e9:52:f4:7a:19:53:
         e4:0c:8a:fd:96:88:d2:25:85:06:b1:0e:f7:ff:47:33:11:dd:
         e3:e4:a3:19:37:c2:5d:49:4b:06:c6:2d:c8:7f:23:86:ee:d4:
         ca:e0:76:6b:fb:8c:84:6a:2b:e3:e5:83:b7:7f:f4:9a:db:b7:
         61:b1:de:da:d4:2d:e6:a0:97:51:0e:2c:c0:f5:13:34:c4:e0:
         dd:e4:99:30:0a:b5:9a:49:92:d8:c1:e4:cc:d8:80:f9:53:54:
         58:df:39:67:96:d7:28:ac:0f:92:17:9e:9c:7e:4c:dc:7d:77:
         74:f9:81:00:58:d9:43:c7:ac:59:51:7c:83:2b:43:59:61:8e:
         d1:38:1a:11:2b:25:f8:12:fd:c6:d4:49:5b:4f:0a:da:9e:c0:
         50:a8:49:05:fd:57:b1:8c:ab:30:04:05:d9:6c:1e:66:bb:d8:
         06:de:55:1f:e3:87:2e:e4:b3:34:90:0f:4f:3b:a0:3f:50:22:
         0e:8a:88:02:c0:ac:fd:39:34:6b:74:82:5b:d9:7a:3c:f5:e7:
         0e:23:87:fd:56:92:70:d4:ad:e4:12:4b:01:29:2b:64:d0:e8:
         c8:ea:b8:99:1f:7f:02:f0:fb:ef:ce:27:57:7e:57:19:fb:69:
         2c:e4:d0:04:d3:c0:85:f2:c7:0f:15:31:f7:ea:f7:4d:9c:84:
         f4:5d:d0:e7:02:92:7b:d7:ee:76:64:b0:12:00:33:62:d0:98:
         0b:6d:55:7e:7b:54:41:9c:08:c5:c8:4c:48:6b:cb:56:01:17:
         de:ee:83:d1:2c:01:d2:fd:0a:ab:4b:39:8c:ca:bc:26:81:43:
         11:16:85:08:69:77:b1:ee:55:e6:a4:3c:12:a3:7f:2e:86:18:
         cc:b3:0d:88:4f:22:d8:fd:63:f3:08:ce:2f:47:85:21:da:f4:
         9f:3d:2e:73:d6:df:24:c3:c7:1d:6f:02:27:25:1b:6e:7d:c3:
         8b:2f:3d:7d:c8:bf:6b:ab:56:76:d3:03:c7:dd:a3:bb:86:c3:
         61:ee:61:d7:a9:6b:bd:df:53:b2:f2:0f:ce:a7:9f:25:c8:7f:
         46:79:21:27:9e:e4:c5:78:65:3b:6f:8e:6e:45:10:29:6d:a9:
         a8:e4:94:fc:a9:a2:1f:4f:a9:95:51:92:3e:04:d2:4f:0c:39:
         45:93:fb:9f:5d:1b:cc:22:b5:6e:42:cd:d1:0a:09:4c:8c:85:
         61:02:32:7e:59:42:7f:1d:a6:fa:a9:9c:d1:87:b2:28:66:dc:
         a6:d0:80:9a:60:ef:13:11:d5:e9:7c:93:c9:84:75:8d:37:52:
         6d:c1:71:19:e0:95:15:39
-----BEGIN CERTIFICATE-----
MIIFrTCCA5WgAwIBAgIBATANBgkqhkiG9w0BAQUFADApMQswCQYDVQQGEwJCRTEa
MBgGA1UEAxMRdHhqc29ucnBjLXRlc3QtY2EwHhcNMTIwNjIzMTU0NzM4WhcNMTMw
NjIzMTU0NzM4WjAqMQswCQYDVQQGEwJCRTEbMBkGA1UEAxMSdHhqc29ucnBjLXB5
c2VydmVyMIICIjANBgkqhkiG9w0BAQEFAAOCAg8AMIICCgKCAgEAznwMKKU9eisS
OH3m9oJwr7DD/3WamKfSs3WcwbQJG6PPtrUUD8HkwEM+alvfCLcXcNTkqBG53W7B
+SIoomm7qbXukdkDtyzVQc972CKmu/rFzR3ZpwQucKcV34D8KNuQbL54TTOJYJIt
ZDIJ9NLwwaf/GXOFUa2ZT95w+7odebDlUv2Dlf/WgWWRuLu+q37iYsYc5Vqwec7a
+H5GiIfUxSsDW4j9i4mOkpfwzATAjRzQN2sd826Wf2UiZNEUZZ03uy+/e/qPtRYg
KIZsHXLnGwojFo0oIAk5TjVpJKbAViYAVgppyLUQhhJgZJGaAH7IQWL5pRcTeeHT
8r1Gb7lMvonHa1Lv6eEDPEThr8DhbKdH69hHNfTRRARoR8TyLpXNH3raaI4chH1R
WMItDR5OCf++bA41cp6rHA2UogzSW8bHi4SzfTefYDanjpxhkht1XuHQtsOJRUCl
VhxmN0k2xfIIUJxM+6GRxT/h0hmeSPfjGQ9ASeMT5Jc+BPkMvWFxIRMg9plv4722
iIAF/tc4p2EN18RHhem9SJP9bG+NYPH8skLSu6ocDPOQYgcJA7qruzhVCcR0kye1
tc0AuxKbVU8bZ6mbKUYifwxLG6atFAmWKcgsQ6QPzSlz+I0n015WUWMuZne8WGYy
orhsx4C/ZB7HBW42nW2EH88HdMjScrcCAwEAAaOB3jCB2zAJBgNVHRMEAjAAMBEG
CWCGSAGG+EIBAQQEAwIGQDArBglghkgBhvhCAQ0EHhYcVGlueUNBIEdlbmVyYXRl
ZCBDZXJ0aWZpY2F0ZTAdBgNVHQ4EFgQUJoyl+aZK/kzoDwQzfgQmKL9MkvMwWQYD
VR0jBFIwUIAUnY+EdpTNB/6j6IvX+dlu78p1UXuhLaQrMCkxCzAJBgNVBAYTAkJF
MRowGAYDVQQDExF0eGpzb25ycGMtdGVzdC1jYYIJAI3Srzf5ypILMAkGA1UdEgQC
MAAwCQYDVR0RBAIwADANBgkqhkiG9w0BAQUFAAOCAgEAimdK1+5K5wcFcJmV6VL0
ehlT5AyK/ZaI0iWFBrEO9/9HMxHd4+SjGTfCXUlLBsYtyH8jhu7UyuB2a/uMhGor
4+WDt3/0mtu3YbHe2tQt5qCXUQ4swPUTNMTg3eSZMAq1mkmS2MHkzNiA+VNUWN85
Z5bXKKwPkheenH5M3H13dPmBAFjZQ8esWVF8gytDWWGO0TgaESsl+BL9xtRJW08K
2p7AUKhJBf1XsYyrMAQF2WweZrvYBt5VH+OHLuSzNJAPTzugP1AiDoqIAsCs/Tk0
a3SCW9l6PPXnDiOH/VaScNSt5BJLASkrZNDoyOq4mR9/AvD7784nV35XGftpLOTQ
BNPAhfLHDxUx9+r3TZyE9F3Q5wKSe9fudmSwEgAzYtCYC21VfntUQZwIxchMSGvL
VgEX3u6D0SwB0v0Kq0s5jMq8JoFDERaFCGl3se5V5qQ8EqN/LoYYzLMNiE8i2P1j
8wjOL0eFIdr0nz0uc9bfJMPHHW8CJyUbbn3Diy89fci/a6tWdtMDx92ju4bDYe5h
16lrvd9TsvIPzqefJch/RnkhJ57kxXhlO2+ObkUQKW2pqOSU/KmiH0+plVGSPgTS
Tww5RZP7n10bzCK1bkLN0QoJTIyFYQIyfllCfx2m+qmc0YeyKGbcptCAmmDvExHV
6XyTyYR1jTdSbcFxGeCVFTk=
-----END CERTIFICATE-----
Certificate:
    Data:
        Version: 3 (0x2)
        Serial Number: 10219423159405941259 (0x8dd2af37f9ca920b)
    Signature Algorithm: sha1WithRSAEncryption
        Issuer: C=BE, CN=txjsonrpc-test-ca
        Validity
            Not Before: Jun 23 15:46:37 2012 GMT
            Not After : Jun 21 15:46:37 2022 GMT
        Subject: C=BE, CN=txjsonrpc-test-ca
        Subject Public Key Info:
            Public Key Algorithm: rsaEncryption
                Public-Key: (4096 bit)
                Modulus:
                    00:d1:25:af:77:c5:a8:72:cf:90:b9:39:10:fb:7b:
                    75:2c:a1:da:6a:95:e5:44:0c:d6:25:4b:58:7f:bb:
                    07:82:59:49:58:32:85:24:cc:3e:77:db:e1:a7:4f:
                    c8:b5:cb:ee:45:38:bd:bc:fb:e3:76:3b:88:04:ca:
                    ab:3a:a3:96:3b:5f:93:9c:28:a6:61:97:dc:a2:3f:
                    a0:93:2b:56:6c:cf:d3:4f:6a:9e:05:d3:1c:cd:ef:
                    75:80:1a:98:b7:92:49:14:33:b8:c4:7c:73:8c:7e:
                    83:a5:81:a2:59:8c:8b:a3:51:36:6d:68:ac:f2:f1:
                    ed:6f:49:d9:af:7a:63:c1:43:31:42:b6:c7:cd:b9:
                    78:b7:33:98:70:92:6c:9e:04:7a:7b:f0:6d:38:87:
                    eb:00:13:17:b9:d9:ec:b4:66:bb:51:d3:fd:81:e3:
                    0e:88:71:23:d2:80:2a:61:de:ab:25:02:47:a9:c1:
                    6b:c9:69:ae:da:47:b6:49:74:ac:a6:e1:c1:76:ba:
                    6d:b1:d9:68:6e:1c:37:a8:e2:18:60:37:b6:58:13:
                    6c:c7:92:7c:c6:45:8c:ef:c3:81:73:10:dc:2f:31:
                    e2:b9:05:5a:9e:28:70:5a:3e:1d:b8:68:71:81:c9:
                    e8:fe:1f:c3:a0:13:f8:e4:24:12:ba:91:8e:15:d2:
                    03:f1:8c:b0:aa:e2:34:e4:6b:f8:06:f6:23:8a:92:
                    43:a6:05:dc:e9:c7:a5:a8:06:d7:6e:91:52:72:47:
                    ab:ae:87:fe:b3:0f:04:87:6f:4b:22:29:e9:a9:06:
                    52:58:7d:03:16:d7:d5:31:44:b4:f1:51:44:a7:2a:
                    ba:5e:09:19:ec:4c:a2:e0:58:fe:0d:4e:b7:90:4d:
                    02:ac:2a:ad:99:14:65:3b:0a:3c:73:45:56:b2:0f:
                    10:25:24:51:79:57:1a:34:1a:10:6f:60:e0:fc:81:
                    db:ca:c2:e2:85:1b:4c:72:13:5c:9d:76:cc:d0:21:
                    33:31:56:82:8f:c5:57:b9:44:fd:8b:76:c1:b6:e4:
                    21:8b:35:9a:ee:54:74:9f:72:6b:19:84:d7:a2:3c:
                    a5:6e:11:0a:f1:93:04:2e:dd:7c:4c:7d:62:10:d4:
                    1b:8b:87:f6:ed:bf:12:b1:8b:f0:9a:7a:ee:02:94:
                    e1:3c:46:2b:7f:9c:54:fb:2e:61:c9:1c:ef:fc:de:
                    25:bc:2d:75:1b:1f:49:5e:44:3b:15:93:ad:c4:89:
                    d9:ae:3c:da:54:ef:d9:af:3a:16:cb:94:1b:6a:14:
                    e4:42:f9:75:33:46:6e:fb:40:bc:f8:82:36:cf:60:
                    f5:c2:a2:98:23:a7:2a:ae:c1:aa:22:f8:87:da:b7:
                    9c:a4:cf
                Exponent: 65537 (0x10001)
        X509v3 extensions:
            X509v3 Subject Key Identifier: 
                9D:8F:84:76:94:CD:07:FE:A3:E8:8B:D7:F9:D9:6E:EF:CA:75:51:7B
            X509v3 Authority Key Identifier: 
                keyid:9D:8F:84:76:94:CD:07:FE:A3:E8:8B:D7:F9:D9:6E:EF:CA:75:51:7B
                DirName:/C=BE/CN=txjsonrpc-test-ca
                serial:8D:D2:AF:37:F9:CA:92:0B

            X509v3 Basic Constraints: critical
                CA:TRUE
            Netscape Cert Type: 
                SSL CA, S/MIME CA
            X509v3 Issuer Alternative Name: 
                <EMPTY>

            Netscape Comment: 
                Test CA for txjsonrcp
            X509v3 Subject Alternative Name: 
                <EMPTY>

            X509v3 Key Usage: critical
                Certificate Sign, CRL Sign
    Signature Algorithm: sha1WithRSAEncryption
         06:82:86:81:a9:1b:7e:2d:ef:f5:fc:cc:d2:9d:d6:82:ad:d0:
         6f:7e:3d:b9:5c:b2:0f:3a:64:21:9a:fb:53:b2:93:81:dc:1a:
         24:fc:b8:30:57:a2:c7:71:0d:9c:1a:0b:8a:6c:89:52:8b:8a:
         f5:af:95:3e:b8:08:39:ee:36:50:ac:60:4d:df:2b:49:a2:72:
         f1:3f:12:3c:d9:55:56:a4:9a:77:2b:77:fa:16:b5:76:d9:f4:
         c4:51:6b:b9:fe:2f:a3:52:e8:64:80:49:22:6d:05:42:87:af:
         9d:85:6c:fa:c9:9b:48:39:7b:89:f5:a0:1e:ff:11:d3:9c:78:
         b1:b2:f6:4d:b1:e8:b3:98:23:2c:d4:20:e1:a1:01:3e:26:0a:
         5b:8e:eb:58:45:22:cf:e1:94:ad:84:40:b0:fb:ff:25:5f:31:
         9a:49:0b:36:ad:c6:1a:b0:42:60:40:e2:a2:3c:5a:36:41:89:
         fc:10:c4:60:ea:d4:85:7b:36:84:df:aa:81:cc:69:e7:52:ca:
         c1:46:b1:79:93:51:4f:24:84:42:14:3a:20:a0:6c:27:76:40:
         0f:96:7e:4e:c3:0c:37:b3:e3:73:49:86:58:31:00:1e:e7:0f:
         87:74:b6:4e:6e:1c:7d:87:a4:33:04:c9:76:ec:e5:3a:85:5f:
         a8:d1:ad:21:64:5e:c5:6a:df:b1:02:6e:65:a4:87:72:06:07:
         da:e5:f2:af:2b:a5:eb:18:80:67:83:a5:3c:e6:ed:d1:58:f9:
         90:5c:d6:e9:2f:76:c1:58:13:b8:bd:88:8a:f3:04:48:bb:42:
         8f:7f:c6:db:b4:30:3f:bb:6c:d5:47:e5:ae:8d:4b:da:92:a5:
         db:d3:6e:a8:9b:c2:6b:56:af:34:63:82:e6:78:f8:1f:54:d7:
         41:aa:a3:c9:7c:a6:83:41:bf:6e:33:7c:ae:e6:92:bd:da:27:
         b4:bc:e2:90:4f:33:1b:01:a1:cd:02:13:7a:31:ef:00:d6:9a:
         6e:38:6b:a7:cb:70:98:a8:0f:ff:1c:56:a8:b7:e6:d2:42:5a:
         bb:f4:78:27:71:13:d0:e8:43:eb:bc:2d:4f:e4:ea:4d:4f:76:
         7f:53:38:34:eb:13:e2:3d:c6:14:98:86:1c:ab:2c:0e:b7:68:
         2e:bd:63:a9:6a:8f:d5:22:2d:ab:13:d7:62:54:51:ff:5c:37:
         08:04:27:da:f9:57:77:05:18:73:88:5f:b0:c1:65:50:36:09:
         d6:c7:f5:ae:6e:3f:04:d1:84:3c:21:74:1d:bd:0a:fb:76:d0:
         13:2b:62:bb:24:48:43:89:d0:18:5c:b4:ad:ea:98:af:6d:fc:
         1c:6b:1f:06:64:54:23:88
-----BEGIN CERTIFICATE-----
MIIFwzCCA6ugAwIBAgIJAI3Srzf5ypILMA0GCSqGSIb3DQEBBQUAMCkxCzAJBgNV
BAYTAkJFMRowGAYDVQQDExF0eGpzb25ycGMtdGVzdC1jYTAeFw0xMjA2MjMxNTQ2
MzdaFw0yMjA2MjExNTQ2MzdaMCkxCzAJBgNVBAYTAkJFMRowGAYDVQQDExF0eGpz
b25ycGMtdGVzdC1jYTCCAiIwDQYJKoZIhvcNAQEBBQADggIPADCCAgoCggIBANEl
r3fFqHLPkLk5EPt7dSyh2mqV5UQM1iVLWH+7B4JZSVgyhSTMPnfb4adPyLXL7kU4
vbz743Y7iATKqzqjljtfk5wopmGX3KI/oJMrVmzP009qngXTHM3vdYAamLeSSRQz
uMR8c4x+g6WBolmMi6NRNm1orPLx7W9J2a96Y8FDMUK2x825eLczmHCSbJ4Eenvw
bTiH6wATF7nZ7LRmu1HT/YHjDohxI9KAKmHeqyUCR6nBa8lprtpHtkl0rKbhwXa6
bbHZaG4cN6jiGGA3tlgTbMeSfMZFjO/DgXMQ3C8x4rkFWp4ocFo+HbhocYHJ6P4f
w6AT+OQkErqRjhXSA/GMsKriNORr+Ab2I4qSQ6YF3OnHpagG126RUnJHq66H/rMP
BIdvSyIp6akGUlh9AxbX1TFEtPFRRKcqul4JGexMouBY/g1Ot5BNAqwqrZkUZTsK
PHNFVrIPECUkUXlXGjQaEG9g4PyB28rC4oUbTHITXJ12zNAhMzFWgo/FV7lE/Yt2
wbbkIYs1mu5UdJ9yaxmE16I8pW4RCvGTBC7dfEx9YhDUG4uH9u2/ErGL8Jp67gKU
4TxGK3+cVPsuYckc7/zeJbwtdRsfSV5EOxWTrcSJ2a482lTv2a86FsuUG2oU5EL5
dTNGbvtAvPiCNs9g9cKimCOnKq7BqiL4h9q3nKTPAgMBAAGjge0wgeowHQYDVR0O
BBYEFJ2PhHaUzQf+o+iL1/nZbu/KdVF7MFkGA1UdIwRSMFCAFJ2PhHaUzQf+o+iL
1/nZbu/KdVF7oS2kKzApMQswCQYDVQQGEwJCRTEaMBgGA1UEAxMRdHhqc29ucnBj
LXRlc3QtY2GCCQCN0q83+cqSCzAPBgNVHRMBAf8EBTADAQH/MBEGCWCGSAGG+EIB
AQQEAwIBBjAJBgNVHRIEAjAAMCQGCWCGSAGG+EIBDQQXFhVUZXN0IENBIGZvciB0
eGpzb25yY3AwCQYDVR0RBAIwADAOBgNVHQ8BAf8EBAMCAQYwDQYJKoZIhvcNAQEF
BQADggIBAAaChoGpG34t7/X8zNKd1oKt0G9+Pblcsg86ZCGa+1Oyk4HcGiT8uDBX
osdxDZwaC4psiVKLivWvlT64CDnuNlCsYE3fK0micvE/EjzZVVakmncrd/oWtXbZ
9MRRa7n+L6NS6GSASSJtBUKHr52FbPrJm0g5e4n1oB7/EdOceLGy9k2x6LOYIyzU
IOGhAT4mCluO61hFIs/hlK2EQLD7/yVfMZpJCzatxhqwQmBA4qI8WjZBifwQxGDq
1IV7NoTfqoHMaedSysFGsXmTUU8khEIUOiCgbCd2QA+Wfk7DDDez43NJhlgxAB7n
D4d0tk5uHH2HpDMEyXbs5TqFX6jRrSFkXsVq37ECbmWkh3IGB9rl8q8rpesYgGeD
pTzm7dFY+ZBc1ukvdsFYE7i9iIrzBEi7Qo9/xtu0MD+7bNVH5a6NS9qSpdvTbqib
wmtWrzRjguZ4+B9U10Gqo8l8poNBv24zfK7mkr3aJ7S84pBPMxsBoc0CE3ox7wDW
mm44a6fLcJioD/8cVqi35tJCWrv0eCdxE9DoQ+u8LU/k6k1Pdn9TODTrE+I9xhSY
hhyrLA63aC69Y6lqj9UiLasT12JUUf9cNwgEJ9r5V3cFGHOIX7DBZVA2CdbH9a5u
PwTRhDwhdB29Cvt20BMrYrskSEOJ0BhctK3qmK9t/BxrHwZkVCOI
-----END CERTIFICATE-----
