Certificate:
    Data:
        Version: 4 (0x3)
        Serial Number: 1 (0x1)
    Signature Algorithm: sha1WithRSAEncryption
        Issuer: CN=ca-false, C=BE, O=Gremwell bvba
        Validity
            Not Before: Jan  1 00:00:00 1970 GMT
            Not After : Jan 19 03:14:07 2038 GMT
        Subject: CN=www.example.com, C=BE, O=Gremwell bvba
        Subject Public Key Info:
            Public Key Algorithm: rsaEncryption
                Public-Key: (1024 bit)
                Modulus:
                    00:aa:c1:01:2e:1d:07:2f:7b:91:27:b2:c9:32:6f:
                    0e:44:16:9f:75:47:94:23:a4:82:18:d4:25:8d:8b:
                    4d:5a:f2:73:ca:0a:ec:00:66:71:ed:bb:48:63:53:
                    f5:16:83:8b:1c:09:17:68:a6:2a:5e:7f:70:9e:44:
                    98:72:70:ec:23:93:8f:c5:9d:27:28:89:33:2b:dc:
                    97:46:18:96:db:74:86:a1:36:df:d3:24:b5:18:b6:
                    be:3b:ba:ed:a8:c6:d4:60:56:2c:b2:75:5c:25:ea:
                    e2:0a:98:87:db:3d:53:9d:12:dd:28:00:83:98:5f:
                    49:10:ff:00:97:84:31:e9:ed
                Exponent: 65537 (0x10001)
    Signature Algorithm: sha1WithRSAEncryption
         0d:f6:1d:2b:d0:e6:57:98:85:9d:80:5e:39:8f:f7:7f:af:62:
         43:bf:40:ee:b8:0a:81:a6:32:bf:0b:e2:c8:8c:a2:57:40:15:
         dc:77:9a:9a:69:3e:60:a7:39:b3:93:29:f8:21:09:bf:b0:5e:
         96:b2:60:a5:0e:43:00:44:9a:1c:dd:e4:ac:70:66:0d:73:be:
         27:c6:aa:9a:ac:ae:03:d4:01:d3:d7:c7:35:ce:5f:66:8a:2e:
         45:19:3a:21:ec:0d:ea:b2:bc:08:ef:9c:03:83:99:b9:c4:53:
         f5:8d:94:e5:b9:fe:cb:be:81:96:57:e7:6f:2f:ab:b5:f4:ff:
         b7:c7
-----BEGIN CERTIFICATE-----
MIIB6zCCAVSgAwIBAwIBATANBgkqhkiG9w0BAQUFADA4MREwDwYDVQQDEwhjYS1m
YWxzZTELMAkGA1UEBhMCQkUxFjAUBgNVBAoTDUdyZW13ZWxsIGJ2YmEwHhcNNzAw
MTAxMDAwMDAwWhcNMzgwMTE5MDMxNDA3WjA/MRgwFgYDVQQDEw93d3cuZXhhbXBs
ZS5jb20xCzAJBgNVBAYTAkJFMRYwFAYDVQQKEw1HcmVtd2VsbCBidmJhMIGfMA0G
CSqGSIb3DQEBAQUAA4GNADCBiQKBgQCqwQEuHQcve5Ensskybw5EFp91R5QjpIIY
1CWNi01a8nPKCuwAZnHtu0hjU/UWg4scCRdopipef3CeRJhycOwjk4/FnScoiTMr
3JdGGJbbdIahNt/TJLUYtr47uu2oxtRgViyydVwl6uIKmIfbPVOdEt0oAIOYX0kQ
/wCXhDHp7QIDAQABMA0GCSqGSIb3DQEBBQUAA4GBAA32HSvQ5leYhZ2AXjmP93+v
YkO/QO64CoGmMr8L4siMoldAFdx3mpppPmCnObOTKfghCb+wXpayYKUOQwBEmhzd
5KxwZg1zvifGqpqsrgPUAdPXxzXOX2aKLkUZOiHsDeqyvAjvnAODmbnEU/WNlOW5
/su+gZZX528vq7X0/7fH
-----END CERTIFICATE-----
Certificate:
    Data:
        Version: 4 (0x3)
        Serial Number: 1 (0x1)
    Signature Algorithm: sha1WithRSAEncryption
        Issuer: C=BE, CN=txjsonrpc-test-ca
        Validity
            Not Before: Jan  1 00:00:00 1970 GMT
            Not After : Jan 19 03:14:07 2038 GMT
        Subject: CN=ca-false, C=BE, O=Gremwell bvba
        Subject Public Key Info:
            Public Key Algorithm: rsaEncryption
                Public-Key: (1024 bit)
                Modulus:
                    00:b1:3b:2f:5b:70:5d:bf:a1:63:75:cd:a6:75:e5:
                    92:fa:76:c1:8f:2a:10:c8:22:c0:19:93:7d:41:51:
                    d6:4a:14:19:4c:16:54:5c:61:67:2c:e3:d1:63:8b:
                    f2:b1:5e:9a:6d:bf:c4:60:4b:8e:32:9e:73:07:ff:
                    8d:ce:8b:68:af:ce:3f:80:95:c1:87:a6:f3:2c:04:
                    24:33:5c:36:e1:c1:a5:96:8c:6b:5c:63:80:58:4b:
                    7d:a4:3e:fb:96:cf:dd:52:b5:ca:93:cf:d8:ff:8e:
                    0d:02:3b:90:01:c7:89:41:31:85:0a:3f:2c:c5:e8:
                    e4:c6:45:d0:b8:5e:04:96:fd
                Exponent: 65537 (0x10001)
        X509v3 extensions:
            X509v3 Basic Constraints: critical
                CA:FALSE
    Signature Algorithm: sha1WithRSAEncryption
         bb:fa:90:0f:ad:5e:26:c0:d7:a9:bc:27:d0:3d:00:11:f1:e7:
         6f:3c:22:38:7f:24:8f:53:2c:a1:6e:c2:0f:0f:89:9e:0e:dc:
         a9:65:3b:9b:68:8d:a6:50:96:b8:a5:cf:53:cb:08:58:90:44:
         fe:45:2f:67:92:e0:b6:8c:8a:9e:5e:32:0b:9d:ef:6a:f9:92:
         c9:2c:29:6a:39:82:4b:30:32:49:f7:ca:a4:7b:da:ce:1c:12:
         d0:ee:64:b2:fc:7c:33:bb:36:a3:16:4a:c2:68:e0:5d:da:f7:
         dc:1b:6e:e2:1f:76:3c:09:c3:e5:ac:87:6f:cf:4d:fc:56:9c:
         4e:e5:55:f6:6f:a6:2e:ba:76:29:ca:90:28:2a:0d:1a:18:1b:
         d7:f5:b3:b6:67:41:98:92:90:ae:62:dc:51:0b:47:0f:a6:e1:
         f8:88:ff:f0:13:88:f5:41:23:81:9c:1b:94:c1:fc:13:eb:06:
         f9:7d:a1:25:8e:e0:0c:fe:fb:09:40:a4:fa:d9:45:58:f8:39:
         d7:42:44:4c:7b:f2:33:a8:9f:2e:0f:ad:fb:2c:9e:5f:1f:c5:
         34:00:bd:dc:fd:8b:0d:8a:1d:51:bf:36:94:e0:40:bf:81:05:
         a5:9d:c8:96:e8:50:63:04:3c:40:42:77:f6:7c:f8:ba:13:e2:
         db:8d:51:bb:db:ee:66:58:4d:8d:fc:8b:3e:f2:8a:76:b3:2d:
         3b:84:ba:f8:d4:94:1d:36:09:f1:8b:c7:e0:81:e5:91:b8:1c:
         66:a5:19:ed:76:16:bb:43:80:1f:99:ad:e1:52:9c:35:89:7f:
         ae:bd:80:33:65:e0:17:45:8e:63:d8:0b:fc:3f:f3:1f:d0:08:
         e4:63:0f:bf:a3:1c:bd:44:1d:44:4a:88:7b:88:79:2b:97:9d:
         c6:86:80:df:03:d3:53:05:27:76:98:6b:69:c4:84:ee:de:88:
         74:24:7d:d7:13:cf:d4:6a:64:41:bd:99:14:35:cc:bc:73:23:
         83:17:9a:18:c5:2f:6b:ce:20:6e:54:04:ec:00:51:aa:18:51:
         7d:33:0e:a0:85:dd:11:5c:ec:bd:fb:d4:dc:aa:7d:fe:87:b5:
         7d:9f:3c:e9:ca:af:8c:15:1b:eb:8c:67:63:c1:94:b1:f1:94:
         04:ae:4a:0a:20:73:03:8c:d2:ad:94:d1:40:a4:79:7d:2d:07:
         4d:e6:cf:5f:0c:84:d7:6b:d0:4b:37:2b:36:7d:3e:52:dc:28:
         88:5a:36:cb:37:c6:c4:3c:be:c4:cc:f8:16:1a:20:a4:81:27:
         22:d8:d8:3a:b1:ad:98:cc:a7:d0:04:15:d4:ae:65:3c:90:04:
         b7:50:58:99:76:55:64:5a
-----BEGIN CERTIFICATE-----
MIIDaDCCAVCgAwIBAwIBATANBgkqhkiG9w0BAQUFADApMQswCQYDVQQGEwJCRTEa
MBgGA1UEAxMRdHhqc29ucnBjLXRlc3QtY2EwHhcNNzAwMTAxMDAwMDAwWhcNMzgw
MTE5MDMxNDA3WjA4MREwDwYDVQQDEwhjYS1mYWxzZTELMAkGA1UEBhMCQkUxFjAU
BgNVBAoTDUdyZW13ZWxsIGJ2YmEwgZ8wDQYJKoZIhvcNAQEBBQADgY0AMIGJAoGB
ALE7L1twXb+hY3XNpnXlkvp2wY8qEMgiwBmTfUFR1koUGUwWVFxhZyzj0WOL8rFe
mm2/xGBLjjKecwf/jc6LaK/OP4CVwYem8ywEJDNcNuHBpZaMa1xjgFhLfaQ++5bP
3VK1ypPP2P+ODQI7kAHHiUExhQo/LMXo5MZF0LheBJb9AgMBAAGjEDAOMAwGA1Ud
EwEB/wQCMAAwDQYJKoZIhvcNAQEFBQADggIBALv6kA+tXibA16m8J9A9ABHx5288
Ijh/JI9TLKFuwg8PiZ4O3KllO5tojaZQlrilz1PLCFiQRP5FL2eS4LaMip5eMgud
72r5ksksKWo5gkswMkn3yqR72s4cEtDuZLL8fDO7NqMWSsJo4F3a99wbbuIfdjwJ
w+Wsh2/PTfxWnE7lVfZvpi66dinKkCgqDRoYG9f1s7ZnQZiSkK5i3FELRw+m4fiI
//ATiPVBI4GcG5TB/BPrBvl9oSWO4Az++wlApPrZRVj4OddCREx78jOony4Prfss
nl8fxTQAvdz9iw2KHVG/NpTgQL+BBaWdyJboUGMEPEBCd/Z8+LoT4tuNUbvb7mZY
TY38iz7yinazLTuEuvjUlB02CfGLx+CB5ZG4HGalGe12FrtDgB+ZreFSnDWJf669
gDNl4BdFjmPYC/w/8x/QCORjD7+jHL1EHURKiHuIeSuXncaGgN8D01MFJ3aYa2nE
hO7eiHQkfdcTz9RqZEG9mRQ1zLxzI4MXmhjFL2vOIG5UBOwAUaoYUX0zDqCF3RFc
7L371Nyqff6HtX2fPOnKr4wVG+uMZ2PBlLHxlASuSgogcwOM0q2U0UCkeX0tB03m
z18MhNdr0Es3KzZ9PlLcKIhaNss3xsQ8vsTM+BYaIKSBJyLY2DqxrZjMp9AEFdSu
ZTyQBLdQWJl2VWRa
-----END CERTIFICATE-----
