Certificate:
    Data:
        Version: 4 (0x3)
        Serial Number: 1 (0x1)
    Signature Algorithm: sha1WithRSAEncryption
        Issuer: C=BE, CN=txjsonrpc-test-ca
        Validity
            Not Before: Jan  1 00:00:00 1970 GMT
            Not After : Jan 19 03:14:07 2038 GMT
        Subject: CN=ca-none, C=BE, O=Gremwell bvba
        Subject Public Key Info:
            Public Key Algorithm: rsaEncryption
                Public-Key: (1024 bit)
                Modulus:
                    00:ca:12:71:e1:00:98:e5:21:7a:dd:f9:7a:71:1e:
                    5e:02:0d:04:e2:56:20:09:6c:57:d1:c1:ac:a3:ca:
                    0d:06:14:97:c9:3c:58:95:3e:36:4c:9d:81:43:66:
                    04:a2:76:76:4f:d5:95:d2:74:2e:8f:1b:c5:8a:9a:
                    5e:43:f2:1b:dd:17:a2:30:4d:10:7d:a3:3e:c8:b1:
                    83:66:36:16:1d:5c:c4:56:ec:e4:53:b8:df:f8:f1:
                    f8:9e:96:01:49:18:34:51:b5:04:56:61:22:f7:8d:
                    3b:b2:25:a8:b5:24:9f:54:03:09:6c:80:4b:85:14:
                    f2:94:76:1a:f9:6d:38:c1:3f
                Exponent: 65537 (0x10001)
    Signature Algorithm: sha1WithRSAEncryption
         92:24:36:6e:ee:0c:f0:e3:b2:1b:25:21:90:48:a6:1d:c3:fa:
         e3:1f:68:d0:84:b0:86:5f:17:fc:6d:cf:1d:9e:59:6a:3b:b4:
         8b:d2:02:57:76:18:d0:5d:7f:7c:94:e5:47:c7:51:3b:04:65:
         35:a9:29:db:b6:0c:4f:24:62:9a:e5:e4:84:00:7b:e7:dd:93:
         9a:7d:98:64:7a:83:74:8b:05:b6:91:46:71:62:ac:c2:3c:6c:
         1e:99:06:4a:52:6a:d0:ed:02:e7:80:f7:48:cd:33:8d:56:7d:
         84:60:53:84:45:3d:4d:f3:fe:75:f8:45:c7:ac:68:56:02:b1:
         74:1a:36:68:5b:9a:3f:25:3e:77:94:fd:ee:cb:ba:4e:48:40:
         82:9e:05:f5:dc:a0:65:c5:d3:d0:2c:bd:19:b2:44:e9:5d:c4:
         88:a6:28:54:ef:0f:95:5a:3b:82:3f:da:75:ee:e8:22:db:6e:
         ce:01:c2:bb:c7:98:bd:6f:de:c5:fd:dc:57:e2:21:13:3f:1e:
         71:51:fe:c4:5d:6d:b9:b6:df:60:87:40:34:3d:f9:70:6d:dc:
         62:18:9d:62:2e:73:fa:d1:49:63:ce:90:0c:38:12:70:ca:5d:
         7f:60:85:12:54:52:b5:5f:2e:2f:cc:a8:19:62:7b:bc:12:f1:
         02:19:1f:9b:f2:73:b9:f3:13:29:7f:14:8f:04:0c:bc:ca:02:
         05:0c:bf:07:19:6f:e5:71:29:6d:a4:88:50:e3:ad:e2:42:20:
         09:e0:58:fb:d8:ac:59:0e:da:6d:28:2b:81:1f:25:5a:09:2b:
         7e:93:35:35:99:14:70:1c:4c:e7:c6:d3:e8:d6:f4:33:76:f7:
         53:ff:d5:c4:67:57:05:c9:74:1c:9f:4e:cb:b5:15:1c:81:95:
         92:e2:e4:d4:3c:03:07:72:1b:9a:e1:91:8d:e3:3b:5a:c1:77:
         4d:4b:2a:58:ac:77:7b:05:82:ea:2e:d7:f8:52:98:d8:62:fc:
         16:ef:74:10:22:3f:7d:f3:ee:1c:fa:9f:f5:b3:5c:fc:b1:ab:
         3d:b1:5d:ce:c3:1d:e0:54:f7:f2:81:d8:2c:bf:19:2f:d4:e7:
         94:eb:40:4b:e6:3c:ad:fb:b3:2c:9e:3c:cc:cd:bd:1f:0d:b0:
         73:be:93:f3:17:77:f4:84:2a:4b:27:31:62:2b:b8:03:65:66:
         9c:d2:d8:f9:46:fb:3d:59:c5:46:0a:af:51:fa:4a:45:f5:ed:
         00:47:9c:24:d7:db:45:0f:14:5d:e6:c7:b3:77:d3:9b:c0:86:
         36:f2:6f:cf:3f:27:fa:ad:f1:23:51:fc:69:40:e4:02:21:da:
         ce:e2:5c:2f:14:1a:68:00
-----BEGIN CERTIFICATE-----
MIIDVTCCAT2gAwIBAwIBATANBgkqhkiG9w0BAQUFADApMQswCQYDVQQGEwJCRTEa
MBgGA1UEAxMRdHhqc29ucnBjLXRlc3QtY2EwHhcNNzAwMTAxMDAwMDAwWhcNMzgw
MTE5MDMxNDA3WjA3MRAwDgYDVQQDEwdjYS1ub25lMQswCQYDVQQGEwJCRTEWMBQG
A1UEChMNR3JlbXdlbGwgYnZiYTCBnzANBgkqhkiG9w0BAQEFAAOBjQAwgYkCgYEA
yhJx4QCY5SF63fl6cR5eAg0E4lYgCWxX0cGso8oNBhSXyTxYlT42TJ2BQ2YEonZ2
T9WV0nQujxvFippeQ/Ib3ReiME0QfaM+yLGDZjYWHVzEVuzkU7jf+PH4npYBSRg0
UbUEVmEi9407siWotSSfVAMJbIBLhRTylHYa+W04wT8CAwEAATANBgkqhkiG9w0B
AQUFAAOCAgEAkiQ2bu4M8OOyGyUhkEimHcP64x9o0ISwhl8X/G3PHZ5Zaju0i9IC
V3YY0F1/fJTlR8dROwRlNakp27YMTyRimuXkhAB7592Tmn2YZHqDdIsFtpFGcWKs
wjxsHpkGSlJq0O0C54D3SM0zjVZ9hGBThEU9TfP+dfhFx6xoVgKxdBo2aFuaPyU+
d5T97su6TkhAgp4F9dygZcXT0Cy9GbJE6V3EiKYoVO8PlVo7gj/ade7oIttuzgHC
u8eYvW/exf3cV+IhEz8ecVH+xF1tubbfYIdAND35cG3cYhidYi5z+tFJY86QDDgS
cMpdf2CFElRStV8uL8yoGWJ7vBLxAhkfm/JzufMTKX8UjwQMvMoCBQy/Bxlv5XEp
baSIUOOt4kIgCeBY+9isWQ7abSgrgR8lWgkrfpM1NZkUcBxM58bT6Nb0M3b3U//V
xGdXBcl0HJ9Oy7UVHIGVkuLk1DwDB3IbmuGRjeM7WsF3TUsqWKx3ewWC6i7X+FKY
2GL8Fu90ECI/ffPuHPqf9bNc/LGrPbFdzsMd4FT38oHYLL8ZL9TnlOtAS+Y8rfuz
LJ48zM29Hw2wc76T8xd39IQqSycxYiu4A2VmnNLY+Ub7PVnFRgqvUfpKRfXtAEec
JNfbRQ8UXebHs3fTm8CGNvJvzz8n+q3xI1H8aUDkAiHazuJcLxQaaAA=
-----END CERTIFICATE-----
Certificate:
    Data:
        Version: 3 (0x2)
        Serial Number: 10219423159405941259 (0x8dd2af37f9ca920b)
    Signature Algorithm: sha1WithRSAEncryption
        Issuer: C=BE, CN=txjsonrpc-test-ca
        Validity
            Not Before: Jun 23 15:46:37 2012 GMT
            Not After : Jun 21 15:46:37 2022 GMT
        Subject: C=BE, CN=txjsonrpc-test-ca
        Subject Public Key Info:
            Public Key Algorithm: rsaEncryption
                Public-Key: (4096 bit)
                Modulus:
                    00:d1:25:af:77:c5:a8:72:cf:90:b9:39:10:fb:7b:
                    75:2c:a1:da:6a:95:e5:44:0c:d6:25:4b:58:7f:bb:
                    07:82:59:49:58:32:85:24:cc:3e:77:db:e1:a7:4f:
                    c8:b5:cb:ee:45:38:bd:bc:fb:e3:76:3b:88:04:ca:
                    ab:3a:a3:96:3b:5f:93:9c:28:a6:61:97:dc:a2:3f:
                    a0:93:2b:56:6c:cf:d3:4f:6a:9e:05:d3:1c:cd:ef:
                    75:80:1a:98:b7:92:49:14:33:b8:c4:7c:73:8c:7e:
                    83:a5:81:a2:59:8c:8b:a3:51:36:6d:68:ac:f2:f1:
                    ed:6f:49:d9:af:7a:63:c1:43:31:42:b6:c7:cd:b9:
                    78:b7:33:98:70:92:6c:9e:04:7a:7b:f0:6d:38:87:
                    eb:00:13:17:b9:d9:ec:b4:66:bb:51:d3:fd:81:e3:
                    0e:88:71:23:d2:80:2a:61:de:ab:25:02:47:a9:c1:
                    6b:c9:69:ae:da:47:b6:49:74:ac:a6:e1:c1:76:ba:
                    6d:b1:d9:68:6e:1c:37:a8:e2:18:60:37:b6:58:13:
                    6c:c7:92:7c:c6:45:8c:ef:c3:81:73:10:dc:2f:31:
                    e2:b9:05:5a:9e:28:70:5a:3e:1d:b8:68:71:81:c9:
                    e8:fe:1f:c3:a0:13:f8:e4:24:12:ba:91:8e:15:d2:
                    03:f1:8c:b0:aa:e2:34:e4:6b:f8:06:f6:23:8a:92:
                    43:a6:05:dc:e9:c7:a5:a8:06:d7:6e:91:52:72:47:
                    ab:ae:87:fe:b3:0f:04:87:6f:4b:22:29:e9:a9:06:
                    52:58:7d:03:16:d7:d5:31:44:b4:f1:51:44:a7:2a:
                    ba:5e:09:19:ec:4c:a2:e0:58:fe:0d:4e:b7:90:4d:
                    02:ac:2a:ad:99:14:65:3b:0a:3c:73:45:56:b2:0f:
                    10:25:24:51:79:57:1a:34:1a:10:6f:60:e0:fc:81:
                    db:ca:c2:e2:85:1b:4c:72:13:5c:9d:76:cc:d0:21:
                    33:31:56:82:8f:c5:57:b9:44:fd:8b:76:c1:b6:e4:
                    21:8b:35:9a:ee:54:74:9f:72:6b:19:84:d7:a2:3c:
                    a5:6e:11:0a:f1:93:04:2e:dd:7c:4c:7d:62:10:d4:
                    1b:8b:87:f6:ed:bf:12:b1:8b:f0:9a:7a:ee:02:94:
                    e1:3c:46:2b:7f:9c:54:fb:2e:61:c9:1c:ef:fc:de:
                    25:bc:2d:75:1b:1f:49:5e:44:3b:15:93:ad:c4:89:
                    d9:ae:3c:da:54:ef:d9:af:3a:16:cb:94:1b:6a:14:
                    e4:42:f9:75:33:46:6e:fb:40:bc:f8:82:36:cf:60:
                    f5:c2:a2:98:23:a7:2a:ae:c1:aa:22:f8:87:da:b7:
                    9c:a4:cf
                Exponent: 65537 (0x10001)
        X509v3 extensions:
            X509v3 Subject Key Identifier: 
                9D:8F:84:76:94:CD:07:FE:A3:E8:8B:D7:F9:D9:6E:EF:CA:75:51:7B
            X509v3 Authority Key Identifier: 
                keyid:9D:8F:84:76:94:CD:07:FE:A3:E8:8B:D7:F9:D9:6E:EF:CA:75:51:7B
                DirName:/C=BE/CN=txjsonrpc-test-ca
                serial:8D:D2:AF:37:F9:CA:92:0B

            X509v3 Basic Constraints: critical
                CA:TRUE
            Netscape Cert Type: 
                SSL CA, S/MIME CA
            X509v3 Issuer Alternative Name: 
                <EMPTY>

            Netscape Comment: 
                Test CA for txjsonrcp
            X509v3 Subject Alternative Name: 
                <EMPTY>

            X509v3 Key Usage: critical
                Certificate Sign, CRL Sign
    Signature Algorithm: sha1WithRSAEncryption
         06:82:86:81:a9:1b:7e:2d:ef:f5:fc:cc:d2:9d:d6:82:ad:d0:
         6f:7e:3d:b9:5c:b2:0f:3a:64:21:9a:fb:53:b2:93:81:dc:1a:
         24:fc:b8:30:57:a2:c7:71:0d:9c:1a:0b:8a:6c:89:52:8b:8a:
         f5:af:95:3e:b8:08:39:ee:36:50:ac:60:4d:df:2b:49:a2:72:
         f1:3f:12:3c:d9:55:56:a4:9a:77:2b:77:fa:16:b5:76:d9:f4:
         c4:51:6b:b9:fe:2f:a3:52:e8:64:80:49:22:6d:05:42:87:af:
         9d:85:6c:fa:c9:9b:48:39:7b:89:f5:a0:1e:ff:11:d3:9c:78:
         b1:b2:f6:4d:b1:e8:b3:98:23:2c:d4:20:e1:a1:01:3e:26:0a:
         5b:8e:eb:58:45:22:cf:e1:94:ad:84:40:b0:fb:ff:25:5f:31:
         9a:49:0b:36:ad:c6:1a:b0:42:60:40:e2:a2:3c:5a:36:41:89:
         fc:10:c4:60:ea:d4:85:7b:36:84:df:aa:81:cc:69:e7:52:ca:
         c1:46:b1:79:93:51:4f:24:84:42:14:3a:20:a0:6c:27:76:40:
         0f:96:7e:4e:c3:0c:37:b3:e3:73:49:86:58:31:00:1e:e7:0f:
         87:74:b6:4e:6e:1c:7d:87:a4:33:04:c9:76:ec:e5:3a:85:5f:
         a8:d1:ad:21:64:5e:c5:6a:df:b1:02:6e:65:a4:87:72:06:07:
         da:e5:f2:af:2b:a5:eb:18:80:67:83:a5:3c:e6:ed:d1:58:f9:
         90:5c:d6:e9:2f:76:c1:58:13:b8:bd:88:8a:f3:04:48:bb:42:
         8f:7f:c6:db:b4:30:3f:bb:6c:d5:47:e5:ae:8d:4b:da:92:a5:
         db:d3:6e:a8:9b:c2:6b:56:af:34:63:82:e6:78:f8:1f:54:d7:
         41:aa:a3:c9:7c:a6:83:41:bf:6e:33:7c:ae:e6:92:bd:da:27:
         b4:bc:e2:90:4f:33:1b:01:a1:cd:02:13:7a:31:ef:00:d6:9a:
         6e:38:6b:a7:cb:70:98:a8:0f:ff:1c:56:a8:b7:e6:d2:42:5a:
         bb:f4:78:27:71:13:d0:e8:43:eb:bc:2d:4f:e4:ea:4d:4f:76:
         7f:53:38:34:eb:13:e2:3d:c6:14:98:86:1c:ab:2c:0e:b7:68:
         2e:bd:63:a9:6a:8f:d5:22:2d:ab:13:d7:62:54:51:ff:5c:37:
         08:04:27:da:f9:57:77:05:18:73:88:5f:b0:c1:65:50:36:09:
         d6:c7:f5:ae:6e:3f:04:d1:84:3c:21:74:1d:bd:0a:fb:76:d0:
         13:2b:62:bb:24:48:43:89:d0:18:5c:b4:ad:ea:98:af:6d:fc:
         1c:6b:1f:06:64:54:23:88
-----BEGIN CERTIFICATE-----
MIIFwzCCA6ugAwIBAgIJAI3Srzf5ypILMA0GCSqGSIb3DQEBBQUAMCkxCzAJBgNV
BAYTAkJFMRowGAYDVQQDExF0eGpzb25ycGMtdGVzdC1jYTAeFw0xMjA2MjMxNTQ2
MzdaFw0yMjA2MjExNTQ2MzdaMCkxCzAJBgNVBAYTAkJFMRowGAYDVQQDExF0eGpz
b25ycGMtdGVzdC1jYTCCAiIwDQYJKoZIhvcNAQEBBQADggIPADCCAgoCggIBANEl
r3fFqHLPkLk5EPt7dSyh2mqV5UQM1iVLWH+7B4JZSVgyhSTMPnfb4adPyLXL7kU4
vbz743Y7iATKqzqjljtfk5wopmGX3KI/oJMrVmzP009qngXTHM3vdYAamLeSSRQz
uMR8c4x+g6WBolmMi6NRNm1orPLx7W9J2a96Y8FDMUK2x825eLczmHCSbJ4Eenvw
bTiH6wATF7nZ7LRmu1HT/YHjDohxI9KAKmHeqyUCR6nBa8lprtpHtkl0rKbhwXa6
bbHZaG4cN6jiGGA3tlgTbMeSfMZFjO/DgXMQ3C8x4rkFWp4ocFo+HbhocYHJ6P4f
w6AT+OQkErqRjhXSA/GMsKriNORr+Ab2I4qSQ6YF3OnHpagG126RUnJHq66H/rMP
BIdvSyIp6akGUlh9AxbX1TFEtPFRRKcqul4JGexMouBY/g1Ot5BNAqwqrZkUZTsK
PHNFVrIPECUkUXlXGjQaEG9g4PyB28rC4oUbTHITXJ12zNAhMzFWgo/FV7lE/Yt2
wbbkIYs1mu5UdJ9yaxmE16I8pW4RCvGTBC7dfEx9YhDUG4uH9u2/ErGL8Jp67gKU
4TxGK3+cVPsuYckc7/zeJbwtdRsfSV5EOxWTrcSJ2a482lTv2a86FsuUG2oU5EL5
dTNGbvtAvPiCNs9g9cKimCOnKq7BqiL4h9q3nKTPAgMBAAGjge0wgeowHQYDVR0O
BBYEFJ2PhHaUzQf+o+iL1/nZbu/KdVF7MFkGA1UdIwRSMFCAFJ2PhHaUzQf+o+iL
1/nZbu/KdVF7oS2kKzApMQswCQYDVQQGEwJCRTEaMBgGA1UEAxMRdHhqc29ucnBj
LXRlc3QtY2GCCQCN0q83+cqSCzAPBgNVHRMBAf8EBTADAQH/MBEGCWCGSAGG+EIB
AQQEAwIBBjAJBgNVHRIEAjAAMCQGCWCGSAGG+EIBDQQXFhVUZXN0IENBIGZvciB0
eGpzb25yY3AwCQYDVR0RBAIwADAOBgNVHQ8BAf8EBAMCAQYwDQYJKoZIhvcNAQEF
BQADggIBAAaChoGpG34t7/X8zNKd1oKt0G9+Pblcsg86ZCGa+1Oyk4HcGiT8uDBX
osdxDZwaC4psiVKLivWvlT64CDnuNlCsYE3fK0micvE/EjzZVVakmncrd/oWtXbZ
9MRRa7n+L6NS6GSASSJtBUKHr52FbPrJm0g5e4n1oB7/EdOceLGy9k2x6LOYIyzU
IOGhAT4mCluO61hFIs/hlK2EQLD7/yVfMZpJCzatxhqwQmBA4qI8WjZBifwQxGDq
1IV7NoTfqoHMaedSysFGsXmTUU8khEIUOiCgbCd2QA+Wfk7DDDez43NJhlgxAB7n
D4d0tk5uHH2HpDMEyXbs5TqFX6jRrSFkXsVq37ECbmWkh3IGB9rl8q8rpesYgGeD
pTzm7dFY+ZBc1ukvdsFYE7i9iIrzBEi7Qo9/xtu0MD+7bNVH5a6NS9qSpdvTbqib
wmtWrzRjguZ4+B9U10Gqo8l8poNBv24zfK7mkr3aJ7S84pBPMxsBoc0CE3ox7wDW
mm44a6fLcJioD/8cVqi35tJCWrv0eCdxE9DoQ+u8LU/k6k1Pdn9TODTrE+I9xhSY
hhyrLA63aC69Y6lqj9UiLasT12JUUf9cNwgEJ9r5V3cFGHOIX7DBZVA2CdbH9a5u
PwTRhDwhdB29Cvt20BMrYrskSEOJ0BhctK3qmK9t/BxrHwZkVCOI
-----END CERTIFICATE-----
