Certificate:
    Data:
        Version: 4 (0x3)
        Serial Number: 1 (0x1)
    Signature Algorithm: sha1WithRSAEncryption
        Issuer: C=BE, CN=txjsonrpc-test-ca
        Validity
            Not Before: Jan  1 00:00:00 1970 GMT
            Not After : Jan 19 03:14:07 2038 GMT
        Subject: CN=txjsonrpc-pyserver, C=BE, O=Gremwell bvba
        Subject Public Key Info:
            Public Key Algorithm: rsaEncryption
                Public-Key: (1024 bit)
                Modulus:
                    00:af:d3:0a:00:aa:ff:10:2f:96:90:1e:3e:b3:a5:
                    96:7a:8b:dd:73:cb:9a:8e:c6:bb:49:66:25:9e:e2:
                    b5:b5:a9:b0:34:01:69:c1:d9:35:0c:7e:1c:8d:08:
                    6b:bf:5a:a2:6e:b5:c7:d8:3a:c7:81:25:30:5a:fc:
                    3a:80:8f:82:25:ad:ee:4e:1d:32:c0:68:13:0e:65:
                    b4:85:d0:b8:45:37:d7:96:4e:e7:2d:4d:c9:8b:16:
                    11:a1:48:61:1b:4f:07:77:93:c8:7c:69:fc:68:dd:
                    1f:47:00:4c:7b:7b:c1:1c:7f:e8:c9:50:b0:ef:ed:
                    8b:a2:9c:fe:ea:cb:7a:62:43
                Exponent: 65537 (0x10001)
    Signature Algorithm: sha1WithRSAEncryption
         13:64:d6:08:cb:a8:b4:8a:3b:5c:e5:71:da:df:e7:f3:20:0d:
         48:bd:48:2e:0d:4e:88:e8:67:58:ef:39:89:c4:fe:a0:37:9d:
         39:5c:cb:8a:de:9f:72:d9:bd:36:38:24:bc:7a:58:9d:54:97:
         bf:af:61:61:6a:de:2e:00:1e:2c:e9:15:fa:e7:2f:ac:0e:f0:
         dc:14:6d:00:0b:8c:8c:67:56:92:a9:cc:7a:da:48:a9:78:96:
         1e:be:19:a9:94:a7:54:16:1e:47:57:10:66:c7:6c:71:5e:b9:
         31:77:d7:21:af:34:b5:bd:90:8a:f2:98:6e:a9:23:0e:23:fd:
         82:7d:c2:29:05:ef:0e:0c:d7:d5:41:f3:0f:da:23:c4:d9:ec:
         c1:bf:78:93:f2:63:eb:4d:6f:27:96:56:93:31:f8:f0:f2:4e:
         e2:b9:8d:81:a1:d1:66:ae:e2:b8:5d:23:f1:51:c7:31:03:d0:
         2d:07:f9:e6:a4:b7:4f:4a:eb:e1:a6:80:a7:68:c6:47:fd:46:
         76:c1:99:89:c1:06:2f:49:5d:b7:b9:c4:e2:66:5a:c6:db:26:
         4a:69:75:61:51:f6:38:bd:ed:0a:2d:dd:d1:1f:65:aa:aa:3b:
         b4:21:80:6e:f0:59:5a:d0:48:0d:c6:1b:39:f1:b1:28:c6:de:
         b4:f0:39:7f:bd:29:bc:63:2e:ec:c2:3a:0d:af:55:f6:15:26:
         a0:36:5c:63:84:3f:c8:86:90:f9:de:21:60:69:46:1e:9d:e1:
         7c:5d:84:e6:da:dc:28:08:02:6b:89:32:6e:cd:42:cc:52:ee:
         4f:89:7d:71:9c:32:50:60:87:d6:56:9a:cc:39:21:f3:46:df:
         b8:bb:cc:46:83:91:5d:84:1b:c1:0a:c7:24:03:4b:b7:82:8d:
         22:e0:e7:d5:2e:c5:68:50:97:19:94:98:02:27:e8:c5:81:14:
         15:43:7d:d7:fe:01:51:8b:76:e4:f3:a3:cf:e2:f6:be:92:08:
         71:9d:9b:66:32:78:5e:01:7d:13:2b:ae:e4:b6:ca:8b:60:ab:
         9d:7e:e2:1b:2d:2c:6a:ee:e6:ee:85:e2:6d:7c:b3:e9:bf:6b:
         45:79:b3:99:66:b5:cd:09:a9:48:80:a5:7d:be:21:0f:db:d8:
         e6:bb:0a:cd:41:4b:0e:ac:72:52:aa:16:e0:e0:29:b2:f6:4a:
         bd:16:57:ec:67:d3:85:30:20:46:57:80:71:0d:2e:23:66:f1:
         02:0e:35:0a:55:7e:11:4a:03:88:1f:1f:a1:54:6b:6a:d4:70:
         0d:29:f4:91:6a:4b:ca:16:e8:fa:ef:ee:a5:99:e5:33:3d:95:
         f6:da:9b:2d:b8:41:be:ee
-----BEGIN CERTIFICATE-----
MIIDYDCCAUigAwIBAwIBATANBgkqhkiG9w0BAQUFADApMQswCQYDVQQGEwJCRTEa
MBgGA1UEAxMRdHhqc29ucnBjLXRlc3QtY2EwHhcNNzAwMTAxMDAwMDAwWhcNMzgw
MTE5MDMxNDA3WjBCMRswGQYDVQQDExJ0eGpzb25ycGMtcHlzZXJ2ZXIxCzAJBgNV
BAYTAkJFMRYwFAYDVQQKEw1HcmVtd2VsbCBidmJhMIGfMA0GCSqGSIb3DQEBAQUA
A4GNADCBiQKBgQCv0woAqv8QL5aQHj6zpZZ6i91zy5qOxrtJZiWe4rW1qbA0AWnB
2TUMfhyNCGu/WqJutcfYOseBJTBa/DqAj4Ilre5OHTLAaBMOZbSF0LhFN9eWTuct
TcmLFhGhSGEbTwd3k8h8afxo3R9HAEx7e8Ecf+jJULDv7YuinP7qy3piQwIDAQAB
MA0GCSqGSIb3DQEBBQUAA4ICAQATZNYIy6i0ijtc5XHa3+fzIA1IvUguDU6I6GdY
7zmJxP6gN505XMuK3p9y2b02OCS8elidVJe/r2Fhat4uAB4s6RX65y+sDvDcFG0A
C4yMZ1aSqcx62kipeJYevhmplKdUFh5HVxBmx2xxXrkxd9chrzS1vZCK8phuqSMO
I/2CfcIpBe8ODNfVQfMP2iPE2ezBv3iT8mPrTW8nllaTMfjw8k7iuY2BodFmruK4
XSPxUccxA9AtB/nmpLdPSuvhpoCnaMZH/UZ2wZmJwQYvSV23ucTiZlrG2yZKaXVh
UfY4ve0KLd3RH2Wqqju0IYBu8Fla0EgNxhs58bEoxt608Dl/vSm8Yy7swjoNr1X2
FSagNlxjhD/IhpD53iFgaUYeneF8XYTm2twoCAJriTJuzULMUu5PiX1xnDJQYIfW
VprMOSHzRt+4u8xGg5FdhBvBCsckA0u3go0i4OfVLsVoUJcZlJgCJ+jFgRQVQ33X
/gFRi3bk86PP4va+kghxnZtmMnheAX0TK67ktsqLYKudfuIbLSxq7ubuheJtfLPp
v2tFebOZZrXNCalIgKV9viEP29jmuwrNQUsOrHJSqhbg4Cmy9kq9FlfsZ9OFMCBG
V4BxDS4jZvECDjUKVX4RSgOIHx+hVGtq1HANKfSRakvKFuj67+6lmeUzPZX22pst
uEG+7g==
-----END CERTIFICATE-----
Certificate:
    Data:
        Version: 3 (0x2)
        Serial Number: 10219423159405941259 (0x8dd2af37f9ca920b)
    Signature Algorithm: sha1WithRSAEncryption
        Issuer: C=BE, CN=txjsonrpc-test-ca
        Validity
            Not Before: Jun 23 15:46:37 2012 GMT
            Not After : Jun 21 15:46:37 2022 GMT
        Subject: C=BE, CN=txjsonrpc-test-ca
        Subject Public Key Info:
            Public Key Algorithm: rsaEncryption
                Public-Key: (4096 bit)
                Modulus:
                    00:d1:25:af:77:c5:a8:72:cf:90:b9:39:10:fb:7b:
                    75:2c:a1:da:6a:95:e5:44:0c:d6:25:4b:58:7f:bb:
                    07:82:59:49:58:32:85:24:cc:3e:77:db:e1:a7:4f:
                    c8:b5:cb:ee:45:38:bd:bc:fb:e3:76:3b:88:04:ca:
                    ab:3a:a3:96:3b:5f:93:9c:28:a6:61:97:dc:a2:3f:
                    a0:93:2b:56:6c:cf:d3:4f:6a:9e:05:d3:1c:cd:ef:
                    75:80:1a:98:b7:92:49:14:33:b8:c4:7c:73:8c:7e:
                    83:a5:81:a2:59:8c:8b:a3:51:36:6d:68:ac:f2:f1:
                    ed:6f:49:d9:af:7a:63:c1:43:31:42:b6:c7:cd:b9:
                    78:b7:33:98:70:92:6c:9e:04:7a:7b:f0:6d:38:87:
                    eb:00:13:17:b9:d9:ec:b4:66:bb:51:d3:fd:81:e3:
                    0e:88:71:23:d2:80:2a:61:de:ab:25:02:47:a9:c1:
                    6b:c9:69:ae:da:47:b6:49:74:ac:a6:e1:c1:76:ba:
                    6d:b1:d9:68:6e:1c:37:a8:e2:18:60:37:b6:58:13:
                    6c:c7:92:7c:c6:45:8c:ef:c3:81:73:10:dc:2f:31:
                    e2:b9:05:5a:9e:28:70:5a:3e:1d:b8:68:71:81:c9:
                    e8:fe:1f:c3:a0:13:f8:e4:24:12:ba:91:8e:15:d2:
                    03:f1:8c:b0:aa:e2:34:e4:6b:f8:06:f6:23:8a:92:
                    43:a6:05:dc:e9:c7:a5:a8:06:d7:6e:91:52:72:47:
                    ab:ae:87:fe:b3:0f:04:87:6f:4b:22:29:e9:a9:06:
                    52:58:7d:03:16:d7:d5:31:44:b4:f1:51:44:a7:2a:
                    ba:5e:09:19:ec:4c:a2:e0:58:fe:0d:4e:b7:90:4d:
                    02:ac:2a:ad:99:14:65:3b:0a:3c:73:45:56:b2:0f:
                    10:25:24:51:79:57:1a:34:1a:10:6f:60:e0:fc:81:
                    db:ca:c2:e2:85:1b:4c:72:13:5c:9d:76:cc:d0:21:
                    33:31:56:82:8f:c5:57:b9:44:fd:8b:76:c1:b6:e4:
                    21:8b:35:9a:ee:54:74:9f:72:6b:19:84:d7:a2:3c:
                    a5:6e:11:0a:f1:93:04:2e:dd:7c:4c:7d:62:10:d4:
                    1b:8b:87:f6:ed:bf:12:b1:8b:f0:9a:7a:ee:02:94:
                    e1:3c:46:2b:7f:9c:54:fb:2e:61:c9:1c:ef:fc:de:
                    25:bc:2d:75:1b:1f:49:5e:44:3b:15:93:ad:c4:89:
                    d9:ae:3c:da:54:ef:d9:af:3a:16:cb:94:1b:6a:14:
                    e4:42:f9:75:33:46:6e:fb:40:bc:f8:82:36:cf:60:
                    f5:c2:a2:98:23:a7:2a:ae:c1:aa:22:f8:87:da:b7:
                    9c:a4:cf
                Exponent: 65537 (0x10001)
        X509v3 extensions:
            X509v3 Subject Key Identifier: 
                9D:8F:84:76:94:CD:07:FE:A3:E8:8B:D7:F9:D9:6E:EF:CA:75:51:7B
            X509v3 Authority Key Identifier: 
                keyid:9D:8F:84:76:94:CD:07:FE:A3:E8:8B:D7:F9:D9:6E:EF:CA:75:51:7B
                DirName:/C=BE/CN=txjsonrpc-test-ca
                serial:8D:D2:AF:37:F9:CA:92:0B

            X509v3 Basic Constraints: critical
                CA:TRUE
            Netscape Cert Type: 
                SSL CA, S/MIME CA
            X509v3 Issuer Alternative Name: 
                <EMPTY>

            Netscape Comment: 
                Test CA for txjsonrcp
            X509v3 Subject Alternative Name: 
                <EMPTY>

            X509v3 Key Usage: critical
                Certificate Sign, CRL Sign
    Signature Algorithm: sha1WithRSAEncryption
         06:82:86:81:a9:1b:7e:2d:ef:f5:fc:cc:d2:9d:d6:82:ad:d0:
         6f:7e:3d:b9:5c:b2:0f:3a:64:21:9a:fb:53:b2:93:81:dc:1a:
         24:fc:b8:30:57:a2:c7:71:0d:9c:1a:0b:8a:6c:89:52:8b:8a:
         f5:af:95:3e:b8:08:39:ee:36:50:ac:60:4d:df:2b:49:a2:72:
         f1:3f:12:3c:d9:55:56:a4:9a:77:2b:77:fa:16:b5:76:d9:f4:
         c4:51:6b:b9:fe:2f:a3:52:e8:64:80:49:22:6d:05:42:87:af:
         9d:85:6c:fa:c9:9b:48:39:7b:89:f5:a0:1e:ff:11:d3:9c:78:
         b1:b2:f6:4d:b1:e8:b3:98:23:2c:d4:20:e1:a1:01:3e:26:0a:
         5b:8e:eb:58:45:22:cf:e1:94:ad:84:40:b0:fb:ff:25:5f:31:
         9a:49:0b:36:ad:c6:1a:b0:42:60:40:e2:a2:3c:5a:36:41:89:
         fc:10:c4:60:ea:d4:85:7b:36:84:df:aa:81:cc:69:e7:52:ca:
         c1:46:b1:79:93:51:4f:24:84:42:14:3a:20:a0:6c:27:76:40:
         0f:96:7e:4e:c3:0c:37:b3:e3:73:49:86:58:31:00:1e:e7:0f:
         87:74:b6:4e:6e:1c:7d:87:a4:33:04:c9:76:ec:e5:3a:85:5f:
         a8:d1:ad:21:64:5e:c5:6a:df:b1:02:6e:65:a4:87:72:06:07:
         da:e5:f2:af:2b:a5:eb:18:80:67:83:a5:3c:e6:ed:d1:58:f9:
         90:5c:d6:e9:2f:76:c1:58:13:b8:bd:88:8a:f3:04:48:bb:42:
         8f:7f:c6:db:b4:30:3f:bb:6c:d5:47:e5:ae:8d:4b:da:92:a5:
         db:d3:6e:a8:9b:c2:6b:56:af:34:63:82:e6:78:f8:1f:54:d7:
         41:aa:a3:c9:7c:a6:83:41:bf:6e:33:7c:ae:e6:92:bd:da:27:
         b4:bc:e2:90:4f:33:1b:01:a1:cd:02:13:7a:31:ef:00:d6:9a:
         6e:38:6b:a7:cb:70:98:a8:0f:ff:1c:56:a8:b7:e6:d2:42:5a:
         bb:f4:78:27:71:13:d0:e8:43:eb:bc:2d:4f:e4:ea:4d:4f:76:
         7f:53:38:34:eb:13:e2:3d:c6:14:98:86:1c:ab:2c:0e:b7:68:
         2e:bd:63:a9:6a:8f:d5:22:2d:ab:13:d7:62:54:51:ff:5c:37:
         08:04:27:da:f9:57:77:05:18:73:88:5f:b0:c1:65:50:36:09:
         d6:c7:f5:ae:6e:3f:04:d1:84:3c:21:74:1d:bd:0a:fb:76:d0:
         13:2b:62:bb:24:48:43:89:d0:18:5c:b4:ad:ea:98:af:6d:fc:
         1c:6b:1f:06:64:54:23:88
-----BEGIN CERTIFICATE-----
MIIFwzCCA6ugAwIBAgIJAI3Srzf5ypILMA0GCSqGSIb3DQEBBQUAMCkxCzAJBgNV
BAYTAkJFMRowGAYDVQQDExF0eGpzb25ycGMtdGVzdC1jYTAeFw0xMjA2MjMxNTQ2
MzdaFw0yMjA2MjExNTQ2MzdaMCkxCzAJBgNVBAYTAkJFMRowGAYDVQQDExF0eGpz
b25ycGMtdGVzdC1jYTCCAiIwDQYJKoZIhvcNAQEBBQADggIPADCCAgoCggIBANEl
r3fFqHLPkLk5EPt7dSyh2mqV5UQM1iVLWH+7B4JZSVgyhSTMPnfb4adPyLXL7kU4
vbz743Y7iATKqzqjljtfk5wopmGX3KI/oJMrVmzP009qngXTHM3vdYAamLeSSRQz
uMR8c4x+g6WBolmMi6NRNm1orPLx7W9J2a96Y8FDMUK2x825eLczmHCSbJ4Eenvw
bTiH6wATF7nZ7LRmu1HT/YHjDohxI9KAKmHeqyUCR6nBa8lprtpHtkl0rKbhwXa6
bbHZaG4cN6jiGGA3tlgTbMeSfMZFjO/DgXMQ3C8x4rkFWp4ocFo+HbhocYHJ6P4f
w6AT+OQkErqRjhXSA/GMsKriNORr+Ab2I4qSQ6YF3OnHpagG126RUnJHq66H/rMP
BIdvSyIp6akGUlh9AxbX1TFEtPFRRKcqul4JGexMouBY/g1Ot5BNAqwqrZkUZTsK
PHNFVrIPECUkUXlXGjQaEG9g4PyB28rC4oUbTHITXJ12zNAhMzFWgo/FV7lE/Yt2
wbbkIYs1mu5UdJ9yaxmE16I8pW4RCvGTBC7dfEx9YhDUG4uH9u2/ErGL8Jp67gKU
4TxGK3+cVPsuYckc7/zeJbwtdRsfSV5EOxWTrcSJ2a482lTv2a86FsuUG2oU5EL5
dTNGbvtAvPiCNs9g9cKimCOnKq7BqiL4h9q3nKTPAgMBAAGjge0wgeowHQYDVR0O
BBYEFJ2PhHaUzQf+o+iL1/nZbu/KdVF7MFkGA1UdIwRSMFCAFJ2PhHaUzQf+o+iL
1/nZbu/KdVF7oS2kKzApMQswCQYDVQQGEwJCRTEaMBgGA1UEAxMRdHhqc29ucnBj
LXRlc3QtY2GCCQCN0q83+cqSCzAPBgNVHRMBAf8EBTADAQH/MBEGCWCGSAGG+EIB
AQQEAwIBBjAJBgNVHRIEAjAAMCQGCWCGSAGG+EIBDQQXFhVUZXN0IENBIGZvciB0
eGpzb25yY3AwCQYDVR0RBAIwADAOBgNVHQ8BAf8EBAMCAQYwDQYJKoZIhvcNAQEF
BQADggIBAAaChoGpG34t7/X8zNKd1oKt0G9+Pblcsg86ZCGa+1Oyk4HcGiT8uDBX
osdxDZwaC4psiVKLivWvlT64CDnuNlCsYE3fK0micvE/EjzZVVakmncrd/oWtXbZ
9MRRa7n+L6NS6GSASSJtBUKHr52FbPrJm0g5e4n1oB7/EdOceLGy9k2x6LOYIyzU
IOGhAT4mCluO61hFIs/hlK2EQLD7/yVfMZpJCzatxhqwQmBA4qI8WjZBifwQxGDq
1IV7NoTfqoHMaedSysFGsXmTUU8khEIUOiCgbCd2QA+Wfk7DDDez43NJhlgxAB7n
D4d0tk5uHH2HpDMEyXbs5TqFX6jRrSFkXsVq37ECbmWkh3IGB9rl8q8rpesYgGeD
pTzm7dFY+ZBc1ukvdsFYE7i9iIrzBEi7Qo9/xtu0MD+7bNVH5a6NS9qSpdvTbqib
wmtWrzRjguZ4+B9U10Gqo8l8poNBv24zfK7mkr3aJ7S84pBPMxsBoc0CE3ox7wDW
mm44a6fLcJioD/8cVqi35tJCWrv0eCdxE9DoQ+u8LU/k6k1Pdn9TODTrE+I9xhSY
hhyrLA63aC69Y6lqj9UiLasT12JUUf9cNwgEJ9r5V3cFGHOIX7DBZVA2CdbH9a5u
PwTRhDwhdB29Cvt20BMrYrskSEOJ0BhctK3qmK9t/BxrHwZkVCOI
-----END CERTIFICATE-----
