Certificate:
    Data:
        Version: 4 (0x3)
        Serial Number: 1 (0x1)
    Signature Algorithm: sha1WithRSAEncryption
        Issuer: CN=ca-none, C=BE, O=Gremwell bvba
        Validity
            Not Before: Jan  1 00:00:00 1970 GMT
            Not After : Jan 19 03:14:07 2038 GMT
        Subject: CN=txjsonrpc-pyserver, C=BE, O=Gremwell bvba
        Subject Public Key Info:
            Public Key Algorithm: rsaEncryption
                Public-Key: (1024 bit)
                Modulus:
                    00:af:d3:0a:00:aa:ff:10:2f:96:90:1e:3e:b3:a5:
                    96:7a:8b:dd:73:cb:9a:8e:c6:bb:49:66:25:9e:e2:
                    b5:b5:a9:b0:34:01:69:c1:d9:35:0c:7e:1c:8d:08:
                    6b:bf:5a:a2:6e:b5:c7:d8:3a:c7:81:25:30:5a:fc:
                    3a:80:8f:82:25:ad:ee:4e:1d:32:c0:68:13:0e:65:
                    b4:85:d0:b8:45:37:d7:96:4e:e7:2d:4d:c9:8b:16:
                    11:a1:48:61:1b:4f:07:77:93:c8:7c:69:fc:68:dd:
                    1f:47:00:4c:7b:7b:c1:1c:7f:e8:c9:50:b0:ef:ed:
                    8b:a2:9c:fe:ea:cb:7a:62:43
                Exponent: 65537 (0x10001)
    Signature Algorithm: sha1WithRSAEncryption
         25:6a:ad:72:91:98:72:98:6b:39:42:75:c0:09:f6:9e:4f:fb:
         f4:5b:62:e6:b1:af:51:4d:92:40:1e:e8:71:b5:62:e3:59:f3:
         c8:29:3a:17:c2:5f:ae:0b:bd:ef:56:68:21:10:62:f7:a3:ee:
         7a:a0:84:73:4f:f9:94:c7:ec:cd:eb:b4:ce:ca:92:75:68:59:
         48:b9:8f:5f:56:e7:b4:e6:4b:c1:43:59:24:c2:9d:f5:da:90:
         44:0f:e6:5f:a6:6c:0a:a6:15:46:fe:16:92:ef:6d:2a:20:3b:
         b0:66:1d:b9:4f:a9:a0:23:f1:53:73:8f:35:10:f9:67:80:78:
         21:c9
-----BEGIN CERTIFICATE-----
MIIB7TCCAVagAwIBAwIBATANBgkqhkiG9w0BAQUFADA3MRAwDgYDVQQDEwdjYS1u
b25lMQswCQYDVQQGEwJCRTEWMBQGA1UEChMNR3JlbXdlbGwgYnZiYTAeFw03MDAx
MDEwMDAwMDBaFw0zODAxMTkwMzE0MDdaMEIxGzAZBgNVBAMTEnR4anNvbnJwYy1w
eXNlcnZlcjELMAkGA1UEBhMCQkUxFjAUBgNVBAoTDUdyZW13ZWxsIGJ2YmEwgZ8w
DQYJKoZIhvcNAQEBBQADgY0AMIGJAoGBAK/TCgCq/xAvlpAePrOllnqL3XPLmo7G
u0lmJZ7itbWpsDQBacHZNQx+HI0Ia79aom61x9g6x4ElMFr8OoCPgiWt7k4dMsBo
Ew5ltIXQuEU315ZO5y1NyYsWEaFIYRtPB3eTyHxp/GjdH0cATHt7wRx/6MlQsO/t
i6Kc/urLemJDAgMBAAEwDQYJKoZIhvcNAQEFBQADgYEAJWqtcpGYcphrOUJ1wAn2
nk/79Fti5rGvUU2SQB7ocbVi41nzyCk6F8Jfrgu971ZoIRBi96PueqCEc0/5lMfs
zeu0zsqSdWhZSLmPX1bntOZLwUNZJMKd9dqQRA/mX6ZsCqYVRv4Wku9tKiA7sGYd
uU+poCPxU3OPNRD5Z4B4Ick=
-----END CERTIFICATE-----
Certificate:
    Data:
        Version: 4 (0x3)
        Serial Number: 1 (0x1)
    Signature Algorithm: sha1WithRSAEncryption
        Issuer: C=BE, CN=txjsonrpc-test-ca
        Validity
            Not Before: Jan  1 00:00:00 1970 GMT
            Not After : Jan 19 03:14:07 2038 GMT
        Subject: CN=ca-none, C=BE, O=Gremwell bvba
        Subject Public Key Info:
            Public Key Algorithm: rsaEncryption
                Public-Key: (1024 bit)
                Modulus:
                    00:ca:12:71:e1:00:98:e5:21:7a:dd:f9:7a:71:1e:
                    5e:02:0d:04:e2:56:20:09:6c:57:d1:c1:ac:a3:ca:
                    0d:06:14:97:c9:3c:58:95:3e:36:4c:9d:81:43:66:
                    04:a2:76:76:4f:d5:95:d2:74:2e:8f:1b:c5:8a:9a:
                    5e:43:f2:1b:dd:17:a2:30:4d:10:7d:a3:3e:c8:b1:
                    83:66:36:16:1d:5c:c4:56:ec:e4:53:b8:df:f8:f1:
                    f8:9e:96:01:49:18:34:51:b5:04:56:61:22:f7:8d:
                    3b:b2:25:a8:b5:24:9f:54:03:09:6c:80:4b:85:14:
                    f2:94:76:1a:f9:6d:38:c1:3f
                Exponent: 65537 (0x10001)
    Signature Algorithm: sha1WithRSAEncryption
         92:24:36:6e:ee:0c:f0:e3:b2:1b:25:21:90:48:a6:1d:c3:fa:
         e3:1f:68:d0:84:b0:86:5f:17:fc:6d:cf:1d:9e:59:6a:3b:b4:
         8b:d2:02:57:76:18:d0:5d:7f:7c:94:e5:47:c7:51:3b:04:65:
         35:a9:29:db:b6:0c:4f:24:62:9a:e5:e4:84:00:7b:e7:dd:93:
         9a:7d:98:64:7a:83:74:8b:05:b6:91:46:71:62:ac:c2:3c:6c:
         1e:99:06:4a:52:6a:d0:ed:02:e7:80:f7:48:cd:33:8d:56:7d:
         84:60:53:84:45:3d:4d:f3:fe:75:f8:45:c7:ac:68:56:02:b1:
         74:1a:36:68:5b:9a:3f:25:3e:77:94:fd:ee:cb:ba:4e:48:40:
         82:9e:05:f5:dc:a0:65:c5:d3:d0:2c:bd:19:b2:44:e9:5d:c4:
         88:a6:28:54:ef:0f:95:5a:3b:82:3f:da:75:ee:e8:22:db:6e:
         ce:01:c2:bb:c7:98:bd:6f:de:c5:fd:dc:57:e2:21:13:3f:1e:
         71:51:fe:c4:5d:6d:b9:b6:df:60:87:40:34:3d:f9:70:6d:dc:
         62:18:9d:62:2e:73:fa:d1:49:63:ce:90:0c:38:12:70:ca:5d:
         7f:60:85:12:54:52:b5:5f:2e:2f:cc:a8:19:62:7b:bc:12:f1:
         02:19:1f:9b:f2:73:b9:f3:13:29:7f:14:8f:04:0c:bc:ca:02:
         05:0c:bf:07:19:6f:e5:71:29:6d:a4:88:50:e3:ad:e2:42:20:
         09:e0:58:fb:d8:ac:59:0e:da:6d:28:2b:81:1f:25:5a:09:2b:
         7e:93:35:35:99:14:70:1c:4c:e7:c6:d3:e8:d6:f4:33:76:f7:
         53:ff:d5:c4:67:57:05:c9:74:1c:9f:4e:cb:b5:15:1c:81:95:
         92:e2:e4:d4:3c:03:07:72:1b:9a:e1:91:8d:e3:3b:5a:c1:77:
         4d:4b:2a:58:ac:77:7b:05:82:ea:2e:d7:f8:52:98:d8:62:fc:
         16:ef:74:10:22:3f:7d:f3:ee:1c:fa:9f:f5:b3:5c:fc:b1:ab:
         3d:b1:5d:ce:c3:1d:e0:54:f7:f2:81:d8:2c:bf:19:2f:d4:e7:
         94:eb:40:4b:e6:3c:ad:fb:b3:2c:9e:3c:cc:cd:bd:1f:0d:b0:
         73:be:93:f3:17:77:f4:84:2a:4b:27:31:62:2b:b8:03:65:66:
         9c:d2:d8:f9:46:fb:3d:59:c5:46:0a:af:51:fa:4a:45:f5:ed:
         00:47:9c:24:d7:db:45:0f:14:5d:e6:c7:b3:77:d3:9b:c0:86:
         36:f2:6f:cf:3f:27:fa:ad:f1:23:51:fc:69:40:e4:02:21:da:
         ce:e2:5c:2f:14:1a:68:00
-----BEGIN CERTIFICATE-----
MIIDVTCCAT2gAwIBAwIBATANBgkqhkiG9w0BAQUFADApMQswCQYDVQQGEwJCRTEa
MBgGA1UEAxMRdHhqc29ucnBjLXRlc3QtY2EwHhcNNzAwMTAxMDAwMDAwWhcNMzgw
MTE5MDMxNDA3WjA3MRAwDgYDVQQDEwdjYS1ub25lMQswCQYDVQQGEwJCRTEWMBQG
A1UEChMNR3JlbXdlbGwgYnZiYTCBnzANBgkqhkiG9w0BAQEFAAOBjQAwgYkCgYEA
yhJx4QCY5SF63fl6cR5eAg0E4lYgCWxX0cGso8oNBhSXyTxYlT42TJ2BQ2YEonZ2
T9WV0nQujxvFippeQ/Ib3ReiME0QfaM+yLGDZjYWHVzEVuzkU7jf+PH4npYBSRg0
UbUEVmEi9407siWotSSfVAMJbIBLhRTylHYa+W04wT8CAwEAATANBgkqhkiG9w0B
AQUFAAOCAgEAkiQ2bu4M8OOyGyUhkEimHcP64x9o0ISwhl8X/G3PHZ5Zaju0i9IC
V3YY0F1/fJTlR8dROwRlNakp27YMTyRimuXkhAB7592Tmn2YZHqDdIsFtpFGcWKs
wjxsHpkGSlJq0O0C54D3SM0zjVZ9hGBThEU9TfP+dfhFx6xoVgKxdBo2aFuaPyU+
d5T97su6TkhAgp4F9dygZcXT0Cy9GbJE6V3EiKYoVO8PlVo7gj/ade7oIttuzgHC
u8eYvW/exf3cV+IhEz8ecVH+xF1tubbfYIdAND35cG3cYhidYi5z+tFJY86QDDgS
cMpdf2CFElRStV8uL8yoGWJ7vBLxAhkfm/JzufMTKX8UjwQMvMoCBQy/Bxlv5XEp
baSIUOOt4kIgCeBY+9isWQ7abSgrgR8lWgkrfpM1NZkUcBxM58bT6Nb0M3b3U//V
xGdXBcl0HJ9Oy7UVHIGVkuLk1DwDB3IbmuGRjeM7WsF3TUsqWKx3ewWC6i7X+FKY
2GL8Fu90ECI/ffPuHPqf9bNc/LGrPbFdzsMd4FT38oHYLL8ZL9TnlOtAS+Y8rfuz
LJ48zM29Hw2wc76T8xd39IQqSycxYiu4A2VmnNLY+Ub7PVnFRgqvUfpKRfXtAEec
JNfbRQ8UXebHs3fTm8CGNvJvzz8n+q3xI1H8aUDkAiHazuJcLxQaaAA=
-----END CERTIFICATE-----
