Certificate:
    Data:
        Version: 3 (0x2)
        Serial Number: 1 (0x1)
    Signature Algorithm: sha1WithRSAEncryption
        Issuer: C=BE, CN=txjsonrpc-pyserver
        Validity
            Not Before: Jun 23 15:47:38 2012 GMT
            Not After : Jun 23 15:47:38 2013 GMT
        Subject: C=BE, CN=txjsonrpc-pyserver
        Subject Public Key Info:
            Public Key Algorithm: rsaEncryption
                Public-Key: (4096 bit)
                Modulus:
                    00:ce:7c:0c:28:a5:3d:7a:2b:12:38:7d:e6:f6:82:
                    70:af:b0:c3:ff:75:9a:98:a7:d2:b3:75:9c:c1:b4:
                    09:1b:a3:cf:b6:b5:14:0f:c1:e4:c0:43:3e:6a:5b:
                    df:08:b7:17:70:d4:e4:a8:11:b9:dd:6e:c1:f9:22:
                    28:a2:69:bb:a9:b5:ee:91:d9:03:b7:2c:d5:41:cf:
                    7b:d8:22:a6:bb:fa:c5:cd:1d:d9:a7:04:2e:70:a7:
                    15:df:80:fc:28:db:90:6c:be:78:4d:33:89:60:92:
                    2d:64:32:09:f4:d2:f0:c1:a7:ff:19:73:85:51:ad:
                    99:4f:de:70:fb:ba:1d:79:b0:e5:52:fd:83:95:ff:
                    d6:81:65:91:b8:bb:be:ab:7e:e2:62:c6:1c:e5:5a:
                    b0:79:ce:da:f8:7e:46:88:87:d4:c5:2b:03:5b:88:
                    fd:8b:89:8e:92:97:f0:cc:04:c0:8d:1c:d0:37:6b:
                    1d:f3:6e:96:7f:65:22:64:d1:14:65:9d:37:bb:2f:
                    bf:7b:fa:8f:b5:16:20:28:86:6c:1d:72:e7:1b:0a:
                    23:16:8d:28:20:09:39:4e:35:69:24:a6:c0:56:26:
                    00:56:0a:69:c8:b5:10:86:12:60:64:91:9a:00:7e:
                    c8:41:62:f9:a5:17:13:79:e1:d3:f2:bd:46:6f:b9:
                    4c:be:89:c7:6b:52:ef:e9:e1:03:3c:44:e1:af:c0:
                    e1:6c:a7:47:eb:d8:47:35:f4:d1:44:04:68:47:c4:
                    f2:2e:95:cd:1f:7a:da:68:8e:1c:84:7d:51:58:c2:
                    2d:0d:1e:4e:09:ff:be:6c:0e:35:72:9e:ab:1c:0d:
                    94:a2:0c:d2:5b:c6:c7:8b:84:b3:7d:37:9f:60:36:
                    a7:8e:9c:61:92:1b:75:5e:e1:d0:b6:c3:89:45:40:
                    a5:56:1c:66:37:49:36:c5:f2:08:50:9c:4c:fb:a1:
                    91:c5:3f:e1:d2:19:9e:48:f7:e3:19:0f:40:49:e3:
                    13:e4:97:3e:04:f9:0c:bd:61:71:21:13:20:f6:99:
                    6f:e3:bd:b6:88:80:05:fe:d7:38:a7:61:0d:d7:c4:
                    47:85:e9:bd:48:93:fd:6c:6f:8d:60:f1:fc:b2:42:
                    d2:bb:aa:1c:0c:f3:90:62:07:09:03:ba:ab:bb:38:
                    55:09:c4:74:93:27:b5:b5:cd:00:bb:12:9b:55:4f:
                    1b:67:a9:9b:29:46:22:7f:0c:4b:1b:a6:ad:14:09:
                    96:29:c8:2c:43:a4:0f:cd:29:73:f8:8d:27:d3:5e:
                    56:51:63:2e:66:77:bc:58:66:32:a2:b8:6c:c7:80:
                    bf:64:1e:c7:05:6e:36:9d:6d:84:1f:cf:07:74:c8:
                    d2:72:b7
                Exponent: 65537 (0x10001)
        X509v3 extensions:
            X509v3 Basic Constraints: 
                CA:FALSE
            Netscape Cert Type: 
                SSL Server
            Netscape Comment: 
                TinyCA Generated Certificate
            X509v3 Subject Key Identifier: 
                26:8C:A5:F9:A6:4A:FE:4C:E8:0F:04:33:7E:04:26:28:BF:4C:92:F3
            X509v3 Authority Key Identifier: 
                keyid:9D:8F:84:76:94:CD:07:FE:A3:E8:8B:D7:F9:D9:6E:EF:CA:75:51:7B
                DirName:/C=BE/CN=txjsonrpc-test-ca
                serial:8D:D2:AF:37:F9:CA:92:0B

            X509v3 Issuer Alternative Name: 
                <EMPTY>

            X509v3 Subject Alternative Name: 
                <EMPTY>

    Signature Algorithm: sha1WithRSAEncryption
         c2:11:5d:d8:5f:37:c7:4e:6b:79:31:00:b2:52:8d:21:e6:03:
         5f:2f:48:6d:9c:e1:00:df:d0:b1:b4:84:7f:1c:03:7b:93:cd:
         91:49:da:15:39:55:d8:34:cb:ff:b0:93:f1:f2:36:c1:27:c3:
         9f:15:a3:90:4a:d4:ad:47:7d:5a:eb:7b:1e:1b:10:65:45:77:
         d2:15:12:c7:0d:49:02:12:d3:56:ab:4d:7c:87:a7:37:f4:ee:
         5e:6e:31:9d:74:7d:ef:76:f9:18:bc:26:27:6e:5a:46:f2:38:
         fd:34:6e:6b:58:35:14:80:67:af:73:be:89:bd:28:7e:cf:fb:
         33:eb:46:e0:a9:a0:3d:82:cf:f3:91:58:b9:89:90:7d:7f:af:
         7e:0c:e9:fd:f7:e1:15:4d:f8:8f:ec:b8:aa:a4:d3:79:d3:c9:
         66:77:25:78:b9:fa:7a:2d:6f:97:87:a4:98:25:9c:15:14:b8:
         f9:ce:1c:1d:75:e1:8c:97:39:1e:65:82:31:5c:ad:64:a9:30:
         0a:f9:51:11:67:b7:ba:4a:ab:ef:c8:bc:84:eb:d5:7d:3b:49:
         e7:07:51:85:e7:e0:74:d8:e4:1b:9e:20:42:f2:f3:81:d8:38:
         f2:01:56:50:cd:b0:fd:da:ea:e7:a0:61:a9:50:96:e2:8a:1e:
         f8:77:54:0a:75:3c:e4:7a:58:e3:06:6c:07:c2:ec:4c:98:d7:
         94:99:77:77:cf:a7:79:20:35:dd:8d:fc:cb:77:98:3d:ce:91:
         33:b7:24:af:84:eb:9e:99:09:31:37:7b:cc:a8:08:2b:2b:37:
         78:73:c8:c1:37:c2:d0:2e:a5:0c:60:51:b5:d1:01:a8:c5:7f:
         e3:05:85:1b:5c:87:7f:f6:cd:d0:b1:d3:29:d3:18:ee:be:3a:
         67:f3:ac:1b:18:c0:8b:4d:57:65:2b:25:0d:e0:0f:3d:8b:23:
         16:d7:95:16:e5:fb:13:a3:7d:6a:62:3e:a9:ba:e9:31:69:64:
         1e:c4:e4:c1:8c:0a:f3:49:90:b9:57:5c:71:3c:23:fe:c2:f7:
         f6:f7:cd:66:33:c6:c7:bb:73:ad:00:86:12:e2:3b:2c:43:03:
         15:0f:f1:08:1b:05:50:0e:aa:4e:26:5a:49:97:70:7f:60:9e:
         a1:cf:80:c5:44:72:59:3d:e1:82:6c:31:85:b2:29:a1:10:94:
         68:d6:df:80:c0:7c:69:e5:7d:25:a3:b4:ce:01:cd:a9:28:d2:
         77:30:f4:7f:85:9f:87:53:8c:f2:cf:6c:78:b3:e3:a3:24:b1:
         fd:59:1e:64:9c:d7:c4:98:d1:c9:cc:05:cd:c8:c6:68:9f:ae:
         04:66:a0:5e:f5:ac:4e:93
-----BEGIN CERTIFICATE-----
MIIFrjCCA5agAwIBAgIBATANBgkqhkiG9w0BAQUFADAqMQswCQYDVQQGEwJCRTEb
MBkGA1UEAxMSdHhqc29ucnBjLXB5c2VydmVyMB4XDTEyMDYyMzE1NDczOFoXDTEz
MDYyMzE1NDczOFowKjELMAkGA1UEBhMCQkUxGzAZBgNVBAMTEnR4anNvbnJwYy1w
eXNlcnZlcjCCAiIwDQYJKoZIhvcNAQEBBQADggIPADCCAgoCggIBAM58DCilPXor
Ejh95vaCcK+ww/91mpin0rN1nMG0CRujz7a1FA/B5MBDPmpb3wi3F3DU5KgRud1u
wfkiKKJpu6m17pHZA7cs1UHPe9giprv6xc0d2acELnCnFd+A/CjbkGy+eE0ziWCS
LWQyCfTS8MGn/xlzhVGtmU/ecPu6HXmw5VL9g5X/1oFlkbi7vqt+4mLGHOVasHnO
2vh+RoiH1MUrA1uI/YuJjpKX8MwEwI0c0DdrHfNuln9lImTRFGWdN7svv3v6j7UW
ICiGbB1y5xsKIxaNKCAJOU41aSSmwFYmAFYKaci1EIYSYGSRmgB+yEFi+aUXE3nh
0/K9Rm+5TL6Jx2tS7+nhAzxE4a/A4WynR+vYRzX00UQEaEfE8i6VzR962miOHIR9
UVjCLQ0eTgn/vmwONXKeqxwNlKIM0lvGx4uEs303n2A2p46cYZIbdV7h0LbDiUVA
pVYcZjdJNsXyCFCcTPuhkcU/4dIZnkj34xkPQEnjE+SXPgT5DL1hcSETIPaZb+O9
toiABf7XOKdhDdfER4XpvUiT/WxvjWDx/LJC0ruqHAzzkGIHCQO6q7s4VQnEdJMn
tbXNALsSm1VPG2epmylGIn8MSxumrRQJlinILEOkD80pc/iNJ9NeVlFjLmZ3vFhm
MqK4bMeAv2QexwVuNp1thB/PB3TI0nK3AgMBAAGjgd4wgdswCQYDVR0TBAIwADAR
BglghkgBhvhCAQEEBAMCBkAwKwYJYIZIAYb4QgENBB4WHFRpbnlDQSBHZW5lcmF0
ZWQgQ2VydGlmaWNhdGUwHQYDVR0OBBYEFCaMpfmmSv5M6A8EM34EJii/TJLzMFkG
A1UdIwRSMFCAFJ2PhHaUzQf+o+iL1/nZbu/KdVF7oS2kKzApMQswCQYDVQQGEwJC
RTEaMBgGA1UEAxMRdHhqc29ucnBjLXRlc3QtY2GCCQCN0q83+cqSCzAJBgNVHRIE
AjAAMAkGA1UdEQQCMAAwDQYJKoZIhvcNAQEFBQADggIBAMIRXdhfN8dOa3kxALJS
jSHmA18vSG2c4QDf0LG0hH8cA3uTzZFJ2hU5Vdg0y/+wk/HyNsEnw58Vo5BK1K1H
fVrrex4bEGVFd9IVEscNSQIS01arTXyHpzf07l5uMZ10fe92+Ri8JiduWkbyOP00
bmtYNRSAZ69zvom9KH7P+zPrRuCpoD2Cz/ORWLmJkH1/r34M6f334RVN+I/suKqk
03nTyWZ3JXi5+notb5eHpJglnBUUuPnOHB114YyXOR5lgjFcrWSpMAr5URFnt7pK
q+/IvITr1X07SecHUYXn4HTY5BueIELy84HYOPIBVlDNsP3a6uegYalQluKKHvh3
VAp1POR6WOMGbAfC7EyY15SZd3fPp3kgNd2N/Mt3mD3OkTO3JK+E656ZCTE3e8yo
CCsrN3hzyME3wtAupQxgUbXRAajFf+MFhRtch3/2zdCx0ynTGO6+OmfzrBsYwItN
V2UrJQ3gDz2LIxbXlRbl+xOjfWpiPqm66TFpZB7E5MGMCvNJkLlXXHE8I/7C9/b3
zWYzxse7c60AhhLiOyxDAxUP8QgbBVAOqk4mWkmXcH9gnqHPgMVEclk94YJsMYWy
KaEQlGjW34DAfGnlfSWjtM4Bzako0ncw9H+Fn4dTjPLPbHiz46Mksf1ZHmSc18SY
0cnMBc3IxmifrgRmoF71rE6T
-----END CERTIFICATE-----
