Certificate:
    Data:
        Version: 3 (0x2)
        Serial Number: 1 (0x1)
    Signature Algorithm: sha1WithRSAEncryption
        Issuer: CN=ca-true, C=BE, O=Gremwell bvba
        Validity
            Not Before: Jun 23 15:47:38 2012 GMT
            Not After : Jun 23 15:47:38 2013 GMT
        Subject: C=BE, CN=txjsonrpc-pyserver
        Subject Public Key Info:
            Public Key Algorithm: rsaEncryption
                Public-Key: (4096 bit)
                Modulus:
                    00:ce:7c:0c:28:a5:3d:7a:2b:12:38:7d:e6:f6:82:
                    70:af:b0:c3:ff:75:9a:98:a7:d2:b3:75:9c:c1:b4:
                    09:1b:a3:cf:b6:b5:14:0f:c1:e4:c0:43:3e:6a:5b:
                    df:08:b7:17:70:d4:e4:a8:11:b9:dd:6e:c1:f9:22:
                    28:a2:69:bb:a9:b5:ee:91:d9:03:b7:2c:d5:41:cf:
                    7b:d8:22:a6:bb:fa:c5:cd:1d:d9:a7:04:2e:70:a7:
                    15:df:80:fc:28:db:90:6c:be:78:4d:33:89:60:92:
                    2d:64:32:09:f4:d2:f0:c1:a7:ff:19:73:85:51:ad:
                    99:4f:de:70:fb:ba:1d:79:b0:e5:52:fd:83:95:ff:
                    d6:81:65:91:b8:bb:be:ab:7e:e2:62:c6:1c:e5:5a:
                    b0:79:ce:da:f8:7e:46:88:87:d4:c5:2b:03:5b:88:
                    fd:8b:89:8e:92:97:f0:cc:04:c0:8d:1c:d0:37:6b:
                    1d:f3:6e:96:7f:65:22:64:d1:14:65:9d:37:bb:2f:
                    bf:7b:fa:8f:b5:16:20:28:86:6c:1d:72:e7:1b:0a:
                    23:16:8d:28:20:09:39:4e:35:69:24:a6:c0:56:26:
                    00:56:0a:69:c8:b5:10:86:12:60:64:91:9a:00:7e:
                    c8:41:62:f9:a5:17:13:79:e1:d3:f2:bd:46:6f:b9:
                    4c:be:89:c7:6b:52:ef:e9:e1:03:3c:44:e1:af:c0:
                    e1:6c:a7:47:eb:d8:47:35:f4:d1:44:04:68:47:c4:
                    f2:2e:95:cd:1f:7a:da:68:8e:1c:84:7d:51:58:c2:
                    2d:0d:1e:4e:09:ff:be:6c:0e:35:72:9e:ab:1c:0d:
                    94:a2:0c:d2:5b:c6:c7:8b:84:b3:7d:37:9f:60:36:
                    a7:8e:9c:61:92:1b:75:5e:e1:d0:b6:c3:89:45:40:
                    a5:56:1c:66:37:49:36:c5:f2:08:50:9c:4c:fb:a1:
                    91:c5:3f:e1:d2:19:9e:48:f7:e3:19:0f:40:49:e3:
                    13:e4:97:3e:04:f9:0c:bd:61:71:21:13:20:f6:99:
                    6f:e3:bd:b6:88:80:05:fe:d7:38:a7:61:0d:d7:c4:
                    47:85:e9:bd:48:93:fd:6c:6f:8d:60:f1:fc:b2:42:
                    d2:bb:aa:1c:0c:f3:90:62:07:09:03:ba:ab:bb:38:
                    55:09:c4:74:93:27:b5:b5:cd:00:bb:12:9b:55:4f:
                    1b:67:a9:9b:29:46:22:7f:0c:4b:1b:a6:ad:14:09:
                    96:29:c8:2c:43:a4:0f:cd:29:73:f8:8d:27:d3:5e:
                    56:51:63:2e:66:77:bc:58:66:32:a2:b8:6c:c7:80:
                    bf:64:1e:c7:05:6e:36:9d:6d:84:1f:cf:07:74:c8:
                    d2:72:b7
                Exponent: 65537 (0x10001)
        X509v3 extensions:
            X509v3 Basic Constraints: 
                CA:FALSE
            Netscape Cert Type: 
                SSL Server
            Netscape Comment: 
                TinyCA Generated Certificate
            X509v3 Subject Key Identifier: 
                26:8C:A5:F9:A6:4A:FE:4C:E8:0F:04:33:7E:04:26:28:BF:4C:92:F3
            X509v3 Authority Key Identifier: 
                keyid:9D:8F:84:76:94:CD:07:FE:A3:E8:8B:D7:F9:D9:6E:EF:CA:75:51:7B
                DirName:/C=BE/CN=txjsonrpc-test-ca
                serial:8D:D2:AF:37:F9:CA:92:0B

            X509v3 Issuer Alternative Name: 
                <EMPTY>

            X509v3 Subject Alternative Name: 
                <EMPTY>

    Signature Algorithm: sha1WithRSAEncryption
         a8:8f:01:22:43:af:f5:80:c9:89:bf:5d:a6:e7:7d:c9:6d:ce:
         99:05:96:59:57:cc:e4:02:6d:53:e4:7b:d2:58:d3:4b:9b:eb:
         44:2f:bf:c6:c7:8c:12:50:51:69:16:28:20:93:da:82:6f:80:
         62:88:32:f1:01:83:7d:b2:f4:f2:bc:95:1f:1e:a3:7b:bd:8e:
         a5:3a:a2:7c:b5:c7:e3:8e:d7:f9:48:2f:60:d1:d9:90:a6:8f:
         aa:1f:a8:4a:ce:de:64:df:90:10:0c:64:71:c0:bf:b0:6f:12:
         71:aa:55:1c:50:31:60:c8:b9:49:05:a1:79:55:e1:bf:78:af:
         15:fb
-----BEGIN CERTIFICATE-----
MIIEOjCCA6OgAwIBAgIBATANBgkqhkiG9w0BAQUFADA3MRAwDgYDVQQDEwdjYS10
cnVlMQswCQYDVQQGEwJCRTEWMBQGA1UEChMNR3JlbXdlbGwgYnZiYTAeFw0xMjA2
MjMxNTQ3MzhaFw0xMzA2MjMxNTQ3MzhaMCoxCzAJBgNVBAYTAkJFMRswGQYDVQQD
ExJ0eGpzb25ycGMtcHlzZXJ2ZXIwggIiMA0GCSqGSIb3DQEBAQUAA4ICDwAwggIK
AoICAQDOfAwopT16KxI4feb2gnCvsMP/dZqYp9KzdZzBtAkbo8+2tRQPweTAQz5q
W98Itxdw1OSoEbndbsH5Iiiiabupte6R2QO3LNVBz3vYIqa7+sXNHdmnBC5wpxXf
gPwo25BsvnhNM4lgki1kMgn00vDBp/8Zc4VRrZlP3nD7uh15sOVS/YOV/9aBZZG4
u76rfuJixhzlWrB5ztr4fkaIh9TFKwNbiP2LiY6Sl/DMBMCNHNA3ax3zbpZ/ZSJk
0RRlnTe7L797+o+1FiAohmwdcucbCiMWjSggCTlONWkkpsBWJgBWCmnItRCGEmBk
kZoAfshBYvmlFxN54dPyvUZvuUy+icdrUu/p4QM8ROGvwOFsp0fr2Ec19NFEBGhH
xPIulc0fetpojhyEfVFYwi0NHk4J/75sDjVynqscDZSiDNJbxseLhLN9N59gNqeO
nGGSG3Ve4dC2w4lFQKVWHGY3STbF8ghQnEz7oZHFP+HSGZ5I9+MZD0BJ4xPklz4E
+Qy9YXEhEyD2mW/jvbaIgAX+1zinYQ3XxEeF6b1Ik/1sb41g8fyyQtK7qhwM85Bi
BwkDuqu7OFUJxHSTJ7W1zQC7EptVTxtnqZspRiJ/DEsbpq0UCZYpyCxDpA/NKXP4
jSfTXlZRYy5md7xYZjKiuGzHgL9kHscFbjadbYQfzwd0yNJytwIDAQABo4HeMIHb
MAkGA1UdEwQCMAAwEQYJYIZIAYb4QgEBBAQDAgZAMCsGCWCGSAGG+EIBDQQeFhxU
aW55Q0EgR2VuZXJhdGVkIENlcnRpZmljYXRlMB0GA1UdDgQWBBQmjKX5pkr+TOgP
BDN+BCYov0yS8zBZBgNVHSMEUjBQgBSdj4R2lM0H/qPoi9f52W7vynVRe6EtpCsw
KTELMAkGA1UEBhMCQkUxGjAYBgNVBAMTEXR4anNvbnJwYy10ZXN0LWNhggkAjdKv
N/nKkgswCQYDVR0SBAIwADAJBgNVHREEAjAAMA0GCSqGSIb3DQEBBQUAA4GBAKiP
ASJDr/WAyYm/XabnfcltzpkFlllXzOQCbVPke9JY00ub60Qvv8bHjBJQUWkWKCCT
2oJvgGKIMvEBg32y9PK8lR8eo3u9jqU6ony1x+OO1/lIL2DR2ZCmj6ofqErO3mTf
kBAMZHHAv7BvEnGqVRxQMWDIuUkFoXlV4b94rxX7
-----END CERTIFICATE-----
Certificate:
    Data:
        Version: 4 (0x3)
        Serial Number: 1 (0x1)
    Signature Algorithm: sha1WithRSAEncryption
        Issuer: C=BE, CN=txjsonrpc-test-ca
        Validity
            Not Before: Jan  1 00:00:00 1970 GMT
            Not After : Jan 19 03:14:07 2038 GMT
        Subject: CN=ca-true, C=BE, O=Gremwell bvba
        Subject Public Key Info:
            Public Key Algorithm: rsaEncryption
                Public-Key: (1024 bit)
                Modulus:
                    00:de:4a:0b:4b:41:42:88:67:3e:87:1f:73:78:e0:
                    13:47:81:cf:ed:75:24:d8:f8:b8:a6:6b:d8:3e:6c:
                    2a:18:ef:3b:8b:af:d5:80:b1:88:6d:f0:b6:09:b1:
                    0f:85:dc:00:2d:9f:ea:96:70:20:e9:78:ce:ae:a8:
                    86:24:30:94:85:49:3e:b3:a7:ab:3d:72:65:d5:f3:
                    1c:6b:6a:dd:78:ce:b1:f7:0b:40:80:b9:d3:98:59:
                    cc:79:10:b7:c3:9e:eb:de:7f:20:eb:27:54:28:dc:
                    9e:d2:97:00:29:2e:9a:11:18:50:0e:f5:0e:63:b5:
                    d8:2c:ee:bd:36:7f:ba:91:4b
                Exponent: 65537 (0x10001)
        X509v3 extensions:
            X509v3 Basic Constraints: critical
                CA:TRUE
    Signature Algorithm: sha1WithRSAEncryption
         b2:9a:01:9f:3c:fa:18:c7:dd:f5:96:3a:72:60:dc:26:8a:6f:
         f9:c6:31:dc:81:86:dd:f8:fb:06:66:86:1e:2f:36:fa:87:89:
         4a:f8:6b:f4:d1:41:03:89:60:bc:d1:9b:6f:6b:9c:5e:a0:7a:
         2c:f4:9f:1f:7b:2d:f7:66:3e:83:8b:39:98:dc:02:49:7c:01:
         e3:1c:84:bf:a0:5a:52:3e:4e:4e:f3:2c:af:6a:ea:06:c4:6e:
         25:77:c4:1d:31:6b:71:34:97:35:c8:e3:c3:72:c5:da:31:b9:
         b4:ff:fc:34:36:e6:72:54:90:34:ca:60:22:e1:6a:11:44:30:
         13:b6:55:ee:6c:62:d9:f2:5f:ab:da:55:46:98:a9:35:21:c2:
         d7:68:68:00:96:e2:19:48:59:0b:e8:2d:bb:a2:e5:26:ae:2e:
         0d:a6:41:86:92:fc:09:c2:f4:8e:d6:ab:e9:7b:1a:54:68:35:
         e9:4d:35:5b:a0:8a:91:3d:ae:75:53:5a:97:37:7b:6b:9a:85:
         ec:b3:26:8f:2b:a5:e7:54:23:50:be:e2:9a:f4:79:1a:53:cb:
         f8:2d:23:b0:db:ce:1b:ba:e9:cb:6d:8a:53:90:45:ed:9f:49:
         82:f4:72:ea:f3:38:cb:37:04:e2:a3:a9:a9:d1:fb:bc:61:bd:
         30:a3:77:55:12:31:c3:b5:58:90:c0:6a:3b:d2:0b:36:75:53:
         ed:ee:01:68:cf:eb:89:c9:34:aa:52:dd:ab:02:0e:77:25:f6:
         e9:1a:e8:ce:44:c5:16:d5:53:12:a2:ab:60:67:dd:b2:d9:fc:
         fc:66:38:60:ab:82:41:51:02:51:c2:c9:48:84:97:75:7c:0d:
         d9:95:9d:3c:2c:a8:54:85:97:c3:ad:04:f6:db:1a:28:f9:9e:
         a0:6f:3f:22:e2:bf:3f:83:cf:f6:e1:e9:f3:76:df:17:91:e1:
         dd:27:7c:a7:9a:0a:25:f0:25:bb:59:b4:32:77:9d:34:74:d5:
         61:e7:4c:5a:90:2a:b1:38:2c:d4:17:7b:d4:62:f9:a5:54:aa:
         49:c9:9c:98:ca:39:29:0a:e4:2a:9b:98:f9:08:c2:85:82:b8:
         2e:2d:4b:41:d6:8e:20:56:df:77:4d:d1:59:99:6f:68:01:36:
         22:66:8b:4e:e9:1f:76:92:d7:a8:cf:60:e4:27:87:fc:9e:bd:
         1d:db:de:63:18:a1:09:38:16:91:7f:ca:ca:7d:32:04:5c:0f:
         14:8a:fd:31:bd:14:4b:58:e5:65:30:a9:c6:0b:8e:56:d4:79:
         8f:26:21:3b:05:fe:dc:93:81:71:70:3f:1b:4c:ce:f7:d5:10:
         64:6e:7f:64:2e:ac:38:79
-----BEGIN CERTIFICATE-----
MIIDajCCAVKgAwIBAwIBATANBgkqhkiG9w0BAQUFADApMQswCQYDVQQGEwJCRTEa
MBgGA1UEAxMRdHhqc29ucnBjLXRlc3QtY2EwHhcNNzAwMTAxMDAwMDAwWhcNMzgw
MTE5MDMxNDA3WjA3MRAwDgYDVQQDEwdjYS10cnVlMQswCQYDVQQGEwJCRTEWMBQG
A1UEChMNR3JlbXdlbGwgYnZiYTCBnzANBgkqhkiG9w0BAQEFAAOBjQAwgYkCgYEA
3koLS0FCiGc+hx9zeOATR4HP7XUk2Pi4pmvYPmwqGO87i6/VgLGIbfC2CbEPhdwA
LZ/qlnAg6XjOrqiGJDCUhUk+s6erPXJl1fMca2rdeM6x9wtAgLnTmFnMeRC3w57r
3n8g6ydUKNye0pcAKS6aERhQDvUOY7XYLO69Nn+6kUsCAwEAAaMTMBEwDwYDVR0T
AQH/BAUwAwEB/zANBgkqhkiG9w0BAQUFAAOCAgEAspoBnzz6GMfd9ZY6cmDcJopv
+cYx3IGG3fj7BmaGHi82+oeJSvhr9NFBA4lgvNGbb2ucXqB6LPSfH3st92Y+g4s5
mNwCSXwB4xyEv6BaUj5OTvMsr2rqBsRuJXfEHTFrcTSXNcjjw3LF2jG5tP/8NDbm
clSQNMpgIuFqEUQwE7ZV7mxi2fJfq9pVRpipNSHC12hoAJbiGUhZC+gtu6LlJq4u
DaZBhpL8CcL0jtar6XsaVGg16U01W6CKkT2udVNalzd7a5qF7LMmjyul51QjUL7i
mvR5GlPL+C0jsNvOG7rpy22KU5BF7Z9JgvRy6vM4yzcE4qOpqdH7vGG9MKN3VRIx
w7VYkMBqO9ILNnVT7e4BaM/rick0qlLdqwIOdyX26RrozkTFFtVTEqKrYGfdstn8
/GY4YKuCQVECUcLJSISXdXwN2ZWdPCyoVIWXw60E9tsaKPmeoG8/IuK/P4PP9uHp
83bfF5Hh3Sd8p5oKJfAlu1m0MnedNHTVYedMWpAqsTgs1Bd71GL5pVSqScmcmMo5
KQrkKpuY+QjChYK4Li1LQdaOIFbfd03RWZlvaAE2ImaLTukfdpLXqM9g5CeH/J69
HdveYxihCTgWkX/Kyn0yBFwPFIr9Mb0US1jlZTCpxguOVtR5jyYhOwX+3JOBcXA/
G0zO99UQZG5/ZC6sOHk=
-----END CERTIFICATE-----
