Certificate:
    Data:
        Version: 4 (0x3)
        Serial Number: 1 (0x1)
    Signature Algorithm: sha1WithRSAEncryption
        Issuer: CN=ca-none, C=BE, O=Gremwell bvba
        Validity
            Not Before: Jan  1 00:00:00 1970 GMT
            Not After : Jan 19 03:14:07 2038 GMT
        Subject: CN=www.example.com, C=BE, O=Gremwell bvba
        Subject Public Key Info:
            Public Key Algorithm: rsaEncryption
                Public-Key: (1024 bit)
                Modulus:
                    00:aa:c1:01:2e:1d:07:2f:7b:91:27:b2:c9:32:6f:
                    0e:44:16:9f:75:47:94:23:a4:82:18:d4:25:8d:8b:
                    4d:5a:f2:73:ca:0a:ec:00:66:71:ed:bb:48:63:53:
                    f5:16:83:8b:1c:09:17:68:a6:2a:5e:7f:70:9e:44:
                    98:72:70:ec:23:93:8f:c5:9d:27:28:89:33:2b:dc:
                    97:46:18:96:db:74:86:a1:36:df:d3:24:b5:18:b6:
                    be:3b:ba:ed:a8:c6:d4:60:56:2c:b2:75:5c:25:ea:
                    e2:0a:98:87:db:3d:53:9d:12:dd:28:00:83:98:5f:
                    49:10:ff:00:97:84:31:e9:ed
                Exponent: 65537 (0x10001)
    Signature Algorithm: sha1WithRSAEncryption
         25:0b:3e:19:16:eb:c5:5b:39:77:d9:84:f6:18:85:27:ec:3a:
         80:dd:ea:ec:d6:58:3f:a5:d3:a6:6c:81:e4:d5:38:85:33:13:
         92:ac:7b:f8:39:4c:d9:88:e4:7f:69:e7:54:b3:98:32:a6:4a:
         a1:e7:fc:6b:3d:7d:64:90:11:74:a4:16:95:6c:5b:59:b5:f3:
         81:64:ec:64:ed:dc:97:53:84:7f:c9:00:0a:81:07:cc:2a:8d:
         06:7e:31:2d:92:f2:f6:90:08:b0:a7:c1:f2:c6:fa:c6:4b:56:
         6b:ae:6d:33:71:92:ea:4a:91:1b:93:32:e5:3a:e4:78:ba:6a:
         e1:4b
-----BEGIN CERTIFICATE-----
MIIB6jCCAVOgAwIBAwIBATANBgkqhkiG9w0BAQUFADA3MRAwDgYDVQQDEwdjYS1u
b25lMQswCQYDVQQGEwJCRTEWMBQGA1UEChMNR3JlbXdlbGwgYnZiYTAeFw03MDAx
MDEwMDAwMDBaFw0zODAxMTkwMzE0MDdaMD8xGDAWBgNVBAMTD3d3dy5leGFtcGxl
LmNvbTELMAkGA1UEBhMCQkUxFjAUBgNVBAoTDUdyZW13ZWxsIGJ2YmEwgZ8wDQYJ
KoZIhvcNAQEBBQADgY0AMIGJAoGBAKrBAS4dBy97kSeyyTJvDkQWn3VHlCOkghjU
JY2LTVryc8oK7ABmce27SGNT9RaDixwJF2imKl5/cJ5EmHJw7COTj8WdJyiJMyvc
l0YYltt0hqE239MktRi2vju67ajG1GBWLLJ1XCXq4gqYh9s9U50S3SgAg5hfSRD/
AJeEMentAgMBAAEwDQYJKoZIhvcNAQEFBQADgYEAJQs+GRbrxVs5d9mE9hiFJ+w6
gN3q7NZYP6XTpmyB5NU4hTMTkqx7+DlM2Yjkf2nnVLOYMqZKoef8az19ZJARdKQW
lWxbWbXzgWTsZO3cl1OEf8kACoEHzCqNBn4xLZLy9pAIsKfB8sb6xktWa65tM3GS
6kqRG5My5TrkeLpq4Us=
-----END CERTIFICATE-----
Certificate:
    Data:
        Version: 4 (0x3)
        Serial Number: 1 (0x1)
    Signature Algorithm: sha1WithRSAEncryption
        Issuer: C=BE, CN=txjsonrpc-test-ca
        Validity
            Not Before: Jan  1 00:00:00 1970 GMT
            Not After : Jan 19 03:14:07 2038 GMT
        Subject: CN=ca-none, C=BE, O=Gremwell bvba
        Subject Public Key Info:
            Public Key Algorithm: rsaEncryption
                Public-Key: (1024 bit)
                Modulus:
                    00:c6:b5:d9:18:bb:22:1c:45:3f:01:bc:94:00:2a:
                    52:9b:a3:8e:75:74:c7:61:ec:90:39:76:45:82:d0:
                    2a:08:d1:60:37:1c:00:4c:cb:0d:65:67:e5:9b:4d:
                    36:96:7e:92:9c:41:1e:42:fa:8a:1e:8f:5e:12:3b:
                    1c:15:28:e5:c5:46:0f:c4:9e:b3:e1:05:b2:55:1e:
                    34:d5:b0:20:1d:f2:1f:06:dc:30:4b:a1:87:57:31:
                    a5:4d:4d:ec:cf:5a:21:c1:2c:63:e7:18:fc:e5:97:
                    e4:83:36:71:22:09:d1:b3:4a:14:84:4e:ee:24:8f:
                    2d:e4:86:eb:0b:c7:94:70:f3
                Exponent: 65537 (0x10001)
    Signature Algorithm: sha1WithRSAEncryption
         40:e1:4a:2c:65:89:7c:07:f9:b6:71:7b:fd:57:ad:9d:cf:5c:
         fd:6e:d8:fe:eb:9c:b6:59:96:73:b4:9f:eb:d0:49:fd:0b:30:
         ea:84:af:ac:05:da:37:33:a2:6b:62:12:7d:11:ad:11:59:c8:
         a7:8f:40:4b:31:b9:5c:fb:33:5c:bd:c6:da:f8:3e:4b:eb:9b:
         89:fb:9d:7f:d5:27:7c:d5:09:ba:59:5f:68:47:70:6a:bb:df:
         02:ce:75:8f:78:bc:2e:00:e7:5e:70:2f:9e:4b:3b:19:55:86:
         6f:77:25:65:86:b6:d2:5b:2e:fa:5a:e0:c2:6e:e6:e4:76:30:
         59:8c:ec:5e:5d:52:b3:02:52:de:46:9c:db:c5:72:03:a0:22:
         cd:ae:37:ec:ee:db:d7:1e:85:8c:91:1c:ac:92:ac:46:b4:13:
         3b:4d:c9:b0:60:3e:d1:24:66:e6:97:46:6b:a3:67:fb:0b:56:
         30:91:e7:17:2a:b4:26:58:08:e8:84:58:1c:75:4b:e0:d1:34:
         6e:14:a3:e9:14:4e:05:35:eb:d5:f2:5d:7a:d4:c4:08:d3:72:
         7b:5e:d8:45:6b:f0:97:3a:2b:5a:b0:59:58:e0:6e:24:60:98:
         a0:8d:f0:1d:8b:d4:57:d8:55:3a:49:65:72:cd:86:53:d7:4d:
         19:85:4a:16:f9:13:05:9f:ce:34:98:f7:9b:ce:52:82:96:9e:
         7f:4c:05:6d:11:91:54:0d:75:17:4c:16:e1:41:66:f1:02:19:
         69:74:06:4c:3b:81:d9:fe:c4:88:30:b7:a2:0f:04:52:4d:64:
         06:62:28:67:ca:ef:f1:a6:51:20:58:9b:c1:58:4f:d5:8a:98:
         6f:ba:e7:4b:d6:7e:88:c3:89:05:eb:2b:22:45:fe:c7:ec:b0:
         bb:2b:82:54:f0:5b:c1:99:49:f0:91:64:b5:e3:b8:ba:2f:17:
         82:97:0c:63:34:69:af:25:04:ce:a7:67:e6:4c:56:80:d8:f9:
         d1:c3:f6:7a:54:ad:72:91:82:7d:20:b3:88:8d:30:54:78:d3:
         a2:2b:e9:f0:6e:c8:02:e9:9f:e5:52:27:cd:ea:60:4e:ae:3d:
         3f:88:40:20:81:69:fa:03:e0:b5:50:49:de:77:d2:62:c7:8d:
         dc:d5:e9:3f:92:87:dd:da:e7:45:38:ee:62:04:f7:e6:6a:07:
         bc:94:d3:78:0a:eb:f5:76:75:7c:53:8b:80:27:81:75:19:27:
         f1:0b:06:b8:c1:46:29:21:bc:77:60:dd:d1:d2:4d:d8:a7:72:
         72:83:79:ce:e8:b8:4d:53:22:41:fb:3b:ad:4b:99:b1:01:ae:
         36:78:21:08:ef:cc:2e:0f
-----BEGIN CERTIFICATE-----
MIIDVTCCAT2gAwIBAwIBATANBgkqhkiG9w0BAQUFADApMQswCQYDVQQGEwJCRTEa
MBgGA1UEAxMRdHhqc29ucnBjLXRlc3QtY2EwHhcNNzAwMTAxMDAwMDAwWhcNMzgw
MTE5MDMxNDA3WjA3MRAwDgYDVQQDEwdjYS1ub25lMQswCQYDVQQGEwJCRTEWMBQG
A1UEChMNR3JlbXdlbGwgYnZiYTCBnzANBgkqhkiG9w0BAQEFAAOBjQAwgYkCgYEA
xrXZGLsiHEU/AbyUACpSm6OOdXTHYeyQOXZFgtAqCNFgNxwATMsNZWflm002ln6S
nEEeQvqKHo9eEjscFSjlxUYPxJ6z4QWyVR401bAgHfIfBtwwS6GHVzGlTU3sz1oh
wSxj5xj85ZfkgzZxIgnRs0oUhE7uJI8t5IbrC8eUcPMCAwEAATANBgkqhkiG9w0B
AQUFAAOCAgEAQOFKLGWJfAf5tnF7/Vetnc9c/W7Y/uuctlmWc7Sf69BJ/Qsw6oSv
rAXaNzOia2ISfRGtEVnIp49ASzG5XPszXL3G2vg+S+ubifudf9UnfNUJullfaEdw
arvfAs51j3i8LgDnXnAvnks7GVWGb3clZYa20lsu+lrgwm7m5HYwWYzsXl1SswJS
3kac28VyA6Aiza437O7b1x6FjJEcrJKsRrQTO03JsGA+0SRm5pdGa6Nn+wtWMJHn
Fyq0JlgI6IRYHHVL4NE0bhSj6RROBTXr1fJdetTECNNye17YRWvwlzorWrBZWOBu
JGCYoI3wHYvUV9hVOkllcs2GU9dNGYVKFvkTBZ/ONJj3m85Sgpaef0wFbRGRVA11
F0wW4UFm8QIZaXQGTDuB2f7EiDC3og8EUk1kBmIoZ8rv8aZRIFibwVhP1YqYb7rn
S9Z+iMOJBesrIkX+x+ywuyuCVPBbwZlJ8JFkteO4ui8XgpcMYzRpryUEzqdn5kxW
gNj50cP2elStcpGCfSCziI0wVHjToivp8G7IAumf5VInzepgTq49P4hAIIFp+gPg
tVBJ3nfSYseN3NXpP5KH3drnRTjuYgT35moHvJTTeArr9XZ1fFOLgCeBdRkn8QsG
uMFGKSG8d2Dd0dJN2KdycoN5zui4TVMiQfs7rUuZsQGuNnghCO/MLg8=
-----END CERTIFICATE-----
