Certificate:
    Data:
        Version: 4 (0x3)
        Serial Number: 1 (0x1)
    Signature Algorithm: sha1WithRSAEncryption
        Issuer: C=BE, CN=txjsonrpc-test-ca
        Validity
            Not Before: Jan  1 00:00:00 1970 GMT
            Not After : Jan 19 03:14:07 2038 GMT
        Subject: CN=ca-none, C=BE, O=Gremwell bvba
        Subject Public Key Info:
            Public Key Algorithm: rsaEncryption
                Public-Key: (1024 bit)
                Modulus:
                    00:de:f1:c9:f3:ac:33:f9:d4:25:96:a6:5f:45:b2:
                    13:e1:81:bd:49:90:6d:f4:c2:11:f7:3e:50:05:62:
                    c1:7c:18:7c:f3:ae:ec:ec:5a:8b:3e:ad:40:80:ae:
                    6c:f2:95:a6:7e:e3:7e:0e:84:26:35:69:94:65:7b:
                    be:23:8e:5c:09:e0:a4:a0:ee:35:e3:72:dc:71:28:
                    1a:92:c1:dd:ec:22:76:82:7f:10:39:74:cf:a7:b4:
                    e2:f5:da:b2:98:75:c8:c0:97:82:be:db:52:1c:e6:
                    e8:46:7d:2f:b7:43:11:63:ff:10:bf:af:f7:52:a5:
                    41:23:21:79:fd:ea:05:70:75
                Exponent: 65537 (0x10001)
    Signature Algorithm: sha1WithRSAEncryption
         b2:be:e9:6c:f6:e4:9e:a4:b0:de:7f:e1:ae:9b:9e:a0:08:d3:
         68:c1:88:27:7a:07:d3:40:8d:23:8f:42:95:4c:27:3a:a3:96:
         1b:7f:d8:36:f2:7a:c7:d8:80:ea:74:c4:0c:e8:4e:99:33:2b:
         d7:92:ab:ad:c8:02:a4:44:5f:2c:f2:24:96:95:23:d8:38:15:
         fe:da:28:bd:f2:ea:da:ad:a2:d7:18:50:0e:13:a5:7e:e3:96:
         87:a3:fa:d1:cc:86:25:1e:fd:94:3f:27:50:57:09:8b:12:8f:
         95:af:db:e4:73:3e:47:10:db:3b:cd:52:1d:1d:45:06:e1:37:
         0d:b3:d0:b6:aa:80:ef:9e:0b:62:08:14:de:48:cc:d8:a5:bc:
         47:98:c8:7f:bf:e3:8c:f8:92:3d:82:d9:1b:6c:93:44:a1:ae:
         45:ef:a4:a3:54:57:41:b5:cb:7f:70:6c:5f:b6:0c:25:13:ef:
         e6:cb:03:15:41:e1:a9:7a:4d:ed:bd:78:19:15:a1:d0:cf:5a:
         3b:0a:6d:a6:ed:fa:d0:72:19:2b:fc:7d:80:b9:9c:ae:09:21:
         55:0a:da:2a:2c:c0:d8:d3:4a:45:85:ad:00:bb:92:ae:34:00:
         45:11:4d:ab:9f:5c:33:55:9b:6f:43:de:ba:40:0b:bd:23:1b:
         13:1a:b4:48:d3:3e:b9:c5:fa:75:f1:b6:0a:8f:0b:6e:03:e1:
         46:7e:9b:e5:a0:b8:b9:22:aa:63:74:06:41:23:22:49:09:f0:
         17:5e:33:6b:10:92:cf:63:46:1c:3b:a3:3e:a4:bb:28:7e:aa:
         4f:29:d5:7d:41:b1:39:b1:02:b2:23:ed:c7:71:46:15:f6:23:
         67:b5:b3:da:a2:df:a9:ef:ae:9d:76:c9:74:b9:54:71:96:2e:
         4c:25:e0:1f:41:4c:fb:67:a4:75:81:f5:3f:99:a2:eb:48:27:
         10:be:e0:35:b8:50:17:12:7c:8f:f9:7a:51:d9:d4:94:f7:d4:
         d8:09:e2:9e:6e:74:2e:09:95:e6:f3:3f:d9:9e:0a:68:50:35:
         51:f3:1e:23:0a:82:b2:36:be:46:8e:97:ff:11:7e:f7:3d:94:
         d5:3d:75:e3:37:f1:37:88:10:5b:07:5e:7d:a8:1c:fa:9a:3b:
         07:11:d9:58:2e:08:cc:5f:5c:f7:32:2e:0b:12:dd:2a:72:65:
         b1:80:d1:8c:df:40:8f:86:b2:77:19:53:06:a0:c9:0f:fb:50:
         a2:62:b5:af:93:96:00:3d:b4:7a:32:ce:f1:e7:92:8a:9e:5e:
         c4:32:9b:ab:ce:40:c8:ee:6a:9c:46:f8:c6:d9:e9:c7:13:d6:
         f2:4b:79:c4:0e:57:4a:8b
-----BEGIN CERTIFICATE-----
MIIDVTCCAT2gAwIBAwIBATANBgkqhkiG9w0BAQUFADApMQswCQYDVQQGEwJCRTEa
MBgGA1UEAxMRdHhqc29ucnBjLXRlc3QtY2EwHhcNNzAwMTAxMDAwMDAwWhcNMzgw
MTE5MDMxNDA3WjA3MRAwDgYDVQQDEwdjYS1ub25lMQswCQYDVQQGEwJCRTEWMBQG
A1UEChMNR3JlbXdlbGwgYnZiYTCBnzANBgkqhkiG9w0BAQEFAAOBjQAwgYkCgYEA
3vHJ86wz+dQllqZfRbIT4YG9SZBt9MIR9z5QBWLBfBh8867s7FqLPq1AgK5s8pWm
fuN+DoQmNWmUZXu+I45cCeCkoO4143LccSgaksHd7CJ2gn8QOXTPp7Ti9dqymHXI
wJeCvttSHOboRn0vt0MRY/8Qv6/3UqVBIyF5/eoFcHUCAwEAATANBgkqhkiG9w0B
AQUFAAOCAgEAsr7pbPbknqSw3n/hrpueoAjTaMGIJ3oH00CNI49ClUwnOqOWG3/Y
NvJ6x9iA6nTEDOhOmTMr15KrrcgCpERfLPIklpUj2DgV/toovfLq2q2i1xhQDhOl
fuOWh6P60cyGJR79lD8nUFcJixKPla/b5HM+RxDbO81SHR1FBuE3DbPQtqqA754L
YggU3kjM2KW8R5jIf7/jjPiSPYLZG2yTRKGuRe+ko1RXQbXLf3BsX7YMJRPv5ssD
FUHhqXpN7b14GRWh0M9aOwptpu360HIZK/x9gLmcrgkhVQraKizA2NNKRYWtALuS
rjQARRFNq59cM1Wbb0PeukALvSMbExq0SNM+ucX6dfG2Co8LbgPhRn6b5aC4uSKq
Y3QGQSMiSQnwF14zaxCSz2NGHDujPqS7KH6qTynVfUGxObECsiPtx3FGFfYjZ7Wz
2qLfqe+unXbJdLlUcZYuTCXgH0FM+2ekdYH1P5mi60gnEL7gNbhQFxJ8j/l6UdnU
lPfU2Aninm50LgmV5vM/2Z4KaFA1UfMeIwqCsja+Ro6X/xF+9z2U1T114zfxN4gQ
Wwdefagc+po7BxHZWC4IzF9c9zIuCxLdKnJlsYDRjN9Aj4aydxlTBqDJD/tQomK1
r5OWAD20ejLO8eeSip5exDKbq85AyO5qnEb4xtnpxxPW8kt5xA5XSos=
-----END CERTIFICATE-----
Certificate:
    Data:
        Version: 3 (0x2)
        Serial Number: 10219423159405941259 (0x8dd2af37f9ca920b)
    Signature Algorithm: sha1WithRSAEncryption
        Issuer: C=BE, CN=txjsonrpc-test-ca
        Validity
            Not Before: Jun 23 15:46:37 2012 GMT
            Not After : Jun 21 15:46:37 2022 GMT
        Subject: C=BE, CN=txjsonrpc-test-ca
        Subject Public Key Info:
            Public Key Algorithm: rsaEncryption
                Public-Key: (4096 bit)
                Modulus:
                    00:d1:25:af:77:c5:a8:72:cf:90:b9:39:10:fb:7b:
                    75:2c:a1:da:6a:95:e5:44:0c:d6:25:4b:58:7f:bb:
                    07:82:59:49:58:32:85:24:cc:3e:77:db:e1:a7:4f:
                    c8:b5:cb:ee:45:38:bd:bc:fb:e3:76:3b:88:04:ca:
                    ab:3a:a3:96:3b:5f:93:9c:28:a6:61:97:dc:a2:3f:
                    a0:93:2b:56:6c:cf:d3:4f:6a:9e:05:d3:1c:cd:ef:
                    75:80:1a:98:b7:92:49:14:33:b8:c4:7c:73:8c:7e:
                    83:a5:81:a2:59:8c:8b:a3:51:36:6d:68:ac:f2:f1:
                    ed:6f:49:d9:af:7a:63:c1:43:31:42:b6:c7:cd:b9:
                    78:b7:33:98:70:92:6c:9e:04:7a:7b:f0:6d:38:87:
                    eb:00:13:17:b9:d9:ec:b4:66:bb:51:d3:fd:81:e3:
                    0e:88:71:23:d2:80:2a:61:de:ab:25:02:47:a9:c1:
                    6b:c9:69:ae:da:47:b6:49:74:ac:a6:e1:c1:76:ba:
                    6d:b1:d9:68:6e:1c:37:a8:e2:18:60:37:b6:58:13:
                    6c:c7:92:7c:c6:45:8c:ef:c3:81:73:10:dc:2f:31:
                    e2:b9:05:5a:9e:28:70:5a:3e:1d:b8:68:71:81:c9:
                    e8:fe:1f:c3:a0:13:f8:e4:24:12:ba:91:8e:15:d2:
                    03:f1:8c:b0:aa:e2:34:e4:6b:f8:06:f6:23:8a:92:
                    43:a6:05:dc:e9:c7:a5:a8:06:d7:6e:91:52:72:47:
                    ab:ae:87:fe:b3:0f:04:87:6f:4b:22:29:e9:a9:06:
                    52:58:7d:03:16:d7:d5:31:44:b4:f1:51:44:a7:2a:
                    ba:5e:09:19:ec:4c:a2:e0:58:fe:0d:4e:b7:90:4d:
                    02:ac:2a:ad:99:14:65:3b:0a:3c:73:45:56:b2:0f:
                    10:25:24:51:79:57:1a:34:1a:10:6f:60:e0:fc:81:
                    db:ca:c2:e2:85:1b:4c:72:13:5c:9d:76:cc:d0:21:
                    33:31:56:82:8f:c5:57:b9:44:fd:8b:76:c1:b6:e4:
                    21:8b:35:9a:ee:54:74:9f:72:6b:19:84:d7:a2:3c:
                    a5:6e:11:0a:f1:93:04:2e:dd:7c:4c:7d:62:10:d4:
                    1b:8b:87:f6:ed:bf:12:b1:8b:f0:9a:7a:ee:02:94:
                    e1:3c:46:2b:7f:9c:54:fb:2e:61:c9:1c:ef:fc:de:
                    25:bc:2d:75:1b:1f:49:5e:44:3b:15:93:ad:c4:89:
                    d9:ae:3c:da:54:ef:d9:af:3a:16:cb:94:1b:6a:14:
                    e4:42:f9:75:33:46:6e:fb:40:bc:f8:82:36:cf:60:
                    f5:c2:a2:98:23:a7:2a:ae:c1:aa:22:f8:87:da:b7:
                    9c:a4:cf
                Exponent: 65537 (0x10001)
        X509v3 extensions:
            X509v3 Subject Key Identifier: 
                9D:8F:84:76:94:CD:07:FE:A3:E8:8B:D7:F9:D9:6E:EF:CA:75:51:7B
            X509v3 Authority Key Identifier: 
                keyid:9D:8F:84:76:94:CD:07:FE:A3:E8:8B:D7:F9:D9:6E:EF:CA:75:51:7B
                DirName:/C=BE/CN=txjsonrpc-test-ca
                serial:8D:D2:AF:37:F9:CA:92:0B

            X509v3 Basic Constraints: critical
                CA:TRUE
            Netscape Cert Type: 
                SSL CA, S/MIME CA
            X509v3 Issuer Alternative Name: 
                <EMPTY>

            Netscape Comment: 
                Test CA for txjsonrcp
            X509v3 Subject Alternative Name: 
                <EMPTY>

            X509v3 Key Usage: critical
                Certificate Sign, CRL Sign
    Signature Algorithm: sha1WithRSAEncryption
         06:82:86:81:a9:1b:7e:2d:ef:f5:fc:cc:d2:9d:d6:82:ad:d0:
         6f:7e:3d:b9:5c:b2:0f:3a:64:21:9a:fb:53:b2:93:81:dc:1a:
         24:fc:b8:30:57:a2:c7:71:0d:9c:1a:0b:8a:6c:89:52:8b:8a:
         f5:af:95:3e:b8:08:39:ee:36:50:ac:60:4d:df:2b:49:a2:72:
         f1:3f:12:3c:d9:55:56:a4:9a:77:2b:77:fa:16:b5:76:d9:f4:
         c4:51:6b:b9:fe:2f:a3:52:e8:64:80:49:22:6d:05:42:87:af:
         9d:85:6c:fa:c9:9b:48:39:7b:89:f5:a0:1e:ff:11:d3:9c:78:
         b1:b2:f6:4d:b1:e8:b3:98:23:2c:d4:20:e1:a1:01:3e:26:0a:
         5b:8e:eb:58:45:22:cf:e1:94:ad:84:40:b0:fb:ff:25:5f:31:
         9a:49:0b:36:ad:c6:1a:b0:42:60:40:e2:a2:3c:5a:36:41:89:
         fc:10:c4:60:ea:d4:85:7b:36:84:df:aa:81:cc:69:e7:52:ca:
         c1:46:b1:79:93:51:4f:24:84:42:14:3a:20:a0:6c:27:76:40:
         0f:96:7e:4e:c3:0c:37:b3:e3:73:49:86:58:31:00:1e:e7:0f:
         87:74:b6:4e:6e:1c:7d:87:a4:33:04:c9:76:ec:e5:3a:85:5f:
         a8:d1:ad:21:64:5e:c5:6a:df:b1:02:6e:65:a4:87:72:06:07:
         da:e5:f2:af:2b:a5:eb:18:80:67:83:a5:3c:e6:ed:d1:58:f9:
         90:5c:d6:e9:2f:76:c1:58:13:b8:bd:88:8a:f3:04:48:bb:42:
         8f:7f:c6:db:b4:30:3f:bb:6c:d5:47:e5:ae:8d:4b:da:92:a5:
         db:d3:6e:a8:9b:c2:6b:56:af:34:63:82:e6:78:f8:1f:54:d7:
         41:aa:a3:c9:7c:a6:83:41:bf:6e:33:7c:ae:e6:92:bd:da:27:
         b4:bc:e2:90:4f:33:1b:01:a1:cd:02:13:7a:31:ef:00:d6:9a:
         6e:38:6b:a7:cb:70:98:a8:0f:ff:1c:56:a8:b7:e6:d2:42:5a:
         bb:f4:78:27:71:13:d0:e8:43:eb:bc:2d:4f:e4:ea:4d:4f:76:
         7f:53:38:34:eb:13:e2:3d:c6:14:98:86:1c:ab:2c:0e:b7:68:
         2e:bd:63:a9:6a:8f:d5:22:2d:ab:13:d7:62:54:51:ff:5c:37:
         08:04:27:da:f9:57:77:05:18:73:88:5f:b0:c1:65:50:36:09:
         d6:c7:f5:ae:6e:3f:04:d1:84:3c:21:74:1d:bd:0a:fb:76:d0:
         13:2b:62:bb:24:48:43:89:d0:18:5c:b4:ad:ea:98:af:6d:fc:
         1c:6b:1f:06:64:54:23:88
-----BEGIN CERTIFICATE-----
MIIFwzCCA6ugAwIBAgIJAI3Srzf5ypILMA0GCSqGSIb3DQEBBQUAMCkxCzAJBgNV
BAYTAkJFMRowGAYDVQQDExF0eGpzb25ycGMtdGVzdC1jYTAeFw0xMjA2MjMxNTQ2
MzdaFw0yMjA2MjExNTQ2MzdaMCkxCzAJBgNVBAYTAkJFMRowGAYDVQQDExF0eGpz
b25ycGMtdGVzdC1jYTCCAiIwDQYJKoZIhvcNAQEBBQADggIPADCCAgoCggIBANEl
r3fFqHLPkLk5EPt7dSyh2mqV5UQM1iVLWH+7B4JZSVgyhSTMPnfb4adPyLXL7kU4
vbz743Y7iATKqzqjljtfk5wopmGX3KI/oJMrVmzP009qngXTHM3vdYAamLeSSRQz
uMR8c4x+g6WBolmMi6NRNm1orPLx7W9J2a96Y8FDMUK2x825eLczmHCSbJ4Eenvw
bTiH6wATF7nZ7LRmu1HT/YHjDohxI9KAKmHeqyUCR6nBa8lprtpHtkl0rKbhwXa6
bbHZaG4cN6jiGGA3tlgTbMeSfMZFjO/DgXMQ3C8x4rkFWp4ocFo+HbhocYHJ6P4f
w6AT+OQkErqRjhXSA/GMsKriNORr+Ab2I4qSQ6YF3OnHpagG126RUnJHq66H/rMP
BIdvSyIp6akGUlh9AxbX1TFEtPFRRKcqul4JGexMouBY/g1Ot5BNAqwqrZkUZTsK
PHNFVrIPECUkUXlXGjQaEG9g4PyB28rC4oUbTHITXJ12zNAhMzFWgo/FV7lE/Yt2
wbbkIYs1mu5UdJ9yaxmE16I8pW4RCvGTBC7dfEx9YhDUG4uH9u2/ErGL8Jp67gKU
4TxGK3+cVPsuYckc7/zeJbwtdRsfSV5EOxWTrcSJ2a482lTv2a86FsuUG2oU5EL5
dTNGbvtAvPiCNs9g9cKimCOnKq7BqiL4h9q3nKTPAgMBAAGjge0wgeowHQYDVR0O
BBYEFJ2PhHaUzQf+o+iL1/nZbu/KdVF7MFkGA1UdIwRSMFCAFJ2PhHaUzQf+o+iL
1/nZbu/KdVF7oS2kKzApMQswCQYDVQQGEwJCRTEaMBgGA1UEAxMRdHhqc29ucnBj
LXRlc3QtY2GCCQCN0q83+cqSCzAPBgNVHRMBAf8EBTADAQH/MBEGCWCGSAGG+EIB
AQQEAwIBBjAJBgNVHRIEAjAAMCQGCWCGSAGG+EIBDQQXFhVUZXN0IENBIGZvciB0
eGpzb25yY3AwCQYDVR0RBAIwADAOBgNVHQ8BAf8EBAMCAQYwDQYJKoZIhvcNAQEF
BQADggIBAAaChoGpG34t7/X8zNKd1oKt0G9+Pblcsg86ZCGa+1Oyk4HcGiT8uDBX
osdxDZwaC4psiVKLivWvlT64CDnuNlCsYE3fK0micvE/EjzZVVakmncrd/oWtXbZ
9MRRa7n+L6NS6GSASSJtBUKHr52FbPrJm0g5e4n1oB7/EdOceLGy9k2x6LOYIyzU
IOGhAT4mCluO61hFIs/hlK2EQLD7/yVfMZpJCzatxhqwQmBA4qI8WjZBifwQxGDq
1IV7NoTfqoHMaedSysFGsXmTUU8khEIUOiCgbCd2QA+Wfk7DDDez43NJhlgxAB7n
D4d0tk5uHH2HpDMEyXbs5TqFX6jRrSFkXsVq37ECbmWkh3IGB9rl8q8rpesYgGeD
pTzm7dFY+ZBc1ukvdsFYE7i9iIrzBEi7Qo9/xtu0MD+7bNVH5a6NS9qSpdvTbqib
wmtWrzRjguZ4+B9U10Gqo8l8poNBv24zfK7mkr3aJ7S84pBPMxsBoc0CE3ox7wDW
mm44a6fLcJioD/8cVqi35tJCWrv0eCdxE9DoQ+u8LU/k6k1Pdn9TODTrE+I9xhSY
hhyrLA63aC69Y6lqj9UiLasT12JUUf9cNwgEJ9r5V3cFGHOIX7DBZVA2CdbH9a5u
PwTRhDwhdB29Cvt20BMrYrskSEOJ0BhctK3qmK9t/BxrHwZkVCOI
-----END CERTIFICATE-----
