Certificate:
    Data:
        Version: 4 (0x3)
        Serial Number: 1 (0x1)
    Signature Algorithm: sha1WithRSAEncryption
        Issuer: CN=ca-false, C=BE, O=Gremwell bvba
        Validity
            Not Before: Jan  1 00:00:00 1970 GMT
            Not After : Jan 19 03:14:07 2038 GMT
        Subject: CN=txjsonrpc-pyserver, C=BE, O=Gremwell bvba
        Subject Public Key Info:
            Public Key Algorithm: rsaEncryption
                Public-Key: (1024 bit)
                Modulus:
                    00:af:d3:0a:00:aa:ff:10:2f:96:90:1e:3e:b3:a5:
                    96:7a:8b:dd:73:cb:9a:8e:c6:bb:49:66:25:9e:e2:
                    b5:b5:a9:b0:34:01:69:c1:d9:35:0c:7e:1c:8d:08:
                    6b:bf:5a:a2:6e:b5:c7:d8:3a:c7:81:25:30:5a:fc:
                    3a:80:8f:82:25:ad:ee:4e:1d:32:c0:68:13:0e:65:
                    b4:85:d0:b8:45:37:d7:96:4e:e7:2d:4d:c9:8b:16:
                    11:a1:48:61:1b:4f:07:77:93:c8:7c:69:fc:68:dd:
                    1f:47:00:4c:7b:7b:c1:1c:7f:e8:c9:50:b0:ef:ed:
                    8b:a2:9c:fe:ea:cb:7a:62:43
                Exponent: 65537 (0x10001)
    Signature Algorithm: sha1WithRSAEncryption
         31:dc:c0:cb:64:d5:cf:39:2e:c1:a9:f8:ef:0c:6f:d5:11:dd:
         cd:17:af:8b:b8:8e:32:37:ea:ff:1d:c6:33:84:d2:d6:a6:6d:
         66:21:bc:ce:2c:80:a6:0a:0b:b7:33:dd:4e:ac:4d:78:b1:ac:
         53:c4:9f:6a:05:2c:f9:c5:f3:ad:56:72:af:2c:13:05:1e:ec:
         4e:b3:22:76:40:09:36:24:c4:5f:f4:2f:77:51:f9:58:a0:42:
         42:94:eb:16:f4:93:61:b8:e1:09:90:ef:cb:d9:a5:bc:22:56:
         a7:d9:8a:69:71:06:87:fd:1b:54:69:23:6e:9f:06:19:35:6a:
         48:3d
-----BEGIN CERTIFICATE-----
MIIB7jCCAVegAwIBAwIBATANBgkqhkiG9w0BAQUFADA4MREwDwYDVQQDEwhjYS1m
YWxzZTELMAkGA1UEBhMCQkUxFjAUBgNVBAoTDUdyZW13ZWxsIGJ2YmEwHhcNNzAw
MTAxMDAwMDAwWhcNMzgwMTE5MDMxNDA3WjBCMRswGQYDVQQDExJ0eGpzb25ycGMt
cHlzZXJ2ZXIxCzAJBgNVBAYTAkJFMRYwFAYDVQQKEw1HcmVtd2VsbCBidmJhMIGf
MA0GCSqGSIb3DQEBAQUAA4GNADCBiQKBgQCv0woAqv8QL5aQHj6zpZZ6i91zy5qO
xrtJZiWe4rW1qbA0AWnB2TUMfhyNCGu/WqJutcfYOseBJTBa/DqAj4Ilre5OHTLA
aBMOZbSF0LhFN9eWTuctTcmLFhGhSGEbTwd3k8h8afxo3R9HAEx7e8Ecf+jJULDv
7YuinP7qy3piQwIDAQABMA0GCSqGSIb3DQEBBQUAA4GBADHcwMtk1c85LsGp+O8M
b9UR3c0Xr4u4jjI36v8dxjOE0tambWYhvM4sgKYKC7cz3U6sTXixrFPEn2oFLPnF
861Wcq8sEwUe7E6zInZACTYkxF/0L3dR+VigQkKU6xb0k2G44QmQ78vZpbwiVqfZ
imlxBof9G1RpI26fBhk1akg9
-----END CERTIFICATE-----
Certificate:
    Data:
        Version: 4 (0x3)
        Serial Number: 1 (0x1)
    Signature Algorithm: sha1WithRSAEncryption
        Issuer: C=BE, CN=txjsonrpc-test-ca
        Validity
            Not Before: Jan  1 00:00:00 1970 GMT
            Not After : Jan 19 03:14:07 2038 GMT
        Subject: CN=ca-false, C=BE, O=Gremwell bvba
        Subject Public Key Info:
            Public Key Algorithm: rsaEncryption
                Public-Key: (1024 bit)
                Modulus:
                    00:dd:4b:d3:d4:09:61:86:40:f0:60:5b:46:f3:e9:
                    6a:7c:c8:6f:63:13:82:a8:5b:d9:38:9c:10:57:e9:
                    58:3b:15:ca:99:13:4a:7e:8e:7c:5e:4e:04:4d:17:
                    8e:c1:fb:3c:57:34:7a:de:e0:ff:0f:6f:89:05:2b:
                    ce:6f:8d:49:7d:bd:2f:5f:3f:b4:45:c3:78:20:26:
                    cc:6d:de:0d:bb:cc:3e:81:38:24:30:ec:59:2c:3c:
                    9c:0b:cc:08:92:35:2b:a7:b8:17:7b:ec:ec:b5:eb:
                    98:c3:82:83:b5:78:56:b8:32:87:58:11:6a:aa:16:
                    eb:7e:2e:94:da:94:a0:90:6d
                Exponent: 65537 (0x10001)
        X509v3 extensions:
            X509v3 Basic Constraints: critical
                CA:FALSE
    Signature Algorithm: sha1WithRSAEncryption
         1e:ba:57:d0:e6:c7:86:12:fc:9e:0d:9c:e9:b5:49:66:22:2a:
         99:f8:5d:7d:ac:5d:88:4a:c5:1a:4c:68:2d:dd:d5:82:c1:f7:
         d0:3d:d2:66:a7:24:f7:e5:d4:02:1b:b3:62:15:b8:e7:5f:78:
         40:08:da:64:aa:c7:cc:fe:98:f6:95:01:43:58:c5:42:fe:30:
         cb:45:49:bb:33:a0:4c:f0:19:40:0d:9c:74:bc:c3:3c:0b:30:
         09:8a:a1:c4:e5:0e:ac:f0:b0:b6:cf:b4:2b:e8:c6:1e:3e:ec:
         7a:cb:3b:16:ef:a5:bf:cf:d2:e7:dc:41:ad:f9:f1:9a:de:a1:
         df:99:cd:c0:7f:d0:c7:88:1f:e5:6a:d0:d8:47:5b:62:56:75:
         9b:b1:cb:77:1c:50:60:c1:dd:42:39:a5:ef:18:f1:8a:68:33:
         54:dd:40:16:d1:28:13:20:d7:50:33:a9:00:f8:25:ee:77:6a:
         ad:cc:4f:67:2f:05:9c:5c:80:79:62:b1:df:be:58:35:b3:e1:
         a2:9f:9c:af:65:d3:4b:41:78:01:dc:83:f3:0c:a3:a2:92:03:
         21:0d:6d:db:bb:56:03:17:25:1d:5e:28:b7:90:b5:98:0e:9d:
         44:0f:a6:ac:8d:40:f3:18:65:09:34:aa:d9:e4:3b:08:0e:e8:
         c0:bd:ef:2f:e4:cf:7a:f8:33:30:ec:e8:9a:c0:fd:9d:e1:09:
         ad:b6:33:8d:57:a4:28:82:72:17:57:8d:58:ca:7f:c5:bf:fc:
         77:3c:f3:e6:d4:56:a4:b6:33:99:d8:4b:59:d0:a5:0c:65:50:
         8d:ea:f0:ef:18:47:ed:62:c1:2a:ff:c7:70:6c:87:71:d7:2a:
         f0:09:f6:0a:5e:9d:3c:51:8f:68:86:9e:ee:44:d4:e7:55:3c:
         45:b0:3b:d6:9d:0b:de:e9:70:8f:42:6e:87:79:ce:c1:4d:d6:
         28:35:c7:34:bd:3a:be:1b:46:9b:9b:54:92:b7:a2:f0:6d:60:
         b3:28:c5:18:d8:f9:7a:05:34:ec:14:cc:27:03:5b:57:af:0c:
         c1:82:1f:c6:b9:04:78:3d:3d:43:7a:8d:a5:b1:99:ca:c0:5f:
         b7:a3:27:66:db:bb:a6:3a:0e:88:c6:29:61:f0:17:cb:4a:94:
         89:2c:09:80:43:4b:92:0e:0b:fb:81:d1:3c:55:4f:f2:22:75:
         00:54:3f:f2:d5:8a:01:c7:fd:53:07:82:85:85:1c:e8:a7:e8:
         31:f5:e1:91:23:f6:ec:57:c6:db:ed:79:f0:88:1d:23:5c:59:
         17:03:fb:21:8a:42:de:e2:22:a5:86:02:6a:51:ce:90:67:0e:
         31:9e:de:28:87:48:a7:69
-----BEGIN CERTIFICATE-----
MIIDaDCCAVCgAwIBAwIBATANBgkqhkiG9w0BAQUFADApMQswCQYDVQQGEwJCRTEa
MBgGA1UEAxMRdHhqc29ucnBjLXRlc3QtY2EwHhcNNzAwMTAxMDAwMDAwWhcNMzgw
MTE5MDMxNDA3WjA4MREwDwYDVQQDEwhjYS1mYWxzZTELMAkGA1UEBhMCQkUxFjAU
BgNVBAoTDUdyZW13ZWxsIGJ2YmEwgZ8wDQYJKoZIhvcNAQEBBQADgY0AMIGJAoGB
AN1L09QJYYZA8GBbRvPpanzIb2MTgqhb2TicEFfpWDsVypkTSn6OfF5OBE0XjsH7
PFc0et7g/w9viQUrzm+NSX29L18/tEXDeCAmzG3eDbvMPoE4JDDsWSw8nAvMCJI1
K6e4F3vs7LXrmMOCg7V4Vrgyh1gRaqoW634ulNqUoJBtAgMBAAGjEDAOMAwGA1Ud
EwEB/wQCMAAwDQYJKoZIhvcNAQEFBQADggIBAB66V9Dmx4YS/J4NnOm1SWYiKpn4
XX2sXYhKxRpMaC3d1YLB99A90manJPfl1AIbs2IVuOdfeEAI2mSqx8z+mPaVAUNY
xUL+MMtFSbszoEzwGUANnHS8wzwLMAmKocTlDqzwsLbPtCvoxh4+7HrLOxbvpb/P
0ufcQa358Zreod+ZzcB/0MeIH+Vq0NhHW2JWdZuxy3ccUGDB3UI5pe8Y8YpoM1Td
QBbRKBMg11AzqQD4Je53aq3MT2cvBZxcgHlisd++WDWz4aKfnK9l00tBeAHcg/MM
o6KSAyENbdu7VgMXJR1eKLeQtZgOnUQPpqyNQPMYZQk0qtnkOwgO6MC97y/kz3r4
MzDs6JrA/Z3hCa22M41XpCiCchdXjVjKf8W//Hc88+bUVqS2M5nYS1nQpQxlUI3q
8O8YR+1iwSr/x3Bsh3HXKvAJ9gpenTxRj2iGnu5E1OdVPEWwO9adC97pcI9Cbod5
zsFN1ig1xzS9Or4bRpubVJK3ovBtYLMoxRjY+XoFNOwUzCcDW1evDMGCH8a5BHg9
PUN6jaWxmcrAX7ejJ2bbu6Y6DojGKWHwF8tKlIksCYBDS5IOC/uB0TxVT/IidQBU
P/LVigHH/VMHgoWFHOin6DH14ZEj9uxXxtvtefCIHSNcWRcD+yGKQt7iIqWGAmpR
zpBnDjGe3iiHSKdp
-----END CERTIFICATE-----
