Certificate:
    Data:
        Version: 3 (0x2)
        Serial Number: 1 (0x1)
    Signature Algorithm: sha1WithRSAEncryption
        Issuer: CN=ca-none, C=BE, O=Gremwell bvba
        Validity
            Not Before: Jun 23 15:47:38 2012 GMT
            Not After : Jun 23 15:47:38 2013 GMT
        Subject: C=BE, CN=txjsonrpc-pyserver
        Subject Public Key Info:
            Public Key Algorithm: rsaEncryption
                Public-Key: (4096 bit)
                Modulus:
                    00:ce:7c:0c:28:a5:3d:7a:2b:12:38:7d:e6:f6:82:
                    70:af:b0:c3:ff:75:9a:98:a7:d2:b3:75:9c:c1:b4:
                    09:1b:a3:cf:b6:b5:14:0f:c1:e4:c0:43:3e:6a:5b:
                    df:08:b7:17:70:d4:e4:a8:11:b9:dd:6e:c1:f9:22:
                    28:a2:69:bb:a9:b5:ee:91:d9:03:b7:2c:d5:41:cf:
                    7b:d8:22:a6:bb:fa:c5:cd:1d:d9:a7:04:2e:70:a7:
                    15:df:80:fc:28:db:90:6c:be:78:4d:33:89:60:92:
                    2d:64:32:09:f4:d2:f0:c1:a7:ff:19:73:85:51:ad:
                    99:4f:de:70:fb:ba:1d:79:b0:e5:52:fd:83:95:ff:
                    d6:81:65:91:b8:bb:be:ab:7e:e2:62:c6:1c:e5:5a:
                    b0:79:ce:da:f8:7e:46:88:87:d4:c5:2b:03:5b:88:
                    fd:8b:89:8e:92:97:f0:cc:04:c0:8d:1c:d0:37:6b:
                    1d:f3:6e:96:7f:65:22:64:d1:14:65:9d:37:bb:2f:
                    bf:7b:fa:8f:b5:16:20:28:86:6c:1d:72:e7:1b:0a:
                    23:16:8d:28:20:09:39:4e:35:69:24:a6:c0:56:26:
                    00:56:0a:69:c8:b5:10:86:12:60:64:91:9a:00:7e:
                    c8:41:62:f9:a5:17:13:79:e1:d3:f2:bd:46:6f:b9:
                    4c:be:89:c7:6b:52:ef:e9:e1:03:3c:44:e1:af:c0:
                    e1:6c:a7:47:eb:d8:47:35:f4:d1:44:04:68:47:c4:
                    f2:2e:95:cd:1f:7a:da:68:8e:1c:84:7d:51:58:c2:
                    2d:0d:1e:4e:09:ff:be:6c:0e:35:72:9e:ab:1c:0d:
                    94:a2:0c:d2:5b:c6:c7:8b:84:b3:7d:37:9f:60:36:
                    a7:8e:9c:61:92:1b:75:5e:e1:d0:b6:c3:89:45:40:
                    a5:56:1c:66:37:49:36:c5:f2:08:50:9c:4c:fb:a1:
                    91:c5:3f:e1:d2:19:9e:48:f7:e3:19:0f:40:49:e3:
                    13:e4:97:3e:04:f9:0c:bd:61:71:21:13:20:f6:99:
                    6f:e3:bd:b6:88:80:05:fe:d7:38:a7:61:0d:d7:c4:
                    47:85:e9:bd:48:93:fd:6c:6f:8d:60:f1:fc:b2:42:
                    d2:bb:aa:1c:0c:f3:90:62:07:09:03:ba:ab:bb:38:
                    55:09:c4:74:93:27:b5:b5:cd:00:bb:12:9b:55:4f:
                    1b:67:a9:9b:29:46:22:7f:0c:4b:1b:a6:ad:14:09:
                    96:29:c8:2c:43:a4:0f:cd:29:73:f8:8d:27:d3:5e:
                    56:51:63:2e:66:77:bc:58:66:32:a2:b8:6c:c7:80:
                    bf:64:1e:c7:05:6e:36:9d:6d:84:1f:cf:07:74:c8:
                    d2:72:b7
                Exponent: 65537 (0x10001)
        X509v3 extensions:
            X509v3 Basic Constraints: 
                CA:FALSE
            Netscape Cert Type: 
                SSL Server
            Netscape Comment: 
                TinyCA Generated Certificate
            X509v3 Subject Key Identifier: 
                26:8C:A5:F9:A6:4A:FE:4C:E8:0F:04:33:7E:04:26:28:BF:4C:92:F3
            X509v3 Authority Key Identifier: 
                keyid:9D:8F:84:76:94:CD:07:FE:A3:E8:8B:D7:F9:D9:6E:EF:CA:75:51:7B
                DirName:/C=BE/CN=txjsonrpc-test-ca
                serial:8D:D2:AF:37:F9:CA:92:0B

            X509v3 Issuer Alternative Name: 
                <EMPTY>

            X509v3 Subject Alternative Name: 
                <EMPTY>

    Signature Algorithm: sha1WithRSAEncryption
         59:a6:1f:f4:5c:6d:7c:46:69:e5:66:11:7f:39:ac:41:9f:f6:
         46:1e:dd:06:26:92:70:6f:d5:68:ff:5a:d7:96:90:d8:87:eb:
         32:d3:0d:f2:f6:ff:0e:0a:5d:be:93:4c:98:ac:38:37:f2:c8:
         5a:fe:5c:4c:89:f0:4e:40:d3:46:9b:da:9a:3a:c7:0f:d6:d9:
         dc:f7:bc:cd:f2:0b:59:06:22:62:94:88:84:cb:c7:68:fd:ee:
         cf:a5:f0:74:83:1e:8f:4e:12:19:13:cb:a8:68:6f:d1:1f:7b:
         28:65:16:ed:69:f4:71:63:18:4e:ef:26:57:b0:2d:70:d9:2c:
         57:13
-----BEGIN CERTIFICATE-----
MIIEOjCCA6OgAwIBAgIBATANBgkqhkiG9w0BAQUFADA3MRAwDgYDVQQDEwdjYS1u
b25lMQswCQYDVQQGEwJCRTEWMBQGA1UEChMNR3JlbXdlbGwgYnZiYTAeFw0xMjA2
MjMxNTQ3MzhaFw0xMzA2MjMxNTQ3MzhaMCoxCzAJBgNVBAYTAkJFMRswGQYDVQQD
ExJ0eGpzb25ycGMtcHlzZXJ2ZXIwggIiMA0GCSqGSIb3DQEBAQUAA4ICDwAwggIK
AoICAQDOfAwopT16KxI4feb2gnCvsMP/dZqYp9KzdZzBtAkbo8+2tRQPweTAQz5q
W98Itxdw1OSoEbndbsH5Iiiiabupte6R2QO3LNVBz3vYIqa7+sXNHdmnBC5wpxXf
gPwo25BsvnhNM4lgki1kMgn00vDBp/8Zc4VRrZlP3nD7uh15sOVS/YOV/9aBZZG4
u76rfuJixhzlWrB5ztr4fkaIh9TFKwNbiP2LiY6Sl/DMBMCNHNA3ax3zbpZ/ZSJk
0RRlnTe7L797+o+1FiAohmwdcucbCiMWjSggCTlONWkkpsBWJgBWCmnItRCGEmBk
kZoAfshBYvmlFxN54dPyvUZvuUy+icdrUu/p4QM8ROGvwOFsp0fr2Ec19NFEBGhH
xPIulc0fetpojhyEfVFYwi0NHk4J/75sDjVynqscDZSiDNJbxseLhLN9N59gNqeO
nGGSG3Ve4dC2w4lFQKVWHGY3STbF8ghQnEz7oZHFP+HSGZ5I9+MZD0BJ4xPklz4E
+Qy9YXEhEyD2mW/jvbaIgAX+1zinYQ3XxEeF6b1Ik/1sb41g8fyyQtK7qhwM85Bi
BwkDuqu7OFUJxHSTJ7W1zQC7EptVTxtnqZspRiJ/DEsbpq0UCZYpyCxDpA/NKXP4
jSfTXlZRYy5md7xYZjKiuGzHgL9kHscFbjadbYQfzwd0yNJytwIDAQABo4HeMIHb
MAkGA1UdEwQCMAAwEQYJYIZIAYb4QgEBBAQDAgZAMCsGCWCGSAGG+EIBDQQeFhxU
aW55Q0EgR2VuZXJhdGVkIENlcnRpZmljYXRlMB0GA1UdDgQWBBQmjKX5pkr+TOgP
BDN+BCYov0yS8zBZBgNVHSMEUjBQgBSdj4R2lM0H/qPoi9f52W7vynVRe6EtpCsw
KTELMAkGA1UEBhMCQkUxGjAYBgNVBAMTEXR4anNvbnJwYy10ZXN0LWNhggkAjdKv
N/nKkgswCQYDVR0SBAIwADAJBgNVHREEAjAAMA0GCSqGSIb3DQEBBQUAA4GBAFmm
H/RcbXxGaeVmEX85rEGf9kYe3QYmknBv1Wj/WteWkNiH6zLTDfL2/w4KXb6TTJis
ODfyyFr+XEyJ8E5A00ab2po6xw/W2dz3vM3yC1kGImKUiITLx2j97s+l8HSDHo9O
EhkTy6hob9EfeyhlFu1p9HFjGE7vJlewLXDZLFcT
-----END CERTIFICATE-----
Certificate:
    Data:
        Version: 4 (0x3)
        Serial Number: 1 (0x1)
    Signature Algorithm: sha1WithRSAEncryption
        Issuer: C=BE, CN=txjsonrpc-test-ca
        Validity
            Not Before: Jan  1 00:00:00 1970 GMT
            Not After : Jan 19 03:14:07 2038 GMT
        Subject: CN=ca-none, C=BE, O=Gremwell bvba
        Subject Public Key Info:
            Public Key Algorithm: rsaEncryption
                Public-Key: (1024 bit)
                Modulus:
                    00:de:f1:c9:f3:ac:33:f9:d4:25:96:a6:5f:45:b2:
                    13:e1:81:bd:49:90:6d:f4:c2:11:f7:3e:50:05:62:
                    c1:7c:18:7c:f3:ae:ec:ec:5a:8b:3e:ad:40:80:ae:
                    6c:f2:95:a6:7e:e3:7e:0e:84:26:35:69:94:65:7b:
                    be:23:8e:5c:09:e0:a4:a0:ee:35:e3:72:dc:71:28:
                    1a:92:c1:dd:ec:22:76:82:7f:10:39:74:cf:a7:b4:
                    e2:f5:da:b2:98:75:c8:c0:97:82:be:db:52:1c:e6:
                    e8:46:7d:2f:b7:43:11:63:ff:10:bf:af:f7:52:a5:
                    41:23:21:79:fd:ea:05:70:75
                Exponent: 65537 (0x10001)
    Signature Algorithm: sha1WithRSAEncryption
         b2:be:e9:6c:f6:e4:9e:a4:b0:de:7f:e1:ae:9b:9e:a0:08:d3:
         68:c1:88:27:7a:07:d3:40:8d:23:8f:42:95:4c:27:3a:a3:96:
         1b:7f:d8:36:f2:7a:c7:d8:80:ea:74:c4:0c:e8:4e:99:33:2b:
         d7:92:ab:ad:c8:02:a4:44:5f:2c:f2:24:96:95:23:d8:38:15:
         fe:da:28:bd:f2:ea:da:ad:a2:d7:18:50:0e:13:a5:7e:e3:96:
         87:a3:fa:d1:cc:86:25:1e:fd:94:3f:27:50:57:09:8b:12:8f:
         95:af:db:e4:73:3e:47:10:db:3b:cd:52:1d:1d:45:06:e1:37:
         0d:b3:d0:b6:aa:80:ef:9e:0b:62:08:14:de:48:cc:d8:a5:bc:
         47:98:c8:7f:bf:e3:8c:f8:92:3d:82:d9:1b:6c:93:44:a1:ae:
         45:ef:a4:a3:54:57:41:b5:cb:7f:70:6c:5f:b6:0c:25:13:ef:
         e6:cb:03:15:41:e1:a9:7a:4d:ed:bd:78:19:15:a1:d0:cf:5a:
         3b:0a:6d:a6:ed:fa:d0:72:19:2b:fc:7d:80:b9:9c:ae:09:21:
         55:0a:da:2a:2c:c0:d8:d3:4a:45:85:ad:00:bb:92:ae:34:00:
         45:11:4d:ab:9f:5c:33:55:9b:6f:43:de:ba:40:0b:bd:23:1b:
         13:1a:b4:48:d3:3e:b9:c5:fa:75:f1:b6:0a:8f:0b:6e:03:e1:
         46:7e:9b:e5:a0:b8:b9:22:aa:63:74:06:41:23:22:49:09:f0:
         17:5e:33:6b:10:92:cf:63:46:1c:3b:a3:3e:a4:bb:28:7e:aa:
         4f:29:d5:7d:41:b1:39:b1:02:b2:23:ed:c7:71:46:15:f6:23:
         67:b5:b3:da:a2:df:a9:ef:ae:9d:76:c9:74:b9:54:71:96:2e:
         4c:25:e0:1f:41:4c:fb:67:a4:75:81:f5:3f:99:a2:eb:48:27:
         10:be:e0:35:b8:50:17:12:7c:8f:f9:7a:51:d9:d4:94:f7:d4:
         d8:09:e2:9e:6e:74:2e:09:95:e6:f3:3f:d9:9e:0a:68:50:35:
         51:f3:1e:23:0a:82:b2:36:be:46:8e:97:ff:11:7e:f7:3d:94:
         d5:3d:75:e3:37:f1:37:88:10:5b:07:5e:7d:a8:1c:fa:9a:3b:
         07:11:d9:58:2e:08:cc:5f:5c:f7:32:2e:0b:12:dd:2a:72:65:
         b1:80:d1:8c:df:40:8f:86:b2:77:19:53:06:a0:c9:0f:fb:50:
         a2:62:b5:af:93:96:00:3d:b4:7a:32:ce:f1:e7:92:8a:9e:5e:
         c4:32:9b:ab:ce:40:c8:ee:6a:9c:46:f8:c6:d9:e9:c7:13:d6:
         f2:4b:79:c4:0e:57:4a:8b
-----BEGIN CERTIFICATE-----
MIIDVTCCAT2gAwIBAwIBATANBgkqhkiG9w0BAQUFADApMQswCQYDVQQGEwJCRTEa
MBgGA1UEAxMRdHhqc29ucnBjLXRlc3QtY2EwHhcNNzAwMTAxMDAwMDAwWhcNMzgw
MTE5MDMxNDA3WjA3MRAwDgYDVQQDEwdjYS1ub25lMQswCQYDVQQGEwJCRTEWMBQG
A1UEChMNR3JlbXdlbGwgYnZiYTCBnzANBgkqhkiG9w0BAQEFAAOBjQAwgYkCgYEA
3vHJ86wz+dQllqZfRbIT4YG9SZBt9MIR9z5QBWLBfBh8867s7FqLPq1AgK5s8pWm
fuN+DoQmNWmUZXu+I45cCeCkoO4143LccSgaksHd7CJ2gn8QOXTPp7Ti9dqymHXI
wJeCvttSHOboRn0vt0MRY/8Qv6/3UqVBIyF5/eoFcHUCAwEAATANBgkqhkiG9w0B
AQUFAAOCAgEAsr7pbPbknqSw3n/hrpueoAjTaMGIJ3oH00CNI49ClUwnOqOWG3/Y
NvJ6x9iA6nTEDOhOmTMr15KrrcgCpERfLPIklpUj2DgV/toovfLq2q2i1xhQDhOl
fuOWh6P60cyGJR79lD8nUFcJixKPla/b5HM+RxDbO81SHR1FBuE3DbPQtqqA754L
YggU3kjM2KW8R5jIf7/jjPiSPYLZG2yTRKGuRe+ko1RXQbXLf3BsX7YMJRPv5ssD
FUHhqXpN7b14GRWh0M9aOwptpu360HIZK/x9gLmcrgkhVQraKizA2NNKRYWtALuS
rjQARRFNq59cM1Wbb0PeukALvSMbExq0SNM+ucX6dfG2Co8LbgPhRn6b5aC4uSKq
Y3QGQSMiSQnwF14zaxCSz2NGHDujPqS7KH6qTynVfUGxObECsiPtx3FGFfYjZ7Wz
2qLfqe+unXbJdLlUcZYuTCXgH0FM+2ekdYH1P5mi60gnEL7gNbhQFxJ8j/l6UdnU
lPfU2Aninm50LgmV5vM/2Z4KaFA1UfMeIwqCsja+Ro6X/xF+9z2U1T114zfxN4gQ
Wwdefagc+po7BxHZWC4IzF9c9zIuCxLdKnJlsYDRjN9Aj4aydxlTBqDJD/tQomK1
r5OWAD20ejLO8eeSip5exDKbq85AyO5qnEb4xtnpxxPW8kt5xA5XSos=
-----END CERTIFICATE-----
