Certificate:
    Data:
        Version: 4 (0x3)
        Serial Number: 1 (0x1)
    Signature Algorithm: sha1WithRSAEncryption
        Issuer: CN=ca-true, C=BE, O=Gremwell bvba
        Validity
            Not Before: Jan  1 00:00:00 1970 GMT
            Not After : Jan 19 03:14:07 2038 GMT
        Subject: CN=txjsonrpc-pyserver, C=BE, O=Gremwell bvba
        Subject Public Key Info:
            Public Key Algorithm: rsaEncryption
                Public-Key: (1024 bit)
                Modulus:
                    00:af:d3:0a:00:aa:ff:10:2f:96:90:1e:3e:b3:a5:
                    96:7a:8b:dd:73:cb:9a:8e:c6:bb:49:66:25:9e:e2:
                    b5:b5:a9:b0:34:01:69:c1:d9:35:0c:7e:1c:8d:08:
                    6b:bf:5a:a2:6e:b5:c7:d8:3a:c7:81:25:30:5a:fc:
                    3a:80:8f:82:25:ad:ee:4e:1d:32:c0:68:13:0e:65:
                    b4:85:d0:b8:45:37:d7:96:4e:e7:2d:4d:c9:8b:16:
                    11:a1:48:61:1b:4f:07:77:93:c8:7c:69:fc:68:dd:
                    1f:47:00:4c:7b:7b:c1:1c:7f:e8:c9:50:b0:ef:ed:
                    8b:a2:9c:fe:ea:cb:7a:62:43
                Exponent: 65537 (0x10001)
    Signature Algorithm: sha1WithRSAEncryption
         2a:f1:28:ad:b6:d9:90:39:67:75:1f:ef:21:4c:df:8e:69:06:
         b5:a9:3c:a4:27:eb:d1:24:cc:ae:3d:ec:ec:af:68:15:5e:31:
         20:12:9a:04:44:ca:fa:35:10:0c:a4:a7:13:8c:bb:e3:89:f5:
         df:df:55:d6:20:71:f6:6c:59:f5:14:f5:d0:24:69:5b:76:5c:
         75:f5:90:b5:a7:d1:dc:d5:54:7e:b4:a7:07:89:84:63:96:cd:
         fb:77:af:87:ca:9f:80:58:ce:b5:19:e2:8e:2b:c4:e7:1f:55:
         4c:3b:89:82:28:74:9e:3f:4c:41:18:83:68:45:60:c8:55:fb:
         b3:cb
-----BEGIN CERTIFICATE-----
MIIB7TCCAVagAwIBAwIBATANBgkqhkiG9w0BAQUFADA3MRAwDgYDVQQDEwdjYS10
cnVlMQswCQYDVQQGEwJCRTEWMBQGA1UEChMNR3JlbXdlbGwgYnZiYTAeFw03MDAx
MDEwMDAwMDBaFw0zODAxMTkwMzE0MDdaMEIxGzAZBgNVBAMTEnR4anNvbnJwYy1w
eXNlcnZlcjELMAkGA1UEBhMCQkUxFjAUBgNVBAoTDUdyZW13ZWxsIGJ2YmEwgZ8w
DQYJKoZIhvcNAQEBBQADgY0AMIGJAoGBAK/TCgCq/xAvlpAePrOllnqL3XPLmo7G
u0lmJZ7itbWpsDQBacHZNQx+HI0Ia79aom61x9g6x4ElMFr8OoCPgiWt7k4dMsBo
Ew5ltIXQuEU315ZO5y1NyYsWEaFIYRtPB3eTyHxp/GjdH0cATHt7wRx/6MlQsO/t
i6Kc/urLemJDAgMBAAEwDQYJKoZIhvcNAQEFBQADgYEAKvEorbbZkDlndR/vIUzf
jmkGtak8pCfr0STMrj3s7K9oFV4xIBKaBETK+jUQDKSnE4y744n1399V1iBx9mxZ
9RT10CRpW3ZcdfWQtafR3NVUfrSnB4mEY5bN+3evh8qfgFjOtRnijivE5x9VTDuJ
gih0nj9MQRiDaEVgyFX7s8s=
-----END CERTIFICATE-----
Certificate:
    Data:
        Version: 4 (0x3)
        Serial Number: 1 (0x1)
    Signature Algorithm: sha1WithRSAEncryption
        Issuer: C=BE, CN=txjsonrpc-test-ca
        Validity
            Not Before: Jan  1 00:00:00 1970 GMT
            Not After : Jan 19 03:14:07 2038 GMT
        Subject: CN=ca-true, C=BE, O=Gremwell bvba
        Subject Public Key Info:
            Public Key Algorithm: rsaEncryption
                Public-Key: (1024 bit)
                Modulus:
                    00:fb:95:99:d3:49:30:00:74:0b:24:81:5e:86:51:
                    76:a2:87:88:37:c2:b0:23:6f:fd:8c:eb:03:9c:68:
                    6b:b5:25:ea:ff:f3:e1:14:33:96:0d:7f:2a:49:d4:
                    f4:80:ab:90:9e:56:d9:67:42:07:2e:ca:d7:84:50:
                    87:d5:12:8d:bf:69:1b:8f:96:54:5f:13:39:b8:a2:
                    01:82:34:e9:e0:1e:b3:4f:e6:25:bd:b7:55:55:17:
                    c1:06:d9:4e:03:22:37:0e:e3:52:c6:c0:7a:09:85:
                    b7:9d:67:8c:21:bf:0d:0b:90:28:b9:de:57:a7:eb:
                    c2:96:0a:3d:72:3b:00:9d:07
                Exponent: 65537 (0x10001)
        X509v3 extensions:
            X509v3 Basic Constraints: critical
                CA:TRUE
    Signature Algorithm: sha1WithRSAEncryption
         12:48:0c:68:34:68:40:8b:1d:95:ac:8c:9a:75:0d:51:7e:ee:
         1c:8c:52:36:15:19:1f:4e:6b:42:18:b5:47:a6:01:4b:e2:5d:
         48:d1:10:42:a9:73:e6:c4:78:77:bf:41:75:a3:26:92:15:10:
         fb:13:a5:f3:fa:e6:e2:ed:0c:51:b2:dd:51:4c:b4:5a:d4:56:
         ad:a4:8a:25:82:c3:3d:97:19:71:97:b3:f9:62:de:6c:89:e7:
         af:14:7d:ac:6f:35:6c:16:5c:d7:ad:8e:18:12:4f:e2:86:2f:
         4b:76:97:56:d7:7b:99:7e:0c:39:de:8e:cd:2d:e9:1c:3a:c5:
         b0:9c:a4:fc:8f:18:24:2a:6c:aa:d9:0e:98:9f:e5:da:73:93:
         99:ae:89:6b:fa:1b:ab:e1:9d:88:d8:f9:09:13:8c:38:00:5f:
         19:40:0f:06:79:65:db:88:02:91:81:a3:3d:7d:c0:73:f8:a7:
         48:7f:d5:5d:b3:a6:38:30:e0:20:f8:6e:79:a4:16:38:76:34:
         01:45:4d:e6:4d:22:9e:42:4b:53:c9:9e:85:f9:9c:ba:f2:c6:
         b1:3e:2e:9b:ac:03:9a:cf:2a:2f:77:1f:77:d5:20:c1:f4:a0:
         1f:36:5d:d1:0a:02:43:08:a6:52:ca:76:6b:d7:00:df:16:d6:
         34:21:7e:35:47:b7:a8:aa:fd:ba:74:86:10:51:ed:04:f6:6e:
         1a:83:ee:9d:05:ef:69:ab:c0:33:dc:d6:44:c5:86:03:7c:8f:
         ba:36:b7:a2:71:9e:7d:4d:ec:55:c0:38:c6:9e:e0:3d:7f:a8:
         84:c0:60:60:7a:f4:e8:7c:92:6d:11:5d:01:21:f6:52:d7:20:
         30:de:70:24:d3:f1:e6:98:8b:5b:30:25:73:7c:53:5b:16:eb:
         3d:46:e9:6e:ba:88:55:fb:6a:24:3e:cc:09:6b:2c:3c:72:23:
         78:ff:54:54:10:0c:b7:28:dd:9c:af:2a:f6:32:60:ec:ae:09:
         65:d3:c8:ea:6f:3e:e6:75:ca:55:b1:c8:28:a2:d5:f5:a0:2b:
         b9:a3:be:21:9a:21:2a:3e:6e:8c:f1:39:01:3a:d3:c2:a4:fe:
         96:67:a9:17:10:78:d0:f2:50:0a:48:cf:e3:c5:9d:0b:90:66:
         2c:26:1a:33:55:e2:f9:0d:0e:81:48:5e:7c:87:80:09:33:de:
         2b:91:58:a5:bd:8c:15:1b:44:1e:46:3c:21:31:5e:bc:06:f5:
         13:60:4d:ae:a4:d8:9d:4f:0b:8c:56:ef:71:54:38:0e:20:5e:
         55:d3:19:8d:ad:23:71:ab:f9:5d:a9:7b:a4:74:47:24:50:c1:
         86:64:cd:af:71:52:19:cb
-----BEGIN CERTIFICATE-----
MIIDajCCAVKgAwIBAwIBATANBgkqhkiG9w0BAQUFADApMQswCQYDVQQGEwJCRTEa
MBgGA1UEAxMRdHhqc29ucnBjLXRlc3QtY2EwHhcNNzAwMTAxMDAwMDAwWhcNMzgw
MTE5MDMxNDA3WjA3MRAwDgYDVQQDEwdjYS10cnVlMQswCQYDVQQGEwJCRTEWMBQG
A1UEChMNR3JlbXdlbGwgYnZiYTCBnzANBgkqhkiG9w0BAQEFAAOBjQAwgYkCgYEA
+5WZ00kwAHQLJIFehlF2ooeIN8KwI2/9jOsDnGhrtSXq//PhFDOWDX8qSdT0gKuQ
nlbZZ0IHLsrXhFCH1RKNv2kbj5ZUXxM5uKIBgjTp4B6zT+YlvbdVVRfBBtlOAyI3
DuNSxsB6CYW3nWeMIb8NC5Aoud5Xp+vClgo9cjsAnQcCAwEAAaMTMBEwDwYDVR0T
AQH/BAUwAwEB/zANBgkqhkiG9w0BAQUFAAOCAgEAEkgMaDRoQIsdlayMmnUNUX7u
HIxSNhUZH05rQhi1R6YBS+JdSNEQQqlz5sR4d79BdaMmkhUQ+xOl8/rm4u0MUbLd
UUy0WtRWraSKJYLDPZcZcZez+WLebInnrxR9rG81bBZc162OGBJP4oYvS3aXVtd7
mX4MOd6OzS3pHDrFsJyk/I8YJCpsqtkOmJ/l2nOTma6Ja/obq+GdiNj5CROMOABf
GUAPBnll24gCkYGjPX3Ac/inSH/VXbOmODDgIPhueaQWOHY0AUVN5k0inkJLU8me
hfmcuvLGsT4um6wDms8qL3cfd9UgwfSgHzZd0QoCQwimUsp2a9cA3xbWNCF+NUe3
qKr9unSGEFHtBPZuGoPunQXvaavAM9zWRMWGA3yPuja3onGefU3sVcA4xp7gPX+o
hMBgYHr06HySbRFdASH2UtcgMN5wJNPx5piLWzAlc3xTWxbrPUbpbrqIVftqJD7M
CWssPHIjeP9UVBAMtyjdnK8q9jJg7K4JZdPI6m8+5nXKVbHIKKLV9aAruaO+IZoh
Kj5ujPE5ATrTwqT+lmepFxB40PJQCkjP48WdC5BmLCYaM1Xi+Q0OgUhefIeACTPe
K5FYpb2MFRtEHkY8ITFevAb1E2BNrqTYnU8LjFbvcVQ4DiBeVdMZja0jcav5Xal7
pHRHJFDBhmTNr3FSGcs=
-----END CERTIFICATE-----
