Certificate:
    Data:
        Version: 4 (0x3)
        Serial Number: 1 (0x1)
    Signature Algorithm: sha1WithRSAEncryption
        Issuer: CN=txjsonrpc-pyserver, C=BE, O=Gremwell bvba
        Validity
            Not Before: Jan  1 00:00:00 1970 GMT
            Not After : Jan 19 03:14:07 2038 GMT
        Subject: CN=txjsonrpc-pyserver, C=BE, O=Gremwell bvba
        Subject Public Key Info:
            Public Key Algorithm: rsaEncryption
                Public-Key: (1024 bit)
                Modulus:
                    00:af:d3:0a:00:aa:ff:10:2f:96:90:1e:3e:b3:a5:
                    96:7a:8b:dd:73:cb:9a:8e:c6:bb:49:66:25:9e:e2:
                    b5:b5:a9:b0:34:01:69:c1:d9:35:0c:7e:1c:8d:08:
                    6b:bf:5a:a2:6e:b5:c7:d8:3a:c7:81:25:30:5a:fc:
                    3a:80:8f:82:25:ad:ee:4e:1d:32:c0:68:13:0e:65:
                    b4:85:d0:b8:45:37:d7:96:4e:e7:2d:4d:c9:8b:16:
                    11:a1:48:61:1b:4f:07:77:93:c8:7c:69:fc:68:dd:
                    1f:47:00:4c:7b:7b:c1:1c:7f:e8:c9:50:b0:ef:ed:
                    8b:a2:9c:fe:ea:cb:7a:62:43
                Exponent: 65537 (0x10001)
    Signature Algorithm: sha1WithRSAEncryption
         5c:a6:0a:cc:ce:37:f4:ab:d1:44:a1:fe:8f:09:5c:26:2a:26:
         b2:24:54:52:72:b8:96:82:43:11:3b:56:51:bc:0d:00:f8:c3:
         47:76:3f:07:34:34:56:69:54:46:b1:9e:1a:28:5a:97:22:36:
         53:88:8e:44:89:12:5e:37:d4:83:45:96:c4:69:ef:09:9b:01:
         fe:b4:9c:8a:6b:37:44:92:b7:a9:37:ff:3d:9c:43:fd:e8:30:
         97:b0:49:92:87:35:7c:70:cd:0c:22:e5:55:6a:06:27:9b:42:
         c9:98:57:76:d8:50:04:bb:ee:3b:36:23:10:26:73:73:9d:06:
         25:77
-----BEGIN CERTIFICATE-----
MIIB+DCCAWGgAwIBAwIBATANBgkqhkiG9w0BAQUFADBCMRswGQYDVQQDExJ0eGpz
b25ycGMtcHlzZXJ2ZXIxCzAJBgNVBAYTAkJFMRYwFAYDVQQKEw1HcmVtd2VsbCBi
dmJhMB4XDTcwMDEwMTAwMDAwMFoXDTM4MDExOTAzMTQwN1owQjEbMBkGA1UEAxMS
dHhqc29ucnBjLXB5c2VydmVyMQswCQYDVQQGEwJCRTEWMBQGA1UEChMNR3JlbXdl
bGwgYnZiYTCBnzANBgkqhkiG9w0BAQEFAAOBjQAwgYkCgYEAr9MKAKr/EC+WkB4+
s6WWeovdc8uajsa7SWYlnuK1tamwNAFpwdk1DH4cjQhrv1qibrXH2DrHgSUwWvw6
gI+CJa3uTh0ywGgTDmW0hdC4RTfXlk7nLU3JixYRoUhhG08Hd5PIfGn8aN0fRwBM
e3vBHH/oyVCw7+2Lopz+6st6YkMCAwEAATANBgkqhkiG9w0BAQUFAAOBgQBcpgrM
zjf0q9FEof6PCVwmKiayJFRScriWgkMRO1ZRvA0A+MNHdj8HNDRWaVRGsZ4aKFqX
IjZTiI5EiRJeN9SDRZbEae8JmwH+tJyKazdEkrepN/89nEP96DCXsEmShzV8cM0M
IuVVagYnm0LJmFd22FAEu+47NiMQJnNznQYldw==
-----END CERTIFICATE-----
