Certificate:
    Data:
        Version: 3 (0x2)
        Serial Number: 1 (0x1)
    Signature Algorithm: sha1WithRSAEncryption
        Issuer: CN=ca-false, C=BE, O=Gremwell bvba
        Validity
            Not Before: Jun 23 15:47:38 2012 GMT
            Not After : Jun 23 15:47:38 2013 GMT
        Subject: C=BE, CN=txjsonrpc-pyserver
        Subject Public Key Info:
            Public Key Algorithm: rsaEncryption
                Public-Key: (4096 bit)
                Modulus:
                    00:ce:7c:0c:28:a5:3d:7a:2b:12:38:7d:e6:f6:82:
                    70:af:b0:c3:ff:75:9a:98:a7:d2:b3:75:9c:c1:b4:
                    09:1b:a3:cf:b6:b5:14:0f:c1:e4:c0:43:3e:6a:5b:
                    df:08:b7:17:70:d4:e4:a8:11:b9:dd:6e:c1:f9:22:
                    28:a2:69:bb:a9:b5:ee:91:d9:03:b7:2c:d5:41:cf:
                    7b:d8:22:a6:bb:fa:c5:cd:1d:d9:a7:04:2e:70:a7:
                    15:df:80:fc:28:db:90:6c:be:78:4d:33:89:60:92:
                    2d:64:32:09:f4:d2:f0:c1:a7:ff:19:73:85:51:ad:
                    99:4f:de:70:fb:ba:1d:79:b0:e5:52:fd:83:95:ff:
                    d6:81:65:91:b8:bb:be:ab:7e:e2:62:c6:1c:e5:5a:
                    b0:79:ce:da:f8:7e:46:88:87:d4:c5:2b:03:5b:88:
                    fd:8b:89:8e:92:97:f0:cc:04:c0:8d:1c:d0:37:6b:
                    1d:f3:6e:96:7f:65:22:64:d1:14:65:9d:37:bb:2f:
                    bf:7b:fa:8f:b5:16:20:28:86:6c:1d:72:e7:1b:0a:
                    23:16:8d:28:20:09:39:4e:35:69:24:a6:c0:56:26:
                    00:56:0a:69:c8:b5:10:86:12:60:64:91:9a:00:7e:
                    c8:41:62:f9:a5:17:13:79:e1:d3:f2:bd:46:6f:b9:
                    4c:be:89:c7:6b:52:ef:e9:e1:03:3c:44:e1:af:c0:
                    e1:6c:a7:47:eb:d8:47:35:f4:d1:44:04:68:47:c4:
                    f2:2e:95:cd:1f:7a:da:68:8e:1c:84:7d:51:58:c2:
                    2d:0d:1e:4e:09:ff:be:6c:0e:35:72:9e:ab:1c:0d:
                    94:a2:0c:d2:5b:c6:c7:8b:84:b3:7d:37:9f:60:36:
                    a7:8e:9c:61:92:1b:75:5e:e1:d0:b6:c3:89:45:40:
                    a5:56:1c:66:37:49:36:c5:f2:08:50:9c:4c:fb:a1:
                    91:c5:3f:e1:d2:19:9e:48:f7:e3:19:0f:40:49:e3:
                    13:e4:97:3e:04:f9:0c:bd:61:71:21:13:20:f6:99:
                    6f:e3:bd:b6:88:80:05:fe:d7:38:a7:61:0d:d7:c4:
                    47:85:e9:bd:48:93:fd:6c:6f:8d:60:f1:fc:b2:42:
                    d2:bb:aa:1c:0c:f3:90:62:07:09:03:ba:ab:bb:38:
                    55:09:c4:74:93:27:b5:b5:cd:00:bb:12:9b:55:4f:
                    1b:67:a9:9b:29:46:22:7f:0c:4b:1b:a6:ad:14:09:
                    96:29:c8:2c:43:a4:0f:cd:29:73:f8:8d:27:d3:5e:
                    56:51:63:2e:66:77:bc:58:66:32:a2:b8:6c:c7:80:
                    bf:64:1e:c7:05:6e:36:9d:6d:84:1f:cf:07:74:c8:
                    d2:72:b7
                Exponent: 65537 (0x10001)
        X509v3 extensions:
            X509v3 Basic Constraints: 
                CA:FALSE
            Netscape Cert Type: 
                SSL Server
            Netscape Comment: 
                TinyCA Generated Certificate
            X509v3 Subject Key Identifier: 
                26:8C:A5:F9:A6:4A:FE:4C:E8:0F:04:33:7E:04:26:28:BF:4C:92:F3
            X509v3 Authority Key Identifier: 
                keyid:9D:8F:84:76:94:CD:07:FE:A3:E8:8B:D7:F9:D9:6E:EF:CA:75:51:7B
                DirName:/C=BE/CN=txjsonrpc-test-ca
                serial:8D:D2:AF:37:F9:CA:92:0B

            X509v3 Issuer Alternative Name: 
                <EMPTY>

            X509v3 Subject Alternative Name: 
                <EMPTY>

    Signature Algorithm: sha1WithRSAEncryption
         0f:9e:f8:95:9a:0e:25:90:13:07:f9:57:21:0c:ae:65:ee:d0:
         51:26:66:fd:ab:3a:97:f4:a2:c1:a6:93:90:90:42:7a:a0:44:
         7d:4f:f0:ce:92:0f:12:c0:2b:3c:91:da:5a:45:60:77:05:41:
         23:80:f0:cf:38:c4:20:11:39:66:d7:1b:42:97:ff:2e:a4:ae:
         0b:48:3e:d0:19:a1:73:01:19:d6:17:ae:9c:fc:d9:d2:07:d3:
         2e:a4:d2:3a:03:92:35:96:24:07:3b:90:6a:fd:7f:01:da:66:
         38:23:86:cd:ed:f3:dd:9f:92:ce:f5:9b:7c:0a:4a:72:8b:a3:
         f8:38
-----BEGIN CERTIFICATE-----
MIIEOzCCA6SgAwIBAgIBATANBgkqhkiG9w0BAQUFADA4MREwDwYDVQQDEwhjYS1m
YWxzZTELMAkGA1UEBhMCQkUxFjAUBgNVBAoTDUdyZW13ZWxsIGJ2YmEwHhcNMTIw
NjIzMTU0NzM4WhcNMTMwNjIzMTU0NzM4WjAqMQswCQYDVQQGEwJCRTEbMBkGA1UE
AxMSdHhqc29ucnBjLXB5c2VydmVyMIICIjANBgkqhkiG9w0BAQEFAAOCAg8AMIIC
CgKCAgEAznwMKKU9eisSOH3m9oJwr7DD/3WamKfSs3WcwbQJG6PPtrUUD8HkwEM+
alvfCLcXcNTkqBG53W7B+SIoomm7qbXukdkDtyzVQc972CKmu/rFzR3ZpwQucKcV
34D8KNuQbL54TTOJYJItZDIJ9NLwwaf/GXOFUa2ZT95w+7odebDlUv2Dlf/WgWWR
uLu+q37iYsYc5Vqwec7a+H5GiIfUxSsDW4j9i4mOkpfwzATAjRzQN2sd826Wf2Ui
ZNEUZZ03uy+/e/qPtRYgKIZsHXLnGwojFo0oIAk5TjVpJKbAViYAVgppyLUQhhJg
ZJGaAH7IQWL5pRcTeeHT8r1Gb7lMvonHa1Lv6eEDPEThr8DhbKdH69hHNfTRRARo
R8TyLpXNH3raaI4chH1RWMItDR5OCf++bA41cp6rHA2UogzSW8bHi4SzfTefYDan
jpxhkht1XuHQtsOJRUClVhxmN0k2xfIIUJxM+6GRxT/h0hmeSPfjGQ9ASeMT5Jc+
BPkMvWFxIRMg9plv4722iIAF/tc4p2EN18RHhem9SJP9bG+NYPH8skLSu6ocDPOQ
YgcJA7qruzhVCcR0kye1tc0AuxKbVU8bZ6mbKUYifwxLG6atFAmWKcgsQ6QPzSlz
+I0n015WUWMuZne8WGYyorhsx4C/ZB7HBW42nW2EH88HdMjScrcCAwEAAaOB3jCB
2zAJBgNVHRMEAjAAMBEGCWCGSAGG+EIBAQQEAwIGQDArBglghkgBhvhCAQ0EHhYc
VGlueUNBIEdlbmVyYXRlZCBDZXJ0aWZpY2F0ZTAdBgNVHQ4EFgQUJoyl+aZK/kzo
DwQzfgQmKL9MkvMwWQYDVR0jBFIwUIAUnY+EdpTNB/6j6IvX+dlu78p1UXuhLaQr
MCkxCzAJBgNVBAYTAkJFMRowGAYDVQQDExF0eGpzb25ycGMtdGVzdC1jYYIJAI3S
rzf5ypILMAkGA1UdEgQCMAAwCQYDVR0RBAIwADANBgkqhkiG9w0BAQUFAAOBgQAP
nviVmg4lkBMH+VchDK5l7tBRJmb9qzqX9KLBppOQkEJ6oER9T/DOkg8SwCs8kdpa
RWB3BUEjgPDPOMQgETlm1xtCl/8upK4LSD7QGaFzARnWF66c/NnSB9MupNI6A5I1
liQHO5Bq/X8B2mY4I4bN7fPdn5LO9Zt8Ckpyi6P4OA==
-----END CERTIFICATE-----
Certificate:
    Data:
        Version: 4 (0x3)
        Serial Number: 1 (0x1)
    Signature Algorithm: sha1WithRSAEncryption
        Issuer: C=BE, CN=txjsonrpc-test-ca
        Validity
            Not Before: Jan  1 00:00:00 1970 GMT
            Not After : Jan 19 03:14:07 2038 GMT
        Subject: CN=ca-false, C=BE, O=Gremwell bvba
        Subject Public Key Info:
            Public Key Algorithm: rsaEncryption
                Public-Key: (1024 bit)
                Modulus:
                    00:d6:4d:57:84:9a:df:0a:c4:0e:22:7c:0b:bb:d6:
                    18:71:5f:7c:00:bd:19:02:2b:08:80:c5:50:34:c9:
                    23:7f:62:93:0a:c2:dc:1b:55:13:d1:19:f0:0c:e0:
                    e0:da:c1:42:df:23:0d:dc:39:bc:99:1a:4e:ef:ac:
                    cb:5d:ad:03:98:00:f6:43:a4:d9:65:bc:6e:f9:b0:
                    29:af:77:5f:d1:89:09:ef:f5:e4:78:ec:b8:76:18:
                    ed:2f:ac:2d:1a:8c:66:10:71:de:0f:c3:69:46:70:
                    6f:a5:7c:da:ff:f6:2d:f0:ec:98:02:bf:1f:01:d6:
                    3a:b9:49:81:5e:99:71:e9:79
                Exponent: 65537 (0x10001)
        X509v3 extensions:
            X509v3 Basic Constraints: critical
                CA:FALSE
    Signature Algorithm: sha1WithRSAEncryption
         bb:ad:00:84:20:64:9f:97:ba:6f:49:8f:fd:ec:58:3c:7c:d8:
         f4:35:49:91:43:c4:f6:63:b8:e1:54:11:94:ff:9b:cc:78:a7:
         02:fe:2e:80:f9:1d:5a:6e:53:1c:a5:12:bb:2e:77:79:2d:bf:
         75:51:2e:a9:f8:c9:3d:cf:58:9f:96:62:ae:bf:5a:86:92:5c:
         ba:c9:78:b5:33:ad:03:a6:ad:63:37:55:66:1e:b8:f6:1a:f2:
         af:81:a8:7c:e6:b9:85:16:b9:05:2e:43:f9:09:49:ad:09:7e:
         c4:bb:67:d0:d2:2a:b0:1c:3d:67:d9:cc:f6:5f:d7:21:fd:61:
         32:a3:19:ec:84:29:07:44:6b:5d:53:bf:39:2e:1c:93:a6:92:
         d9:35:36:24:ce:bb:bf:12:f0:7b:65:e4:30:a9:27:6d:ef:22:
         5d:48:ff:68:0d:00:12:b4:c0:0f:e6:25:05:5f:c9:28:73:3a:
         6f:32:b4:8c:3b:06:7d:82:6d:60:9c:4e:35:e3:25:55:55:41:
         c9:0d:8c:f9:6e:02:68:95:6c:00:af:a1:c2:e2:35:fd:57:af:
         2f:cf:4a:7b:70:a0:6e:dc:be:92:79:58:4a:62:93:e1:65:a5:
         20:ef:42:dc:fe:52:d7:89:67:f2:f1:0b:93:4f:d3:dc:32:9b:
         28:06:44:37:75:e0:7a:ce:5b:a2:31:0c:47:9d:f9:d5:1f:5a:
         a4:d9:4a:e4:19:30:92:03:4e:64:fd:ac:07:e3:10:0b:65:d3:
         6e:65:03:f6:b7:85:2b:e4:ec:6e:05:68:6b:df:60:97:a4:1b:
         bf:fd:5c:e9:46:07:1f:10:61:e2:fa:94:6e:f0:ac:70:30:1c:
         30:01:33:cb:bf:0c:17:4a:04:69:f3:13:7b:e5:a2:9e:1e:b9:
         c1:50:0e:c4:fa:0b:26:1b:13:b0:b3:a5:26:4b:12:7d:e7:0f:
         b9:1f:e9:3a:31:ba:2a:04:94:c2:d5:05:89:89:56:e6:1d:7d:
         a8:41:19:7f:b4:8f:fd:3a:30:ba:42:d4:94:f9:65:06:b1:d2:
         6d:48:40:aa:c5:ee:99:c1:3c:19:06:58:b1:8b:66:22:e3:2c:
         01:30:9d:41:b9:0a:73:3f:a5:fc:4e:28:48:f1:d9:ce:32:9c:
         94:6e:01:45:32:a6:1a:7b:a4:71:6f:20:0b:ef:89:0e:a7:08:
         8b:38:1a:58:50:82:87:c8:27:d9:5a:5f:93:fa:4c:eb:e3:1b:
         81:56:42:76:e7:23:02:21:01:1c:59:96:47:74:ef:40:03:da:
         16:5b:d4:d2:bc:71:05:68:65:2f:85:f6:3e:6c:13:2e:84:bd:
         51:a3:13:6f:92:d1:ab:74
-----BEGIN CERTIFICATE-----
MIIDaDCCAVCgAwIBAwIBATANBgkqhkiG9w0BAQUFADApMQswCQYDVQQGEwJCRTEa
MBgGA1UEAxMRdHhqc29ucnBjLXRlc3QtY2EwHhcNNzAwMTAxMDAwMDAwWhcNMzgw
MTE5MDMxNDA3WjA4MREwDwYDVQQDEwhjYS1mYWxzZTELMAkGA1UEBhMCQkUxFjAU
BgNVBAoTDUdyZW13ZWxsIGJ2YmEwgZ8wDQYJKoZIhvcNAQEBBQADgY0AMIGJAoGB
ANZNV4Sa3wrEDiJ8C7vWGHFffAC9GQIrCIDFUDTJI39ikwrC3BtVE9EZ8Azg4NrB
Qt8jDdw5vJkaTu+sy12tA5gA9kOk2WW8bvmwKa93X9GJCe/15HjsuHYY7S+sLRqM
ZhBx3g/DaUZwb6V82v/2LfDsmAK/HwHWOrlJgV6Zcel5AgMBAAGjEDAOMAwGA1Ud
EwEB/wQCMAAwDQYJKoZIhvcNAQEFBQADggIBALutAIQgZJ+Xum9Jj/3sWDx82PQ1
SZFDxPZjuOFUEZT/m8x4pwL+LoD5HVpuUxylErsud3ktv3VRLqn4yT3PWJ+WYq6/
WoaSXLrJeLUzrQOmrWM3VWYeuPYa8q+BqHzmuYUWuQUuQ/kJSa0JfsS7Z9DSKrAc
PWfZzPZf1yH9YTKjGeyEKQdEa11TvzkuHJOmktk1NiTOu78S8Htl5DCpJ23vIl1I
/2gNABK0wA/mJQVfyShzOm8ytIw7Bn2CbWCcTjXjJVVVQckNjPluAmiVbACvocLi
Nf1Xry/PSntwoG7cvpJ5WEpik+FlpSDvQtz+UteJZ/LxC5NP09wymygGRDd14HrO
W6IxDEed+dUfWqTZSuQZMJIDTmT9rAfjEAtl025lA/a3hSvk7G4FaGvfYJekG7/9
XOlGBx8QYeL6lG7wrHAwHDABM8u/DBdKBGnzE3vlop4eucFQDsT6CyYbE7CzpSZL
En3nD7kf6ToxuioElMLVBYmJVuYdfahBGX+0j/06MLpC1JT5ZQax0m1IQKrF7pnB
PBkGWLGLZiLjLAEwnUG5CnM/pfxOKEjx2c4ynJRuAUUyphp7pHFvIAvviQ6nCIs4
GlhQgofIJ9laX5P6TOvjG4FWQnbnIwIhARxZlkd070AD2hZb1NK8cQVoZS+F9j5s
Ey6EvVGjE2+S0at0
-----END CERTIFICATE-----
