Certificate:
    Data:
        Version: 4 (0x3)
        Serial Number: 1 (0x1)
    Signature Algorithm: sha1WithRSAEncryption
        Issuer: CN=www.example.com, C=BE, O=Gremwell bvba
        Validity
            Not Before: Jan  1 00:00:00 1970 GMT
            Not After : Jan 19 03:14:07 2038 GMT
        Subject: CN=www.example.com, C=BE, O=Gremwell bvba
        Subject Public Key Info:
            Public Key Algorithm: rsaEncryption
                Public-Key: (1024 bit)
                Modulus:
                    00:aa:c1:01:2e:1d:07:2f:7b:91:27:b2:c9:32:6f:
                    0e:44:16:9f:75:47:94:23:a4:82:18:d4:25:8d:8b:
                    4d:5a:f2:73:ca:0a:ec:00:66:71:ed:bb:48:63:53:
                    f5:16:83:8b:1c:09:17:68:a6:2a:5e:7f:70:9e:44:
                    98:72:70:ec:23:93:8f:c5:9d:27:28:89:33:2b:dc:
                    97:46:18:96:db:74:86:a1:36:df:d3:24:b5:18:b6:
                    be:3b:ba:ed:a8:c6:d4:60:56:2c:b2:75:5c:25:ea:
                    e2:0a:98:87:db:3d:53:9d:12:dd:28:00:83:98:5f:
                    49:10:ff:00:97:84:31:e9:ed
                Exponent: 65537 (0x10001)
    Signature Algorithm: sha1WithRSAEncryption
         9c:cc:04:3b:77:11:8f:d1:d6:27:04:7c:ed:80:08:82:58:05:
         ce:e3:e1:27:f5:a5:1b:0a:46:67:5c:d8:27:5f:20:df:5e:02:
         7f:8b:4f:51:d8:ef:f7:a6:4b:d7:8d:26:ad:55:d5:7c:bd:0e:
         63:57:46:e6:dc:45:18:47:cf:04:e2:e3:53:ab:78:2c:01:f6:
         0d:4f:bc:75:86:8d:5e:e1:0d:89:dc:47:a1:e6:0c:8a:07:2c:
         3d:a5:7d:31:5f:8a:f9:e3:36:ca:3c:c6:ce:da:c3:4d:e3:bb:
         cb:cc:01:50:a9:bb:79:60:88:ce:6a:25:a3:19:24:4b:69:96:
         9c:60
-----BEGIN CERTIFICATE-----
MIIB8jCCAVugAwIBAwIBATANBgkqhkiG9w0BAQUFADA/MRgwFgYDVQQDEw93d3cu
ZXhhbXBsZS5jb20xCzAJBgNVBAYTAkJFMRYwFAYDVQQKEw1HcmVtd2VsbCBidmJh
MB4XDTcwMDEwMTAwMDAwMFoXDTM4MDExOTAzMTQwN1owPzEYMBYGA1UEAxMPd3d3
LmV4YW1wbGUuY29tMQswCQYDVQQGEwJCRTEWMBQGA1UEChMNR3JlbXdlbGwgYnZi
YTCBnzANBgkqhkiG9w0BAQEFAAOBjQAwgYkCgYEAqsEBLh0HL3uRJ7LJMm8ORBaf
dUeUI6SCGNQljYtNWvJzygrsAGZx7btIY1P1FoOLHAkXaKYqXn9wnkSYcnDsI5OP
xZ0nKIkzK9yXRhiW23SGoTbf0yS1GLa+O7rtqMbUYFYssnVcJeriCpiH2z1TnRLd
KACDmF9JEP8Al4Qx6e0CAwEAATANBgkqhkiG9w0BAQUFAAOBgQCczAQ7dxGP0dYn
BHztgAiCWAXO4+En9aUbCkZnXNgnXyDfXgJ/i09R2O/3pkvXjSatVdV8vQ5jV0bm
3EUYR88E4uNTq3gsAfYNT7x1ho1e4Q2J3Eeh5gyKByw9pX0xX4r54zbKPMbO2sNN
47vLzAFQqbt5YIjOaiWjGSRLaZacYA==
-----END CERTIFICATE-----
