Certificate:
    Data:
        Version: 4 (0x3)
        Serial Number: 1 (0x1)
    Signature Algorithm: sha1WithRSAEncryption
        Issuer: CN=ca-true, C=BE, O=Gremwell bvba
        Validity
            Not Before: Jan  1 00:00:00 1970 GMT
            Not After : Jan 19 03:14:07 2038 GMT
        Subject: CN=www.example.com, C=BE, O=Gremwell bvba
        Subject Public Key Info:
            Public Key Algorithm: rsaEncryption
                Public-Key: (1024 bit)
                Modulus:
                    00:aa:c1:01:2e:1d:07:2f:7b:91:27:b2:c9:32:6f:
                    0e:44:16:9f:75:47:94:23:a4:82:18:d4:25:8d:8b:
                    4d:5a:f2:73:ca:0a:ec:00:66:71:ed:bb:48:63:53:
                    f5:16:83:8b:1c:09:17:68:a6:2a:5e:7f:70:9e:44:
                    98:72:70:ec:23:93:8f:c5:9d:27:28:89:33:2b:dc:
                    97:46:18:96:db:74:86:a1:36:df:d3:24:b5:18:b6:
                    be:3b:ba:ed:a8:c6:d4:60:56:2c:b2:75:5c:25:ea:
                    e2:0a:98:87:db:3d:53:9d:12:dd:28:00:83:98:5f:
                    49:10:ff:00:97:84:31:e9:ed
                Exponent: 65537 (0x10001)
    Signature Algorithm: sha1WithRSAEncryption
         2a:8d:e7:36:f7:4d:1c:e2:7b:92:b7:a8:3a:c5:ba:76:e8:2f:
         64:67:8b:9a:84:8a:b6:f6:20:09:81:b6:1c:10:af:de:7e:eb:
         b4:2f:33:54:07:0e:67:06:f7:99:64:d3:10:8b:9a:a8:df:d4:
         4e:2f:e6:d4:30:7c:35:a1:70:3d:05:61:ec:e3:6b:fb:2f:24:
         40:a9:56:17:03:f5:e9:a3:71:b7:ae:e9:58:30:27:f7:a0:bd:
         85:35:c0:f5:e3:64:05:44:e3:dc:54:84:c8:aa:95:22:ba:ac:
         34:86:fe:c6:09:a6:cc:e4:c7:ca:3b:15:ea:9c:3a:80:04:97:
         dd:36
-----BEGIN CERTIFICATE-----
MIIB6jCCAVOgAwIBAwIBATANBgkqhkiG9w0BAQUFADA3MRAwDgYDVQQDEwdjYS10
cnVlMQswCQYDVQQGEwJCRTEWMBQGA1UEChMNR3JlbXdlbGwgYnZiYTAeFw03MDAx
MDEwMDAwMDBaFw0zODAxMTkwMzE0MDdaMD8xGDAWBgNVBAMTD3d3dy5leGFtcGxl
LmNvbTELMAkGA1UEBhMCQkUxFjAUBgNVBAoTDUdyZW13ZWxsIGJ2YmEwgZ8wDQYJ
KoZIhvcNAQEBBQADgY0AMIGJAoGBAKrBAS4dBy97kSeyyTJvDkQWn3VHlCOkghjU
JY2LTVryc8oK7ABmce27SGNT9RaDixwJF2imKl5/cJ5EmHJw7COTj8WdJyiJMyvc
l0YYltt0hqE239MktRi2vju67ajG1GBWLLJ1XCXq4gqYh9s9U50S3SgAg5hfSRD/
AJeEMentAgMBAAEwDQYJKoZIhvcNAQEFBQADgYEAKo3nNvdNHOJ7kreoOsW6dugv
ZGeLmoSKtvYgCYG2HBCv3n7rtC8zVAcOZwb3mWTTEIuaqN/UTi/m1DB8NaFwPQVh
7ONr+y8kQKlWFwP16aNxt67pWDAn96C9hTXA9eNkBUTj3FSEyKqVIrqsNIb+xgmm
zOTHyjsV6pw6gASX3TY=
-----END CERTIFICATE-----
Certificate:
    Data:
        Version: 4 (0x3)
        Serial Number: 1 (0x1)
    Signature Algorithm: sha1WithRSAEncryption
        Issuer: C=BE, CN=txjsonrpc-test-ca
        Validity
            Not Before: Jan  1 00:00:00 1970 GMT
            Not After : Jan 19 03:14:07 2038 GMT
        Subject: CN=ca-true, C=BE, O=Gremwell bvba
        Subject Public Key Info:
            Public Key Algorithm: rsaEncryption
                Public-Key: (1024 bit)
                Modulus:
                    00:ce:01:62:21:1a:53:38:0a:1c:2f:b6:1d:7a:71:
                    36:b1:c4:30:7f:76:69:cc:c8:ed:f3:7f:fe:ee:28:
                    d6:cf:0a:00:46:ff:27:ef:59:46:20:18:d3:64:16:
                    98:7f:9c:6b:c1:a5:cc:46:15:66:b6:ca:63:4b:75:
                    e7:be:3f:a6:af:40:86:7a:8d:1a:54:8f:a7:ae:0a:
                    c3:62:6f:94:66:fe:43:8d:ea:88:44:71:64:2c:18:
                    99:f8:5f:0f:73:61:f7:9d:b5:50:0d:24:aa:46:5d:
                    9b:1c:8c:24:47:a6:fa:1c:80:37:df:bf:78:c7:c0:
                    c2:4e:ff:75:68:36:12:05:df
                Exponent: 65537 (0x10001)
        X509v3 extensions:
            X509v3 Basic Constraints: critical
                CA:TRUE
    Signature Algorithm: sha1WithRSAEncryption
         62:6e:7e:14:83:c8:e3:35:cb:d1:ba:c6:ab:9a:cc:f3:2c:3c:
         52:ec:f6:cc:f5:90:ff:b6:5c:2c:84:33:e0:2c:6f:d9:60:3a:
         4e:68:e7:39:95:53:87:73:f4:88:2c:56:4c:2c:2f:bc:b4:8f:
         3b:f4:31:dd:54:23:b9:07:c2:9f:70:bb:68:67:8b:8e:58:8b:
         eb:c1:b5:33:01:97:e4:a5:a2:a7:9b:0b:38:fa:4c:3e:b9:29:
         95:6d:82:43:1d:5f:0a:76:34:8f:5b:91:a1:05:64:5a:1a:89:
         5a:78:73:c7:d4:6b:a6:25:31:44:28:be:3e:d7:3a:e7:8f:55:
         65:9b:eb:f5:8a:79:eb:b4:19:c8:74:cc:49:1b:c6:05:54:ee:
         b8:ec:5e:9a:d4:e3:97:13:f2:22:61:01:67:22:65:b6:e2:4b:
         5f:50:8d:ec:f8:53:46:34:84:7a:71:1e:71:0c:cc:86:7c:b6:
         87:23:05:84:51:e7:f1:8c:05:89:24:9a:9b:fe:fb:59:32:36:
         6b:2c:b5:58:4e:c7:53:7a:be:6a:e3:9b:54:13:67:c0:b1:e6:
         df:ed:c3:b9:b2:cb:ff:b8:59:d0:74:03:70:5c:96:b9:e3:6c:
         4a:b2:49:b0:6e:56:46:91:4c:39:3e:71:db:b5:5b:32:60:db:
         b5:7d:38:3e:81:6c:cc:13:3e:3a:c9:22:9f:c7:17:f3:ea:4a:
         15:71:ed:44:70:f6:dc:a3:2f:b3:e8:e1:b8:6c:ea:49:b2:19:
         3f:c1:c6:96:3c:50:10:51:ba:d2:4e:22:8d:9e:11:91:17:ae:
         c6:57:14:82:f0:b2:30:40:86:6d:e7:a0:a4:df:6c:5f:e6:fa:
         ad:80:6d:bb:c8:d0:01:ed:a2:e8:80:d4:1a:29:81:5c:7f:cf:
         bd:65:46:85:28:97:9d:5b:d1:f1:9c:38:8a:b7:82:94:57:ac:
         31:ea:2b:41:1c:bb:8d:fa:45:f4:63:cc:bd:4b:9d:e0:14:72:
         06:96:52:dc:08:06:c6:b8:1d:59:46:8f:21:89:31:b1:f7:47:
         28:af:07:20:e6:b0:da:96:05:53:30:a0:26:5e:0b:bb:2c:d4:
         77:dc:f1:52:31:61:e9:3f:95:aa:5a:91:48:42:81:a1:0d:99:
         0f:fa:de:d5:21:bf:f1:22:a4:7a:9f:3a:c7:0c:16:17:14:22:
         d0:4c:c5:ad:a0:68:5e:7d:cb:4b:4c:2b:1d:42:2a:70:6b:8e:
         ef:b2:a9:19:00:c5:5c:09:6d:4b:c6:39:8d:aa:0c:86:30:cc:
         44:0f:36:85:ba:73:26:e8:d1:fe:3b:50:1f:5f:08:3f:60:70:
         73:60:91:9f:85:c9:51:f6
-----BEGIN CERTIFICATE-----
MIIDajCCAVKgAwIBAwIBATANBgkqhkiG9w0BAQUFADApMQswCQYDVQQGEwJCRTEa
MBgGA1UEAxMRdHhqc29ucnBjLXRlc3QtY2EwHhcNNzAwMTAxMDAwMDAwWhcNMzgw
MTE5MDMxNDA3WjA3MRAwDgYDVQQDEwdjYS10cnVlMQswCQYDVQQGEwJCRTEWMBQG
A1UEChMNR3JlbXdlbGwgYnZiYTCBnzANBgkqhkiG9w0BAQEFAAOBjQAwgYkCgYEA
zgFiIRpTOAocL7YdenE2scQwf3ZpzMjt83/+7ijWzwoARv8n71lGIBjTZBaYf5xr
waXMRhVmtspjS3Xnvj+mr0CGeo0aVI+nrgrDYm+UZv5DjeqIRHFkLBiZ+F8Pc2H3
nbVQDSSqRl2bHIwkR6b6HIA33794x8DCTv91aDYSBd8CAwEAAaMTMBEwDwYDVR0T
AQH/BAUwAwEB/zANBgkqhkiG9w0BAQUFAAOCAgEAYm5+FIPI4zXL0brGq5rM8yw8
Uuz2zPWQ/7ZcLIQz4Cxv2WA6TmjnOZVTh3P0iCxWTCwvvLSPO/Qx3VQjuQfCn3C7
aGeLjliL68G1MwGX5KWip5sLOPpMPrkplW2CQx1fCnY0j1uRoQVkWhqJWnhzx9Rr
piUxRCi+Ptc6549VZZvr9Yp567QZyHTMSRvGBVTuuOxemtTjlxPyImEBZyJltuJL
X1CN7PhTRjSEenEecQzMhny2hyMFhFHn8YwFiSSam/77WTI2ayy1WE7HU3q+auOb
VBNnwLHm3+3DubLL/7hZ0HQDcFyWueNsSrJJsG5WRpFMOT5x27VbMmDbtX04PoFs
zBM+Oskin8cX8+pKFXHtRHD23KMvs+jhuGzqSbIZP8HGljxQEFG60k4ijZ4RkReu
xlcUgvCyMECGbeegpN9sX+b6rYBtu8jQAe2i6IDUGimBXH/PvWVGhSiXnVvR8Zw4
ireClFesMeorQRy7jfpF9GPMvUud4BRyBpZS3AgGxrgdWUaPIYkxsfdHKK8HIOaw
2pYFUzCgJl4LuyzUd9zxUjFh6T+VqlqRSEKBoQ2ZD/re1SG/8SKkep86xwwWFxQi
0EzFraBoXn3LS0wrHUIqcGuO77KpGQDFXAltS8Y5jaoMhjDMRA82hbpzJujR/jtQ
H18IP2Bwc2CRn4XJUfY=
-----END CERTIFICATE-----
