Certificate:
    Data:
        Version: 4 (0x3)
        Serial Number: 1 (0x1)
    Signature Algorithm: sha1WithRSAEncryption
        Issuer: CN=ca-none, C=BE, O=Gremwell bvba
        Validity
            Not Before: Jun 23 15:47:38 2012 GMT
            Not After : Jun 23 15:47:38 2013 GMT
        Subject: C=BE, CN=txjsonrpc-pyserver, O=Gremwell bvba
        Subject Public Key Info:
            Public Key Algorithm: rsaEncryption
                Public-Key: (4096 bit)
                Modulus:
                    00:bb:62:97:c5:8f:34:4a:3c:48:94:a9:e6:51:fc:
                    c1:f8:c8:ec:7b:a9:76:e5:84:c5:7b:18:a1:f2:ae:
                    ad:68:bd:c4:a4:af:8b:2c:f5:32:27:bc:a7:27:89:
                    59:b7:3a:9f:f7:fc:a0:51:6b:bb:9c:7e:0a:10:79:
                    0e:71:fc:34:a0:1d:19:83:35:d2:96:b4:9e:53:8b:
                    80:57:4e:b6:9d:40:cb:0e:d6:0a:bd:a7:82:fc:1e:
                    c2:ba:4d:9c:02:cd:b5:af:88:8c:ea:2e:4d:ab:4c:
                    fb:26:17:af:be:c8:30:34:7a:ff:34:21:6b:6c:1e:
                    1d:cd:a9:75:3b:92:65:e6:24:28:ef:16:5a:52:c3:
                    7a:f2:eb:47:50:8e:0e:07:ff:05:40:37:c6:44:38:
                    0c:99:f4:79:ce:7e:c7:f0:a6:b5:e7:10:f1:b5:12:
                    1d:ff:62:2e:4b:e0:ac:41:57:d6:92:55:4d:4e:fb:
                    ca:a9:d7:66:d1:71:9b:dd:71:1b:6c:f7:82:ff:51:
                    e6:1f:8f:ef:e0:c2:b3:47:37:26:6d:d3:76:49:16:
                    2f:9b:ab:d3:ca:06:ce:2b:1a:0b:b0:2b:84:68:63:
                    90:80:ed:a2:8d:03:63:32:5c:3a:75:fc:74:c9:ff:
                    d1:14:40:af:47:8f:7a:1b:87:69:32:27:30:8d:d2:
                    4e:55:0b:d8:37:95:ce:88:fa:03:09:dc:f5:44:f9:
                    33:c1:c5:13:69:0d:7c:13:5d:31:7f:5b:08:69:8a:
                    4c:b8:ba:8c:f4:f6:05:8b:93:e4:23:81:09:0d:b1:
                    14:c8:77:e0:62:98:bd:60:7d:f5:c6:92:30:72:24:
                    cc:5c:0b:74:51:9c:1e:5f:75:af:5b:26:a4:b5:16:
                    28:e3:c4:28:12:03:61:f7:b9:66:88:c1:25:84:76:
                    23:cf:48:14:36:ad:4a:61:a9:2e:e5:bd:e7:cb:f5:
                    79:ef:02:de:3d:b2:fa:cd:be:81:db:b4:03:31:4a:
                    0b:d2:19:3c:f9:63:96:6f:8b:84:1b:c0:97:e6:18:
                    a8:24:e8:dc:2d:8e:6b:25:b1:9e:d0:78:39:ab:67:
                    02:d2:30:c9:df:82:51:e3:be:e0:81:1a:3b:17:4e:
                    4c:8f:73:42:d7:25:d2:3b:2c:aa:3f:88:f2:1e:36:
                    61:a9:c8:7f:b0:0c:29:18:a4:2f:52:1a:d2:18:a7:
                    67:d9:95:b5:34:52:6b:21:ba:89:02:fa:d7:0f:28:
                    73:fb:7b:95:6b:97:87:f1:51:46:57:b3:84:ce:7e:
                    0d:c9:cf:b2:87:dd:7b:06:fd:15:c0:21:d0:d5:21:
                    bb:3f:52:b1:e4:d2:02:df:0c:f0:b9:78:a2:f9:78:
                    12:80:47
                Exponent: 65537 (0x10001)
    Signature Algorithm: sha1WithRSAEncryption
         9a:e0:6a:b8:48:18:d0:93:dd:ea:75:94:01:f0:74:e3:a0:28:
         01:7d:69:03:f0:95:39:8e:f9:39:6d:be:9d:56:bc:40:05:16:
         2d:eb:2a:75:c7:5c:dc:62:46:48:05:ab:e2:14:0a:86:ad:65:
         75:9d:f6:43:61:32:ff:3f:78:14:61:92:f6:2f:41:f9:8b:11:
         ba:d0:00:4a:a3:c6:6c:9e:9e:09:c8:ef:14:bc:ed:6d:f7:91:
         26:ec:79:50:1a:53:e0:2b:4c:2c:b1:0d:24:07:e5:10:f5:e8:
         2d:44:b7:ed:4f:7a:41:e9:76:15:cb:c7:f7:71:db:63:96:0c:
         2d:d8
-----BEGIN CERTIFICATE-----
MIIDcTCCAtqgAwIBAwIBATANBgkqhkiG9w0BAQUFADA3MRAwDgYDVQQDEwdjYS1u
b25lMQswCQYDVQQGEwJCRTEWMBQGA1UEChMNR3JlbXdlbGwgYnZiYTAeFw0xMjA2
MjMxNTQ3MzhaFw0xMzA2MjMxNTQ3MzhaMEIxCzAJBgNVBAYTAkJFMRswGQYDVQQD
ExJ0eGpzb25ycGMtcHlzZXJ2ZXIxFjAUBgNVBAoTDUdyZW13ZWxsIGJ2YmEwggIi
MA0GCSqGSIb3DQEBAQUAA4ICDwAwggIKAoICAQC7YpfFjzRKPEiUqeZR/MH4yOx7
qXblhMV7GKHyrq1ovcSkr4ss9TInvKcniVm3Op/3/KBRa7ucfgoQeQ5x/DSgHRmD
NdKWtJ5Ti4BXTradQMsO1gq9p4L8HsK6TZwCzbWviIzqLk2rTPsmF6++yDA0ev80
IWtsHh3NqXU7kmXmJCjvFlpSw3ry60dQjg4H/wVAN8ZEOAyZ9HnOfsfwprXnEPG1
Eh3/Yi5L4KxBV9aSVU1O+8qp12bRcZvdcRts94L/UeYfj+/gwrNHNyZt03ZJFi+b
q9PKBs4rGguwK4RoY5CA7aKNA2MyXDp1/HTJ/9EUQK9Hj3obh2kyJzCN0k5VC9g3
lc6I+gMJ3PVE+TPBxRNpDXwTXTF/Wwhpiky4uoz09gWLk+QjgQkNsRTId+BimL1g
ffXGkjByJMxcC3RRnB5fda9bJqS1FijjxCgSA2H3uWaIwSWEdiPPSBQ2rUphqS7l
vefL9XnvAt49svrNvoHbtAMxSgvSGTz5Y5Zvi4QbwJfmGKgk6NwtjmslsZ7QeDmr
ZwLSMMnfglHjvuCBGjsXTkyPc0LXJdI7LKo/iPIeNmGpyH+wDCkYpC9SGtIYp2fZ
lbU0UmshuokC+tcPKHP7e5Vrl4fxUUZXs4TOfg3Jz7KH3XsG/RXAIdDVIbs/UrHk
0gLfDPC5eKL5eBKARwIDAQABMA0GCSqGSIb3DQEBBQUAA4GBAJrgarhIGNCT3ep1
lAHwdOOgKAF9aQPwlTmO+Tltvp1WvEAFFi3rKnXHXNxiRkgFq+IUCoatZXWd9kNh
Mv8/eBRhkvYvQfmLEbrQAEqjxmyengnI7xS87W33kSbseVAaU+ArTCyxDSQH5RD1
6C1Et+1PekHpdhXLx/dx22OWDC3Y
-----END CERTIFICATE-----
Certificate:
    Data:
        Version: 4 (0x3)
        Serial Number: 1 (0x1)
    Signature Algorithm: sha1WithRSAEncryption
        Issuer: C=BE, CN=txjsonrpc-test-ca
        Validity
            Not Before: Jan  1 00:00:00 1970 GMT
            Not After : Jan 19 03:14:07 2038 GMT
        Subject: CN=ca-none, C=BE, O=Gremwell bvba
        Subject Public Key Info:
            Public Key Algorithm: rsaEncryption
                Public-Key: (1024 bit)
                Modulus:
                    00:b9:8e:5a:8b:a0:9d:c4:58:18:d1:d3:72:36:bb:
                    53:55:af:a4:f9:26:a1:c7:aa:9c:18:e1:67:6c:b4:
                    e6:33:8c:2c:7c:84:cb:a5:7a:6b:85:55:87:74:ce:
                    3e:1f:6b:98:50:81:90:a6:a9:88:65:ff:af:52:7b:
                    22:7b:fc:57:de:83:92:48:24:53:00:d8:4c:a4:ed:
                    1d:aa:86:23:68:3e:03:a3:85:af:d0:8a:c3:36:f2:
                    b6:7f:05:ba:0d:ec:00:4b:bb:e1:52:5d:93:32:85:
                    2b:91:ea:41:87:b9:3f:52:7b:a7:a0:2c:e0:e4:94:
                    e6:ec:33:e0:db:14:f3:b0:69
                Exponent: 65537 (0x10001)
    Signature Algorithm: sha1WithRSAEncryption
         84:a5:0d:76:d1:b1:90:2c:67:a5:b7:c4:62:e7:9d:bf:83:e6:
         f5:c1:9a:04:e5:6a:2b:de:c6:7c:c1:1f:f9:7b:94:f7:0b:71:
         6a:91:32:44:6e:bd:a5:05:b8:09:a5:26:be:43:b1:e2:de:32:
         65:71:58:b0:41:72:58:46:58:c8:0a:11:81:34:44:b8:99:1f:
         15:df:84:b0:07:5f:a9:f3:e7:33:a7:41:95:43:aa:f2:b7:41:
         c0:87:ec:f5:b7:f1:b4:90:05:cf:4b:05:17:82:fe:60:76:1d:
         11:01:3e:2d:b7:0d:25:7c:44:73:76:30:a5:22:f0:48:5a:f2:
         9d:2a:29:fa:20:67:fd:0a:8a:9a:c2:52:18:8d:fd:2b:39:12:
         4f:d5:56:61:1a:0c:9a:6b:6f:4a:be:cd:55:50:a3:f9:90:14:
         cf:bd:9a:5d:c3:76:ca:66:46:88:4d:73:16:18:27:25:9e:91:
         f2:1d:f3:1c:16:21:1c:69:03:1f:1c:2e:08:4d:10:ac:cb:2e:
         55:17:9a:89:bc:13:a6:37:8d:96:3f:39:e8:53:7f:60:70:cd:
         07:37:da:d8:de:69:ed:04:76:8b:36:a8:13:28:20:cf:0c:ab:
         45:1e:5f:4c:47:c0:36:b2:28:7d:93:89:7a:c2:ce:46:ca:d6:
         0c:b6:f1:d4:5b:a2:1b:c6:51:98:9c:f3:e0:04:b1:02:a2:59:
         b8:44:f3:93:df:8c:ac:01:0b:9e:00:00:2a:91:0f:8f:8b:1e:
         e2:94:ea:d2:ab:98:1c:1d:de:d2:fd:fc:59:0b:ce:35:54:a3:
         47:57:71:b0:1e:f6:93:49:ae:91:8c:57:2a:ec:9e:39:76:7a:
         2d:f8:8f:7a:61:9c:43:92:93:f2:a3:a8:db:37:2b:3d:2d:a4:
         17:68:a8:d3:55:e9:00:16:c8:26:b7:e4:41:a9:8b:b2:29:da:
         1b:c3:d3:e6:62:bd:5d:7c:1d:b1:fc:09:40:6b:9e:8b:1f:ac:
         9c:7b:5d:01:da:32:db:a7:f2:44:d0:79:6a:29:19:af:fe:e2:
         81:95:37:71:44:ee:d0:c8:ff:0f:13:ae:8f:f5:e4:08:8a:ee:
         42:74:1f:8b:da:84:60:e4:5f:e8:26:bb:34:21:ec:e2:04:d3:
         85:db:68:3f:81:14:3c:e6:3d:c6:83:40:ed:90:0e:01:93:8c:
         ce:09:b3:95:df:11:89:1f:91:9f:4e:d1:6a:1e:83:af:14:ae:
         48:77:24:c8:1e:4d:27:f4:e5:ab:64:a0:fa:5c:37:12:58:e6:
         06:d6:3b:e8:e2:b5:2c:ae:fb:31:68:a4:b7:12:39:c1:e2:40:
         34:4d:4b:51:b6:66:0b:79
-----BEGIN CERTIFICATE-----
MIIDVTCCAT2gAwIBAwIBATANBgkqhkiG9w0BAQUFADApMQswCQYDVQQGEwJCRTEa
MBgGA1UEAxMRdHhqc29ucnBjLXRlc3QtY2EwHhcNNzAwMTAxMDAwMDAwWhcNMzgw
MTE5MDMxNDA3WjA3MRAwDgYDVQQDEwdjYS1ub25lMQswCQYDVQQGEwJCRTEWMBQG
A1UEChMNR3JlbXdlbGwgYnZiYTCBnzANBgkqhkiG9w0BAQEFAAOBjQAwgYkCgYEA
uY5ai6CdxFgY0dNyNrtTVa+k+Sahx6qcGOFnbLTmM4wsfITLpXprhVWHdM4+H2uY
UIGQpqmIZf+vUnsie/xX3oOSSCRTANhMpO0dqoYjaD4Do4Wv0IrDNvK2fwW6DewA
S7vhUl2TMoUrkepBh7k/UnunoCzg5JTm7DPg2xTzsGkCAwEAATANBgkqhkiG9w0B
AQUFAAOCAgEAhKUNdtGxkCxnpbfEYuedv4Pm9cGaBOVqK97GfMEf+XuU9wtxapEy
RG69pQW4CaUmvkOx4t4yZXFYsEFyWEZYyAoRgTREuJkfFd+EsAdfqfPnM6dBlUOq
8rdBwIfs9bfxtJAFz0sFF4L+YHYdEQE+LbcNJXxEc3YwpSLwSFrynSop+iBn/QqK
msJSGI39KzkST9VWYRoMmmtvSr7NVVCj+ZAUz72aXcN2ymZGiE1zFhgnJZ6R8h3z
HBYhHGkDHxwuCE0QrMsuVReaibwTpjeNlj856FN/YHDNBzfa2N5p7QR2izaoEygg
zwyrRR5fTEfANrIofZOJesLORsrWDLbx1FuiG8ZRmJzz4ASxAqJZuETzk9+MrAEL
ngAAKpEPj4se4pTq0quYHB3e0v38WQvONVSjR1dxsB72k0mukYxXKuyeOXZ6LfiP
emGcQ5KT8qOo2zcrPS2kF2io01XpABbIJrfkQamLsinaG8PT5mK9XXwdsfwJQGue
ix+snHtdAdoy26fyRNB5aikZr/7igZU3cUTu0Mj/DxOuj/XkCIruQnQfi9qEYORf
6Ca7NCHs4gTThdtoP4EUPOY9xoNA7ZAOAZOMzgmzld8RiR+Rn07Rah6DrxSuSHck
yB5NJ/Tlq2Sg+lw3EljmBtY76OK1LK77MWiktxI5weJANE1LUbZmC3k=
-----END CERTIFICATE-----
