Certificate:
    Data:
        Version: 4 (0x3)
        Serial Number: 1 (0x1)
    Signature Algorithm: sha1WithRSAEncryption
        Issuer: CN=ca-false, C=BE, O=Gremwell bvba
        Validity
            Not Before: Jun 23 15:47:38 2012 GMT
            Not After : Jun 23 15:47:38 2013 GMT
        Subject: C=BE, CN=txjsonrpc-pyserver, O=Gremwell bvba
        Subject Public Key Info:
            Public Key Algorithm: rsaEncryption
                Public-Key: (4096 bit)
                Modulus:
                    00:bb:62:97:c5:8f:34:4a:3c:48:94:a9:e6:51:fc:
                    c1:f8:c8:ec:7b:a9:76:e5:84:c5:7b:18:a1:f2:ae:
                    ad:68:bd:c4:a4:af:8b:2c:f5:32:27:bc:a7:27:89:
                    59:b7:3a:9f:f7:fc:a0:51:6b:bb:9c:7e:0a:10:79:
                    0e:71:fc:34:a0:1d:19:83:35:d2:96:b4:9e:53:8b:
                    80:57:4e:b6:9d:40:cb:0e:d6:0a:bd:a7:82:fc:1e:
                    c2:ba:4d:9c:02:cd:b5:af:88:8c:ea:2e:4d:ab:4c:
                    fb:26:17:af:be:c8:30:34:7a:ff:34:21:6b:6c:1e:
                    1d:cd:a9:75:3b:92:65:e6:24:28:ef:16:5a:52:c3:
                    7a:f2:eb:47:50:8e:0e:07:ff:05:40:37:c6:44:38:
                    0c:99:f4:79:ce:7e:c7:f0:a6:b5:e7:10:f1:b5:12:
                    1d:ff:62:2e:4b:e0:ac:41:57:d6:92:55:4d:4e:fb:
                    ca:a9:d7:66:d1:71:9b:dd:71:1b:6c:f7:82:ff:51:
                    e6:1f:8f:ef:e0:c2:b3:47:37:26:6d:d3:76:49:16:
                    2f:9b:ab:d3:ca:06:ce:2b:1a:0b:b0:2b:84:68:63:
                    90:80:ed:a2:8d:03:63:32:5c:3a:75:fc:74:c9:ff:
                    d1:14:40:af:47:8f:7a:1b:87:69:32:27:30:8d:d2:
                    4e:55:0b:d8:37:95:ce:88:fa:03:09:dc:f5:44:f9:
                    33:c1:c5:13:69:0d:7c:13:5d:31:7f:5b:08:69:8a:
                    4c:b8:ba:8c:f4:f6:05:8b:93:e4:23:81:09:0d:b1:
                    14:c8:77:e0:62:98:bd:60:7d:f5:c6:92:30:72:24:
                    cc:5c:0b:74:51:9c:1e:5f:75:af:5b:26:a4:b5:16:
                    28:e3:c4:28:12:03:61:f7:b9:66:88:c1:25:84:76:
                    23:cf:48:14:36:ad:4a:61:a9:2e:e5:bd:e7:cb:f5:
                    79:ef:02:de:3d:b2:fa:cd:be:81:db:b4:03:31:4a:
                    0b:d2:19:3c:f9:63:96:6f:8b:84:1b:c0:97:e6:18:
                    a8:24:e8:dc:2d:8e:6b:25:b1:9e:d0:78:39:ab:67:
                    02:d2:30:c9:df:82:51:e3:be:e0:81:1a:3b:17:4e:
                    4c:8f:73:42:d7:25:d2:3b:2c:aa:3f:88:f2:1e:36:
                    61:a9:c8:7f:b0:0c:29:18:a4:2f:52:1a:d2:18:a7:
                    67:d9:95:b5:34:52:6b:21:ba:89:02:fa:d7:0f:28:
                    73:fb:7b:95:6b:97:87:f1:51:46:57:b3:84:ce:7e:
                    0d:c9:cf:b2:87:dd:7b:06:fd:15:c0:21:d0:d5:21:
                    bb:3f:52:b1:e4:d2:02:df:0c:f0:b9:78:a2:f9:78:
                    12:80:47
                Exponent: 65537 (0x10001)
    Signature Algorithm: sha1WithRSAEncryption
         75:5c:58:1f:89:dd:d3:57:34:dd:d0:75:11:92:53:41:bd:31:
         15:13:84:53:d0:2d:85:34:5f:f8:66:84:8e:29:7d:42:84:ad:
         e4:d4:76:82:68:c6:da:04:6d:bc:bc:14:06:8c:7f:77:5a:39:
         23:25:6d:3c:37:70:ce:3f:46:f3:3d:bf:43:8d:70:2a:26:7f:
         7c:d1:80:4d:c5:b2:57:86:b3:a5:bd:2f:09:9c:83:15:06:2a:
         75:7f:6c:f1:b8:d3:e6:e0:a7:ba:47:70:61:5d:bc:2d:7e:a6:
         06:24:c4:3a:48:37:2b:66:8a:1d:da:a6:2d:8b:b2:87:a6:f6:
         47:fa
-----BEGIN CERTIFICATE-----
MIIDcjCCAtugAwIBAwIBATANBgkqhkiG9w0BAQUFADA4MREwDwYDVQQDEwhjYS1m
YWxzZTELMAkGA1UEBhMCQkUxFjAUBgNVBAoTDUdyZW13ZWxsIGJ2YmEwHhcNMTIw
NjIzMTU0NzM4WhcNMTMwNjIzMTU0NzM4WjBCMQswCQYDVQQGEwJCRTEbMBkGA1UE
AxMSdHhqc29ucnBjLXB5c2VydmVyMRYwFAYDVQQKEw1HcmVtd2VsbCBidmJhMIIC
IjANBgkqhkiG9w0BAQEFAAOCAg8AMIICCgKCAgEAu2KXxY80SjxIlKnmUfzB+Mjs
e6l25YTFexih8q6taL3EpK+LLPUyJ7ynJ4lZtzqf9/ygUWu7nH4KEHkOcfw0oB0Z
gzXSlrSeU4uAV062nUDLDtYKvaeC/B7Cuk2cAs21r4iM6i5Nq0z7JhevvsgwNHr/
NCFrbB4dzal1O5Jl5iQo7xZaUsN68utHUI4OB/8FQDfGRDgMmfR5zn7H8Ka15xDx
tRId/2IuS+CsQVfWklVNTvvKqddm0XGb3XEbbPeC/1HmH4/v4MKzRzcmbdN2SRYv
m6vTygbOKxoLsCuEaGOQgO2ijQNjMlw6dfx0yf/RFECvR496G4dpMicwjdJOVQvY
N5XOiPoDCdz1RPkzwcUTaQ18E10xf1sIaYpMuLqM9PYFi5PkI4EJDbEUyHfgYpi9
YH31xpIwciTMXAt0UZweX3WvWyaktRYo48QoEgNh97lmiMElhHYjz0gUNq1KYaku
5b3ny/V57wLePbL6zb6B27QDMUoL0hk8+WOWb4uEG8CX5hioJOjcLY5rJbGe0Hg5
q2cC0jDJ34JR477ggRo7F05Mj3NC1yXSOyyqP4jyHjZhqch/sAwpGKQvUhrSGKdn
2ZW1NFJrIbqJAvrXDyhz+3uVa5eH8VFGV7OEzn4Nyc+yh917Bv0VwCHQ1SG7P1Kx
5NIC3wzwuXii+XgSgEcCAwEAATANBgkqhkiG9w0BAQUFAAOBgQB1XFgfid3TVzTd
0HURklNBvTEVE4RT0C2FNF/4ZoSOKX1ChK3k1HaCaMbaBG28vBQGjH93WjkjJW08
N3DOP0bzPb9DjXAqJn980YBNxbJXhrOlvS8JnIMVBip1f2zxuNPm4Ke6R3BhXbwt
fqYGJMQ6SDcrZood2qYti7KHpvZH+g==
-----END CERTIFICATE-----
Certificate:
    Data:
        Version: 4 (0x3)
        Serial Number: 1 (0x1)
    Signature Algorithm: sha1WithRSAEncryption
        Issuer: C=BE, CN=txjsonrpc-test-ca
        Validity
            Not Before: Jan  1 00:00:00 1970 GMT
            Not After : Jan 19 03:14:07 2038 GMT
        Subject: CN=ca-false, C=BE, O=Gremwell bvba
        Subject Public Key Info:
            Public Key Algorithm: rsaEncryption
                Public-Key: (1024 bit)
                Modulus:
                    00:c9:b5:14:2f:6e:72:20:36:fa:d1:e0:b4:5a:2a:
                    28:a6:23:63:8d:24:b1:56:21:7a:12:f4:1b:64:82:
                    3e:52:6f:92:95:1d:1a:dc:70:24:8e:04:9b:70:cf:
                    bc:b7:a8:3d:96:64:a4:d1:fd:f7:5f:7e:55:f4:95:
                    a6:fb:6b:26:60:07:5f:58:c1:18:32:51:8c:19:8c:
                    98:8a:38:18:0d:1a:55:34:75:d0:c9:93:f4:de:5c:
                    ba:2d:99:b3:14:05:d8:d6:18:db:c5:e2:ff:88:80:
                    32:59:10:fe:1e:0e:2f:60:5a:b8:38:d4:75:47:0b:
                    22:e8:80:9d:ca:ea:73:e4:11
                Exponent: 65537 (0x10001)
        X509v3 extensions:
            X509v3 Basic Constraints: critical
                CA:FALSE
    Signature Algorithm: sha1WithRSAEncryption
         3a:64:64:7d:e3:7e:3d:4e:aa:dd:8f:f1:d4:4b:b3:5e:f1:1c:
         b6:e0:44:e1:2e:3d:3a:2f:8c:0e:bd:f9:82:1e:34:35:25:99:
         be:2e:2a:fc:1d:49:96:9a:69:5b:21:b8:bf:bb:09:9b:de:92:
         b8:7a:94:a7:a5:ed:43:4c:ab:c7:35:8f:fe:f8:6a:16:94:6e:
         70:b5:f1:f4:19:c9:a9:ec:70:6f:3a:0b:30:24:02:19:2c:8f:
         56:12:99:2b:32:40:3d:59:66:3a:35:51:0a:86:fb:72:53:71:
         e2:de:f5:dc:14:87:89:7a:1a:ed:af:d5:f5:ca:76:e6:d0:8d:
         10:c3:97:39:bc:a7:e4:d6:e6:77:93:f8:18:93:df:6c:92:51:
         3a:18:b1:8c:df:2d:4b:d6:5b:bc:95:22:7b:96:17:87:e1:9a:
         b5:01:b5:ec:2c:a8:ac:9f:b8:8a:d6:ba:39:41:a0:d5:8e:b5:
         29:25:26:c0:03:e4:10:b8:03:6e:26:db:c9:a1:40:5e:38:86:
         0a:42:30:0f:d3:a9:47:11:8d:07:a9:c2:da:4c:1d:11:d1:b0:
         af:0f:e6:1d:f6:1e:cd:fb:1a:a5:4a:92:1b:c3:a4:c1:25:73:
         47:58:11:ec:cb:ef:be:30:cc:c6:64:30:28:c1:ab:c8:99:7d:
         e4:05:fc:ab:95:0a:41:f0:0f:12:7c:7f:c0:af:41:91:b2:c6:
         e2:5f:67:0e:1e:6b:6c:d1:71:c5:32:14:50:bc:92:d2:d8:ef:
         7c:f1:f8:31:65:bd:5a:22:99:c8:d9:76:9d:3b:3f:49:a3:1b:
         99:ca:5f:eb:65:a3:5a:ed:53:8f:64:b5:b6:4f:96:6f:4c:02:
         56:44:73:ab:35:72:12:04:c8:ec:d2:8d:b7:2d:12:0e:52:ed:
         b8:28:28:7c:c0:2a:98:bc:a8:88:c2:99:a0:51:da:8e:6b:37:
         32:41:ae:13:7b:e7:74:89:97:e8:de:c2:b6:b9:64:7e:e3:2f:
         3a:43:29:4d:5f:47:dc:f5:a0:2e:89:86:08:fa:a3:43:ef:77:
         34:e2:90:a7:02:04:82:c1:0e:5e:0c:f9:85:9b:4c:c6:2e:89:
         c0:dd:6a:f0:76:92:f7:08:86:ba:8a:02:84:5f:9f:1a:e8:e2:
         c5:e3:2a:1b:16:3e:1b:43:21:42:da:4a:29:af:43:00:e2:28:
         6f:4f:8b:2c:01:dc:9e:54:14:69:13:5a:31:d1:f8:cd:52:a3:
         4b:fa:c0:4e:8b:c9:73:17:14:f2:07:d6:60:74:23:6f:2d:c3:
         b0:28:37:ad:d4:a8:56:c3:a3:84:eb:8c:e6:20:2f:3b:a4:d3:
         58:1f:59:ec:0c:96:76:d7
-----BEGIN CERTIFICATE-----
MIIDaDCCAVCgAwIBAwIBATANBgkqhkiG9w0BAQUFADApMQswCQYDVQQGEwJCRTEa
MBgGA1UEAxMRdHhqc29ucnBjLXRlc3QtY2EwHhcNNzAwMTAxMDAwMDAwWhcNMzgw
MTE5MDMxNDA3WjA4MREwDwYDVQQDEwhjYS1mYWxzZTELMAkGA1UEBhMCQkUxFjAU
BgNVBAoTDUdyZW13ZWxsIGJ2YmEwgZ8wDQYJKoZIhvcNAQEBBQADgY0AMIGJAoGB
AMm1FC9uciA2+tHgtFoqKKYjY40ksVYhehL0G2SCPlJvkpUdGtxwJI4Em3DPvLeo
PZZkpNH9919+VfSVpvtrJmAHX1jBGDJRjBmMmIo4GA0aVTR10MmT9N5cui2ZsxQF
2NYY28Xi/4iAMlkQ/h4OL2BauDjUdUcLIuiAncrqc+QRAgMBAAGjEDAOMAwGA1Ud
EwEB/wQCMAAwDQYJKoZIhvcNAQEFBQADggIBADpkZH3jfj1Oqt2P8dRLs17xHLbg
ROEuPTovjA69+YIeNDUlmb4uKvwdSZaaaVshuL+7CZvekrh6lKel7UNMq8c1j/74
ahaUbnC18fQZyanscG86CzAkAhksj1YSmSsyQD1ZZjo1UQqG+3JTceLe9dwUh4l6
Gu2v1fXKdubQjRDDlzm8p+TW5neT+BiT32ySUToYsYzfLUvWW7yVInuWF4fhmrUB
tewsqKyfuIrWujlBoNWOtSklJsAD5BC4A24m28mhQF44hgpCMA/TqUcRjQepwtpM
HRHRsK8P5h32Hs37GqVKkhvDpMElc0dYEezL774wzMZkMCjBq8iZfeQF/KuVCkHw
DxJ8f8CvQZGyxuJfZw4ea2zRccUyFFC8ktLY73zx+DFlvVoimcjZdp07P0mjG5nK
X+tlo1rtU49ktbZPlm9MAlZEc6s1chIEyOzSjbctEg5S7bgoKHzAKpi8qIjCmaBR
2o5rNzJBrhN753SJl+jewra5ZH7jLzpDKU1fR9z1oC6Jhgj6o0PvdzTikKcCBILB
Dl4M+YWbTMYuicDdavB2kvcIhrqKAoRfnxro4sXjKhsWPhtDIULaSimvQwDiKG9P
iywB3J5UFGkTWjHR+M1So0v6wE6LyXMXFPIH1mB0I28tw7AoN63UqFbDo4TrjOYg
Lzuk01gfWewMlnbX
-----END CERTIFICATE-----
