Certificate:
    Data:
        Version: 4 (0x3)
        Serial Number: 1 (0x1)
    Signature Algorithm: sha1WithRSAEncryption
        Issuer: CN=ca-true, C=BE, O=Gremwell bvba
        Validity
            Not Before: Jan  1 00:00:00 1970 GMT
            Not After : Jan 19 03:14:07 2038 GMT
        Subject: CN=txjsonrpc-pyserver, C=BE, O=Gremwell bvba
        Subject Public Key Info:
            Public Key Algorithm: rsaEncryption
                Public-Key: (1024 bit)
                Modulus:
                    00:c4:b7:44:e8:78:2d:bd:2a:48:1c:25:e3:00:91:
                    6c:02:02:63:b8:c2:0c:6d:d3:6e:6a:fa:7d:d6:56:
                    1f:aa:cb:87:56:31:3a:71:5a:d5:77:84:82:e1:d0:
                    b8:b4:2f:3c:2b:32:cc:c2:da:05:19:ac:92:1d:d6:
                    4b:33:14:6f:9a:ce:1a:c8:06:59:05:49:27:75:44:
                    d5:50:fd:d2:65:41:c5:71:b0:cf:26:e9:ea:67:2b:
                    00:8a:b2:b3:1d:b8:80:4e:0c:5f:45:18:9d:ff:53:
                    29:0f:e9:78:fa:39:2a:cf:2a:1b:e3:7a:0a:56:16:
                    db:7d:3b:c7:61:04:37:a0:23
                Exponent: 65537 (0x10001)
    Signature Algorithm: sha1WithRSAEncryption
         4f:d6:05:96:91:aa:88:f1:32:55:90:f5:c6:2f:42:29:c1:2f:
         3c:3a:fe:09:57:79:75:1b:a5:86:6a:ba:9e:cd:bd:03:64:36:
         3f:e5:28:09:ea:13:a4:bc:8c:ea:8e:1a:86:25:10:73:f0:2b:
         e6:43:e0:b0:b6:a9:96:63:3b:23:bf:82:8b:fb:ce:c3:54:69:
         7b:63:8b:4a:a9:d0:d8:8e:d0:bc:c3:4d:17:b4:46:9d:37:dc:
         8f:21:f2:69:c8:8a:0c:6a:ee:c7:40:85:9c:3e:34:d0:14:8f:
         41:84:fd:5a:97:66:a7:7c:eb:02:35:92:99:dc:51:57:37:3b:
         2e:ab
-----BEGIN CERTIFICATE-----
MIIB7TCCAVagAwIBAwIBATANBgkqhkiG9w0BAQUFADA3MRAwDgYDVQQDEwdjYS10
cnVlMQswCQYDVQQGEwJCRTEWMBQGA1UEChMNR3JlbXdlbGwgYnZiYTAeFw03MDAx
MDEwMDAwMDBaFw0zODAxMTkwMzE0MDdaMEIxGzAZBgNVBAMTEnR4anNvbnJwYy1w
eXNlcnZlcjELMAkGA1UEBhMCQkUxFjAUBgNVBAoTDUdyZW13ZWxsIGJ2YmEwgZ8w
DQYJKoZIhvcNAQEBBQADgY0AMIGJAoGBAMS3ROh4Lb0qSBwl4wCRbAICY7jCDG3T
bmr6fdZWH6rLh1YxOnFa1XeEguHQuLQvPCsyzMLaBRmskh3WSzMUb5rOGsgGWQVJ
J3VE1VD90mVBxXGwzybp6mcrAIqysx24gE4MX0UYnf9TKQ/pePo5Ks8qG+N6ClYW
2307x2EEN6AjAgMBAAEwDQYJKoZIhvcNAQEFBQADgYEAT9YFlpGqiPEyVZD1xi9C
KcEvPDr+CVd5dRulhmq6ns29A2Q2P+UoCeoTpLyM6o4ahiUQc/Ar5kPgsLaplmM7
I7+Ci/vOw1Rpe2OLSqnQ2I7QvMNNF7RGnTfcjyHyaciKDGrux0CFnD400BSPQYT9
Wpdmp3zrAjWSmdxRVzc7Lqs=
-----END CERTIFICATE-----
Certificate:
    Data:
        Version: 4 (0x3)
        Serial Number: 1 (0x1)
    Signature Algorithm: sha1WithRSAEncryption
        Issuer: C=BE, CN=txjsonrpc-test-ca
        Validity
            Not Before: Jan  1 00:00:00 1970 GMT
            Not After : Jan 19 03:14:07 2038 GMT
        Subject: CN=ca-true, C=BE, O=Gremwell bvba
        Subject Public Key Info:
            Public Key Algorithm: rsaEncryption
                Public-Key: (1024 bit)
                Modulus:
                    00:e5:c7:06:c9:10:13:0e:5d:f9:a4:e7:6a:d3:d5:
                    7c:6a:05:ab:86:78:f8:42:ce:8b:a1:64:82:4e:1d:
                    a6:df:f8:65:aa:63:ae:2a:66:74:0c:34:82:00:a4:
                    27:b2:47:f3:86:88:72:54:75:b4:94:df:07:64:74:
                    28:cc:91:f4:c6:e9:ef:de:16:6e:8f:25:c9:5d:34:
                    30:c3:9e:2c:5c:bb:84:26:d7:d6:15:40:ec:71:7f:
                    62:22:25:cb:4a:e9:20:02:c9:21:c7:59:9c:77:23:
                    8c:ec:da:55:a8:ee:93:1b:21:72:02:31:ea:5a:c6:
                    54:e8:f2:b5:b2:f4:34:88:29
                Exponent: 65537 (0x10001)
        X509v3 extensions:
            X509v3 Basic Constraints: critical
                CA:TRUE
    Signature Algorithm: sha1WithRSAEncryption
         07:90:7a:49:4e:9d:db:56:2e:27:dd:89:43:23:a1:ba:97:79:
         f6:23:6b:f1:c6:5d:95:dc:83:63:b4:93:21:c7:5e:48:e6:61:
         16:ed:83:7c:70:82:ec:69:67:e5:29:a3:ed:8b:d3:56:c6:99:
         97:65:b8:68:b4:e4:ad:99:95:7f:08:13:f8:93:15:15:63:b1:
         88:83:aa:80:ba:1e:c4:52:81:4a:5f:af:8a:ed:d1:f1:b5:74:
         e7:50:78:d4:b3:2d:9f:17:23:4f:6f:ce:17:0f:60:db:ad:28:
         0c:00:ce:97:77:4c:23:51:6b:9b:5e:7b:2e:df:59:b8:e7:11:
         8b:fb:0b:30:4b:84:4f:54:65:61:3a:4e:f6:7b:f2:78:ff:14:
         41:2f:b7:e7:5b:66:2a:d1:65:47:91:12:54:3a:57:7b:39:21:
         40:ee:0f:ac:b3:ed:51:a2:94:00:60:b2:d8:65:56:a4:1a:03:
         3c:bc:10:b8:ae:e6:94:2d:18:46:b0:41:40:6c:bf:d7:b9:4e:
         46:a8:10:77:ea:ae:83:f9:46:d6:97:4e:cc:8d:e3:0c:4a:86:
         bd:4c:94:db:a0:12:3e:5e:ac:d1:30:0c:6b:c2:cb:cf:89:18:
         c7:50:23:a1:2d:03:21:56:8b:a0:d5:af:d6:0d:74:db:53:3b:
         6d:b1:3e:af:78:34:eb:fe:15:81:16:19:a7:41:6e:80:98:1e:
         1e:8e:f7:fc:5d:1f:d8:a9:c2:0b:cc:71:7c:25:38:a6:dd:b4:
         74:6c:cb:53:ae:18:23:9f:7b:b9:31:e2:b8:f6:d6:91:25:a7:
         82:28:29:f7:dc:b8:66:94:e2:61:70:29:26:0e:6b:90:f3:9b:
         d0:11:e9:91:38:5a:ba:a0:cc:15:f2:3d:e4:15:74:2d:f7:39:
         a8:a2:fc:3c:73:a7:d0:e1:fd:a1:2f:9c:ad:0f:d2:99:2a:75:
         f1:ad:1d:e1:25:77:2e:a7:87:16:b0:6a:05:e3:ab:4e:40:81:
         55:f5:b3:c3:53:94:97:c4:af:72:0a:92:38:b7:e1:c7:fe:df:
         55:06:92:32:77:7d:31:6e:b1:58:6b:2e:a1:09:23:12:ad:dc:
         f9:80:07:09:f7:1b:40:b7:7a:7a:fb:bf:fb:f5:5a:95:9b:5e:
         23:0f:de:49:1a:cd:63:61:be:10:47:c2:6f:b7:4b:cd:99:4e:
         1b:d0:e9:1a:c5:29:ae:c8:fc:72:44:bf:85:8a:88:d5:ef:4d:
         39:14:5a:c2:3e:93:53:4a:7e:09:a3:64:e3:ff:b1:63:35:cf:
         f4:fe:cc:85:39:3b:a9:df:a3:a8:91:9f:64:19:80:39:ab:02:
         78:28:b6:9a:96:2c:e6:4f
-----BEGIN CERTIFICATE-----
MIIDajCCAVKgAwIBAwIBATANBgkqhkiG9w0BAQUFADApMQswCQYDVQQGEwJCRTEa
MBgGA1UEAxMRdHhqc29ucnBjLXRlc3QtY2EwHhcNNzAwMTAxMDAwMDAwWhcNMzgw
MTE5MDMxNDA3WjA3MRAwDgYDVQQDEwdjYS10cnVlMQswCQYDVQQGEwJCRTEWMBQG
A1UEChMNR3JlbXdlbGwgYnZiYTCBnzANBgkqhkiG9w0BAQEFAAOBjQAwgYkCgYEA
5ccGyRATDl35pOdq09V8agWrhnj4Qs6LoWSCTh2m3/hlqmOuKmZ0DDSCAKQnskfz
hohyVHW0lN8HZHQozJH0xunv3hZujyXJXTQww54sXLuEJtfWFUDscX9iIiXLSukg
Askhx1mcdyOM7NpVqO6TGyFyAjHqWsZU6PK1svQ0iCkCAwEAAaMTMBEwDwYDVR0T
AQH/BAUwAwEB/zANBgkqhkiG9w0BAQUFAAOCAgEAB5B6SU6d21YuJ92JQyOhupd5
9iNr8cZdldyDY7STIcdeSOZhFu2DfHCC7Gln5Smj7YvTVsaZl2W4aLTkrZmVfwgT
+JMVFWOxiIOqgLoexFKBSl+viu3R8bV051B41LMtnxcjT2/OFw9g260oDADOl3dM
I1Frm157Lt9ZuOcRi/sLMEuET1RlYTpO9nvyeP8UQS+351tmKtFlR5ESVDpXezkh
QO4PrLPtUaKUAGCy2GVWpBoDPLwQuK7mlC0YRrBBQGy/17lORqgQd+qug/lG1pdO
zI3jDEqGvUyU26ASPl6s0TAMa8LLz4kYx1AjoS0DIVaLoNWv1g1021M7bbE+r3g0
6/4VgRYZp0FugJgeHo73/F0f2KnCC8xxfCU4pt20dGzLU64YI597uTHiuPbWkSWn
gigp99y4ZpTiYXApJg5rkPOb0BHpkThauqDMFfI95BV0Lfc5qKL8PHOn0OH9oS+c
rQ/SmSp18a0d4SV3LqeHFrBqBeOrTkCBVfWzw1OUl8SvcgqSOLfhx/7fVQaSMnd9
MW6xWGsuoQkjEq3c+YAHCfcbQLd6evu/+/ValZteIw/eSRrNY2G+EEfCb7dLzZlO
G9DpGsUprsj8ckS/hYqI1e9NORRawj6TU0p+CaNk4/+xYzXP9P7MhTk7qd+jqJGf
ZBmAOasCeCi2mpYs5k8=
-----END CERTIFICATE-----
