Certificate:
    Data:
        Version: 4 (0x3)
        Serial Number: 1 (0x1)
    Signature Algorithm: sha1WithRSAEncryption
        Issuer: C=BE, CN=txjsonrpc-test-ca
        Validity
            Not Before: Jan  1 00:00:00 1970 GMT
            Not After : Jan 19 03:14:07 2038 GMT
        Subject: CN=ca-none, C=BE, O=Gremwell bvba
        Subject Public Key Info:
            Public Key Algorithm: rsaEncryption
                Public-Key: (1024 bit)
                Modulus:
                    00:b9:8e:5a:8b:a0:9d:c4:58:18:d1:d3:72:36:bb:
                    53:55:af:a4:f9:26:a1:c7:aa:9c:18:e1:67:6c:b4:
                    e6:33:8c:2c:7c:84:cb:a5:7a:6b:85:55:87:74:ce:
                    3e:1f:6b:98:50:81:90:a6:a9:88:65:ff:af:52:7b:
                    22:7b:fc:57:de:83:92:48:24:53:00:d8:4c:a4:ed:
                    1d:aa:86:23:68:3e:03:a3:85:af:d0:8a:c3:36:f2:
                    b6:7f:05:ba:0d:ec:00:4b:bb:e1:52:5d:93:32:85:
                    2b:91:ea:41:87:b9:3f:52:7b:a7:a0:2c:e0:e4:94:
                    e6:ec:33:e0:db:14:f3:b0:69
                Exponent: 65537 (0x10001)
    Signature Algorithm: sha1WithRSAEncryption
         84:a5:0d:76:d1:b1:90:2c:67:a5:b7:c4:62:e7:9d:bf:83:e6:
         f5:c1:9a:04:e5:6a:2b:de:c6:7c:c1:1f:f9:7b:94:f7:0b:71:
         6a:91:32:44:6e:bd:a5:05:b8:09:a5:26:be:43:b1:e2:de:32:
         65:71:58:b0:41:72:58:46:58:c8:0a:11:81:34:44:b8:99:1f:
         15:df:84:b0:07:5f:a9:f3:e7:33:a7:41:95:43:aa:f2:b7:41:
         c0:87:ec:f5:b7:f1:b4:90:05:cf:4b:05:17:82:fe:60:76:1d:
         11:01:3e:2d:b7:0d:25:7c:44:73:76:30:a5:22:f0:48:5a:f2:
         9d:2a:29:fa:20:67:fd:0a:8a:9a:c2:52:18:8d:fd:2b:39:12:
         4f:d5:56:61:1a:0c:9a:6b:6f:4a:be:cd:55:50:a3:f9:90:14:
         cf:bd:9a:5d:c3:76:ca:66:46:88:4d:73:16:18:27:25:9e:91:
         f2:1d:f3:1c:16:21:1c:69:03:1f:1c:2e:08:4d:10:ac:cb:2e:
         55:17:9a:89:bc:13:a6:37:8d:96:3f:39:e8:53:7f:60:70:cd:
         07:37:da:d8:de:69:ed:04:76:8b:36:a8:13:28:20:cf:0c:ab:
         45:1e:5f:4c:47:c0:36:b2:28:7d:93:89:7a:c2:ce:46:ca:d6:
         0c:b6:f1:d4:5b:a2:1b:c6:51:98:9c:f3:e0:04:b1:02:a2:59:
         b8:44:f3:93:df:8c:ac:01:0b:9e:00:00:2a:91:0f:8f:8b:1e:
         e2:94:ea:d2:ab:98:1c:1d:de:d2:fd:fc:59:0b:ce:35:54:a3:
         47:57:71:b0:1e:f6:93:49:ae:91:8c:57:2a:ec:9e:39:76:7a:
         2d:f8:8f:7a:61:9c:43:92:93:f2:a3:a8:db:37:2b:3d:2d:a4:
         17:68:a8:d3:55:e9:00:16:c8:26:b7:e4:41:a9:8b:b2:29:da:
         1b:c3:d3:e6:62:bd:5d:7c:1d:b1:fc:09:40:6b:9e:8b:1f:ac:
         9c:7b:5d:01:da:32:db:a7:f2:44:d0:79:6a:29:19:af:fe:e2:
         81:95:37:71:44:ee:d0:c8:ff:0f:13:ae:8f:f5:e4:08:8a:ee:
         42:74:1f:8b:da:84:60:e4:5f:e8:26:bb:34:21:ec:e2:04:d3:
         85:db:68:3f:81:14:3c:e6:3d:c6:83:40:ed:90:0e:01:93:8c:
         ce:09:b3:95:df:11:89:1f:91:9f:4e:d1:6a:1e:83:af:14:ae:
         48:77:24:c8:1e:4d:27:f4:e5:ab:64:a0:fa:5c:37:12:58:e6:
         06:d6:3b:e8:e2:b5:2c:ae:fb:31:68:a4:b7:12:39:c1:e2:40:
         34:4d:4b:51:b6:66:0b:79
-----BEGIN CERTIFICATE-----
MIIDVTCCAT2gAwIBAwIBATANBgkqhkiG9w0BAQUFADApMQswCQYDVQQGEwJCRTEa
MBgGA1UEAxMRdHhqc29ucnBjLXRlc3QtY2EwHhcNNzAwMTAxMDAwMDAwWhcNMzgw
MTE5MDMxNDA3WjA3MRAwDgYDVQQDEwdjYS1ub25lMQswCQYDVQQGEwJCRTEWMBQG
A1UEChMNR3JlbXdlbGwgYnZiYTCBnzANBgkqhkiG9w0BAQEFAAOBjQAwgYkCgYEA
uY5ai6CdxFgY0dNyNrtTVa+k+Sahx6qcGOFnbLTmM4wsfITLpXprhVWHdM4+H2uY
UIGQpqmIZf+vUnsie/xX3oOSSCRTANhMpO0dqoYjaD4Do4Wv0IrDNvK2fwW6DewA
S7vhUl2TMoUrkepBh7k/UnunoCzg5JTm7DPg2xTzsGkCAwEAATANBgkqhkiG9w0B
AQUFAAOCAgEAhKUNdtGxkCxnpbfEYuedv4Pm9cGaBOVqK97GfMEf+XuU9wtxapEy
RG69pQW4CaUmvkOx4t4yZXFYsEFyWEZYyAoRgTREuJkfFd+EsAdfqfPnM6dBlUOq
8rdBwIfs9bfxtJAFz0sFF4L+YHYdEQE+LbcNJXxEc3YwpSLwSFrynSop+iBn/QqK
msJSGI39KzkST9VWYRoMmmtvSr7NVVCj+ZAUz72aXcN2ymZGiE1zFhgnJZ6R8h3z
HBYhHGkDHxwuCE0QrMsuVReaibwTpjeNlj856FN/YHDNBzfa2N5p7QR2izaoEygg
zwyrRR5fTEfANrIofZOJesLORsrWDLbx1FuiG8ZRmJzz4ASxAqJZuETzk9+MrAEL
ngAAKpEPj4se4pTq0quYHB3e0v38WQvONVSjR1dxsB72k0mukYxXKuyeOXZ6LfiP
emGcQ5KT8qOo2zcrPS2kF2io01XpABbIJrfkQamLsinaG8PT5mK9XXwdsfwJQGue
ix+snHtdAdoy26fyRNB5aikZr/7igZU3cUTu0Mj/DxOuj/XkCIruQnQfi9qEYORf
6Ca7NCHs4gTThdtoP4EUPOY9xoNA7ZAOAZOMzgmzld8RiR+Rn07Rah6DrxSuSHck
yB5NJ/Tlq2Sg+lw3EljmBtY76OK1LK77MWiktxI5weJANE1LUbZmC3k=
-----END CERTIFICATE-----
Certificate:
    Data:
        Version: 3 (0x2)
        Serial Number: 10219423159405941259 (0x8dd2af37f9ca920b)
    Signature Algorithm: sha1WithRSAEncryption
        Issuer: C=BE, CN=txjsonrpc-test-ca
        Validity
            Not Before: Jun 23 15:46:37 2012 GMT
            Not After : Jun 21 15:46:37 2022 GMT
        Subject: C=BE, CN=txjsonrpc-test-ca
        Subject Public Key Info:
            Public Key Algorithm: rsaEncryption
                Public-Key: (4096 bit)
                Modulus:
                    00:d1:25:af:77:c5:a8:72:cf:90:b9:39:10:fb:7b:
                    75:2c:a1:da:6a:95:e5:44:0c:d6:25:4b:58:7f:bb:
                    07:82:59:49:58:32:85:24:cc:3e:77:db:e1:a7:4f:
                    c8:b5:cb:ee:45:38:bd:bc:fb:e3:76:3b:88:04:ca:
                    ab:3a:a3:96:3b:5f:93:9c:28:a6:61:97:dc:a2:3f:
                    a0:93:2b:56:6c:cf:d3:4f:6a:9e:05:d3:1c:cd:ef:
                    75:80:1a:98:b7:92:49:14:33:b8:c4:7c:73:8c:7e:
                    83:a5:81:a2:59:8c:8b:a3:51:36:6d:68:ac:f2:f1:
                    ed:6f:49:d9:af:7a:63:c1:43:31:42:b6:c7:cd:b9:
                    78:b7:33:98:70:92:6c:9e:04:7a:7b:f0:6d:38:87:
                    eb:00:13:17:b9:d9:ec:b4:66:bb:51:d3:fd:81:e3:
                    0e:88:71:23:d2:80:2a:61:de:ab:25:02:47:a9:c1:
                    6b:c9:69:ae:da:47:b6:49:74:ac:a6:e1:c1:76:ba:
                    6d:b1:d9:68:6e:1c:37:a8:e2:18:60:37:b6:58:13:
                    6c:c7:92:7c:c6:45:8c:ef:c3:81:73:10:dc:2f:31:
                    e2:b9:05:5a:9e:28:70:5a:3e:1d:b8:68:71:81:c9:
                    e8:fe:1f:c3:a0:13:f8:e4:24:12:ba:91:8e:15:d2:
                    03:f1:8c:b0:aa:e2:34:e4:6b:f8:06:f6:23:8a:92:
                    43:a6:05:dc:e9:c7:a5:a8:06:d7:6e:91:52:72:47:
                    ab:ae:87:fe:b3:0f:04:87:6f:4b:22:29:e9:a9:06:
                    52:58:7d:03:16:d7:d5:31:44:b4:f1:51:44:a7:2a:
                    ba:5e:09:19:ec:4c:a2:e0:58:fe:0d:4e:b7:90:4d:
                    02:ac:2a:ad:99:14:65:3b:0a:3c:73:45:56:b2:0f:
                    10:25:24:51:79:57:1a:34:1a:10:6f:60:e0:fc:81:
                    db:ca:c2:e2:85:1b:4c:72:13:5c:9d:76:cc:d0:21:
                    33:31:56:82:8f:c5:57:b9:44:fd:8b:76:c1:b6:e4:
                    21:8b:35:9a:ee:54:74:9f:72:6b:19:84:d7:a2:3c:
                    a5:6e:11:0a:f1:93:04:2e:dd:7c:4c:7d:62:10:d4:
                    1b:8b:87:f6:ed:bf:12:b1:8b:f0:9a:7a:ee:02:94:
                    e1:3c:46:2b:7f:9c:54:fb:2e:61:c9:1c:ef:fc:de:
                    25:bc:2d:75:1b:1f:49:5e:44:3b:15:93:ad:c4:89:
                    d9:ae:3c:da:54:ef:d9:af:3a:16:cb:94:1b:6a:14:
                    e4:42:f9:75:33:46:6e:fb:40:bc:f8:82:36:cf:60:
                    f5:c2:a2:98:23:a7:2a:ae:c1:aa:22:f8:87:da:b7:
                    9c:a4:cf
                Exponent: 65537 (0x10001)
        X509v3 extensions:
            X509v3 Subject Key Identifier: 
                9D:8F:84:76:94:CD:07:FE:A3:E8:8B:D7:F9:D9:6E:EF:CA:75:51:7B
            X509v3 Authority Key Identifier: 
                keyid:9D:8F:84:76:94:CD:07:FE:A3:E8:8B:D7:F9:D9:6E:EF:CA:75:51:7B
                DirName:/C=BE/CN=txjsonrpc-test-ca
                serial:8D:D2:AF:37:F9:CA:92:0B

            X509v3 Basic Constraints: critical
                CA:TRUE
            Netscape Cert Type: 
                SSL CA, S/MIME CA
            X509v3 Issuer Alternative Name: 
                <EMPTY>

            Netscape Comment: 
                Test CA for txjsonrcp
            X509v3 Subject Alternative Name: 
                <EMPTY>

            X509v3 Key Usage: critical
                Certificate Sign, CRL Sign
    Signature Algorithm: sha1WithRSAEncryption
         06:82:86:81:a9:1b:7e:2d:ef:f5:fc:cc:d2:9d:d6:82:ad:d0:
         6f:7e:3d:b9:5c:b2:0f:3a:64:21:9a:fb:53:b2:93:81:dc:1a:
         24:fc:b8:30:57:a2:c7:71:0d:9c:1a:0b:8a:6c:89:52:8b:8a:
         f5:af:95:3e:b8:08:39:ee:36:50:ac:60:4d:df:2b:49:a2:72:
         f1:3f:12:3c:d9:55:56:a4:9a:77:2b:77:fa:16:b5:76:d9:f4:
         c4:51:6b:b9:fe:2f:a3:52:e8:64:80:49:22:6d:05:42:87:af:
         9d:85:6c:fa:c9:9b:48:39:7b:89:f5:a0:1e:ff:11:d3:9c:78:
         b1:b2:f6:4d:b1:e8:b3:98:23:2c:d4:20:e1:a1:01:3e:26:0a:
         5b:8e:eb:58:45:22:cf:e1:94:ad:84:40:b0:fb:ff:25:5f:31:
         9a:49:0b:36:ad:c6:1a:b0:42:60:40:e2:a2:3c:5a:36:41:89:
         fc:10:c4:60:ea:d4:85:7b:36:84:df:aa:81:cc:69:e7:52:ca:
         c1:46:b1:79:93:51:4f:24:84:42:14:3a:20:a0:6c:27:76:40:
         0f:96:7e:4e:c3:0c:37:b3:e3:73:49:86:58:31:00:1e:e7:0f:
         87:74:b6:4e:6e:1c:7d:87:a4:33:04:c9:76:ec:e5:3a:85:5f:
         a8:d1:ad:21:64:5e:c5:6a:df:b1:02:6e:65:a4:87:72:06:07:
         da:e5:f2:af:2b:a5:eb:18:80:67:83:a5:3c:e6:ed:d1:58:f9:
         90:5c:d6:e9:2f:76:c1:58:13:b8:bd:88:8a:f3:04:48:bb:42:
         8f:7f:c6:db:b4:30:3f:bb:6c:d5:47:e5:ae:8d:4b:da:92:a5:
         db:d3:6e:a8:9b:c2:6b:56:af:34:63:82:e6:78:f8:1f:54:d7:
         41:aa:a3:c9:7c:a6:83:41:bf:6e:33:7c:ae:e6:92:bd:da:27:
         b4:bc:e2:90:4f:33:1b:01:a1:cd:02:13:7a:31:ef:00:d6:9a:
         6e:38:6b:a7:cb:70:98:a8:0f:ff:1c:56:a8:b7:e6:d2:42:5a:
         bb:f4:78:27:71:13:d0:e8:43:eb:bc:2d:4f:e4:ea:4d:4f:76:
         7f:53:38:34:eb:13:e2:3d:c6:14:98:86:1c:ab:2c:0e:b7:68:
         2e:bd:63:a9:6a:8f:d5:22:2d:ab:13:d7:62:54:51:ff:5c:37:
         08:04:27:da:f9:57:77:05:18:73:88:5f:b0:c1:65:50:36:09:
         d6:c7:f5:ae:6e:3f:04:d1:84:3c:21:74:1d:bd:0a:fb:76:d0:
         13:2b:62:bb:24:48:43:89:d0:18:5c:b4:ad:ea:98:af:6d:fc:
         1c:6b:1f:06:64:54:23:88
-----BEGIN CERTIFICATE-----
MIIFwzCCA6ugAwIBAgIJAI3Srzf5ypILMA0GCSqGSIb3DQEBBQUAMCkxCzAJBgNV
BAYTAkJFMRowGAYDVQQDExF0eGpzb25ycGMtdGVzdC1jYTAeFw0xMjA2MjMxNTQ2
MzdaFw0yMjA2MjExNTQ2MzdaMCkxCzAJBgNVBAYTAkJFMRowGAYDVQQDExF0eGpz
b25ycGMtdGVzdC1jYTCCAiIwDQYJKoZIhvcNAQEBBQADggIPADCCAgoCggIBANEl
r3fFqHLPkLk5EPt7dSyh2mqV5UQM1iVLWH+7B4JZSVgyhSTMPnfb4adPyLXL7kU4
vbz743Y7iATKqzqjljtfk5wopmGX3KI/oJMrVmzP009qngXTHM3vdYAamLeSSRQz
uMR8c4x+g6WBolmMi6NRNm1orPLx7W9J2a96Y8FDMUK2x825eLczmHCSbJ4Eenvw
bTiH6wATF7nZ7LRmu1HT/YHjDohxI9KAKmHeqyUCR6nBa8lprtpHtkl0rKbhwXa6
bbHZaG4cN6jiGGA3tlgTbMeSfMZFjO/DgXMQ3C8x4rkFWp4ocFo+HbhocYHJ6P4f
w6AT+OQkErqRjhXSA/GMsKriNORr+Ab2I4qSQ6YF3OnHpagG126RUnJHq66H/rMP
BIdvSyIp6akGUlh9AxbX1TFEtPFRRKcqul4JGexMouBY/g1Ot5BNAqwqrZkUZTsK
PHNFVrIPECUkUXlXGjQaEG9g4PyB28rC4oUbTHITXJ12zNAhMzFWgo/FV7lE/Yt2
wbbkIYs1mu5UdJ9yaxmE16I8pW4RCvGTBC7dfEx9YhDUG4uH9u2/ErGL8Jp67gKU
4TxGK3+cVPsuYckc7/zeJbwtdRsfSV5EOxWTrcSJ2a482lTv2a86FsuUG2oU5EL5
dTNGbvtAvPiCNs9g9cKimCOnKq7BqiL4h9q3nKTPAgMBAAGjge0wgeowHQYDVR0O
BBYEFJ2PhHaUzQf+o+iL1/nZbu/KdVF7MFkGA1UdIwRSMFCAFJ2PhHaUzQf+o+iL
1/nZbu/KdVF7oS2kKzApMQswCQYDVQQGEwJCRTEaMBgGA1UEAxMRdHhqc29ucnBj
LXRlc3QtY2GCCQCN0q83+cqSCzAPBgNVHRMBAf8EBTADAQH/MBEGCWCGSAGG+EIB
AQQEAwIBBjAJBgNVHRIEAjAAMCQGCWCGSAGG+EIBDQQXFhVUZXN0IENBIGZvciB0
eGpzb25yY3AwCQYDVR0RBAIwADAOBgNVHQ8BAf8EBAMCAQYwDQYJKoZIhvcNAQEF
BQADggIBAAaChoGpG34t7/X8zNKd1oKt0G9+Pblcsg86ZCGa+1Oyk4HcGiT8uDBX
osdxDZwaC4psiVKLivWvlT64CDnuNlCsYE3fK0micvE/EjzZVVakmncrd/oWtXbZ
9MRRa7n+L6NS6GSASSJtBUKHr52FbPrJm0g5e4n1oB7/EdOceLGy9k2x6LOYIyzU
IOGhAT4mCluO61hFIs/hlK2EQLD7/yVfMZpJCzatxhqwQmBA4qI8WjZBifwQxGDq
1IV7NoTfqoHMaedSysFGsXmTUU8khEIUOiCgbCd2QA+Wfk7DDDez43NJhlgxAB7n
D4d0tk5uHH2HpDMEyXbs5TqFX6jRrSFkXsVq37ECbmWkh3IGB9rl8q8rpesYgGeD
pTzm7dFY+ZBc1ukvdsFYE7i9iIrzBEi7Qo9/xtu0MD+7bNVH5a6NS9qSpdvTbqib
wmtWrzRjguZ4+B9U10Gqo8l8poNBv24zfK7mkr3aJ7S84pBPMxsBoc0CE3ox7wDW
mm44a6fLcJioD/8cVqi35tJCWrv0eCdxE9DoQ+u8LU/k6k1Pdn9TODTrE+I9xhSY
hhyrLA63aC69Y6lqj9UiLasT12JUUf9cNwgEJ9r5V3cFGHOIX7DBZVA2CdbH9a5u
PwTRhDwhdB29Cvt20BMrYrskSEOJ0BhctK3qmK9t/BxrHwZkVCOI
-----END CERTIFICATE-----
