Certificate:
    Data:
        Version: 4 (0x3)
        Serial Number: 1 (0x1)
    Signature Algorithm: sha1WithRSAEncryption
        Issuer: C=BE, CN=txjsonrpc-pyserver, O=Gremwell bvba
        Validity
            Not Before: Jun 23 15:47:38 2012 GMT
            Not After : Jun 23 15:47:38 2013 GMT
        Subject: C=BE, CN=txjsonrpc-pyserver, O=Gremwell bvba
        Subject Public Key Info:
            Public Key Algorithm: rsaEncryption
                Public-Key: (4096 bit)
                Modulus:
                    00:bb:62:97:c5:8f:34:4a:3c:48:94:a9:e6:51:fc:
                    c1:f8:c8:ec:7b:a9:76:e5:84:c5:7b:18:a1:f2:ae:
                    ad:68:bd:c4:a4:af:8b:2c:f5:32:27:bc:a7:27:89:
                    59:b7:3a:9f:f7:fc:a0:51:6b:bb:9c:7e:0a:10:79:
                    0e:71:fc:34:a0:1d:19:83:35:d2:96:b4:9e:53:8b:
                    80:57:4e:b6:9d:40:cb:0e:d6:0a:bd:a7:82:fc:1e:
                    c2:ba:4d:9c:02:cd:b5:af:88:8c:ea:2e:4d:ab:4c:
                    fb:26:17:af:be:c8:30:34:7a:ff:34:21:6b:6c:1e:
                    1d:cd:a9:75:3b:92:65:e6:24:28:ef:16:5a:52:c3:
                    7a:f2:eb:47:50:8e:0e:07:ff:05:40:37:c6:44:38:
                    0c:99:f4:79:ce:7e:c7:f0:a6:b5:e7:10:f1:b5:12:
                    1d:ff:62:2e:4b:e0:ac:41:57:d6:92:55:4d:4e:fb:
                    ca:a9:d7:66:d1:71:9b:dd:71:1b:6c:f7:82:ff:51:
                    e6:1f:8f:ef:e0:c2:b3:47:37:26:6d:d3:76:49:16:
                    2f:9b:ab:d3:ca:06:ce:2b:1a:0b:b0:2b:84:68:63:
                    90:80:ed:a2:8d:03:63:32:5c:3a:75:fc:74:c9:ff:
                    d1:14:40:af:47:8f:7a:1b:87:69:32:27:30:8d:d2:
                    4e:55:0b:d8:37:95:ce:88:fa:03:09:dc:f5:44:f9:
                    33:c1:c5:13:69:0d:7c:13:5d:31:7f:5b:08:69:8a:
                    4c:b8:ba:8c:f4:f6:05:8b:93:e4:23:81:09:0d:b1:
                    14:c8:77:e0:62:98:bd:60:7d:f5:c6:92:30:72:24:
                    cc:5c:0b:74:51:9c:1e:5f:75:af:5b:26:a4:b5:16:
                    28:e3:c4:28:12:03:61:f7:b9:66:88:c1:25:84:76:
                    23:cf:48:14:36:ad:4a:61:a9:2e:e5:bd:e7:cb:f5:
                    79:ef:02:de:3d:b2:fa:cd:be:81:db:b4:03:31:4a:
                    0b:d2:19:3c:f9:63:96:6f:8b:84:1b:c0:97:e6:18:
                    a8:24:e8:dc:2d:8e:6b:25:b1:9e:d0:78:39:ab:67:
                    02:d2:30:c9:df:82:51:e3:be:e0:81:1a:3b:17:4e:
                    4c:8f:73:42:d7:25:d2:3b:2c:aa:3f:88:f2:1e:36:
                    61:a9:c8:7f:b0:0c:29:18:a4:2f:52:1a:d2:18:a7:
                    67:d9:95:b5:34:52:6b:21:ba:89:02:fa:d7:0f:28:
                    73:fb:7b:95:6b:97:87:f1:51:46:57:b3:84:ce:7e:
                    0d:c9:cf:b2:87:dd:7b:06:fd:15:c0:21:d0:d5:21:
                    bb:3f:52:b1:e4:d2:02:df:0c:f0:b9:78:a2:f9:78:
                    12:80:47
                Exponent: 65537 (0x10001)
    Signature Algorithm: sha1WithRSAEncryption
         7d:b5:89:4c:d9:5c:5b:ac:19:5d:cd:03:12:ee:40:46:0c:9f:
         ac:c3:7a:ac:90:a1:68:01:24:dc:8c:3c:8f:f1:4d:21:7e:b5:
         45:f0:01:70:81:6a:ec:97:cc:b1:10:e4:41:94:4f:03:57:b2:
         7c:9c:4d:5a:e4:74:e8:52:0d:ad:ea:4b:84:fb:df:78:04:71:
         d3:ad:06:50:41:d0:aa:c0:78:1a:79:11:d8:90:83:ef:2d:d0:
         5b:e8:8e:fe:2b:c8:48:fc:e8:72:88:c8:d2:3f:2e:09:8a:d7:
         34:22:18:3e:fe:1a:ba:3e:73:7b:93:86:be:46:43:2c:ee:71:
         39:6b:e5:9d:31:42:0d:c8:bb:67:45:e3:cf:0c:d3:e4:40:b7:
         5d:1c:f2:95:53:73:eb:78:91:d3:49:f8:6c:80:4a:4a:8d:11:
         57:4d:02:a5:7a:83:6d:92:37:a3:01:dd:19:44:68:b0:98:51:
         e5:3a:73:22:cd:5b:37:65:e4:da:e6:55:f8:1d:c6:b4:04:9b:
         f0:29:38:30:c2:55:ea:81:3a:ff:d7:eb:bc:51:3d:d2:1f:e6:
         dc:4a:bb:d6:f8:2d:f3:f7:fe:5d:d7:4d:3e:1c:af:28:43:00:
         38:c7:98:8c:42:e3:76:79:fb:66:e2:c9:63:81:a4:32:33:b4:
         ad:5a:ba:58:94:85:52:d1:42:8f:c5:b7:91:30:8a:14:d2:40:
         f6:88:6b:0b:3b:54:61:cd:27:e4:dd:be:ef:c9:22:2d:d1:45:
         34:74:e3:4c:ba:66:5b:f5:70:80:b6:f5:46:36:df:e0:31:81:
         89:d8:fe:b2:c2:4e:68:f8:39:08:3f:95:2c:ba:e2:a1:87:1a:
         b7:5b:46:ac:5f:8d:13:b5:be:b8:e0:7e:83:f0:d7:7b:49:1e:
         4b:97:9f:87:9c:7e:ef:2c:d3:eb:a7:16:05:27:5e:ae:4a:1d:
         c9:0e:35:d5:ab:e8:dd:8b:a9:77:cd:5b:e6:81:20:04:e8:f5:
         93:91:c0:8e:41:d2:f8:42:cf:0b:5a:0e:dd:eb:fb:3e:cc:ae:
         8f:84:c8:ae:14:b4:27:8f:31:64:6c:09:65:0d:67:ea:1e:c8:
         ba:6d:26:2d:cd:44:0b:86:8e:62:83:78:59:7c:29:a3:ea:f9:
         b4:65:f6:ab:69:d9:62:91:5d:9d:16:b6:44:f0:85:91:1b:2c:
         f8:4d:9e:9b:33:df:64:bd:61:3f:20:4e:52:82:e9:6f:40:8e:
         80:32:d3:a3:b1:2e:85:f5:42:81:1c:d7:61:82:0e:f3:c7:56:
         bc:6f:64:79:92:42:96:67:1e:5c:ad:cd:c7:48:88:e6:35:0d:
         a0:9b:1e:3e:12:96:dd:9e
-----BEGIN CERTIFICATE-----
MIIE/TCCAuWgAwIBAwIBATANBgkqhkiG9w0BAQUFADBCMQswCQYDVQQGEwJCRTEb
MBkGA1UEAxMSdHhqc29ucnBjLXB5c2VydmVyMRYwFAYDVQQKEw1HcmVtd2VsbCBi
dmJhMB4XDTEyMDYyMzE1NDczOFoXDTEzMDYyMzE1NDczOFowQjELMAkGA1UEBhMC
QkUxGzAZBgNVBAMTEnR4anNvbnJwYy1weXNlcnZlcjEWMBQGA1UEChMNR3JlbXdl
bGwgYnZiYTCCAiIwDQYJKoZIhvcNAQEBBQADggIPADCCAgoCggIBALtil8WPNEo8
SJSp5lH8wfjI7HupduWExXsYofKurWi9xKSviyz1Mie8pyeJWbc6n/f8oFFru5x+
ChB5DnH8NKAdGYM10pa0nlOLgFdOtp1Ayw7WCr2ngvwewrpNnALNta+IjOouTatM
+yYXr77IMDR6/zQha2weHc2pdTuSZeYkKO8WWlLDevLrR1CODgf/BUA3xkQ4DJn0
ec5+x/CmtecQ8bUSHf9iLkvgrEFX1pJVTU77yqnXZtFxm91xG2z3gv9R5h+P7+DC
s0c3Jm3TdkkWL5ur08oGzisaC7ArhGhjkIDtoo0DYzJcOnX8dMn/0RRAr0ePehuH
aTInMI3STlUL2DeVzoj6Awnc9UT5M8HFE2kNfBNdMX9bCGmKTLi6jPT2BYuT5COB
CQ2xFMh34GKYvWB99caSMHIkzFwLdFGcHl91r1smpLUWKOPEKBIDYfe5ZojBJYR2
I89IFDatSmGpLuW958v1ee8C3j2y+s2+gdu0AzFKC9IZPPljlm+LhBvAl+YYqCTo
3C2OayWxntB4OatnAtIwyd+CUeO+4IEaOxdOTI9zQtcl0jssqj+I8h42YanIf7AM
KRikL1Ia0hinZ9mVtTRSayG6iQL61w8oc/t7lWuXh/FRRlezhM5+DcnPsofdewb9
FcAh0NUhuz9SseTSAt8M8Ll4ovl4EoBHAgMBAAEwDQYJKoZIhvcNAQEFBQADggIB
AH21iUzZXFusGV3NAxLuQEYMn6zDeqyQoWgBJNyMPI/xTSF+tUXwAXCBauyXzLEQ
5EGUTwNXsnycTVrkdOhSDa3qS4T733gEcdOtBlBB0KrAeBp5EdiQg+8t0Fvojv4r
yEj86HKIyNI/LgmK1zQiGD7+Gro+c3uThr5GQyzucTlr5Z0xQg3Iu2dF488M0+RA
t10c8pVTc+t4kdNJ+GyASkqNEVdNAqV6g22SN6MB3RlEaLCYUeU6cyLNWzdl5Nrm
VfgdxrQEm/ApODDCVeqBOv/X67xRPdIf5txKu9b4LfP3/l3XTT4cryhDADjHmIxC
43Z5+2biyWOBpDIztK1auliUhVLRQo/Ft5EwihTSQPaIaws7VGHNJ+Tdvu/JIi3R
RTR040y6Zlv1cIC29UY23+AxgYnY/rLCTmj4OQg/lSy64qGHGrdbRqxfjRO1vrjg
foPw13tJHkuXn4ecfu8s0+unFgUnXq5KHckONdWr6N2LqXfNW+aBIATo9ZORwI5B
0vhCzwtaDt3r+z7Mro+EyK4UtCePMWRsCWUNZ+oeyLptJi3NRAuGjmKDeFl8KaPq
+bRl9qtp2WKRXZ0WtkTwhZEbLPhNnpsz32S9YT8gTlKC6W9AjoAy06OxLoX1QoEc
12GCDvPHVrxvZHmSQpZnHlytzcdIiOY1DaCbHj4Slt2e
-----END CERTIFICATE-----
