Certificate:
    Data:
        Version: 4 (0x3)
        Serial Number: 1 (0x1)
    Signature Algorithm: sha1WithRSAEncryption
        Issuer: CN=txjsonrpc-pyserver, C=BE, O=Gremwell bvba
        Validity
            Not Before: Jan  1 00:00:00 1970 GMT
            Not After : Jan 19 03:14:07 2038 GMT
        Subject: CN=txjsonrpc-pyserver, C=BE, O=Gremwell bvba
        Subject Public Key Info:
            Public Key Algorithm: rsaEncryption
                Public-Key: (1024 bit)
                Modulus:
                    00:c4:b7:44:e8:78:2d:bd:2a:48:1c:25:e3:00:91:
                    6c:02:02:63:b8:c2:0c:6d:d3:6e:6a:fa:7d:d6:56:
                    1f:aa:cb:87:56:31:3a:71:5a:d5:77:84:82:e1:d0:
                    b8:b4:2f:3c:2b:32:cc:c2:da:05:19:ac:92:1d:d6:
                    4b:33:14:6f:9a:ce:1a:c8:06:59:05:49:27:75:44:
                    d5:50:fd:d2:65:41:c5:71:b0:cf:26:e9:ea:67:2b:
                    00:8a:b2:b3:1d:b8:80:4e:0c:5f:45:18:9d:ff:53:
                    29:0f:e9:78:fa:39:2a:cf:2a:1b:e3:7a:0a:56:16:
                    db:7d:3b:c7:61:04:37:a0:23
                Exponent: 65537 (0x10001)
    Signature Algorithm: sha1WithRSAEncryption
         b7:f4:05:e6:e2:b6:e4:50:0d:c5:be:bc:98:98:ec:a9:3a:31:
         70:ca:cf:67:f6:fe:14:b5:b6:bb:99:2f:c7:da:ba:ff:b1:7c:
         6f:17:24:3c:66:bb:04:28:2a:01:32:50:cb:cc:04:fe:e3:85:
         11:20:79:04:5a:69:bd:e2:5b:b2:ba:dd:e8:a7:e2:62:25:73:
         51:c5:4a:31:6c:45:30:12:f6:e7:40:1c:8d:48:32:58:ea:67:
         c8:42:06:9c:ca:ee:0b:16:af:3c:2e:af:f0:6d:b0:56:b3:53:
         35:45:cd:62:26:93:27:a4:d0:3f:c9:78:a0:3c:e0:a2:bf:90:
         3a:86
-----BEGIN CERTIFICATE-----
MIIB+DCCAWGgAwIBAwIBATANBgkqhkiG9w0BAQUFADBCMRswGQYDVQQDExJ0eGpz
b25ycGMtcHlzZXJ2ZXIxCzAJBgNVBAYTAkJFMRYwFAYDVQQKEw1HcmVtd2VsbCBi
dmJhMB4XDTcwMDEwMTAwMDAwMFoXDTM4MDExOTAzMTQwN1owQjEbMBkGA1UEAxMS
dHhqc29ucnBjLXB5c2VydmVyMQswCQYDVQQGEwJCRTEWMBQGA1UEChMNR3JlbXdl
bGwgYnZiYTCBnzANBgkqhkiG9w0BAQEFAAOBjQAwgYkCgYEAxLdE6HgtvSpIHCXj
AJFsAgJjuMIMbdNuavp91lYfqsuHVjE6cVrVd4SC4dC4tC88KzLMwtoFGaySHdZL
MxRvms4ayAZZBUkndUTVUP3SZUHFcbDPJunqZysAirKzHbiATgxfRRid/1MpD+l4
+jkqzyob43oKVhbbfTvHYQQ3oCMCAwEAATANBgkqhkiG9w0BAQUFAAOBgQC39AXm
4rbkUA3FvryYmOypOjFwys9n9v4Utba7mS/H2rr/sXxvFyQ8ZrsEKCoBMlDLzAT+
44URIHkEWmm94luyut3op+JiJXNRxUoxbEUwEvbnQByNSDJY6mfIQgacyu4LFq88
Lq/wbbBWs1M1Rc1iJpMnpNA/yXigPOCiv5A6hg==
-----END CERTIFICATE-----
