Certificate:
    Data:
        Version: 4 (0x3)
        Serial Number: 1 (0x1)
    Signature Algorithm: sha1WithRSAEncryption
        Issuer: CN=ca-true, C=BE, O=Gremwell bvba
        Validity
            Not Before: Jun 23 15:47:38 2012 GMT
            Not After : Jun 23 15:47:38 2013 GMT
        Subject: C=BE, CN=txjsonrpc-pyserver, O=Gremwell bvba
        Subject Public Key Info:
            Public Key Algorithm: rsaEncryption
                Public-Key: (4096 bit)
                Modulus:
                    00:bb:62:97:c5:8f:34:4a:3c:48:94:a9:e6:51:fc:
                    c1:f8:c8:ec:7b:a9:76:e5:84:c5:7b:18:a1:f2:ae:
                    ad:68:bd:c4:a4:af:8b:2c:f5:32:27:bc:a7:27:89:
                    59:b7:3a:9f:f7:fc:a0:51:6b:bb:9c:7e:0a:10:79:
                    0e:71:fc:34:a0:1d:19:83:35:d2:96:b4:9e:53:8b:
                    80:57:4e:b6:9d:40:cb:0e:d6:0a:bd:a7:82:fc:1e:
                    c2:ba:4d:9c:02:cd:b5:af:88:8c:ea:2e:4d:ab:4c:
                    fb:26:17:af:be:c8:30:34:7a:ff:34:21:6b:6c:1e:
                    1d:cd:a9:75:3b:92:65:e6:24:28:ef:16:5a:52:c3:
                    7a:f2:eb:47:50:8e:0e:07:ff:05:40:37:c6:44:38:
                    0c:99:f4:79:ce:7e:c7:f0:a6:b5:e7:10:f1:b5:12:
                    1d:ff:62:2e:4b:e0:ac:41:57:d6:92:55:4d:4e:fb:
                    ca:a9:d7:66:d1:71:9b:dd:71:1b:6c:f7:82:ff:51:
                    e6:1f:8f:ef:e0:c2:b3:47:37:26:6d:d3:76:49:16:
                    2f:9b:ab:d3:ca:06:ce:2b:1a:0b:b0:2b:84:68:63:
                    90:80:ed:a2:8d:03:63:32:5c:3a:75:fc:74:c9:ff:
                    d1:14:40:af:47:8f:7a:1b:87:69:32:27:30:8d:d2:
                    4e:55:0b:d8:37:95:ce:88:fa:03:09:dc:f5:44:f9:
                    33:c1:c5:13:69:0d:7c:13:5d:31:7f:5b:08:69:8a:
                    4c:b8:ba:8c:f4:f6:05:8b:93:e4:23:81:09:0d:b1:
                    14:c8:77:e0:62:98:bd:60:7d:f5:c6:92:30:72:24:
                    cc:5c:0b:74:51:9c:1e:5f:75:af:5b:26:a4:b5:16:
                    28:e3:c4:28:12:03:61:f7:b9:66:88:c1:25:84:76:
                    23:cf:48:14:36:ad:4a:61:a9:2e:e5:bd:e7:cb:f5:
                    79:ef:02:de:3d:b2:fa:cd:be:81:db:b4:03:31:4a:
                    0b:d2:19:3c:f9:63:96:6f:8b:84:1b:c0:97:e6:18:
                    a8:24:e8:dc:2d:8e:6b:25:b1:9e:d0:78:39:ab:67:
                    02:d2:30:c9:df:82:51:e3:be:e0:81:1a:3b:17:4e:
                    4c:8f:73:42:d7:25:d2:3b:2c:aa:3f:88:f2:1e:36:
                    61:a9:c8:7f:b0:0c:29:18:a4:2f:52:1a:d2:18:a7:
                    67:d9:95:b5:34:52:6b:21:ba:89:02:fa:d7:0f:28:
                    73:fb:7b:95:6b:97:87:f1:51:46:57:b3:84:ce:7e:
                    0d:c9:cf:b2:87:dd:7b:06:fd:15:c0:21:d0:d5:21:
                    bb:3f:52:b1:e4:d2:02:df:0c:f0:b9:78:a2:f9:78:
                    12:80:47
                Exponent: 65537 (0x10001)
    Signature Algorithm: sha1WithRSAEncryption
         5d:c3:70:0f:95:08:39:7c:f4:2a:74:c6:e4:84:dc:cd:e0:54:
         fa:0b:b0:8e:02:ec:12:6c:2b:6d:c9:25:2e:12:51:26:de:d9:
         79:06:64:21:e4:dc:d9:e1:4e:94:a4:ec:71:6d:fa:40:e2:43:
         17:a8:ff:cf:56:b1:76:f9:69:61:22:aa:e8:ff:9a:14:7c:a4:
         0d:c4:7d:38:dc:da:09:3c:fe:bd:16:58:7b:fd:00:cf:85:6e:
         da:d7:22:f0:a1:32:46:b6:22:ba:d4:a2:e6:d8:c3:95:a8:27:
         a2:c3:f9:dc:0b:8a:38:e6:a2:09:cf:bb:9a:83:47:51:fc:63:
         d1:6b
-----BEGIN CERTIFICATE-----
MIIDcTCCAtqgAwIBAwIBATANBgkqhkiG9w0BAQUFADA3MRAwDgYDVQQDEwdjYS10
cnVlMQswCQYDVQQGEwJCRTEWMBQGA1UEChMNR3JlbXdlbGwgYnZiYTAeFw0xMjA2
MjMxNTQ3MzhaFw0xMzA2MjMxNTQ3MzhaMEIxCzAJBgNVBAYTAkJFMRswGQYDVQQD
ExJ0eGpzb25ycGMtcHlzZXJ2ZXIxFjAUBgNVBAoTDUdyZW13ZWxsIGJ2YmEwggIi
MA0GCSqGSIb3DQEBAQUAA4ICDwAwggIKAoICAQC7YpfFjzRKPEiUqeZR/MH4yOx7
qXblhMV7GKHyrq1ovcSkr4ss9TInvKcniVm3Op/3/KBRa7ucfgoQeQ5x/DSgHRmD
NdKWtJ5Ti4BXTradQMsO1gq9p4L8HsK6TZwCzbWviIzqLk2rTPsmF6++yDA0ev80
IWtsHh3NqXU7kmXmJCjvFlpSw3ry60dQjg4H/wVAN8ZEOAyZ9HnOfsfwprXnEPG1
Eh3/Yi5L4KxBV9aSVU1O+8qp12bRcZvdcRts94L/UeYfj+/gwrNHNyZt03ZJFi+b
q9PKBs4rGguwK4RoY5CA7aKNA2MyXDp1/HTJ/9EUQK9Hj3obh2kyJzCN0k5VC9g3
lc6I+gMJ3PVE+TPBxRNpDXwTXTF/Wwhpiky4uoz09gWLk+QjgQkNsRTId+BimL1g
ffXGkjByJMxcC3RRnB5fda9bJqS1FijjxCgSA2H3uWaIwSWEdiPPSBQ2rUphqS7l
vefL9XnvAt49svrNvoHbtAMxSgvSGTz5Y5Zvi4QbwJfmGKgk6NwtjmslsZ7QeDmr
ZwLSMMnfglHjvuCBGjsXTkyPc0LXJdI7LKo/iPIeNmGpyH+wDCkYpC9SGtIYp2fZ
lbU0UmshuokC+tcPKHP7e5Vrl4fxUUZXs4TOfg3Jz7KH3XsG/RXAIdDVIbs/UrHk
0gLfDPC5eKL5eBKARwIDAQABMA0GCSqGSIb3DQEBBQUAA4GBAF3DcA+VCDl89Cp0
xuSE3M3gVPoLsI4C7BJsK23JJS4SUSbe2XkGZCHk3NnhTpSk7HFt+kDiQxeo/89W
sXb5aWEiquj/mhR8pA3EfTjc2gk8/r0WWHv9AM+FbtrXIvChMka2IrrUoubYw5Wo
J6LD+dwLijjmognPu5qDR1H8Y9Fr
-----END CERTIFICATE-----
Certificate:
    Data:
        Version: 4 (0x3)
        Serial Number: 1 (0x1)
    Signature Algorithm: sha1WithRSAEncryption
        Issuer: C=BE, CN=txjsonrpc-test-ca
        Validity
            Not Before: Jan  1 00:00:00 1970 GMT
            Not After : Jan 19 03:14:07 2038 GMT
        Subject: CN=ca-true, C=BE, O=Gremwell bvba
        Subject Public Key Info:
            Public Key Algorithm: rsaEncryption
                Public-Key: (1024 bit)
                Modulus:
                    00:ba:d3:9d:a4:0b:3d:aa:b7:0c:e4:a6:cc:78:8a:
                    a1:49:eb:cf:52:2c:92:b2:11:d6:5e:64:0a:c2:77:
                    01:d2:9c:9b:83:36:c0:18:44:26:61:2b:45:2a:58:
                    d1:cd:d0:6f:46:28:8e:c4:58:12:97:99:a1:cc:f7:
                    df:05:ba:6a:fd:48:c6:7c:4a:ec:b7:ef:ea:76:5a:
                    a2:b4:db:17:52:56:a2:74:95:3c:be:1d:06:2b:df:
                    5b:8e:3f:4b:98:9a:20:04:dc:41:0b:43:8b:94:84:
                    9e:02:ae:a6:4f:9f:d6:5c:35:91:87:59:78:36:7e:
                    ac:da:34:51:8f:d3:e3:3d:b9
                Exponent: 65537 (0x10001)
        X509v3 extensions:
            X509v3 Basic Constraints: critical
                CA:TRUE
    Signature Algorithm: sha1WithRSAEncryption
         7e:74:9f:c2:90:b4:65:40:27:70:5e:b7:9c:90:ea:74:95:1c:
         e7:02:93:3e:44:a4:d6:50:30:bf:07:51:9f:69:50:da:66:ae:
         bb:db:7d:18:d8:28:f0:5e:33:10:4b:02:b2:6c:f8:2a:20:1c:
         16:bd:10:27:25:1c:6e:64:f0:f6:1f:f4:9a:f1:03:c1:a0:37:
         7e:08:46:18:f0:29:70:55:d0:a0:0f:8b:fd:01:99:b7:d5:22:
         1e:55:cc:e9:23:c7:4b:d3:a4:13:b1:eb:bf:39:d0:e5:5a:18:
         a0:08:0c:56:04:3c:68:04:da:3c:1e:d0:f4:fb:67:06:bf:01:
         37:56:5b:e2:51:38:67:de:6f:37:ce:19:38:d2:46:cd:6c:bf:
         3a:92:0a:ff:d7:9d:2a:06:20:09:0f:0e:76:7a:6d:ce:cb:18:
         89:6a:38:3a:4e:8d:2e:87:f3:bf:c5:ce:cc:99:c8:47:7d:17:
         9e:fa:a2:86:74:9f:fd:ed:e2:d3:03:e4:59:5d:d9:05:47:7e:
         18:06:d5:0c:00:c2:9e:e0:42:a3:76:bb:2a:db:1a:e9:e8:5b:
         74:dc:38:45:b6:65:ca:4d:54:06:a7:ab:5c:5d:79:34:d9:8b:
         69:a3:82:8f:3f:8a:02:ee:58:f2:b5:e9:d3:ef:1a:76:3d:e1:
         00:da:8e:2d:4a:58:2f:bf:de:d5:2e:02:e2:33:ff:98:8f:0e:
         43:91:2b:d6:52:50:67:62:f7:dd:4a:a2:91:35:31:fe:71:6a:
         7e:f2:13:a4:bf:84:e4:56:51:bb:9e:71:21:69:6f:c9:26:34:
         0a:0b:f4:51:3b:43:d8:b6:a3:74:27:84:95:09:03:af:a9:ff:
         de:6c:76:21:b6:ab:2a:20:3c:a2:ab:19:23:3d:5c:e2:16:6b:
         f3:2a:31:b5:cd:90:4c:97:dd:e8:96:43:fa:ae:17:18:61:8e:
         98:f6:d2:af:1b:81:c3:b9:8b:61:ec:75:b9:6d:19:eb:81:16:
         f0:d4:c5:3e:25:db:00:bc:0d:d8:d6:0f:a2:38:ff:cc:5c:40:
         ce:d5:51:50:be:0a:aa:4a:b6:a6:48:91:fe:22:0d:60:eb:44:
         43:b9:ce:ee:f0:f8:2d:1d:23:b1:c7:5a:f1:13:18:55:f0:12:
         1a:7d:88:59:e9:13:25:49:c8:3a:dd:89:9b:2a:b7:31:86:2a:
         73:6e:10:70:0e:77:24:83:dc:c0:31:60:30:37:a9:5f:4c:8d:
         63:ed:31:c4:97:34:ed:dc:3e:4b:fe:a3:7b:84:8b:99:39:58:
         8f:48:29:be:44:3d:ed:cc:7d:8f:c2:04:03:00:38:d8:65:6d:
         19:ed:ca:20:8c:2d:1b:1c
-----BEGIN CERTIFICATE-----
MIIDajCCAVKgAwIBAwIBATANBgkqhkiG9w0BAQUFADApMQswCQYDVQQGEwJCRTEa
MBgGA1UEAxMRdHhqc29ucnBjLXRlc3QtY2EwHhcNNzAwMTAxMDAwMDAwWhcNMzgw
MTE5MDMxNDA3WjA3MRAwDgYDVQQDEwdjYS10cnVlMQswCQYDVQQGEwJCRTEWMBQG
A1UEChMNR3JlbXdlbGwgYnZiYTCBnzANBgkqhkiG9w0BAQEFAAOBjQAwgYkCgYEA
utOdpAs9qrcM5KbMeIqhSevPUiySshHWXmQKwncB0pybgzbAGEQmYStFKljRzdBv
RiiOxFgSl5mhzPffBbpq/UjGfErst+/qdlqitNsXUlaidJU8vh0GK99bjj9LmJog
BNxBC0OLlISeAq6mT5/WXDWRh1l4Nn6s2jRRj9PjPbkCAwEAAaMTMBEwDwYDVR0T
AQH/BAUwAwEB/zANBgkqhkiG9w0BAQUFAAOCAgEAfnSfwpC0ZUAncF63nJDqdJUc
5wKTPkSk1lAwvwdRn2lQ2mauu9t9GNgo8F4zEEsCsmz4KiAcFr0QJyUcbmTw9h/0
mvEDwaA3fghGGPApcFXQoA+L/QGZt9UiHlXM6SPHS9OkE7HrvznQ5VoYoAgMVgQ8
aATaPB7Q9PtnBr8BN1Zb4lE4Z95vN84ZONJGzWy/OpIK/9edKgYgCQ8OdnptzssY
iWo4Ok6NLofzv8XOzJnIR30XnvqihnSf/e3i0wPkWV3ZBUd+GAbVDADCnuBCo3a7
Ktsa6ehbdNw4RbZlyk1UBqerXF15NNmLaaOCjz+KAu5Y8rXp0+8adj3hANqOLUpY
L7/e1S4C4jP/mI8OQ5Er1lJQZ2L33UqikTUx/nFqfvITpL+E5FZRu55xIWlvySY0
Cgv0UTtD2LajdCeElQkDr6n/3mx2IbarKiA8oqsZIz1c4hZr8yoxtc2QTJfd6JZD
+q4XGGGOmPbSrxuBw7mLYex1uW0Z64EW8NTFPiXbALwN2NYPojj/zFxAztVRUL4K
qkq2pkiR/iINYOtEQ7nO7vD4LR0jscda8RMYVfASGn2IWekTJUnIOt2Jmyq3MYYq
c24QcA53JIPcwDFgMDepX0yNY+0xxJc07dw+S/6je4SLmTlYj0gpvkQ97cx9j8IE
AwA42GVtGe3KIIwtGxw=
-----END CERTIFICATE-----
