Certificate:
    Data:
        Version: 4 (0x3)
        Serial Number: 1 (0x1)
    Signature Algorithm: sha1WithRSAEncryption
        Issuer: CN=ca-false, C=BE, O=Gremwell bvba
        Validity
            Not Before: Jan  1 00:00:00 1970 GMT
            Not After : Jan 19 03:14:07 2038 GMT
        Subject: CN=txjsonrpc-pyserver, C=BE, O=Gremwell bvba
        Subject Public Key Info:
            Public Key Algorithm: rsaEncryption
                Public-Key: (1024 bit)
                Modulus:
                    00:c4:b7:44:e8:78:2d:bd:2a:48:1c:25:e3:00:91:
                    6c:02:02:63:b8:c2:0c:6d:d3:6e:6a:fa:7d:d6:56:
                    1f:aa:cb:87:56:31:3a:71:5a:d5:77:84:82:e1:d0:
                    b8:b4:2f:3c:2b:32:cc:c2:da:05:19:ac:92:1d:d6:
                    4b:33:14:6f:9a:ce:1a:c8:06:59:05:49:27:75:44:
                    d5:50:fd:d2:65:41:c5:71:b0:cf:26:e9:ea:67:2b:
                    00:8a:b2:b3:1d:b8:80:4e:0c:5f:45:18:9d:ff:53:
                    29:0f:e9:78:fa:39:2a:cf:2a:1b:e3:7a:0a:56:16:
                    db:7d:3b:c7:61:04:37:a0:23
                Exponent: 65537 (0x10001)
    Signature Algorithm: sha1WithRSAEncryption
         ab:83:4b:a0:eb:f5:31:fe:7f:48:e9:f5:b3:3f:51:f4:84:05:
         3b:6e:df:63:10:07:ba:94:57:3b:4c:34:2d:c0:39:84:4e:e2:
         cc:d4:b0:e3:b2:5b:a2:4c:99:db:20:03:17:92:52:60:80:c2:
         01:0d:48:f3:e2:8a:0f:4a:bd:af:01:71:61:fa:05:d7:f2:de:
         81:a3:e5:49:2f:8f:d4:a7:71:52:76:a0:f0:9d:5c:9c:af:4f:
         11:15:fc:fa:43:62:5d:85:c0:e4:91:d2:e9:e9:4c:25:15:0f:
         16:ad:b0:4c:56:d8:af:2f:b6:e0:c8:78:79:49:e9:a7:f6:f9:
         6a:51
-----BEGIN CERTIFICATE-----
MIIB7jCCAVegAwIBAwIBATANBgkqhkiG9w0BAQUFADA4MREwDwYDVQQDEwhjYS1m
YWxzZTELMAkGA1UEBhMCQkUxFjAUBgNVBAoTDUdyZW13ZWxsIGJ2YmEwHhcNNzAw
MTAxMDAwMDAwWhcNMzgwMTE5MDMxNDA3WjBCMRswGQYDVQQDExJ0eGpzb25ycGMt
cHlzZXJ2ZXIxCzAJBgNVBAYTAkJFMRYwFAYDVQQKEw1HcmVtd2VsbCBidmJhMIGf
MA0GCSqGSIb3DQEBAQUAA4GNADCBiQKBgQDEt0ToeC29KkgcJeMAkWwCAmO4wgxt
025q+n3WVh+qy4dWMTpxWtV3hILh0Li0LzwrMszC2gUZrJId1kszFG+azhrIBlkF
SSd1RNVQ/dJlQcVxsM8m6epnKwCKsrMduIBODF9FGJ3/UykP6Xj6OSrPKhvjegpW
Ftt9O8dhBDegIwIDAQABMA0GCSqGSIb3DQEBBQUAA4GBAKuDS6Dr9TH+f0jp9bM/
UfSEBTtu32MQB7qUVztMNC3AOYRO4szUsOOyW6JMmdsgAxeSUmCAwgENSPPiig9K
va8BcWH6Bdfy3oGj5Ukvj9SncVJ2oPCdXJyvTxEV/PpDYl2FwOSR0unpTCUVDxat
sExW2K8vtuDIeHlJ6af2+WpR
-----END CERTIFICATE-----
Certificate:
    Data:
        Version: 4 (0x3)
        Serial Number: 1 (0x1)
    Signature Algorithm: sha1WithRSAEncryption
        Issuer: C=BE, CN=txjsonrpc-test-ca
        Validity
            Not Before: Jan  1 00:00:00 1970 GMT
            Not After : Jan 19 03:14:07 2038 GMT
        Subject: CN=ca-false, C=BE, O=Gremwell bvba
        Subject Public Key Info:
            Public Key Algorithm: rsaEncryption
                Public-Key: (1024 bit)
                Modulus:
                    00:c1:3f:63:45:3a:b6:6a:37:61:37:ab:c5:71:b8:
                    86:a1:e5:2f:aa:26:19:d2:ca:d6:1a:04:e1:c2:85:
                    33:b3:20:90:87:b6:1a:4d:06:4a:5a:f6:47:a2:96:
                    05:13:01:f9:23:06:e7:db:a0:52:ce:5d:f6:0c:c4:
                    5a:5f:13:81:2e:bf:55:f3:03:5a:6f:95:f4:bf:5b:
                    37:20:79:24:8a:d2:1b:ff:67:80:40:30:ba:05:55:
                    c4:e7:a6:b3:3c:a4:6b:62:66:56:82:c9:06:6a:c3:
                    e3:d2:1b:31:27:cc:73:ff:e0:ee:1d:7a:ae:9c:34:
                    b5:60:8c:96:33:10:1b:53:73
                Exponent: 65537 (0x10001)
        X509v3 extensions:
            X509v3 Basic Constraints: critical
                CA:FALSE
    Signature Algorithm: sha1WithRSAEncryption
         82:53:d7:e2:12:d7:f1:01:37:69:75:4b:00:65:29:bb:27:4e:
         67:cf:05:cd:0c:d4:d0:f9:02:8b:0c:99:b1:fd:ef:73:b7:5c:
         99:7b:e6:54:93:ea:6e:9f:3c:4d:7e:ea:61:78:fd:e1:b0:b6:
         24:61:b6:e4:e7:29:05:0b:1c:f6:9f:a7:6f:c3:e0:43:44:4b:
         af:42:5b:45:b6:d2:6d:52:6d:31:40:eb:8a:27:52:55:95:80:
         d3:46:48:ec:f5:7f:67:0a:3c:7b:c4:a6:b0:ff:b7:23:82:3b:
         4c:88:a5:6f:12:8d:bd:15:c8:7a:9a:24:57:67:6c:8c:0d:89:
         73:48:62:ac:d2:bd:15:86:d2:91:e1:40:9d:53:5d:25:70:eb:
         8c:84:fc:1c:12:5e:9f:d3:a8:6b:54:8e:ae:4c:70:ee:4a:ab:
         27:56:a7:fd:9f:fb:86:82:9b:72:eb:9e:cb:d8:fd:38:74:cb:
         80:68:15:1e:26:67:00:44:d5:d5:5c:69:71:5e:6b:55:26:7b:
         af:b2:84:21:40:b4:bb:67:dd:42:81:30:f6:1e:e4:55:cc:f1:
         bd:e2:8a:d9:3f:b0:50:69:53:a5:9f:c3:3d:6f:e9:f5:c5:50:
         46:ed:8b:19:3d:19:10:76:ff:1e:1e:63:f0:2b:be:0d:8f:a1:
         98:24:ed:2b:88:10:bc:34:56:06:0f:50:9e:bc:ea:ea:da:d0:
         02:59:3f:fc:1e:21:0a:e6:b2:72:ca:a4:69:1f:2a:7e:5e:b5:
         52:43:b5:03:17:54:3c:a2:41:89:9c:4b:cf:08:17:e2:f9:95:
         27:27:71:23:d6:a8:97:fd:24:6d:8c:a8:c8:b7:94:a4:39:23:
         f5:ec:a8:08:8a:86:1e:bf:3e:8b:6e:f0:69:8d:0e:88:e0:dc:
         af:5b:7b:96:74:e1:fa:fd:5a:d7:70:3c:15:be:3e:b6:44:22:
         d5:ae:43:05:4d:1b:ce:8a:56:15:c4:d0:8f:02:37:05:cc:81:
         d9:1c:b1:b1:65:60:fd:40:88:e7:ea:e4:64:e8:38:40:2a:9e:
         06:c0:6c:f2:8f:6b:a7:a9:0b:b0:13:21:b2:c0:5a:a6:57:33:
         d6:bb:36:67:7a:e0:55:08:65:04:98:6b:6d:c5:d5:9c:e7:64:
         eb:d1:22:41:96:3d:6d:32:6b:e1:7c:bc:d3:14:66:7a:c3:f6:
         9d:4b:f6:36:98:8f:80:a3:78:74:d4:31:25:fd:cb:1b:fd:40:
         3e:26:ac:b5:fc:b4:96:01:05:17:7a:3f:3b:82:7b:2f:c1:e3:
         85:7b:19:1e:93:a8:ec:39:e4:e8:0a:c9:18:52:2e:aa:4a:1f:
         60:b4:2d:0e:b1:cc:84:29
-----BEGIN CERTIFICATE-----
MIIDaDCCAVCgAwIBAwIBATANBgkqhkiG9w0BAQUFADApMQswCQYDVQQGEwJCRTEa
MBgGA1UEAxMRdHhqc29ucnBjLXRlc3QtY2EwHhcNNzAwMTAxMDAwMDAwWhcNMzgw
MTE5MDMxNDA3WjA4MREwDwYDVQQDEwhjYS1mYWxzZTELMAkGA1UEBhMCQkUxFjAU
BgNVBAoTDUdyZW13ZWxsIGJ2YmEwgZ8wDQYJKoZIhvcNAQEBBQADgY0AMIGJAoGB
AME/Y0U6tmo3YTerxXG4hqHlL6omGdLK1hoE4cKFM7MgkIe2Gk0GSlr2R6KWBRMB
+SMG59ugUs5d9gzEWl8TgS6/VfMDWm+V9L9bNyB5JIrSG/9ngEAwugVVxOemszyk
a2JmVoLJBmrD49IbMSfMc//g7h16rpw0tWCMljMQG1NzAgMBAAGjEDAOMAwGA1Ud
EwEB/wQCMAAwDQYJKoZIhvcNAQEFBQADggIBAIJT1+IS1/EBN2l1SwBlKbsnTmfP
Bc0M1ND5AosMmbH973O3XJl75lST6m6fPE1+6mF4/eGwtiRhtuTnKQULHPafp2/D
4ENES69CW0W20m1SbTFA64onUlWVgNNGSOz1f2cKPHvEprD/tyOCO0yIpW8Sjb0V
yHqaJFdnbIwNiXNIYqzSvRWG0pHhQJ1TXSVw64yE/BwSXp/TqGtUjq5McO5KqydW
p/2f+4aCm3LrnsvY/Th0y4BoFR4mZwBE1dVcaXFea1Ume6+yhCFAtLtn3UKBMPYe
5FXM8b3iitk/sFBpU6Wfwz1v6fXFUEbtixk9GRB2/x4eY/Arvg2PoZgk7SuIELw0
VgYPUJ686ura0AJZP/weIQrmsnLKpGkfKn5etVJDtQMXVDyiQYmcS88IF+L5lScn
cSPWqJf9JG2MqMi3lKQ5I/XsqAiKhh6/Potu8GmNDojg3K9be5Z04fr9WtdwPBW+
PrZEItWuQwVNG86KVhXE0I8CNwXMgdkcsbFlYP1AiOfq5GToOEAqngbAbPKPa6ep
C7ATIbLAWqZXM9a7Nmd64FUIZQSYa23F1ZznZOvRIkGWPW0ya+F8vNMUZnrD9p1L
9jaYj4CjeHTUMSX9yxv9QD4mrLX8tJYBBRd6PzuCey/B44V7GR6TqOw55OgKyRhS
LqpKH2C0LQ6xzIQp
-----END CERTIFICATE-----
