Certificate:
    Data:
        Version: 4 (0x3)
        Serial Number: 1 (0x1)
    Signature Algorithm: sha1WithRSAEncryption
        Issuer: CN=ca-none, C=BE, O=Gremwell bvba
        Validity
            Not Before: Jan  1 00:00:00 1970 GMT
            Not After : Jan 19 03:14:07 2038 GMT
        Subject: CN=txjsonrpc-pyserver, C=BE, O=Gremwell bvba
        Subject Public Key Info:
            Public Key Algorithm: rsaEncryption
                Public-Key: (1024 bit)
                Modulus:
                    00:c4:b7:44:e8:78:2d:bd:2a:48:1c:25:e3:00:91:
                    6c:02:02:63:b8:c2:0c:6d:d3:6e:6a:fa:7d:d6:56:
                    1f:aa:cb:87:56:31:3a:71:5a:d5:77:84:82:e1:d0:
                    b8:b4:2f:3c:2b:32:cc:c2:da:05:19:ac:92:1d:d6:
                    4b:33:14:6f:9a:ce:1a:c8:06:59:05:49:27:75:44:
                    d5:50:fd:d2:65:41:c5:71:b0:cf:26:e9:ea:67:2b:
                    00:8a:b2:b3:1d:b8:80:4e:0c:5f:45:18:9d:ff:53:
                    29:0f:e9:78:fa:39:2a:cf:2a:1b:e3:7a:0a:56:16:
                    db:7d:3b:c7:61:04:37:a0:23
                Exponent: 65537 (0x10001)
    Signature Algorithm: sha1WithRSAEncryption
         84:d1:d8:7d:ed:8a:ff:b3:22:4d:b3:e9:f3:21:19:40:47:7b:
         b8:05:a5:7e:bd:ab:bc:c5:03:8e:b5:be:0f:99:e0:7e:0a:5f:
         fe:44:49:69:0a:b6:c9:de:a6:f3:96:f0:5a:82:43:66:4b:63:
         d0:d8:69:ec:49:c5:21:42:d0:ee:08:d8:64:50:59:1b:bb:4d:
         9d:22:12:49:fa:96:56:87:3b:18:02:5a:be:6b:5b:13:6f:b5:
         6e:50:3a:11:8c:77:df:37:6d:8f:7d:5e:9c:11:f6:e5:e8:2c:
         69:6b:9e:61:78:e1:af:a2:f5:59:42:89:d8:e6:56:d2:d3:8b:
         ee:94
-----BEGIN CERTIFICATE-----
MIIB7TCCAVagAwIBAwIBATANBgkqhkiG9w0BAQUFADA3MRAwDgYDVQQDEwdjYS1u
b25lMQswCQYDVQQGEwJCRTEWMBQGA1UEChMNR3JlbXdlbGwgYnZiYTAeFw03MDAx
MDEwMDAwMDBaFw0zODAxMTkwMzE0MDdaMEIxGzAZBgNVBAMTEnR4anNvbnJwYy1w
eXNlcnZlcjELMAkGA1UEBhMCQkUxFjAUBgNVBAoTDUdyZW13ZWxsIGJ2YmEwgZ8w
DQYJKoZIhvcNAQEBBQADgY0AMIGJAoGBAMS3ROh4Lb0qSBwl4wCRbAICY7jCDG3T
bmr6fdZWH6rLh1YxOnFa1XeEguHQuLQvPCsyzMLaBRmskh3WSzMUb5rOGsgGWQVJ
J3VE1VD90mVBxXGwzybp6mcrAIqysx24gE4MX0UYnf9TKQ/pePo5Ks8qG+N6ClYW
2307x2EEN6AjAgMBAAEwDQYJKoZIhvcNAQEFBQADgYEAhNHYfe2K/7MiTbPp8yEZ
QEd7uAWlfr2rvMUDjrW+D5ngfgpf/kRJaQq2yd6m85bwWoJDZktj0Nhp7EnFIULQ
7gjYZFBZG7tNnSISSfqWVoc7GAJavmtbE2+1blA6EYx33zdtj31enBH25egsaWue
YXjhr6L1WUKJ2OZW0tOL7pQ=
-----END CERTIFICATE-----
Certificate:
    Data:
        Version: 4 (0x3)
        Serial Number: 1 (0x1)
    Signature Algorithm: sha1WithRSAEncryption
        Issuer: C=BE, CN=txjsonrpc-test-ca
        Validity
            Not Before: Jan  1 00:00:00 1970 GMT
            Not After : Jan 19 03:14:07 2038 GMT
        Subject: CN=ca-none, C=BE, O=Gremwell bvba
        Subject Public Key Info:
            Public Key Algorithm: rsaEncryption
                Public-Key: (1024 bit)
                Modulus:
                    00:b6:2c:90:35:49:48:81:7f:96:5c:f7:ef:60:79:
                    5c:14:24:7d:f3:f5:9b:d8:39:09:fb:c6:ed:48:71:
                    97:cc:4e:98:df:11:3e:1f:6c:c5:9e:27:b8:23:12:
                    b2:c1:a8:d3:00:c2:47:35:83:1d:5d:de:35:96:13:
                    cb:cb:6c:d2:44:6b:c3:55:40:8d:bc:25:65:cd:a4:
                    e4:41:94:39:8c:e4:02:84:40:f4:08:b6:24:13:43:
                    af:bd:82:0d:e6:2a:dc:96:5d:4f:86:33:23:34:a2:
                    83:39:9d:24:9a:85:c7:ed:80:87:87:4d:7b:12:e3:
                    e3:30:56:0a:b1:1f:ae:dd:17
                Exponent: 65537 (0x10001)
    Signature Algorithm: sha1WithRSAEncryption
         d0:d1:bf:30:17:c3:6f:7a:46:bd:a0:9a:fb:67:18:5c:a7:c7:
         b6:09:a8:0e:ce:80:b3:27:19:7d:71:2b:cc:96:51:07:97:45:
         6f:f0:7e:43:d1:b5:ec:7c:84:e2:2f:a5:16:bd:0c:0f:cf:7e:
         16:0e:50:ca:8a:cb:ad:93:0c:a7:c6:b3:d3:b0:ae:7b:4c:a1:
         72:d7:6e:22:2c:b4:19:ae:42:fd:01:90:56:74:c0:9f:ab:24:
         fa:b5:21:4d:17:38:a7:97:32:1d:96:8e:e9:91:86:e9:4f:0e:
         89:bd:da:bc:5b:fd:cb:64:d4:d7:74:20:80:3c:91:78:c6:e4:
         7e:d9:2f:15:61:2e:1d:59:46:fc:18:93:7c:90:88:81:89:25:
         d8:85:bd:f9:93:a2:6f:9a:24:ed:52:98:6f:9a:d7:61:6b:1f:
         29:95:ef:15:ce:bb:c9:c2:9d:6e:a7:9d:90:de:6b:eb:4f:55:
         47:4b:33:42:5e:a0:d5:9b:4c:5e:89:b8:30:d6:cb:00:4f:3e:
         27:9f:c6:c4:9d:29:51:4e:96:fc:fc:a9:15:69:87:32:63:ed:
         68:ba:f8:1b:3e:8a:de:11:34:23:f4:4e:13:91:4a:95:d3:c8:
         1a:aa:fd:53:40:6b:f9:c6:0f:3f:16:26:d2:4c:7c:32:48:59:
         96:2f:0c:d5:59:13:fc:6d:8e:8b:93:81:4a:39:44:3c:e4:d0:
         dc:1b:36:87:0b:fc:68:65:74:c6:d4:a7:5c:88:61:f5:d4:cb:
         fe:56:2a:41:67:72:6a:ba:97:6e:65:a0:2b:ed:88:e0:f5:95:
         28:c9:87:d1:f4:da:35:2a:6c:e6:f3:02:37:93:02:2a:be:a2:
         97:34:e5:60:a5:f8:0f:f4:9c:44:07:0a:82:9b:89:3e:d7:6f:
         f2:11:ee:77:e7:38:c3:19:8f:42:87:5c:bc:dc:ce:5d:bc:5a:
         bb:cf:b1:ac:30:39:1e:93:65:29:e0:25:62:03:c8:77:82:c9:
         4d:da:88:f8:86:d0:e7:32:75:7d:df:4c:e0:6d:83:d3:64:fa:
         af:8e:0d:32:4c:87:4d:2e:2e:99:72:b9:ed:dd:1d:31:21:7a:
         b8:51:b2:9d:5c:14:e3:2a:52:ea:38:aa:32:04:12:77:83:5b:
         de:38:8d:ba:f0:ee:54:2e:46:c6:12:2d:22:8a:77:63:c3:36:
         95:4f:67:b4:fc:d1:2c:cb:e4:d1:f0:5f:16:19:23:d0:67:e7:
         93:13:35:f2:72:36:71:52:84:04:8a:41:1b:32:af:18:23:20:
         d9:55:b8:91:da:46:71:7e:80:a5:fd:4a:8a:3e:cf:71:09:ad:
         94:07:78:a9:ca:b4:e0:f0
-----BEGIN CERTIFICATE-----
MIIDVTCCAT2gAwIBAwIBATANBgkqhkiG9w0BAQUFADApMQswCQYDVQQGEwJCRTEa
MBgGA1UEAxMRdHhqc29ucnBjLXRlc3QtY2EwHhcNNzAwMTAxMDAwMDAwWhcNMzgw
MTE5MDMxNDA3WjA3MRAwDgYDVQQDEwdjYS1ub25lMQswCQYDVQQGEwJCRTEWMBQG
A1UEChMNR3JlbXdlbGwgYnZiYTCBnzANBgkqhkiG9w0BAQEFAAOBjQAwgYkCgYEA
tiyQNUlIgX+WXPfvYHlcFCR98/Wb2DkJ+8btSHGXzE6Y3xE+H2zFnie4IxKywajT
AMJHNYMdXd41lhPLy2zSRGvDVUCNvCVlzaTkQZQ5jOQChED0CLYkE0OvvYIN5irc
ll1PhjMjNKKDOZ0kmoXH7YCHh017EuPjMFYKsR+u3RcCAwEAATANBgkqhkiG9w0B
AQUFAAOCAgEA0NG/MBfDb3pGvaCa+2cYXKfHtgmoDs6AsycZfXErzJZRB5dFb/B+
Q9G17HyE4i+lFr0MD89+Fg5QyorLrZMMp8az07Cue0yhctduIiy0Ga5C/QGQVnTA
n6sk+rUhTRc4p5cyHZaO6ZGG6U8Oib3avFv9y2TU13QggDyReMbkftkvFWEuHVlG
/BiTfJCIgYkl2IW9+ZOib5ok7VKYb5rXYWsfKZXvFc67ycKdbqedkN5r609VR0sz
Ql6g1ZtMXom4MNbLAE8+J5/GxJ0pUU6W/PypFWmHMmPtaLr4Gz6K3hE0I/ROE5FK
ldPIGqr9U0Br+cYPPxYm0kx8MkhZli8M1VkT/G2Oi5OBSjlEPOTQ3Bs2hwv8aGV0
xtSnXIhh9dTL/lYqQWdyarqXbmWgK+2I4PWVKMmH0fTaNSps5vMCN5MCKr6ilzTl
YKX4D/ScRAcKgpuJPtdv8hHud+c4wxmPQodcvNzOXbxau8+xrDA5HpNlKeAlYgPI
d4LJTdqI+IbQ5zJ1fd9M4G2D02T6r44NMkyHTS4umXK57d0dMSF6uFGynVwU4ypS
6jiqMgQSd4Nb3jiNuvDuVC5GxhItIop3Y8M2lU9ntPzRLMvk0fBfFhkj0GfnkxM1
8nI2cVKEBIpBGzKvGCMg2VW4kdpGcX6Apf1Kij7PcQmtlAd4qcq04PA=
-----END CERTIFICATE-----
