Certificate:
    Data:
        Version: 4 (0x3)
        Serial Number: 1 (0x1)
    Signature Algorithm: sha1WithRSAEncryption
        Issuer: CN=ca-true, C=BE, O=Gremwell bvba
        Validity
            Not Before: Jan  1 00:00:00 1970 GMT
            Not After : Jan 19 03:14:07 2038 GMT
        Subject: CN=www.example.com, C=BE, O=Gremwell bvba
        Subject Public Key Info:
            Public Key Algorithm: rsaEncryption
                Public-Key: (1024 bit)
                Modulus:
                    00:b5:39:6a:3a:ce:dd:c5:ae:08:48:20:08:38:ba:
                    53:03:08:98:45:4b:c4:86:75:f0:46:3c:45:26:c9:
                    24:dc:4e:aa:48:2d:d9:2f:b5:cd:7f:cc:86:92:ae:
                    ec:24:37:cc:e9:bf:1d:ea:e1:87:99:a6:29:7c:88:
                    ce:07:34:65:d3:bd:63:4d:9b:5e:db:10:21:62:3a:
                    9d:09:94:21:52:d6:d4:8e:54:21:61:cd:ef:85:da:
                    4c:bd:df:2e:de:77:ab:76:1a:a6:24:01:c6:8c:44:
                    5d:71:f2:23:9e:63:61:be:3b:9b:b8:76:e6:a4:b4:
                    85:5c:85:a8:b2:92:76:d6:df
                Exponent: 65537 (0x10001)
    Signature Algorithm: sha1WithRSAEncryption
         65:ae:db:41:06:52:c9:78:01:90:33:f2:38:ba:94:3d:23:75:
         5c:11:68:a1:59:43:6c:2c:14:33:75:9e:5c:a4:e1:fd:f0:59:
         75:ce:1d:56:28:05:7d:c2:72:89:d2:29:e8:20:a0:9c:a1:cc:
         bb:60:6a:5d:d1:a6:3e:14:71:c4:5f:08:72:f0:76:b5:c8:5d:
         2c:73:f3:a3:97:f4:40:76:ef:ee:07:d1:32:5e:d2:83:e0:38:
         f2:99:a1:fb:24:74:2f:ee:d4:a1:5b:c8:02:43:57:f5:e6:fc:
         c2:ab:88:11:08:7f:c6:d8:04:d5:e2:9c:c4:d8:4a:19:dc:db:
         60:d5
-----BEGIN CERTIFICATE-----
MIIB6jCCAVOgAwIBAwIBATANBgkqhkiG9w0BAQUFADA3MRAwDgYDVQQDEwdjYS10
cnVlMQswCQYDVQQGEwJCRTEWMBQGA1UEChMNR3JlbXdlbGwgYnZiYTAeFw03MDAx
MDEwMDAwMDBaFw0zODAxMTkwMzE0MDdaMD8xGDAWBgNVBAMTD3d3dy5leGFtcGxl
LmNvbTELMAkGA1UEBhMCQkUxFjAUBgNVBAoTDUdyZW13ZWxsIGJ2YmEwgZ8wDQYJ
KoZIhvcNAQEBBQADgY0AMIGJAoGBALU5ajrO3cWuCEggCDi6UwMImEVLxIZ18EY8
RSbJJNxOqkgt2S+1zX/MhpKu7CQ3zOm/Herhh5mmKXyIzgc0ZdO9Y02bXtsQIWI6
nQmUIVLW1I5UIWHN74XaTL3fLt53q3YapiQBxoxEXXHyI55jYb47m7h25qS0hVyF
qLKSdtbfAgMBAAEwDQYJKoZIhvcNAQEFBQADgYEAZa7bQQZSyXgBkDPyOLqUPSN1
XBFooVlDbCwUM3WeXKTh/fBZdc4dVigFfcJyidIp6CCgnKHMu2BqXdGmPhRxxF8I
cvB2tchdLHPzo5f0QHbv7gfRMl7Sg+A48pmh+yR0L+7UoVvIAkNX9eb8wquIEQh/
xtgE1eKcxNhKGdzbYNU=
-----END CERTIFICATE-----
Certificate:
    Data:
        Version: 4 (0x3)
        Serial Number: 1 (0x1)
    Signature Algorithm: sha1WithRSAEncryption
        Issuer: C=BE, CN=txjsonrpc-test-ca
        Validity
            Not Before: Jan  1 00:00:00 1970 GMT
            Not After : Jan 19 03:14:07 2038 GMT
        Subject: CN=ca-true, C=BE, O=Gremwell bvba
        Subject Public Key Info:
            Public Key Algorithm: rsaEncryption
                Public-Key: (1024 bit)
                Modulus:
                    00:e0:6c:ac:1b:48:df:d3:9d:06:53:5d:ce:40:6d:
                    93:91:3f:2b:a5:0e:49:79:f3:64:ab:1d:53:e9:3b:
                    29:d5:85:c9:1c:21:e5:78:f5:b1:a8:ca:87:1f:58:
                    5c:8e:63:22:a2:a2:9a:7b:06:3e:04:0c:da:e2:af:
                    1e:e7:f5:fd:64:00:f0:fe:02:40:ac:95:70:f6:ea:
                    69:df:a6:22:a3:a5:02:3f:c1:64:64:de:53:49:18:
                    24:f3:15:bb:5f:01:33:f9:8f:ef:df:dc:13:8c:3a:
                    09:56:cb:b4:9f:8f:13:bc:20:ac:52:52:cc:e1:fb:
                    9c:55:1f:32:84:b5:cc:33:45
                Exponent: 65537 (0x10001)
        X509v3 extensions:
            X509v3 Basic Constraints: critical
                CA:TRUE
    Signature Algorithm: sha1WithRSAEncryption
         64:41:9a:53:83:85:d4:1e:c2:e3:b2:c7:42:0e:3b:3d:7f:6a:
         6c:f6:e9:31:96:57:1c:1e:0e:06:3f:ae:6f:82:6c:70:5e:f1:
         ba:32:9b:46:0a:db:e0:a7:47:48:3c:e7:38:41:a4:91:33:56:
         b6:61:8e:52:58:8a:c9:ab:84:5e:ac:b9:84:2c:95:52:04:1f:
         58:41:30:f9:94:20:c7:04:a5:05:10:0c:34:43:e1:9f:c6:f5:
         8d:7b:b8:c1:ac:01:27:13:94:44:48:56:0f:84:91:7f:c9:b1:
         75:f7:47:26:30:de:cf:0a:cd:0c:12:e1:4e:f1:ed:1d:ba:c7:
         f7:6f:80:0a:c8:3f:e1:18:38:cd:60:9f:0e:94:72:21:a7:f3:
         c6:5c:9d:99:ba:46:dd:82:c8:62:76:74:a6:f0:97:de:44:81:
         ad:81:e0:9d:ac:62:f6:ae:ac:66:02:49:43:d7:63:ef:5e:75:
         84:f7:c5:27:08:9e:6e:a0:2d:ff:55:19:34:f3:17:0d:e7:f6:
         4d:82:cc:b0:5e:5b:81:20:8a:a9:38:2d:0e:b9:c0:8a:65:40:
         31:c4:5f:7b:5c:b7:ff:93:1d:61:08:8a:a9:d1:fa:49:87:71:
         f2:c8:a9:15:f7:14:d6:02:dd:aa:82:39:76:7b:72:d4:d0:c7:
         f7:aa:ff:0e:3c:47:10:ed:d9:e7:7d:e2:ea:09:0a:3f:92:07:
         b9:02:0d:dc:65:65:b5:7a:2e:90:9a:f6:a0:cd:07:cb:66:18:
         c7:29:58:bf:82:59:2b:c7:53:2e:4a:8b:76:a1:2a:e3:71:55:
         f9:a9:7c:4a:c9:39:f4:dd:0e:e9:7e:64:ff:c1:6c:89:46:f3:
         2c:c6:67:2f:eb:2e:1b:c8:14:99:53:41:35:de:71:97:73:8f:
         3f:1c:50:e7:82:1d:2e:b7:12:d3:1d:a8:2e:67:17:e2:9b:23:
         4b:da:f2:3e:dd:39:84:f4:4b:bf:6f:22:29:a5:38:c3:4c:bc:
         5d:99:eb:e2:6d:39:f9:58:32:12:72:99:9c:88:f5:32:a8:14:
         97:f2:fc:02:05:e0:08:08:79:23:be:ad:39:4a:78:96:93:34:
         8d:32:e5:51:63:02:19:15:4e:55:68:f5:0f:8e:34:c8:43:3d:
         02:62:62:43:ca:16:1c:fe:4d:4e:20:3a:49:7b:d3:5a:2e:a6:
         62:4c:2d:ac:88:38:09:2b:2e:60:6d:f2:8b:8a:08:3a:db:4a:
         91:49:65:90:67:04:49:51:4f:23:1c:d1:c9:77:e0:96:e2:19:
         92:45:35:8f:56:1a:a1:f2:c3:1c:c9:11:21:80:ae:99:0f:5a:
         7d:c3:6f:5d:a8:b0:bf:6a
-----BEGIN CERTIFICATE-----
MIIDajCCAVKgAwIBAwIBATANBgkqhkiG9w0BAQUFADApMQswCQYDVQQGEwJCRTEa
MBgGA1UEAxMRdHhqc29ucnBjLXRlc3QtY2EwHhcNNzAwMTAxMDAwMDAwWhcNMzgw
MTE5MDMxNDA3WjA3MRAwDgYDVQQDEwdjYS10cnVlMQswCQYDVQQGEwJCRTEWMBQG
A1UEChMNR3JlbXdlbGwgYnZiYTCBnzANBgkqhkiG9w0BAQEFAAOBjQAwgYkCgYEA
4GysG0jf050GU13OQG2TkT8rpQ5JefNkqx1T6Tsp1YXJHCHlePWxqMqHH1hcjmMi
oqKaewY+BAza4q8e5/X9ZADw/gJArJVw9upp36Yio6UCP8FkZN5TSRgk8xW7XwEz
+Y/v39wTjDoJVsu0n48TvCCsUlLM4fucVR8yhLXMM0UCAwEAAaMTMBEwDwYDVR0T
AQH/BAUwAwEB/zANBgkqhkiG9w0BAQUFAAOCAgEAZEGaU4OF1B7C47LHQg47PX9q
bPbpMZZXHB4OBj+ub4JscF7xujKbRgrb4KdHSDznOEGkkTNWtmGOUliKyauEXqy5
hCyVUgQfWEEw+ZQgxwSlBRAMNEPhn8b1jXu4wawBJxOUREhWD4SRf8mxdfdHJjDe
zwrNDBLhTvHtHbrH92+ACsg/4Rg4zWCfDpRyIafzxlydmbpG3YLIYnZ0pvCX3kSB
rYHgnaxi9q6sZgJJQ9dj7151hPfFJwiebqAt/1UZNPMXDef2TYLMsF5bgSCKqTgt
DrnAimVAMcRfe1y3/5MdYQiKqdH6SYdx8sipFfcU1gLdqoI5dnty1NDH96r/DjxH
EO3Z533i6gkKP5IHuQIN3GVltXoukJr2oM0Hy2YYxylYv4JZK8dTLkqLdqEq43FV
+al8Ssk59N0O6X5k/8FsiUbzLMZnL+suG8gUmVNBNd5xl3OPPxxQ54IdLrcS0x2o
LmcX4psjS9ryPt05hPRLv28iKaU4w0y8XZnr4m05+VgyEnKZnIj1MqgUl/L8AgXg
CAh5I76tOUp4lpM0jTLlUWMCGRVOVWj1D440yEM9AmJiQ8oWHP5NTiA6SXvTWi6m
YkwtrIg4CSsuYG3yi4oIOttKkUllkGcESVFPIxzRyXfgluIZkkU1j1YaofLDHMkR
IYCumQ9afcNvXaiwv2o=
-----END CERTIFICATE-----
