Certificate:
    Data:
        Version: 4 (0x3)
        Serial Number: 1 (0x1)
    Signature Algorithm: sha1WithRSAEncryption
        Issuer: C=BE, CN=txjsonrpc-test-ca
        Validity
            Not Before: Jun 23 15:47:38 2012 GMT
            Not After : Jun 23 15:47:38 2013 GMT
        Subject: C=BE, CN=txjsonrpc-pyserver, O=Gremwell bvba
        Subject Public Key Info:
            Public Key Algorithm: rsaEncryption
                Public-Key: (4096 bit)
                Modulus:
                    00:bb:62:97:c5:8f:34:4a:3c:48:94:a9:e6:51:fc:
                    c1:f8:c8:ec:7b:a9:76:e5:84:c5:7b:18:a1:f2:ae:
                    ad:68:bd:c4:a4:af:8b:2c:f5:32:27:bc:a7:27:89:
                    59:b7:3a:9f:f7:fc:a0:51:6b:bb:9c:7e:0a:10:79:
                    0e:71:fc:34:a0:1d:19:83:35:d2:96:b4:9e:53:8b:
                    80:57:4e:b6:9d:40:cb:0e:d6:0a:bd:a7:82:fc:1e:
                    c2:ba:4d:9c:02:cd:b5:af:88:8c:ea:2e:4d:ab:4c:
                    fb:26:17:af:be:c8:30:34:7a:ff:34:21:6b:6c:1e:
                    1d:cd:a9:75:3b:92:65:e6:24:28:ef:16:5a:52:c3:
                    7a:f2:eb:47:50:8e:0e:07:ff:05:40:37:c6:44:38:
                    0c:99:f4:79:ce:7e:c7:f0:a6:b5:e7:10:f1:b5:12:
                    1d:ff:62:2e:4b:e0:ac:41:57:d6:92:55:4d:4e:fb:
                    ca:a9:d7:66:d1:71:9b:dd:71:1b:6c:f7:82:ff:51:
                    e6:1f:8f:ef:e0:c2:b3:47:37:26:6d:d3:76:49:16:
                    2f:9b:ab:d3:ca:06:ce:2b:1a:0b:b0:2b:84:68:63:
                    90:80:ed:a2:8d:03:63:32:5c:3a:75:fc:74:c9:ff:
                    d1:14:40:af:47:8f:7a:1b:87:69:32:27:30:8d:d2:
                    4e:55:0b:d8:37:95:ce:88:fa:03:09:dc:f5:44:f9:
                    33:c1:c5:13:69:0d:7c:13:5d:31:7f:5b:08:69:8a:
                    4c:b8:ba:8c:f4:f6:05:8b:93:e4:23:81:09:0d:b1:
                    14:c8:77:e0:62:98:bd:60:7d:f5:c6:92:30:72:24:
                    cc:5c:0b:74:51:9c:1e:5f:75:af:5b:26:a4:b5:16:
                    28:e3:c4:28:12:03:61:f7:b9:66:88:c1:25:84:76:
                    23:cf:48:14:36:ad:4a:61:a9:2e:e5:bd:e7:cb:f5:
                    79:ef:02:de:3d:b2:fa:cd:be:81:db:b4:03:31:4a:
                    0b:d2:19:3c:f9:63:96:6f:8b:84:1b:c0:97:e6:18:
                    a8:24:e8:dc:2d:8e:6b:25:b1:9e:d0:78:39:ab:67:
                    02:d2:30:c9:df:82:51:e3:be:e0:81:1a:3b:17:4e:
                    4c:8f:73:42:d7:25:d2:3b:2c:aa:3f:88:f2:1e:36:
                    61:a9:c8:7f:b0:0c:29:18:a4:2f:52:1a:d2:18:a7:
                    67:d9:95:b5:34:52:6b:21:ba:89:02:fa:d7:0f:28:
                    73:fb:7b:95:6b:97:87:f1:51:46:57:b3:84:ce:7e:
                    0d:c9:cf:b2:87:dd:7b:06:fd:15:c0:21:d0:d5:21:
                    bb:3f:52:b1:e4:d2:02:df:0c:f0:b9:78:a2:f9:78:
                    12:80:47
                Exponent: 65537 (0x10001)
    Signature Algorithm: sha1WithRSAEncryption
         58:4c:9c:5c:25:7e:08:8e:fd:57:2c:31:4a:24:f4:c7:9f:ab:
         d5:6f:0f:76:52:45:49:16:d7:c2:73:58:1e:3c:15:16:e9:1f:
         d2:be:43:62:f2:56:ce:55:b3:94:1d:ed:1a:64:6c:03:6b:2c:
         f1:5b:d8:68:72:68:3f:99:e4:a8:7d:e6:78:b5:33:29:b7:92:
         4c:1d:0a:ac:6c:f8:24:7b:b9:5c:cf:7a:02:c5:0c:6b:8c:4e:
         8a:9f:a4:4d:fa:b5:20:2a:b4:00:71:7e:fe:b4:9c:6c:f5:7e:
         a1:28:fe:6e:db:08:c3:38:af:21:6c:b4:d8:56:fb:a8:fb:05:
         17:1f:5e:d9:bc:59:4c:46:d5:dd:b1:16:9b:44:d9:4c:a9:b8:
         e0:e4:14:d3:9e:51:6f:c8:60:38:bf:08:fe:2d:7a:f0:fe:5e:
         4b:58:0a:2d:56:f8:36:ed:26:7a:73:a2:23:be:76:6c:de:98:
         12:80:04:2c:a8:fa:2e:73:ea:87:e9:38:42:f0:71:83:5a:b7:
         fe:69:7e:76:ed:7b:8c:73:b2:07:8a:b7:de:64:31:c6:59:ef:
         67:ca:00:c2:f2:62:5a:ab:1e:db:30:10:f4:ef:d0:e2:a3:dd:
         d4:cd:a9:35:53:f9:fa:4b:ce:80:65:4c:74:e7:27:d7:4b:c3:
         b1:c9:ce:00:6f:69:81:66:88:b8:74:71:b6:97:7d:92:1d:fd:
         cb:71:47:34:6c:b8:31:55:3b:f4:cc:3f:ee:12:da:69:28:b0:
         b9:fa:7b:d4:d8:62:86:6a:a8:2d:14:c0:27:d4:3c:7b:f2:f5:
         bb:34:53:06:c1:bd:fe:f1:be:0d:23:28:15:2e:44:24:3e:f2:
         de:20:ba:ae:4a:91:ef:f5:ed:8c:66:ce:a0:13:65:05:62:67:
         c3:f9:b4:cf:ab:a9:07:03:35:a1:7a:66:d4:eb:8d:db:8f:da:
         44:27:e9:2d:ce:b3:a3:70:cb:41:8b:b2:13:88:d2:14:66:b1:
         60:67:87:15:83:54:4e:a1:f8:50:1a:59:c0:a1:13:98:71:cd:
         b1:35:dd:de:fc:11:79:7b:db:70:98:36:2d:f8:4c:a0:55:b5:
         e6:13:77:7a:c6:47:38:df:fd:25:45:59:64:6d:2c:14:c6:9c:
         74:cb:6a:43:30:9f:11:fe:33:30:26:f5:06:55:a5:5d:71:d3:
         77:37:af:3c:71:42:e6:82:0f:69:c0:ac:8d:29:8c:c2:c4:08:
         5f:55:79:3e:0f:18:2d:a5:4d:38:4b:f9:bf:82:a0:e0:7f:29:
         85:f6:29:7f:8e:c3:5b:2c:d4:af:98:86:dd:b8:e3:cd:f7:7f:
         4d:27:0f:4b:80:62:65:e3
-----BEGIN CERTIFICATE-----
MIIE5DCCAsygAwIBAwIBATANBgkqhkiG9w0BAQUFADApMQswCQYDVQQGEwJCRTEa
MBgGA1UEAxMRdHhqc29ucnBjLXRlc3QtY2EwHhcNMTIwNjIzMTU0NzM4WhcNMTMw
NjIzMTU0NzM4WjBCMQswCQYDVQQGEwJCRTEbMBkGA1UEAxMSdHhqc29ucnBjLXB5
c2VydmVyMRYwFAYDVQQKEw1HcmVtd2VsbCBidmJhMIICIjANBgkqhkiG9w0BAQEF
AAOCAg8AMIICCgKCAgEAu2KXxY80SjxIlKnmUfzB+Mjse6l25YTFexih8q6taL3E
pK+LLPUyJ7ynJ4lZtzqf9/ygUWu7nH4KEHkOcfw0oB0ZgzXSlrSeU4uAV062nUDL
DtYKvaeC/B7Cuk2cAs21r4iM6i5Nq0z7JhevvsgwNHr/NCFrbB4dzal1O5Jl5iQo
7xZaUsN68utHUI4OB/8FQDfGRDgMmfR5zn7H8Ka15xDxtRId/2IuS+CsQVfWklVN
TvvKqddm0XGb3XEbbPeC/1HmH4/v4MKzRzcmbdN2SRYvm6vTygbOKxoLsCuEaGOQ
gO2ijQNjMlw6dfx0yf/RFECvR496G4dpMicwjdJOVQvYN5XOiPoDCdz1RPkzwcUT
aQ18E10xf1sIaYpMuLqM9PYFi5PkI4EJDbEUyHfgYpi9YH31xpIwciTMXAt0UZwe
X3WvWyaktRYo48QoEgNh97lmiMElhHYjz0gUNq1KYaku5b3ny/V57wLePbL6zb6B
27QDMUoL0hk8+WOWb4uEG8CX5hioJOjcLY5rJbGe0Hg5q2cC0jDJ34JR477ggRo7
F05Mj3NC1yXSOyyqP4jyHjZhqch/sAwpGKQvUhrSGKdn2ZW1NFJrIbqJAvrXDyhz
+3uVa5eH8VFGV7OEzn4Nyc+yh917Bv0VwCHQ1SG7P1Kx5NIC3wzwuXii+XgSgEcC
AwEAATANBgkqhkiG9w0BAQUFAAOCAgEAWEycXCV+CI79VywxSiT0x5+r1W8PdlJF
SRbXwnNYHjwVFukf0r5DYvJWzlWzlB3tGmRsA2ss8VvYaHJoP5nkqH3meLUzKbeS
TB0KrGz4JHu5XM96AsUMa4xOip+kTfq1ICq0AHF+/rScbPV+oSj+btsIwzivIWy0
2Fb7qPsFFx9e2bxZTEbV3bEWm0TZTKm44OQU055Rb8hgOL8I/i168P5eS1gKLVb4
Nu0menOiI752bN6YEoAELKj6LnPqh+k4QvBxg1q3/ml+du17jHOyB4q33mQxxlnv
Z8oAwvJiWqse2zAQ9O/Q4qPd1M2pNVP5+kvOgGVMdOcn10vDscnOAG9pgWaIuHRx
tpd9kh39y3FHNGy4MVU79Mw/7hLaaSiwufp71NhihmqoLRTAJ9Q8e/L1uzRTBsG9
/vG+DSMoFS5EJD7y3iC6rkqR7/XtjGbOoBNlBWJnw/m0z6upBwM1oXpm1OuN24/a
RCfpLc6zo3DLQYuyE4jSFGaxYGeHFYNUTqH4UBpZwKETmHHNsTXd3vwReXvbcJg2
LfhMoFW15hN3esZHON/9JUVZZG0sFMacdMtqQzCfEf4zMCb1BlWlXXHTdzevPHFC
5oIPacCsjSmMwsQIX1V5Pg8YLaVNOEv5v4Kg4H8phfYpf47DWyzUr5iG3bjjzfd/
TScPS4BiZeM=
-----END CERTIFICATE-----
Certificate:
    Data:
        Version: 3 (0x2)
        Serial Number: 10219423159405941259 (0x8dd2af37f9ca920b)
    Signature Algorithm: sha1WithRSAEncryption
        Issuer: C=BE, CN=txjsonrpc-test-ca
        Validity
            Not Before: Jun 23 15:46:37 2012 GMT
            Not After : Jun 21 15:46:37 2022 GMT
        Subject: C=BE, CN=txjsonrpc-test-ca
        Subject Public Key Info:
            Public Key Algorithm: rsaEncryption
                Public-Key: (4096 bit)
                Modulus:
                    00:d1:25:af:77:c5:a8:72:cf:90:b9:39:10:fb:7b:
                    75:2c:a1:da:6a:95:e5:44:0c:d6:25:4b:58:7f:bb:
                    07:82:59:49:58:32:85:24:cc:3e:77:db:e1:a7:4f:
                    c8:b5:cb:ee:45:38:bd:bc:fb:e3:76:3b:88:04:ca:
                    ab:3a:a3:96:3b:5f:93:9c:28:a6:61:97:dc:a2:3f:
                    a0:93:2b:56:6c:cf:d3:4f:6a:9e:05:d3:1c:cd:ef:
                    75:80:1a:98:b7:92:49:14:33:b8:c4:7c:73:8c:7e:
                    83:a5:81:a2:59:8c:8b:a3:51:36:6d:68:ac:f2:f1:
                    ed:6f:49:d9:af:7a:63:c1:43:31:42:b6:c7:cd:b9:
                    78:b7:33:98:70:92:6c:9e:04:7a:7b:f0:6d:38:87:
                    eb:00:13:17:b9:d9:ec:b4:66:bb:51:d3:fd:81:e3:
                    0e:88:71:23:d2:80:2a:61:de:ab:25:02:47:a9:c1:
                    6b:c9:69:ae:da:47:b6:49:74:ac:a6:e1:c1:76:ba:
                    6d:b1:d9:68:6e:1c:37:a8:e2:18:60:37:b6:58:13:
                    6c:c7:92:7c:c6:45:8c:ef:c3:81:73:10:dc:2f:31:
                    e2:b9:05:5a:9e:28:70:5a:3e:1d:b8:68:71:81:c9:
                    e8:fe:1f:c3:a0:13:f8:e4:24:12:ba:91:8e:15:d2:
                    03:f1:8c:b0:aa:e2:34:e4:6b:f8:06:f6:23:8a:92:
                    43:a6:05:dc:e9:c7:a5:a8:06:d7:6e:91:52:72:47:
                    ab:ae:87:fe:b3:0f:04:87:6f:4b:22:29:e9:a9:06:
                    52:58:7d:03:16:d7:d5:31:44:b4:f1:51:44:a7:2a:
                    ba:5e:09:19:ec:4c:a2:e0:58:fe:0d:4e:b7:90:4d:
                    02:ac:2a:ad:99:14:65:3b:0a:3c:73:45:56:b2:0f:
                    10:25:24:51:79:57:1a:34:1a:10:6f:60:e0:fc:81:
                    db:ca:c2:e2:85:1b:4c:72:13:5c:9d:76:cc:d0:21:
                    33:31:56:82:8f:c5:57:b9:44:fd:8b:76:c1:b6:e4:
                    21:8b:35:9a:ee:54:74:9f:72:6b:19:84:d7:a2:3c:
                    a5:6e:11:0a:f1:93:04:2e:dd:7c:4c:7d:62:10:d4:
                    1b:8b:87:f6:ed:bf:12:b1:8b:f0:9a:7a:ee:02:94:
                    e1:3c:46:2b:7f:9c:54:fb:2e:61:c9:1c:ef:fc:de:
                    25:bc:2d:75:1b:1f:49:5e:44:3b:15:93:ad:c4:89:
                    d9:ae:3c:da:54:ef:d9:af:3a:16:cb:94:1b:6a:14:
                    e4:42:f9:75:33:46:6e:fb:40:bc:f8:82:36:cf:60:
                    f5:c2:a2:98:23:a7:2a:ae:c1:aa:22:f8:87:da:b7:
                    9c:a4:cf
                Exponent: 65537 (0x10001)
        X509v3 extensions:
            X509v3 Subject Key Identifier: 
                9D:8F:84:76:94:CD:07:FE:A3:E8:8B:D7:F9:D9:6E:EF:CA:75:51:7B
            X509v3 Authority Key Identifier: 
                keyid:9D:8F:84:76:94:CD:07:FE:A3:E8:8B:D7:F9:D9:6E:EF:CA:75:51:7B
                DirName:/C=BE/CN=txjsonrpc-test-ca
                serial:8D:D2:AF:37:F9:CA:92:0B

            X509v3 Basic Constraints: critical
                CA:TRUE
            Netscape Cert Type: 
                SSL CA, S/MIME CA
            X509v3 Issuer Alternative Name: 
                <EMPTY>

            Netscape Comment: 
                Test CA for txjsonrcp
            X509v3 Subject Alternative Name: 
                <EMPTY>

            X509v3 Key Usage: critical
                Certificate Sign, CRL Sign
    Signature Algorithm: sha1WithRSAEncryption
         06:82:86:81:a9:1b:7e:2d:ef:f5:fc:cc:d2:9d:d6:82:ad:d0:
         6f:7e:3d:b9:5c:b2:0f:3a:64:21:9a:fb:53:b2:93:81:dc:1a:
         24:fc:b8:30:57:a2:c7:71:0d:9c:1a:0b:8a:6c:89:52:8b:8a:
         f5:af:95:3e:b8:08:39:ee:36:50:ac:60:4d:df:2b:49:a2:72:
         f1:3f:12:3c:d9:55:56:a4:9a:77:2b:77:fa:16:b5:76:d9:f4:
         c4:51:6b:b9:fe:2f:a3:52:e8:64:80:49:22:6d:05:42:87:af:
         9d:85:6c:fa:c9:9b:48:39:7b:89:f5:a0:1e:ff:11:d3:9c:78:
         b1:b2:f6:4d:b1:e8:b3:98:23:2c:d4:20:e1:a1:01:3e:26:0a:
         5b:8e:eb:58:45:22:cf:e1:94:ad:84:40:b0:fb:ff:25:5f:31:
         9a:49:0b:36:ad:c6:1a:b0:42:60:40:e2:a2:3c:5a:36:41:89:
         fc:10:c4:60:ea:d4:85:7b:36:84:df:aa:81:cc:69:e7:52:ca:
         c1:46:b1:79:93:51:4f:24:84:42:14:3a:20:a0:6c:27:76:40:
         0f:96:7e:4e:c3:0c:37:b3:e3:73:49:86:58:31:00:1e:e7:0f:
         87:74:b6:4e:6e:1c:7d:87:a4:33:04:c9:76:ec:e5:3a:85:5f:
         a8:d1:ad:21:64:5e:c5:6a:df:b1:02:6e:65:a4:87:72:06:07:
         da:e5:f2:af:2b:a5:eb:18:80:67:83:a5:3c:e6:ed:d1:58:f9:
         90:5c:d6:e9:2f:76:c1:58:13:b8:bd:88:8a:f3:04:48:bb:42:
         8f:7f:c6:db:b4:30:3f:bb:6c:d5:47:e5:ae:8d:4b:da:92:a5:
         db:d3:6e:a8:9b:c2:6b:56:af:34:63:82:e6:78:f8:1f:54:d7:
         41:aa:a3:c9:7c:a6:83:41:bf:6e:33:7c:ae:e6:92:bd:da:27:
         b4:bc:e2:90:4f:33:1b:01:a1:cd:02:13:7a:31:ef:00:d6:9a:
         6e:38:6b:a7:cb:70:98:a8:0f:ff:1c:56:a8:b7:e6:d2:42:5a:
         bb:f4:78:27:71:13:d0:e8:43:eb:bc:2d:4f:e4:ea:4d:4f:76:
         7f:53:38:34:eb:13:e2:3d:c6:14:98:86:1c:ab:2c:0e:b7:68:
         2e:bd:63:a9:6a:8f:d5:22:2d:ab:13:d7:62:54:51:ff:5c:37:
         08:04:27:da:f9:57:77:05:18:73:88:5f:b0:c1:65:50:36:09:
         d6:c7:f5:ae:6e:3f:04:d1:84:3c:21:74:1d:bd:0a:fb:76:d0:
         13:2b:62:bb:24:48:43:89:d0:18:5c:b4:ad:ea:98:af:6d:fc:
         1c:6b:1f:06:64:54:23:88
-----BEGIN CERTIFICATE-----
MIIFwzCCA6ugAwIBAgIJAI3Srzf5ypILMA0GCSqGSIb3DQEBBQUAMCkxCzAJBgNV
BAYTAkJFMRowGAYDVQQDExF0eGpzb25ycGMtdGVzdC1jYTAeFw0xMjA2MjMxNTQ2
MzdaFw0yMjA2MjExNTQ2MzdaMCkxCzAJBgNVBAYTAkJFMRowGAYDVQQDExF0eGpz
b25ycGMtdGVzdC1jYTCCAiIwDQYJKoZIhvcNAQEBBQADggIPADCCAgoCggIBANEl
r3fFqHLPkLk5EPt7dSyh2mqV5UQM1iVLWH+7B4JZSVgyhSTMPnfb4adPyLXL7kU4
vbz743Y7iATKqzqjljtfk5wopmGX3KI/oJMrVmzP009qngXTHM3vdYAamLeSSRQz
uMR8c4x+g6WBolmMi6NRNm1orPLx7W9J2a96Y8FDMUK2x825eLczmHCSbJ4Eenvw
bTiH6wATF7nZ7LRmu1HT/YHjDohxI9KAKmHeqyUCR6nBa8lprtpHtkl0rKbhwXa6
bbHZaG4cN6jiGGA3tlgTbMeSfMZFjO/DgXMQ3C8x4rkFWp4ocFo+HbhocYHJ6P4f
w6AT+OQkErqRjhXSA/GMsKriNORr+Ab2I4qSQ6YF3OnHpagG126RUnJHq66H/rMP
BIdvSyIp6akGUlh9AxbX1TFEtPFRRKcqul4JGexMouBY/g1Ot5BNAqwqrZkUZTsK
PHNFVrIPECUkUXlXGjQaEG9g4PyB28rC4oUbTHITXJ12zNAhMzFWgo/FV7lE/Yt2
wbbkIYs1mu5UdJ9yaxmE16I8pW4RCvGTBC7dfEx9YhDUG4uH9u2/ErGL8Jp67gKU
4TxGK3+cVPsuYckc7/zeJbwtdRsfSV5EOxWTrcSJ2a482lTv2a86FsuUG2oU5EL5
dTNGbvtAvPiCNs9g9cKimCOnKq7BqiL4h9q3nKTPAgMBAAGjge0wgeowHQYDVR0O
BBYEFJ2PhHaUzQf+o+iL1/nZbu/KdVF7MFkGA1UdIwRSMFCAFJ2PhHaUzQf+o+iL
1/nZbu/KdVF7oS2kKzApMQswCQYDVQQGEwJCRTEaMBgGA1UEAxMRdHhqc29ucnBj
LXRlc3QtY2GCCQCN0q83+cqSCzAPBgNVHRMBAf8EBTADAQH/MBEGCWCGSAGG+EIB
AQQEAwIBBjAJBgNVHRIEAjAAMCQGCWCGSAGG+EIBDQQXFhVUZXN0IENBIGZvciB0
eGpzb25yY3AwCQYDVR0RBAIwADAOBgNVHQ8BAf8EBAMCAQYwDQYJKoZIhvcNAQEF
BQADggIBAAaChoGpG34t7/X8zNKd1oKt0G9+Pblcsg86ZCGa+1Oyk4HcGiT8uDBX
osdxDZwaC4psiVKLivWvlT64CDnuNlCsYE3fK0micvE/EjzZVVakmncrd/oWtXbZ
9MRRa7n+L6NS6GSASSJtBUKHr52FbPrJm0g5e4n1oB7/EdOceLGy9k2x6LOYIyzU
IOGhAT4mCluO61hFIs/hlK2EQLD7/yVfMZpJCzatxhqwQmBA4qI8WjZBifwQxGDq
1IV7NoTfqoHMaedSysFGsXmTUU8khEIUOiCgbCd2QA+Wfk7DDDez43NJhlgxAB7n
D4d0tk5uHH2HpDMEyXbs5TqFX6jRrSFkXsVq37ECbmWkh3IGB9rl8q8rpesYgGeD
pTzm7dFY+ZBc1ukvdsFYE7i9iIrzBEi7Qo9/xtu0MD+7bNVH5a6NS9qSpdvTbqib
wmtWrzRjguZ4+B9U10Gqo8l8poNBv24zfK7mkr3aJ7S84pBPMxsBoc0CE3ox7wDW
mm44a6fLcJioD/8cVqi35tJCWrv0eCdxE9DoQ+u8LU/k6k1Pdn9TODTrE+I9xhSY
hhyrLA63aC69Y6lqj9UiLasT12JUUf9cNwgEJ9r5V3cFGHOIX7DBZVA2CdbH9a5u
PwTRhDwhdB29Cvt20BMrYrskSEOJ0BhctK3qmK9t/BxrHwZkVCOI
-----END CERTIFICATE-----
