Certificate:
    Data:
        Version: 4 (0x3)
        Serial Number: 1 (0x1)
    Signature Algorithm: sha1WithRSAEncryption
        Issuer: C=BE, CN=txjsonrpc-test-ca
        Validity
            Not Before: Jan  1 00:00:00 1970 GMT
            Not After : Jan 19 03:14:07 2038 GMT
        Subject: CN=txjsonrpc-pyserver, C=BE, O=Gremwell bvba
        Subject Public Key Info:
            Public Key Algorithm: rsaEncryption
                Public-Key: (1024 bit)
                Modulus:
                    00:c4:b7:44:e8:78:2d:bd:2a:48:1c:25:e3:00:91:
                    6c:02:02:63:b8:c2:0c:6d:d3:6e:6a:fa:7d:d6:56:
                    1f:aa:cb:87:56:31:3a:71:5a:d5:77:84:82:e1:d0:
                    b8:b4:2f:3c:2b:32:cc:c2:da:05:19:ac:92:1d:d6:
                    4b:33:14:6f:9a:ce:1a:c8:06:59:05:49:27:75:44:
                    d5:50:fd:d2:65:41:c5:71:b0:cf:26:e9:ea:67:2b:
                    00:8a:b2:b3:1d:b8:80:4e:0c:5f:45:18:9d:ff:53:
                    29:0f:e9:78:fa:39:2a:cf:2a:1b:e3:7a:0a:56:16:
                    db:7d:3b:c7:61:04:37:a0:23
                Exponent: 65537 (0x10001)
    Signature Algorithm: sha1WithRSAEncryption
         3f:6e:61:48:00:23:af:ab:82:ea:29:2e:b1:fc:fa:86:c8:11:
         6c:49:f0:c2:7d:47:11:2a:99:4d:ab:9e:3d:14:1d:4c:09:56:
         21:85:52:3e:60:cb:0b:f5:fb:40:b9:0d:cb:02:9d:c2:12:e3:
         41:dc:71:ac:02:52:e8:a7:52:a5:3c:44:df:31:02:e5:82:40:
         cc:1c:44:a9:8b:28:d5:0f:1b:30:3f:da:76:10:35:99:65:69:
         a7:ae:83:c4:00:3a:7e:93:fa:19:40:ae:01:25:16:d6:a1:38:
         e9:08:47:b1:3c:3e:63:e6:67:b2:64:b3:12:d3:1e:fe:6e:4c:
         8e:b9:38:02:71:17:44:ab:98:bc:b6:51:6e:d0:48:2a:e6:88:
         8d:5f:d4:28:8a:85:13:30:87:98:8c:35:0d:06:9c:53:1c:88:
         a7:7b:cf:5e:57:21:a2:9d:9b:4d:61:09:c4:54:d3:0a:ba:5f:
         22:7f:62:b4:5a:6d:ba:d6:57:9b:6a:44:82:58:23:9d:0c:32:
         da:fc:0b:9b:c1:ff:a4:2a:ce:3a:b5:6a:5e:96:7b:e8:a6:05:
         8c:f8:6b:fe:75:04:b2:ae:e6:28:47:a0:08:52:d6:b4:08:18:
         22:a5:86:e1:4d:34:f3:6e:66:3f:ef:06:24:87:d5:48:aa:94:
         05:0c:e4:8c:40:bf:84:8a:6d:2e:1c:a4:a4:1f:f9:01:c5:5f:
         b5:d9:f7:3d:0f:97:99:1e:5e:d7:a8:d8:60:04:6a:d0:e6:04:
         91:43:fa:36:84:9e:27:3a:f0:57:ad:60:6a:81:b5:c5:46:4d:
         fa:e4:78:bc:35:b5:29:fa:2b:fb:aa:36:72:83:68:ec:9a:ae:
         cc:7e:36:6d:2f:eb:c6:bd:51:ec:ad:41:61:d1:cc:4a:0c:8f:
         65:23:23:35:3f:4f:0e:9e:b5:1c:98:f7:d1:22:8e:77:1d:45:
         99:fb:23:24:f1:96:34:1c:83:2d:61:dc:49:0e:ae:7f:1f:56:
         13:0f:ca:ee:1a:08:eb:9a:e6:62:46:97:86:dc:36:77:d1:20:
         2c:85:77:cc:14:eb:0f:9b:8f:6d:29:66:b4:8e:63:7b:41:df:
         42:dc:4d:78:37:f7:a8:16:44:f9:88:df:22:8b:ca:8a:63:e6:
         9e:75:f6:a4:12:90:4d:6f:c9:35:fc:b3:7b:dc:9d:5f:e9:ad:
         c3:de:4f:af:69:56:d3:30:e4:c5:e9:9d:5d:a5:93:69:58:9c:
         66:85:fd:e9:96:05:8e:3c:65:ba:0f:62:b6:d2:11:8e:27:03:
         30:df:60:88:8b:89:e0:4b:e5:99:ef:53:c2:ab:43:e6:62:97:
         58:35:05:0e:26:83:23:65
-----BEGIN CERTIFICATE-----
MIIDYDCCAUigAwIBAwIBATANBgkqhkiG9w0BAQUFADApMQswCQYDVQQGEwJCRTEa
MBgGA1UEAxMRdHhqc29ucnBjLXRlc3QtY2EwHhcNNzAwMTAxMDAwMDAwWhcNMzgw
MTE5MDMxNDA3WjBCMRswGQYDVQQDExJ0eGpzb25ycGMtcHlzZXJ2ZXIxCzAJBgNV
BAYTAkJFMRYwFAYDVQQKEw1HcmVtd2VsbCBidmJhMIGfMA0GCSqGSIb3DQEBAQUA
A4GNADCBiQKBgQDEt0ToeC29KkgcJeMAkWwCAmO4wgxt025q+n3WVh+qy4dWMTpx
WtV3hILh0Li0LzwrMszC2gUZrJId1kszFG+azhrIBlkFSSd1RNVQ/dJlQcVxsM8m
6epnKwCKsrMduIBODF9FGJ3/UykP6Xj6OSrPKhvjegpWFtt9O8dhBDegIwIDAQAB
MA0GCSqGSIb3DQEBBQUAA4ICAQA/bmFIACOvq4LqKS6x/PqGyBFsSfDCfUcRKplN
q549FB1MCVYhhVI+YMsL9ftAuQ3LAp3CEuNB3HGsAlLop1KlPETfMQLlgkDMHESp
iyjVDxswP9p2EDWZZWmnroPEADp+k/oZQK4BJRbWoTjpCEexPD5j5meyZLMS0x7+
bkyOuTgCcRdEq5i8tlFu0Egq5oiNX9QoioUTMIeYjDUNBpxTHIine89eVyGinZtN
YQnEVNMKul8if2K0Wm261lebakSCWCOdDDLa/Aubwf+kKs46tWpelnvopgWM+Gv+
dQSyruYoR6AIUta0CBgipYbhTTTzbmY/7wYkh9VIqpQFDOSMQL+Eim0uHKSkH/kB
xV+12fc9D5eZHl7XqNhgBGrQ5gSRQ/o2hJ4nOvBXrWBqgbXFRk365Hi8NbUp+iv7
qjZyg2jsmq7MfjZtL+vGvVHsrUFh0cxKDI9lIyM1P08OnrUcmPfRIo53HUWZ+yMk
8ZY0HIMtYdxJDq5/H1YTD8ruGgjrmuZiRpeG3DZ30SAshXfMFOsPm49tKWa0jmN7
Qd9C3E14N/eoFkT5iN8ii8qKY+aedfakEpBNb8k1/LN73J1f6a3D3k+vaVbTMOTF
6Z1dpZNpWJxmhf3plgWOPGW6D2K20hGOJwMw32CIi4ngS+WZ71PCq0PmYpdYNQUO
JoMjZQ==
-----END CERTIFICATE-----
Certificate:
    Data:
        Version: 3 (0x2)
        Serial Number: 10219423159405941259 (0x8dd2af37f9ca920b)
    Signature Algorithm: sha1WithRSAEncryption
        Issuer: C=BE, CN=txjsonrpc-test-ca
        Validity
            Not Before: Jun 23 15:46:37 2012 GMT
            Not After : Jun 21 15:46:37 2022 GMT
        Subject: C=BE, CN=txjsonrpc-test-ca
        Subject Public Key Info:
            Public Key Algorithm: rsaEncryption
                Public-Key: (4096 bit)
                Modulus:
                    00:d1:25:af:77:c5:a8:72:cf:90:b9:39:10:fb:7b:
                    75:2c:a1:da:6a:95:e5:44:0c:d6:25:4b:58:7f:bb:
                    07:82:59:49:58:32:85:24:cc:3e:77:db:e1:a7:4f:
                    c8:b5:cb:ee:45:38:bd:bc:fb:e3:76:3b:88:04:ca:
                    ab:3a:a3:96:3b:5f:93:9c:28:a6:61:97:dc:a2:3f:
                    a0:93:2b:56:6c:cf:d3:4f:6a:9e:05:d3:1c:cd:ef:
                    75:80:1a:98:b7:92:49:14:33:b8:c4:7c:73:8c:7e:
                    83:a5:81:a2:59:8c:8b:a3:51:36:6d:68:ac:f2:f1:
                    ed:6f:49:d9:af:7a:63:c1:43:31:42:b6:c7:cd:b9:
                    78:b7:33:98:70:92:6c:9e:04:7a:7b:f0:6d:38:87:
                    eb:00:13:17:b9:d9:ec:b4:66:bb:51:d3:fd:81:e3:
                    0e:88:71:23:d2:80:2a:61:de:ab:25:02:47:a9:c1:
                    6b:c9:69:ae:da:47:b6:49:74:ac:a6:e1:c1:76:ba:
                    6d:b1:d9:68:6e:1c:37:a8:e2:18:60:37:b6:58:13:
                    6c:c7:92:7c:c6:45:8c:ef:c3:81:73:10:dc:2f:31:
                    e2:b9:05:5a:9e:28:70:5a:3e:1d:b8:68:71:81:c9:
                    e8:fe:1f:c3:a0:13:f8:e4:24:12:ba:91:8e:15:d2:
                    03:f1:8c:b0:aa:e2:34:e4:6b:f8:06:f6:23:8a:92:
                    43:a6:05:dc:e9:c7:a5:a8:06:d7:6e:91:52:72:47:
                    ab:ae:87:fe:b3:0f:04:87:6f:4b:22:29:e9:a9:06:
                    52:58:7d:03:16:d7:d5:31:44:b4:f1:51:44:a7:2a:
                    ba:5e:09:19:ec:4c:a2:e0:58:fe:0d:4e:b7:90:4d:
                    02:ac:2a:ad:99:14:65:3b:0a:3c:73:45:56:b2:0f:
                    10:25:24:51:79:57:1a:34:1a:10:6f:60:e0:fc:81:
                    db:ca:c2:e2:85:1b:4c:72:13:5c:9d:76:cc:d0:21:
                    33:31:56:82:8f:c5:57:b9:44:fd:8b:76:c1:b6:e4:
                    21:8b:35:9a:ee:54:74:9f:72:6b:19:84:d7:a2:3c:
                    a5:6e:11:0a:f1:93:04:2e:dd:7c:4c:7d:62:10:d4:
                    1b:8b:87:f6:ed:bf:12:b1:8b:f0:9a:7a:ee:02:94:
                    e1:3c:46:2b:7f:9c:54:fb:2e:61:c9:1c:ef:fc:de:
                    25:bc:2d:75:1b:1f:49:5e:44:3b:15:93:ad:c4:89:
                    d9:ae:3c:da:54:ef:d9:af:3a:16:cb:94:1b:6a:14:
                    e4:42:f9:75:33:46:6e:fb:40:bc:f8:82:36:cf:60:
                    f5:c2:a2:98:23:a7:2a:ae:c1:aa:22:f8:87:da:b7:
                    9c:a4:cf
                Exponent: 65537 (0x10001)
        X509v3 extensions:
            X509v3 Subject Key Identifier: 
                9D:8F:84:76:94:CD:07:FE:A3:E8:8B:D7:F9:D9:6E:EF:CA:75:51:7B
            X509v3 Authority Key Identifier: 
                keyid:9D:8F:84:76:94:CD:07:FE:A3:E8:8B:D7:F9:D9:6E:EF:CA:75:51:7B
                DirName:/C=BE/CN=txjsonrpc-test-ca
                serial:8D:D2:AF:37:F9:CA:92:0B

            X509v3 Basic Constraints: critical
                CA:TRUE
            Netscape Cert Type: 
                SSL CA, S/MIME CA
            X509v3 Issuer Alternative Name: 
                <EMPTY>

            Netscape Comment: 
                Test CA for txjsonrcp
            X509v3 Subject Alternative Name: 
                <EMPTY>

            X509v3 Key Usage: critical
                Certificate Sign, CRL Sign
    Signature Algorithm: sha1WithRSAEncryption
         06:82:86:81:a9:1b:7e:2d:ef:f5:fc:cc:d2:9d:d6:82:ad:d0:
         6f:7e:3d:b9:5c:b2:0f:3a:64:21:9a:fb:53:b2:93:81:dc:1a:
         24:fc:b8:30:57:a2:c7:71:0d:9c:1a:0b:8a:6c:89:52:8b:8a:
         f5:af:95:3e:b8:08:39:ee:36:50:ac:60:4d:df:2b:49:a2:72:
         f1:3f:12:3c:d9:55:56:a4:9a:77:2b:77:fa:16:b5:76:d9:f4:
         c4:51:6b:b9:fe:2f:a3:52:e8:64:80:49:22:6d:05:42:87:af:
         9d:85:6c:fa:c9:9b:48:39:7b:89:f5:a0:1e:ff:11:d3:9c:78:
         b1:b2:f6:4d:b1:e8:b3:98:23:2c:d4:20:e1:a1:01:3e:26:0a:
         5b:8e:eb:58:45:22:cf:e1:94:ad:84:40:b0:fb:ff:25:5f:31:
         9a:49:0b:36:ad:c6:1a:b0:42:60:40:e2:a2:3c:5a:36:41:89:
         fc:10:c4:60:ea:d4:85:7b:36:84:df:aa:81:cc:69:e7:52:ca:
         c1:46:b1:79:93:51:4f:24:84:42:14:3a:20:a0:6c:27:76:40:
         0f:96:7e:4e:c3:0c:37:b3:e3:73:49:86:58:31:00:1e:e7:0f:
         87:74:b6:4e:6e:1c:7d:87:a4:33:04:c9:76:ec:e5:3a:85:5f:
         a8:d1:ad:21:64:5e:c5:6a:df:b1:02:6e:65:a4:87:72:06:07:
         da:e5:f2:af:2b:a5:eb:18:80:67:83:a5:3c:e6:ed:d1:58:f9:
         90:5c:d6:e9:2f:76:c1:58:13:b8:bd:88:8a:f3:04:48:bb:42:
         8f:7f:c6:db:b4:30:3f:bb:6c:d5:47:e5:ae:8d:4b:da:92:a5:
         db:d3:6e:a8:9b:c2:6b:56:af:34:63:82:e6:78:f8:1f:54:d7:
         41:aa:a3:c9:7c:a6:83:41:bf:6e:33:7c:ae:e6:92:bd:da:27:
         b4:bc:e2:90:4f:33:1b:01:a1:cd:02:13:7a:31:ef:00:d6:9a:
         6e:38:6b:a7:cb:70:98:a8:0f:ff:1c:56:a8:b7:e6:d2:42:5a:
         bb:f4:78:27:71:13:d0:e8:43:eb:bc:2d:4f:e4:ea:4d:4f:76:
         7f:53:38:34:eb:13:e2:3d:c6:14:98:86:1c:ab:2c:0e:b7:68:
         2e:bd:63:a9:6a:8f:d5:22:2d:ab:13:d7:62:54:51:ff:5c:37:
         08:04:27:da:f9:57:77:05:18:73:88:5f:b0:c1:65:50:36:09:
         d6:c7:f5:ae:6e:3f:04:d1:84:3c:21:74:1d:bd:0a:fb:76:d0:
         13:2b:62:bb:24:48:43:89:d0:18:5c:b4:ad:ea:98:af:6d:fc:
         1c:6b:1f:06:64:54:23:88
-----BEGIN CERTIFICATE-----
MIIFwzCCA6ugAwIBAgIJAI3Srzf5ypILMA0GCSqGSIb3DQEBBQUAMCkxCzAJBgNV
BAYTAkJFMRowGAYDVQQDExF0eGpzb25ycGMtdGVzdC1jYTAeFw0xMjA2MjMxNTQ2
MzdaFw0yMjA2MjExNTQ2MzdaMCkxCzAJBgNVBAYTAkJFMRowGAYDVQQDExF0eGpz
b25ycGMtdGVzdC1jYTCCAiIwDQYJKoZIhvcNAQEBBQADggIPADCCAgoCggIBANEl
r3fFqHLPkLk5EPt7dSyh2mqV5UQM1iVLWH+7B4JZSVgyhSTMPnfb4adPyLXL7kU4
vbz743Y7iATKqzqjljtfk5wopmGX3KI/oJMrVmzP009qngXTHM3vdYAamLeSSRQz
uMR8c4x+g6WBolmMi6NRNm1orPLx7W9J2a96Y8FDMUK2x825eLczmHCSbJ4Eenvw
bTiH6wATF7nZ7LRmu1HT/YHjDohxI9KAKmHeqyUCR6nBa8lprtpHtkl0rKbhwXa6
bbHZaG4cN6jiGGA3tlgTbMeSfMZFjO/DgXMQ3C8x4rkFWp4ocFo+HbhocYHJ6P4f
w6AT+OQkErqRjhXSA/GMsKriNORr+Ab2I4qSQ6YF3OnHpagG126RUnJHq66H/rMP
BIdvSyIp6akGUlh9AxbX1TFEtPFRRKcqul4JGexMouBY/g1Ot5BNAqwqrZkUZTsK
PHNFVrIPECUkUXlXGjQaEG9g4PyB28rC4oUbTHITXJ12zNAhMzFWgo/FV7lE/Yt2
wbbkIYs1mu5UdJ9yaxmE16I8pW4RCvGTBC7dfEx9YhDUG4uH9u2/ErGL8Jp67gKU
4TxGK3+cVPsuYckc7/zeJbwtdRsfSV5EOxWTrcSJ2a482lTv2a86FsuUG2oU5EL5
dTNGbvtAvPiCNs9g9cKimCOnKq7BqiL4h9q3nKTPAgMBAAGjge0wgeowHQYDVR0O
BBYEFJ2PhHaUzQf+o+iL1/nZbu/KdVF7MFkGA1UdIwRSMFCAFJ2PhHaUzQf+o+iL
1/nZbu/KdVF7oS2kKzApMQswCQYDVQQGEwJCRTEaMBgGA1UEAxMRdHhqc29ucnBj
LXRlc3QtY2GCCQCN0q83+cqSCzAPBgNVHRMBAf8EBTADAQH/MBEGCWCGSAGG+EIB
AQQEAwIBBjAJBgNVHRIEAjAAMCQGCWCGSAGG+EIBDQQXFhVUZXN0IENBIGZvciB0
eGpzb25yY3AwCQYDVR0RBAIwADAOBgNVHQ8BAf8EBAMCAQYwDQYJKoZIhvcNAQEF
BQADggIBAAaChoGpG34t7/X8zNKd1oKt0G9+Pblcsg86ZCGa+1Oyk4HcGiT8uDBX
osdxDZwaC4psiVKLivWvlT64CDnuNlCsYE3fK0micvE/EjzZVVakmncrd/oWtXbZ
9MRRa7n+L6NS6GSASSJtBUKHr52FbPrJm0g5e4n1oB7/EdOceLGy9k2x6LOYIyzU
IOGhAT4mCluO61hFIs/hlK2EQLD7/yVfMZpJCzatxhqwQmBA4qI8WjZBifwQxGDq
1IV7NoTfqoHMaedSysFGsXmTUU8khEIUOiCgbCd2QA+Wfk7DDDez43NJhlgxAB7n
D4d0tk5uHH2HpDMEyXbs5TqFX6jRrSFkXsVq37ECbmWkh3IGB9rl8q8rpesYgGeD
pTzm7dFY+ZBc1ukvdsFYE7i9iIrzBEi7Qo9/xtu0MD+7bNVH5a6NS9qSpdvTbqib
wmtWrzRjguZ4+B9U10Gqo8l8poNBv24zfK7mkr3aJ7S84pBPMxsBoc0CE3ox7wDW
mm44a6fLcJioD/8cVqi35tJCWrv0eCdxE9DoQ+u8LU/k6k1Pdn9TODTrE+I9xhSY
hhyrLA63aC69Y6lqj9UiLasT12JUUf9cNwgEJ9r5V3cFGHOIX7DBZVA2CdbH9a5u
PwTRhDwhdB29Cvt20BMrYrskSEOJ0BhctK3qmK9t/BxrHwZkVCOI
-----END CERTIFICATE-----
