Certificate:
    Data:
        Version: 4 (0x3)
        Serial Number: 1 (0x1)
    Signature Algorithm: sha1WithRSAEncryption
        Issuer: CN=www.example.com, C=BE, O=Gremwell bvba
        Validity
            Not Before: Jan  1 00:00:00 1970 GMT
            Not After : Jan 19 03:14:07 2038 GMT
        Subject: CN=www.example.com, C=BE, O=Gremwell bvba
        Subject Public Key Info:
            Public Key Algorithm: rsaEncryption
                Public-Key: (1024 bit)
                Modulus:
                    00:b5:39:6a:3a:ce:dd:c5:ae:08:48:20:08:38:ba:
                    53:03:08:98:45:4b:c4:86:75:f0:46:3c:45:26:c9:
                    24:dc:4e:aa:48:2d:d9:2f:b5:cd:7f:cc:86:92:ae:
                    ec:24:37:cc:e9:bf:1d:ea:e1:87:99:a6:29:7c:88:
                    ce:07:34:65:d3:bd:63:4d:9b:5e:db:10:21:62:3a:
                    9d:09:94:21:52:d6:d4:8e:54:21:61:cd:ef:85:da:
                    4c:bd:df:2e:de:77:ab:76:1a:a6:24:01:c6:8c:44:
                    5d:71:f2:23:9e:63:61:be:3b:9b:b8:76:e6:a4:b4:
                    85:5c:85:a8:b2:92:76:d6:df
                Exponent: 65537 (0x10001)
    Signature Algorithm: sha1WithRSAEncryption
         ad:09:20:b2:71:be:ab:3d:3b:98:df:be:ee:da:56:fa:bd:2d:
         c8:ac:71:2b:45:fb:dc:43:ad:14:a4:05:c2:78:29:e1:a8:d8:
         4e:9a:4f:de:22:f0:a4:6d:81:76:ee:fd:31:7b:1c:79:f4:3b:
         df:ea:72:7f:9f:c1:07:f5:52:eb:21:5e:46:2e:5d:0b:51:4a:
         d6:a7:c5:3c:2e:4e:d4:15:cc:5b:18:97:32:9c:9b:3a:03:40:
         ec:6b:19:b9:cf:1a:66:86:d2:fa:30:b3:f9:89:02:51:60:7b:
         a7:d9:d6:65:e3:d4:0c:8c:60:b4:68:29:0c:db:fe:c2:e2:99:
         f8:c1
-----BEGIN CERTIFICATE-----
MIIB8jCCAVugAwIBAwIBATANBgkqhkiG9w0BAQUFADA/MRgwFgYDVQQDEw93d3cu
ZXhhbXBsZS5jb20xCzAJBgNVBAYTAkJFMRYwFAYDVQQKEw1HcmVtd2VsbCBidmJh
MB4XDTcwMDEwMTAwMDAwMFoXDTM4MDExOTAzMTQwN1owPzEYMBYGA1UEAxMPd3d3
LmV4YW1wbGUuY29tMQswCQYDVQQGEwJCRTEWMBQGA1UEChMNR3JlbXdlbGwgYnZi
YTCBnzANBgkqhkiG9w0BAQEFAAOBjQAwgYkCgYEAtTlqOs7dxa4ISCAIOLpTAwiY
RUvEhnXwRjxFJskk3E6qSC3ZL7XNf8yGkq7sJDfM6b8d6uGHmaYpfIjOBzRl071j
TZte2xAhYjqdCZQhUtbUjlQhYc3vhdpMvd8u3nerdhqmJAHGjERdcfIjnmNhvjub
uHbmpLSFXIWospJ21t8CAwEAATANBgkqhkiG9w0BAQUFAAOBgQCtCSCycb6rPTuY
377u2lb6vS3IrHErRfvcQ60UpAXCeCnhqNhOmk/eIvCkbYF27v0xexx59Dvf6nJ/
n8EH9VLrIV5GLl0LUUrWp8U8Lk7UFcxbGJcynJs6A0Dsaxm5zxpmhtL6MLP5iQJR
YHun2dZl49QMjGC0aCkM2/7C4pn4wQ==
-----END CERTIFICATE-----
