Certificate:
    Data:
        Version: 4 (0x3)
        Serial Number: 1 (0x1)
    Signature Algorithm: sha1WithRSAEncryption
        Issuer: CN=ca-none, C=BE, O=Gremwell bvba
        Validity
            Not Before: Jan  1 00:00:00 1970 GMT
            Not After : Jan 19 03:14:07 2038 GMT
        Subject: CN=www.example.com, C=BE, O=Gremwell bvba
        Subject Public Key Info:
            Public Key Algorithm: rsaEncryption
                Public-Key: (1024 bit)
                Modulus:
                    00:b5:39:6a:3a:ce:dd:c5:ae:08:48:20:08:38:ba:
                    53:03:08:98:45:4b:c4:86:75:f0:46:3c:45:26:c9:
                    24:dc:4e:aa:48:2d:d9:2f:b5:cd:7f:cc:86:92:ae:
                    ec:24:37:cc:e9:bf:1d:ea:e1:87:99:a6:29:7c:88:
                    ce:07:34:65:d3:bd:63:4d:9b:5e:db:10:21:62:3a:
                    9d:09:94:21:52:d6:d4:8e:54:21:61:cd:ef:85:da:
                    4c:bd:df:2e:de:77:ab:76:1a:a6:24:01:c6:8c:44:
                    5d:71:f2:23:9e:63:61:be:3b:9b:b8:76:e6:a4:b4:
                    85:5c:85:a8:b2:92:76:d6:df
                Exponent: 65537 (0x10001)
    Signature Algorithm: sha1WithRSAEncryption
         35:1a:10:f7:de:83:53:bd:fd:72:40:6b:4a:4b:13:05:96:fb:
         99:ed:53:2f:de:7d:60:67:27:7c:ce:3d:54:d6:73:68:8a:dc:
         3c:59:9d:72:29:64:70:fc:af:32:6c:27:f5:73:e9:49:83:34:
         71:65:9e:17:88:82:06:d4:e7:b0:c1:ae:ef:47:58:77:b5:2e:
         bc:f1:29:94:bd:3d:88:8e:d2:c4:7b:5a:e4:cf:88:04:9b:55:
         99:7f:c5:f8:dc:7b:38:13:bb:be:9d:98:af:89:45:90:e4:cc:
         1c:03:e7:2f:85:2e:14:51:e1:fc:fe:85:53:a3:81:27:d1:37:
         3a:76
-----BEGIN CERTIFICATE-----
MIIB6jCCAVOgAwIBAwIBATANBgkqhkiG9w0BAQUFADA3MRAwDgYDVQQDEwdjYS1u
b25lMQswCQYDVQQGEwJCRTEWMBQGA1UEChMNR3JlbXdlbGwgYnZiYTAeFw03MDAx
MDEwMDAwMDBaFw0zODAxMTkwMzE0MDdaMD8xGDAWBgNVBAMTD3d3dy5leGFtcGxl
LmNvbTELMAkGA1UEBhMCQkUxFjAUBgNVBAoTDUdyZW13ZWxsIGJ2YmEwgZ8wDQYJ
KoZIhvcNAQEBBQADgY0AMIGJAoGBALU5ajrO3cWuCEggCDi6UwMImEVLxIZ18EY8
RSbJJNxOqkgt2S+1zX/MhpKu7CQ3zOm/Herhh5mmKXyIzgc0ZdO9Y02bXtsQIWI6
nQmUIVLW1I5UIWHN74XaTL3fLt53q3YapiQBxoxEXXHyI55jYb47m7h25qS0hVyF
qLKSdtbfAgMBAAEwDQYJKoZIhvcNAQEFBQADgYEANRoQ996DU739ckBrSksTBZb7
me1TL959YGcnfM49VNZzaIrcPFmdcilkcPyvMmwn9XPpSYM0cWWeF4iCBtTnsMGu
70dYd7UuvPEplL09iI7SxHta5M+IBJtVmX/F+Nx7OBO7vp2Yr4lFkOTMHAPnL4Uu
FFHh/P6FU6OBJ9E3OnY=
-----END CERTIFICATE-----
Certificate:
    Data:
        Version: 4 (0x3)
        Serial Number: 1 (0x1)
    Signature Algorithm: sha1WithRSAEncryption
        Issuer: C=BE, CN=txjsonrpc-test-ca
        Validity
            Not Before: Jan  1 00:00:00 1970 GMT
            Not After : Jan 19 03:14:07 2038 GMT
        Subject: CN=ca-none, C=BE, O=Gremwell bvba
        Subject Public Key Info:
            Public Key Algorithm: rsaEncryption
                Public-Key: (1024 bit)
                Modulus:
                    00:cb:b5:f6:f3:55:74:14:7e:0e:04:77:2c:ad:25:
                    1a:3d:cd:07:c3:c7:ae:ff:9a:76:30:e6:d4:82:00:
                    e7:2b:cb:db:ad:8a:bf:0a:79:2d:aa:b1:d5:44:49:
                    0d:52:b8:bd:00:bd:8e:dc:19:7a:26:c4:b6:6f:53:
                    62:13:6f:a8:34:9c:76:42:75:e8:05:d1:16:e0:0c:
                    00:90:e3:4a:cb:6e:69:83:7c:e5:5d:98:92:58:c7:
                    96:72:30:81:03:34:39:65:ef:34:96:46:ab:af:6b:
                    c7:ec:af:32:a5:84:0e:80:d0:5e:d4:73:e7:91:e9:
                    23:a0:45:5a:5b:74:5f:39:7b
                Exponent: 65537 (0x10001)
    Signature Algorithm: sha1WithRSAEncryption
         92:d7:48:7a:85:ea:ef:d5:e0:69:fc:8a:63:b8:f7:96:b9:1e:
         0a:af:73:5b:a8:19:df:d2:07:56:6d:18:e1:96:d4:84:51:55:
         b3:b4:72:47:3d:c4:c8:5e:de:7a:5d:1c:4a:3f:d9:75:f8:19:
         e2:e3:41:74:b2:27:f3:db:85:d0:7f:2a:5a:91:a3:2a:68:a5:
         ee:0b:e2:88:5d:2c:99:b4:32:5e:5c:0b:ae:f6:bf:d0:43:a7:
         62:5e:8d:79:d6:75:01:5b:28:bc:3e:6f:e6:d5:7e:e0:26:28:
         07:ce:d2:c4:22:e1:d5:af:68:e7:37:a6:58:3d:2c:49:66:0e:
         3b:59:b7:ab:ac:e5:f7:2b:ce:7e:b4:27:ef:45:89:31:d8:68:
         f8:fe:e4:58:d8:c6:d0:e7:08:0a:d0:19:22:48:ab:16:62:4c:
         03:40:7d:f5:83:f2:eb:a1:4e:5f:ed:a4:30:2d:92:94:43:c5:
         d9:fe:0c:e5:6d:8a:b7:ef:ee:bd:e0:05:f8:f9:19:59:11:58:
         4c:cc:5c:95:c4:fe:87:33:b4:85:f8:12:66:d3:ce:42:02:58:
         d8:e0:68:53:8c:a4:d7:ac:6a:0e:63:8e:58:23:1d:b2:67:99:
         ab:55:20:45:fd:96:99:8a:ec:84:e5:b5:fa:89:e2:7c:c7:ca:
         30:6a:47:1d:af:89:41:2f:51:ff:c2:bb:cc:9b:00:66:17:eb:
         71:70:4a:bc:af:01:c6:32:d8:f0:b2:54:5b:42:66:7f:9d:93:
         cb:50:4c:b3:f9:5c:19:0d:95:0f:f8:41:0c:95:0e:e9:f9:3b:
         a2:dd:b4:1b:f1:33:f9:d1:44:4c:62:fc:2d:6c:6d:bb:fa:e0:
         7d:10:c8:73:a9:fe:1a:0b:d2:17:c0:9e:06:e3:d3:c4:8f:d0:
         6f:44:41:ce:3b:7c:42:29:d4:1e:b7:c0:47:3f:57:3e:b6:1e:
         af:75:b1:e5:c9:62:c9:27:d0:b6:0d:a7:43:4e:fb:fd:96:7f:
         2d:02:cd:11:c4:eb:71:de:bb:58:e1:d1:90:29:bf:3b:f6:8b:
         fb:35:90:7e:03:3f:3a:dd:78:65:50:1b:30:81:65:71:45:a4:
         d5:01:33:2e:e6:01:9d:04:d4:5e:66:8c:ad:31:22:b2:cb:22:
         16:08:78:34:7b:c2:78:31:40:9c:e6:bb:53:8d:36:e6:57:05:
         13:74:06:d0:3b:28:88:8a:11:36:c5:3f:b9:e3:e0:c5:fa:24:
         a1:97:80:ab:ed:87:04:68:dd:8a:47:98:b9:24:43:84:6a:19:
         a9:10:a3:a3:2b:c6:a8:48:4e:f2:fa:c9:61:aa:2b:7c:da:ec:
         91:f7:d2:24:a2:6e:5c:e1
-----BEGIN CERTIFICATE-----
MIIDVTCCAT2gAwIBAwIBATANBgkqhkiG9w0BAQUFADApMQswCQYDVQQGEwJCRTEa
MBgGA1UEAxMRdHhqc29ucnBjLXRlc3QtY2EwHhcNNzAwMTAxMDAwMDAwWhcNMzgw
MTE5MDMxNDA3WjA3MRAwDgYDVQQDEwdjYS1ub25lMQswCQYDVQQGEwJCRTEWMBQG
A1UEChMNR3JlbXdlbGwgYnZiYTCBnzANBgkqhkiG9w0BAQEFAAOBjQAwgYkCgYEA
y7X281V0FH4OBHcsrSUaPc0Hw8eu/5p2MObUggDnK8vbrYq/CnktqrHVREkNUri9
AL2O3Bl6JsS2b1NiE2+oNJx2QnXoBdEW4AwAkONKy25pg3zlXZiSWMeWcjCBAzQ5
Ze80lkarr2vH7K8ypYQOgNBe1HPnkekjoEVaW3RfOXsCAwEAATANBgkqhkiG9w0B
AQUFAAOCAgEAktdIeoXq79XgafyKY7j3lrkeCq9zW6gZ39IHVm0Y4ZbUhFFVs7Ry
Rz3EyF7eel0cSj/ZdfgZ4uNBdLIn89uF0H8qWpGjKmil7gviiF0smbQyXlwLrva/
0EOnYl6NedZ1AVsovD5v5tV+4CYoB87SxCLh1a9o5zemWD0sSWYOO1m3q6zl9yvO
frQn70WJMdho+P7kWNjG0OcICtAZIkirFmJMA0B99YPy66FOX+2kMC2SlEPF2f4M
5W2Kt+/uveAF+PkZWRFYTMxclcT+hzO0hfgSZtPOQgJY2OBoU4yk16xqDmOOWCMd
smeZq1UgRf2WmYrshOW1+onifMfKMGpHHa+JQS9R/8K7zJsAZhfrcXBKvK8BxjLY
8LJUW0Jmf52Ty1BMs/lcGQ2VD/hBDJUO6fk7ot20G/Ez+dFETGL8LWxtu/rgfRDI
c6n+GgvSF8CeBuPTxI/Qb0RBzjt8QinUHrfARz9XPrYer3Wx5cliySfQtg2nQ077
/ZZ/LQLNEcTrcd67WOHRkCm/O/aL+zWQfgM/Ot14ZVAbMIFlcUWk1QEzLuYBnQTU
XmaMrTEisssiFgh4NHvCeDFAnOa7U4025lcFE3QG0DsoiIoRNsU/uePgxfokoZeA
q+2HBGjdikeYuSRDhGoZqRCjoyvGqEhO8vrJYaorfNrskffSJKJuXOE=
-----END CERTIFICATE-----
