Certificate:
    Data:
        Version: 4 (0x3)
        Serial Number: 1 (0x1)
    Signature Algorithm: sha1WithRSAEncryption
        Issuer: CN=ca-false, C=BE, O=Gremwell bvba
        Validity
            Not Before: Jan  1 00:00:00 1970 GMT
            Not After : Jan 19 03:14:07 2038 GMT
        Subject: CN=www.example.com, C=BE, O=Gremwell bvba
        Subject Public Key Info:
            Public Key Algorithm: rsaEncryption
                Public-Key: (1024 bit)
                Modulus:
                    00:b5:39:6a:3a:ce:dd:c5:ae:08:48:20:08:38:ba:
                    53:03:08:98:45:4b:c4:86:75:f0:46:3c:45:26:c9:
                    24:dc:4e:aa:48:2d:d9:2f:b5:cd:7f:cc:86:92:ae:
                    ec:24:37:cc:e9:bf:1d:ea:e1:87:99:a6:29:7c:88:
                    ce:07:34:65:d3:bd:63:4d:9b:5e:db:10:21:62:3a:
                    9d:09:94:21:52:d6:d4:8e:54:21:61:cd:ef:85:da:
                    4c:bd:df:2e:de:77:ab:76:1a:a6:24:01:c6:8c:44:
                    5d:71:f2:23:9e:63:61:be:3b:9b:b8:76:e6:a4:b4:
                    85:5c:85:a8:b2:92:76:d6:df
                Exponent: 65537 (0x10001)
    Signature Algorithm: sha1WithRSAEncryption
         dd:4d:c5:32:ac:25:d4:04:81:03:8b:39:39:93:0c:11:4c:ed:
         36:22:bf:af:f1:a3:df:b0:d8:11:4d:af:d3:25:8c:e6:aa:6a:
         6b:95:79:1b:a0:92:2c:cf:15:63:ee:af:f1:2a:e9:65:58:36:
         52:30:ed:b2:8f:4f:ad:6d:79:cb:4f:c7:a0:18:a8:af:14:f2:
         06:b4:4d:6b:2f:b5:ee:df:75:99:08:8a:e6:9c:d8:d2:ed:bd:
         17:ac:5e:72:11:38:62:1c:9a:0f:1b:93:8e:2a:19:eb:1d:f2:
         e5:a3:24:1c:de:f5:61:77:c4:6c:bd:ba:61:d7:d7:5d:83:ed:
         bc:53
-----BEGIN CERTIFICATE-----
MIIB6zCCAVSgAwIBAwIBATANBgkqhkiG9w0BAQUFADA4MREwDwYDVQQDEwhjYS1m
YWxzZTELMAkGA1UEBhMCQkUxFjAUBgNVBAoTDUdyZW13ZWxsIGJ2YmEwHhcNNzAw
MTAxMDAwMDAwWhcNMzgwMTE5MDMxNDA3WjA/MRgwFgYDVQQDEw93d3cuZXhhbXBs
ZS5jb20xCzAJBgNVBAYTAkJFMRYwFAYDVQQKEw1HcmVtd2VsbCBidmJhMIGfMA0G
CSqGSIb3DQEBAQUAA4GNADCBiQKBgQC1OWo6zt3FrghIIAg4ulMDCJhFS8SGdfBG
PEUmySTcTqpILdkvtc1/zIaSruwkN8zpvx3q4YeZpil8iM4HNGXTvWNNm17bECFi
Op0JlCFS1tSOVCFhze+F2ky93y7ed6t2GqYkAcaMRF1x8iOeY2G+O5u4duaktIVc
haiyknbW3wIDAQABMA0GCSqGSIb3DQEBBQUAA4GBAN1NxTKsJdQEgQOLOTmTDBFM
7TYiv6/xo9+w2BFNr9MljOaqamuVeRugkizPFWPur/Eq6WVYNlIw7bKPT61tectP
x6AYqK8U8ga0TWsvte7fdZkIiuac2NLtvResXnIROGIcmg8bk44qGesd8uWjJBze
9WF3xGy9umHX112D7bxT
-----END CERTIFICATE-----
Certificate:
    Data:
        Version: 4 (0x3)
        Serial Number: 1 (0x1)
    Signature Algorithm: sha1WithRSAEncryption
        Issuer: C=BE, CN=txjsonrpc-test-ca
        Validity
            Not Before: Jan  1 00:00:00 1970 GMT
            Not After : Jan 19 03:14:07 2038 GMT
        Subject: CN=ca-false, C=BE, O=Gremwell bvba
        Subject Public Key Info:
            Public Key Algorithm: rsaEncryption
                Public-Key: (1024 bit)
                Modulus:
                    00:e9:6c:fc:77:95:a1:bb:73:ba:fc:39:86:43:21:
                    67:44:a9:f3:86:b1:3a:59:a1:da:23:c4:0a:32:d8:
                    60:2a:2b:41:ba:fb:0c:86:3a:4b:9a:e6:c8:71:0d:
                    8f:06:5a:9d:6c:76:63:79:eb:03:68:09:c5:92:6d:
                    47:76:74:d7:a5:82:7f:d7:c4:fc:ca:32:8e:80:25:
                    bb:4b:7a:bf:fa:92:0c:1b:02:19:7b:16:5c:d6:1e:
                    22:51:59:2e:2f:75:14:2a:af:c9:b5:94:36:a7:37:
                    a9:c8:a4:53:ad:0a:00:72:09:80:a7:dc:f1:26:ac:
                    fc:0b:f3:87:73:49:15:f5:c5
                Exponent: 65537 (0x10001)
        X509v3 extensions:
            X509v3 Basic Constraints: critical
                CA:FALSE
    Signature Algorithm: sha1WithRSAEncryption
         66:c4:a6:16:14:7f:1c:6c:c1:3a:59:35:57:d1:33:d4:bc:31:
         3d:f9:60:8d:a8:b3:e9:b3:0b:0a:ab:03:8f:54:1c:ec:c2:1c:
         5d:ac:fa:ed:4f:49:5d:ad:33:80:f4:c1:c9:41:4f:81:6a:b1:
         f6:0e:5c:0e:fb:c3:bf:f6:d9:22:37:da:70:58:06:90:4f:24:
         15:ba:f3:0f:68:87:20:b1:9a:47:dd:85:52:85:f2:da:56:2f:
         cc:68:a5:77:bd:7a:8a:e0:81:dd:29:d6:0d:c6:d8:92:b7:a8:
         36:df:88:b2:48:7a:cf:a1:11:0b:ae:0a:7f:ff:df:00:3e:08:
         d9:67:e9:68:8e:ca:f0:f0:db:63:6c:2c:1f:e3:df:39:f6:30:
         ac:3b:79:e1:a9:69:a9:34:92:1a:cb:54:87:bc:9a:84:b3:60:
         c4:a4:56:04:19:8a:b8:23:86:38:88:7e:b9:56:5f:07:76:fa:
         e5:0d:3f:d8:36:32:24:05:24:bb:d3:52:9b:97:d4:d0:20:ad:
         08:04:e1:a5:b3:9c:9b:19:f7:7d:95:92:48:88:6e:a1:b8:db:
         68:bf:f9:c7:c2:38:9e:66:58:52:fd:98:ba:a9:5e:1f:36:7a:
         f4:8b:86:44:7a:c0:09:93:91:53:46:a7:ff:0b:b7:55:e3:e7:
         f6:8f:b0:a0:05:ef:d5:27:d1:47:40:d1:91:9a:01:e6:f6:e7:
         19:af:96:f6:e7:a9:74:11:de:b9:a7:8f:1c:18:ed:cc:89:a7:
         1a:62:0d:ca:43:2b:ad:d0:8e:ed:a6:be:27:58:af:ab:62:22:
         23:d3:7d:c1:5e:7d:dd:d5:32:68:2c:f9:db:95:00:00:8a:ff:
         f5:6b:b6:a4:87:9a:38:28:52:80:4b:03:91:c1:ed:60:6d:56:
         c1:27:b6:c9:8f:08:a9:6e:1a:30:78:ac:87:3b:64:7f:43:ae:
         d0:d3:02:0e:2d:f0:af:b3:9c:ce:7b:bc:d3:6c:26:fa:40:72:
         72:ea:93:cb:24:8a:54:6c:65:58:1a:f0:f5:bb:e2:d1:e4:f2:
         2c:e6:42:f9:59:49:44:6c:5e:74:43:a7:d4:ec:d7:9d:f4:9f:
         cf:2e:20:64:33:4c:b7:08:53:48:73:9a:1e:56:9d:b4:76:60:
         3d:0e:eb:b6:de:d8:50:68:45:da:d9:14:77:82:22:b2:99:a3:
         2e:af:f9:cd:8a:6c:14:6f:06:48:cd:5f:d0:56:5c:16:8e:5e:
         bc:68:fa:21:fa:dd:07:de:63:40:80:92:27:c3:ee:28:80:98:
         d3:70:32:d5:30:45:33:b2:b8:ac:34:34:db:bd:3e:f4:34:f9:
         13:8c:5a:15:48:66:b2:d9
-----BEGIN CERTIFICATE-----
MIIDaDCCAVCgAwIBAwIBATANBgkqhkiG9w0BAQUFADApMQswCQYDVQQGEwJCRTEa
MBgGA1UEAxMRdHhqc29ucnBjLXRlc3QtY2EwHhcNNzAwMTAxMDAwMDAwWhcNMzgw
MTE5MDMxNDA3WjA4MREwDwYDVQQDEwhjYS1mYWxzZTELMAkGA1UEBhMCQkUxFjAU
BgNVBAoTDUdyZW13ZWxsIGJ2YmEwgZ8wDQYJKoZIhvcNAQEBBQADgY0AMIGJAoGB
AOls/HeVobtzuvw5hkMhZ0Sp84axOlmh2iPECjLYYCorQbr7DIY6S5rmyHENjwZa
nWx2Y3nrA2gJxZJtR3Z016WCf9fE/MoyjoAlu0t6v/qSDBsCGXsWXNYeIlFZLi91
FCqvybWUNqc3qcikU60KAHIJgKfc8Sas/Avzh3NJFfXFAgMBAAGjEDAOMAwGA1Ud
EwEB/wQCMAAwDQYJKoZIhvcNAQEFBQADggIBAGbEphYUfxxswTpZNVfRM9S8MT35
YI2os+mzCwqrA49UHOzCHF2s+u1PSV2tM4D0wclBT4FqsfYOXA77w7/22SI32nBY
BpBPJBW68w9ohyCxmkfdhVKF8tpWL8xopXe9eorggd0p1g3G2JK3qDbfiLJIes+h
EQuuCn//3wA+CNln6WiOyvDw22NsLB/j3zn2MKw7eeGpaak0khrLVIe8moSzYMSk
VgQZirgjhjiIfrlWXwd2+uUNP9g2MiQFJLvTUpuX1NAgrQgE4aWznJsZ932VkkiI
bqG422i/+cfCOJ5mWFL9mLqpXh82evSLhkR6wAmTkVNGp/8Lt1Xj5/aPsKAF79Un
0UdA0ZGaAeb25xmvlvbnqXQR3rmnjxwY7cyJpxpiDcpDK63Qju2mvidYr6tiIiPT
fcFefd3VMmgs+duVAACK//VrtqSHmjgoUoBLA5HB7WBtVsEntsmPCKluGjB4rIc7
ZH9DrtDTAg4t8K+znM57vNNsJvpAcnLqk8skilRsZVga8PW74tHk8izmQvlZSURs
XnRDp9Ts1530n88uIGQzTLcIU0hzmh5WnbR2YD0O67be2FBoRdrZFHeCIrKZoy6v
+c2KbBRvBkjNX9BWXBaOXrxo+iH63QfeY0CAkifD7iiAmNNwMtUwRTOyuKw0NNu9
PvQ0+ROMWhVIZrLZ
-----END CERTIFICATE-----
