Certificate:
    Data:
        Version: 4 (0x3)
        Serial Number: 1 (0x1)
    Signature Algorithm: sha1WithRSAEncryption
        Issuer: CN=ca-none, C=BE, O=Gremwell bvba
        Validity
            Not Before: Jan  1 00:00:00 1970 GMT
            Not After : Jan 19 03:14:07 2038 GMT
        Subject: CN=txjsonrpc-pyserver, C=BE, O=Gremwell bvba
        Subject Public Key Info:
            Public Key Algorithm: rsaEncryption
                Public-Key: (1024 bit)
                Modulus:
                    00:db:9a:9f:c9:99:d7:23:12:0e:38:31:23:13:66:
                    f0:de:5d:6d:89:63:c8:ed:fa:03:f1:12:40:ae:1c:
                    73:86:2c:5a:90:05:f4:31:99:eb:5c:41:7e:a9:bb:
                    06:46:dd:73:3e:98:de:ff:a6:ad:ea:35:fc:c3:b6:
                    f7:15:d9:27:d3:3f:72:a2:96:db:ae:5f:a8:da:a4:
                    f4:a5:00:ad:88:33:4e:4c:be:47:4e:f4:82:03:9e:
                    da:c8:8c:43:9b:3c:96:6c:0c:7f:f9:0b:85:7b:0f:
                    2e:4b:57:ba:36:5e:71:2e:e4:b5:04:68:aa:55:0b:
                    2b:3c:a5:d9:ff:6e:ae:23:71
                Exponent: 65537 (0x10001)
    Signature Algorithm: sha1WithRSAEncryption
         b7:fb:b6:a3:6d:93:3a:86:61:08:fe:87:20:66:f4:80:31:8e:
         e3:21:ea:e4:de:0f:9e:6a:d0:c1:69:e1:dc:f7:ea:b1:cb:27:
         76:5f:a6:b2:b7:83:ff:3b:e9:6f:61:9d:09:b6:bb:2f:25:fe:
         2c:2c:70:34:92:8f:98:c3:32:92:af:a8:c0:d1:93:ea:fa:8a:
         3f:82:51:73:03:7e:6a:31:e3:7a:c7:2a:58:ab:53:bd:32:7f:
         27:50:50:b4:8e:65:ba:3a:72:5c:2c:a2:5b:da:33:0d:c6:94:
         27:ef:4a:52:bd:1a:e2:68:5e:2b:e6:00:d0:7d:01:3b:93:a9:
         bc:86
-----BEGIN CERTIFICATE-----
MIIB7TCCAVagAwIBAwIBATANBgkqhkiG9w0BAQUFADA3MRAwDgYDVQQDEwdjYS1u
b25lMQswCQYDVQQGEwJCRTEWMBQGA1UEChMNR3JlbXdlbGwgYnZiYTAeFw03MDAx
MDEwMDAwMDBaFw0zODAxMTkwMzE0MDdaMEIxGzAZBgNVBAMTEnR4anNvbnJwYy1w
eXNlcnZlcjELMAkGA1UEBhMCQkUxFjAUBgNVBAoTDUdyZW13ZWxsIGJ2YmEwgZ8w
DQYJKoZIhvcNAQEBBQADgY0AMIGJAoGBANuan8mZ1yMSDjgxIxNm8N5dbYljyO36
A/ESQK4cc4YsWpAF9DGZ61xBfqm7Bkbdcz6Y3v+mreo1/MO29xXZJ9M/cqKW265f
qNqk9KUArYgzTky+R070ggOe2siMQ5s8lmwMf/kLhXsPLktXujZecS7ktQRoqlUL
Kzyl2f9uriNxAgMBAAEwDQYJKoZIhvcNAQEFBQADgYEAt/u2o22TOoZhCP6HIGb0
gDGO4yHq5N4PnmrQwWnh3Pfqscsndl+msreD/zvpb2GdCba7LyX+LCxwNJKPmMMy
kq+owNGT6vqKP4JRcwN+ajHjescqWKtTvTJ/J1BQtI5lujpyXCyiW9ozDcaUJ+9K
Ur0a4mheK+YA0H0BO5OpvIY=
-----END CERTIFICATE-----
Certificate:
    Data:
        Version: 4 (0x3)
        Serial Number: 1 (0x1)
    Signature Algorithm: sha1WithRSAEncryption
        Issuer: C=BE, CN=txjsonrpc-test-ca
        Validity
            Not Before: Jan  1 00:00:00 1970 GMT
            Not After : Jan 19 03:14:07 2038 GMT
        Subject: CN=ca-none, C=BE, O=Gremwell bvba
        Subject Public Key Info:
            Public Key Algorithm: rsaEncryption
                Public-Key: (1024 bit)
                Modulus:
                    00:cd:9f:95:a3:c2:7c:fa:f2:d5:5b:e3:91:7b:11:
                    7e:71:03:45:52:fc:40:1f:a9:41:ed:de:cb:08:71:
                    d7:39:57:d1:86:18:b6:0d:4c:79:e2:d9:1b:7a:7f:
                    72:a2:84:7e:fb:65:d4:c7:1f:65:30:e0:01:eb:dd:
                    5e:e8:59:00:05:c5:ce:22:30:62:26:c2:e5:c9:bb:
                    89:a7:a8:13:22:6e:74:d8:19:13:e4:95:fe:e1:63:
                    59:98:4d:48:b8:9b:0d:b5:a8:5b:d1:10:75:92:dc:
                    85:07:82:1c:14:a3:27:8e:97:bb:39:92:91:0e:35:
                    8a:0c:c8:18:83:c3:6d:25:a9
                Exponent: 65537 (0x10001)
    Signature Algorithm: sha1WithRSAEncryption
         a6:c2:f1:1f:4f:08:77:f0:9a:bd:b9:f8:fc:ea:75:1f:b7:0c:
         04:9b:7e:55:ad:bc:f0:94:61:f3:bb:e5:c0:f3:75:e2:1e:22:
         e9:14:22:e7:77:4d:f6:6f:e6:1f:5b:ed:e6:fd:78:6b:34:68:
         25:be:43:21:fc:1d:3b:e5:da:65:0e:4f:41:aa:35:97:eb:79:
         90:c5:3c:16:e9:e7:c5:dd:f2:70:a0:0c:71:ed:d4:30:bc:59:
         af:f7:fb:d6:0d:a6:a5:e6:3b:b9:2d:55:7f:2f:98:46:20:b4:
         50:cf:e0:32:bc:56:04:bc:b2:3c:8d:bd:9a:7d:50:b2:14:43:
         01:ff:77:02:2e:7f:af:18:01:4e:bd:46:25:28:17:55:95:20:
         68:31:88:3e:02:ce:a7:10:79:f6:8c:76:0d:31:cc:18:23:23:
         07:5b:06:33:43:16:dc:7d:af:c8:6a:d0:ff:99:4c:fb:88:97:
         cb:d5:ab:82:3e:4b:4e:71:e3:25:18:7c:de:f8:f6:f2:bc:c0:
         8a:20:cf:5b:e4:f8:4f:08:22:6e:e4:c8:65:3c:15:ef:66:0c:
         50:b6:84:53:aa:91:46:8c:78:ee:41:9e:c7:a7:41:a1:98:60:
         66:17:b2:c1:55:67:26:43:19:07:79:10:81:f5:fd:56:34:3a:
         67:4a:01:f1:66:c9:69:c8:7b:11:c7:ba:b2:88:4a:9f:ea:e9:
         c3:38:3b:22:80:1b:4e:8b:2d:7f:69:b6:ae:8e:b7:02:ce:5f:
         f5:fe:6c:fd:9c:6d:af:a1:4a:02:57:2d:f3:16:b2:b2:aa:2a:
         bb:85:4e:ac:2e:8b:c6:9a:1b:13:fb:81:8b:8b:28:d2:7d:e9:
         04:88:4b:c9:66:e5:66:c9:33:00:e3:f5:cd:51:7c:78:93:ab:
         8e:09:79:90:4f:08:63:94:29:63:b7:8a:74:ce:4f:4b:f1:e3:
         91:0d:33:6d:4f:b9:e0:07:0d:b8:e6:21:df:82:84:62:2d:6d:
         a2:a9:21:67:a2:52:a4:63:c8:ce:b5:c1:0a:67:5b:66:a5:72:
         4a:24:d3:d3:07:35:3a:7c:00:3b:bb:ab:6d:9e:61:7d:18:6a:
         7f:4c:59:6b:5a:f3:e8:6b:8d:c5:9a:f1:1e:67:d1:68:ed:21:
         37:06:85:57:6f:db:6d:ea:38:45:ae:18:ec:ba:f7:90:1e:e1:
         f9:be:ec:6c:fe:ff:7c:29:9b:d3:c7:45:63:52:b1:79:ea:c4:
         b6:59:ed:ac:65:6c:90:e6:41:df:17:07:18:13:58:82:28:75:
         b9:30:4a:24:66:89:40:00:40:57:0e:bb:2b:00:cc:5e:1e:c3:
         e4:04:f2:8b:d6:ae:8b:6f
-----BEGIN CERTIFICATE-----
MIIDVTCCAT2gAwIBAwIBATANBgkqhkiG9w0BAQUFADApMQswCQYDVQQGEwJCRTEa
MBgGA1UEAxMRdHhqc29ucnBjLXRlc3QtY2EwHhcNNzAwMTAxMDAwMDAwWhcNMzgw
MTE5MDMxNDA3WjA3MRAwDgYDVQQDEwdjYS1ub25lMQswCQYDVQQGEwJCRTEWMBQG
A1UEChMNR3JlbXdlbGwgYnZiYTCBnzANBgkqhkiG9w0BAQEFAAOBjQAwgYkCgYEA
zZ+Vo8J8+vLVW+ORexF+cQNFUvxAH6lB7d7LCHHXOVfRhhi2DUx54tkben9yooR+
+2XUxx9lMOAB691e6FkABcXOIjBiJsLlybuJp6gTIm502BkT5JX+4WNZmE1IuJsN
tahb0RB1ktyFB4IcFKMnjpe7OZKRDjWKDMgYg8NtJakCAwEAATANBgkqhkiG9w0B
AQUFAAOCAgEApsLxH08Id/Cavbn4/Op1H7cMBJt+Va288JRh87vlwPN14h4i6RQi
53dN9m/mH1vt5v14azRoJb5DIfwdO+XaZQ5PQao1l+t5kMU8Funnxd3ycKAMce3U
MLxZr/f71g2mpeY7uS1Vfy+YRiC0UM/gMrxWBLyyPI29mn1QshRDAf93Ai5/rxgB
Tr1GJSgXVZUgaDGIPgLOpxB59ox2DTHMGCMjB1sGM0MW3H2vyGrQ/5lM+4iXy9Wr
gj5LTnHjJRh83vj28rzAiiDPW+T4TwgibuTIZTwV72YMULaEU6qRRox47kGex6dB
oZhgZheywVVnJkMZB3kQgfX9VjQ6Z0oB8WbJach7Ece6sohKn+rpwzg7IoAbTost
f2m2ro63As5f9f5s/Zxtr6FKAlct8xaysqoqu4VOrC6LxpobE/uBi4so0n3pBIhL
yWblZskzAOP1zVF8eJOrjgl5kE8IY5QpY7eKdM5PS/HjkQ0zbU+54AcNuOYh34KE
Yi1toqkhZ6JSpGPIzrXBCmdbZqVySiTT0wc1OnwAO7urbZ5hfRhqf0xZa1rz6GuN
xZrxHmfRaO0hNwaFV2/bbeo4Ra4Y7Lr3kB7h+b7sbP7/fCmb08dFY1KxeerEtlnt
rGVskOZB3xcHGBNYgih1uTBKJGaJQABAVw67KwDMXh7D5ATyi9aui28=
-----END CERTIFICATE-----
