Certificate:
    Data:
        Version: 4 (0x3)
        Serial Number: 1 (0x1)
    Signature Algorithm: sha1WithRSAEncryption
        Issuer: CN=ca-true, C=BE, O=Gremwell bvba
        Validity
            Not Before: Jan  1 00:00:00 1970 GMT
            Not After : Jan 19 03:14:07 2038 GMT
        Subject: CN=txjsonrpc-pyserver, C=BE, O=Gremwell bvba
        Subject Public Key Info:
            Public Key Algorithm: rsaEncryption
                Public-Key: (1024 bit)
                Modulus:
                    00:db:9a:9f:c9:99:d7:23:12:0e:38:31:23:13:66:
                    f0:de:5d:6d:89:63:c8:ed:fa:03:f1:12:40:ae:1c:
                    73:86:2c:5a:90:05:f4:31:99:eb:5c:41:7e:a9:bb:
                    06:46:dd:73:3e:98:de:ff:a6:ad:ea:35:fc:c3:b6:
                    f7:15:d9:27:d3:3f:72:a2:96:db:ae:5f:a8:da:a4:
                    f4:a5:00:ad:88:33:4e:4c:be:47:4e:f4:82:03:9e:
                    da:c8:8c:43:9b:3c:96:6c:0c:7f:f9:0b:85:7b:0f:
                    2e:4b:57:ba:36:5e:71:2e:e4:b5:04:68:aa:55:0b:
                    2b:3c:a5:d9:ff:6e:ae:23:71
                Exponent: 65537 (0x10001)
    Signature Algorithm: sha1WithRSAEncryption
         84:57:90:0e:a2:f2:b1:9c:4d:4f:60:bc:87:44:5d:14:13:6e:
         46:b4:89:0c:c9:62:ac:85:d3:b5:73:3e:a1:42:6b:58:39:5e:
         d8:f4:2a:26:a4:74:ae:13:70:12:24:66:da:26:e6:89:51:cd:
         9e:2f:dd:0b:45:84:52:e7:89:e3:4b:ea:6d:b6:c4:e3:56:a9:
         60:59:a1:79:68:56:f7:49:27:e2:8d:ba:93:8b:f0:27:b4:c2:
         c7:ca:3e:ad:15:f3:b6:43:08:8b:a3:51:b1:eb:93:a2:90:d7:
         9d:b3:55:25:f0:31:a1:fd:f9:5c:22:75:3d:50:5f:0c:70:a0:
         7e:6e
-----BEGIN CERTIFICATE-----
MIIB7TCCAVagAwIBAwIBATANBgkqhkiG9w0BAQUFADA3MRAwDgYDVQQDEwdjYS10
cnVlMQswCQYDVQQGEwJCRTEWMBQGA1UEChMNR3JlbXdlbGwgYnZiYTAeFw03MDAx
MDEwMDAwMDBaFw0zODAxMTkwMzE0MDdaMEIxGzAZBgNVBAMTEnR4anNvbnJwYy1w
eXNlcnZlcjELMAkGA1UEBhMCQkUxFjAUBgNVBAoTDUdyZW13ZWxsIGJ2YmEwgZ8w
DQYJKoZIhvcNAQEBBQADgY0AMIGJAoGBANuan8mZ1yMSDjgxIxNm8N5dbYljyO36
A/ESQK4cc4YsWpAF9DGZ61xBfqm7Bkbdcz6Y3v+mreo1/MO29xXZJ9M/cqKW265f
qNqk9KUArYgzTky+R070ggOe2siMQ5s8lmwMf/kLhXsPLktXujZecS7ktQRoqlUL
Kzyl2f9uriNxAgMBAAEwDQYJKoZIhvcNAQEFBQADgYEAhFeQDqLysZxNT2C8h0Rd
FBNuRrSJDMlirIXTtXM+oUJrWDle2PQqJqR0rhNwEiRm2ibmiVHNni/dC0WEUueJ
40vqbbbE41apYFmheWhW90kn4o26k4vwJ7TCx8o+rRXztkMIi6NRseuTopDXnbNV
JfAxof35XCJ1PVBfDHCgfm4=
-----END CERTIFICATE-----
Certificate:
    Data:
        Version: 4 (0x3)
        Serial Number: 1 (0x1)
    Signature Algorithm: sha1WithRSAEncryption
        Issuer: C=BE, CN=txjsonrpc-test-ca
        Validity
            Not Before: Jan  1 00:00:00 1970 GMT
            Not After : Jan 19 03:14:07 2038 GMT
        Subject: CN=ca-true, C=BE, O=Gremwell bvba
        Subject Public Key Info:
            Public Key Algorithm: rsaEncryption
                Public-Key: (1024 bit)
                Modulus:
                    00:b0:d9:89:62:cd:94:25:e0:98:33:c5:a3:bc:94:
                    9f:a5:73:5b:4e:62:3b:3c:80:3c:5d:62:a0:e4:48:
                    eb:9f:dd:75:90:5c:35:be:73:97:44:8e:57:68:7d:
                    8e:96:75:d5:c8:92:9e:28:92:70:19:75:c0:f0:61:
                    2a:56:98:de:3b:74:24:be:08:0c:bc:b8:2c:18:80:
                    cd:e9:78:98:f6:be:82:4e:77:de:29:6a:70:a9:59:
                    fd:ed:41:71:f4:34:04:e1:4d:a4:7e:ec:84:a1:b0:
                    3e:33:3a:31:86:b7:21:20:92:e0:2d:e0:50:ef:9d:
                    27:ae:cf:05:3a:af:73:d2:7d
                Exponent: 65537 (0x10001)
        X509v3 extensions:
            X509v3 Basic Constraints: critical
                CA:TRUE
    Signature Algorithm: sha1WithRSAEncryption
         b4:5b:66:b3:75:d8:7b:3b:0a:96:74:cb:ee:f6:42:f6:e1:19:
         9a:0a:dd:80:23:4e:49:9b:e0:9e:dd:3d:1b:7b:b5:a9:e5:1b:
         f5:7a:fd:70:cf:f2:49:f7:15:31:98:c7:7e:d7:56:79:cb:5e:
         9f:a7:38:27:c4:ac:68:20:3e:8e:bd:28:78:74:30:6a:8d:a3:
         bc:80:ad:a4:e8:27:fb:2d:d3:a1:49:b3:b4:22:2e:f4:d8:b4:
         70:23:37:ca:ac:fd:45:32:ba:c7:b7:22:d4:1c:99:63:fb:f8:
         d7:d6:d7:fd:fa:e7:c0:a6:1e:00:27:99:51:6a:ae:d4:c4:40:
         0b:5d:de:73:5f:4b:59:8f:e7:50:1b:df:f0:69:87:63:03:1a:
         30:cc:fc:71:fe:20:cb:5f:6a:38:03:51:fc:86:2a:72:f8:5c:
         f8:5b:5a:60:75:ee:79:f1:42:87:3e:97:d4:a6:37:4e:e4:5e:
         ae:52:4e:36:01:d0:37:63:b3:ca:f6:a1:a0:07:2b:d4:b1:ac:
         8a:00:ee:a2:d1:90:b3:96:2d:7d:89:b0:dc:56:52:93:59:d6:
         d0:c4:f9:2d:c2:ce:9c:1b:af:d4:5c:30:84:48:6d:23:47:a3:
         f7:39:05:df:2a:76:27:6e:d9:8a:3c:36:7c:56:4c:2b:3b:86:
         7e:9f:9e:31:68:03:8a:bc:ec:92:8c:73:ea:1c:7b:86:94:2f:
         7b:82:ab:f5:11:52:0b:c9:07:cc:84:0d:ef:6d:9d:49:59:ea:
         7b:73:c5:8c:9c:18:47:31:bc:14:19:0c:d3:c2:b8:c2:af:4a:
         24:fe:51:dd:34:59:40:3d:ad:23:66:02:49:03:f9:f6:52:f6:
         f7:76:f5:dd:5f:0c:e2:ed:52:27:dd:36:40:ba:7c:75:9c:ed:
         18:51:85:ec:e2:72:bc:0e:3f:5e:86:cc:5c:b6:25:db:1f:00:
         62:97:18:46:a9:5c:08:c5:ef:43:89:ed:76:37:43:3f:68:58:
         55:2f:31:a4:df:10:9d:cc:9e:b0:0a:01:8e:04:f1:38:1d:54:
         5a:83:3f:69:33:78:14:3e:8a:6d:d2:15:8a:a2:65:22:04:eb:
         9a:ee:3b:51:11:74:b5:18:e7:6e:2b:32:d6:d5:fa:bb:af:27:
         b4:3e:ba:7b:83:d6:78:db:34:8a:f3:0d:d9:b5:80:ef:bc:d4:
         1a:26:7f:cc:35:06:9a:87:78:38:cd:c7:9d:08:a9:b2:45:a8:
         b9:56:15:a6:d9:24:37:1a:30:a1:de:4b:36:f2:44:0a:e4:25:
         a1:9d:b3:4d:53:25:45:9f:a4:c3:84:30:b1:c1:d0:dc:50:79:
         e7:71:d5:a1:14:c2:fb:80
-----BEGIN CERTIFICATE-----
MIIDajCCAVKgAwIBAwIBATANBgkqhkiG9w0BAQUFADApMQswCQYDVQQGEwJCRTEa
MBgGA1UEAxMRdHhqc29ucnBjLXRlc3QtY2EwHhcNNzAwMTAxMDAwMDAwWhcNMzgw
MTE5MDMxNDA3WjA3MRAwDgYDVQQDEwdjYS10cnVlMQswCQYDVQQGEwJCRTEWMBQG
A1UEChMNR3JlbXdlbGwgYnZiYTCBnzANBgkqhkiG9w0BAQEFAAOBjQAwgYkCgYEA
sNmJYs2UJeCYM8WjvJSfpXNbTmI7PIA8XWKg5Ejrn911kFw1vnOXRI5XaH2OlnXV
yJKeKJJwGXXA8GEqVpjeO3QkvggMvLgsGIDN6XiY9r6CTnfeKWpwqVn97UFx9DQE
4U2kfuyEobA+MzoxhrchIJLgLeBQ750nrs8FOq9z0n0CAwEAAaMTMBEwDwYDVR0T
AQH/BAUwAwEB/zANBgkqhkiG9w0BAQUFAAOCAgEAtFtms3XYezsKlnTL7vZC9uEZ
mgrdgCNOSZvgnt09G3u1qeUb9Xr9cM/ySfcVMZjHftdWecten6c4J8SsaCA+jr0o
eHQwao2jvICtpOgn+y3ToUmztCIu9Ni0cCM3yqz9RTK6x7ci1ByZY/v419bX/frn
wKYeACeZUWqu1MRAC13ec19LWY/nUBvf8GmHYwMaMMz8cf4gy19qOANR/IYqcvhc
+FtaYHXuefFChz6X1KY3TuRerlJONgHQN2OzyvahoAcr1LGsigDuotGQs5YtfYmw
3FZSk1nW0MT5LcLOnBuv1FwwhEhtI0ej9zkF3yp2J27Zijw2fFZMKzuGfp+eMWgD
irzskoxz6hx7hpQve4Kr9RFSC8kHzIQN722dSVnqe3PFjJwYRzG8FBkM08K4wq9K
JP5R3TRZQD2tI2YCSQP59lL293b13V8M4u1SJ902QLp8dZztGFGF7OJyvA4/XobM
XLYl2x8AYpcYRqlcCMXvQ4ntdjdDP2hYVS8xpN8QncyesAoBjgTxOB1UWoM/aTN4
FD6KbdIViqJlIgTrmu47URF0tRjnbisy1tX6u68ntD66e4PWeNs0ivMN2bWA77zU
GiZ/zDUGmod4OM3HnQipskWouVYVptkkNxowod5LNvJECuQloZ2zTVMlRZ+kw4Qw
scHQ3FB553HVoRTC+4A=
-----END CERTIFICATE-----
