Certificate:
    Data:
        Version: 4 (0x3)
        Serial Number: 1 (0x1)
    Signature Algorithm: sha1WithRSAEncryption
        Issuer: CN=www.example.com, C=BE, O=Gremwell bvba
        Validity
            Not Before: Jan  1 00:00:00 1970 GMT
            Not After : Jan 19 03:14:07 2038 GMT
        Subject: CN=www.example.com, C=BE, O=Gremwell bvba
        Subject Public Key Info:
            Public Key Algorithm: rsaEncryption
                Public-Key: (1024 bit)
                Modulus:
                    00:a6:90:ac:4b:c3:38:fb:14:34:48:65:41:a6:99:
                    e0:8d:9e:10:a2:19:92:71:53:00:bd:07:8d:73:e7:
                    61:3a:91:6a:71:93:de:09:96:2f:b4:df:55:84:e0:
                    72:45:61:ea:ee:0d:f8:37:7f:f9:ed:f2:20:c0:ed:
                    2c:56:29:08:4c:78:10:76:1f:52:7d:ec:38:0d:e2:
                    e9:22:a6:2b:1b:51:da:cc:7a:90:0e:48:c2:ed:44:
                    81:b5:43:6a:fc:68:12:13:56:3b:fb:23:84:67:51:
                    8a:eb:14:6d:01:2c:da:05:58:32:21:4a:b0:2f:82:
                    6b:52:f5:2f:30:80:8a:54:eb
                Exponent: 65537 (0x10001)
    Signature Algorithm: sha1WithRSAEncryption
         49:f0:45:38:f6:bc:5d:fa:b5:6c:22:e4:9a:7c:28:ed:cf:ca:
         3a:d1:46:21:cb:90:a7:43:d1:83:a1:87:26:61:6b:d8:45:8b:
         e0:29:36:59:fd:7a:e3:a9:03:fe:5b:bd:b4:0e:17:a6:79:5b:
         30:7e:d2:08:6b:69:51:bd:d4:e6:37:67:5b:81:d2:4b:ea:71:
         72:5c:7b:9c:f4:eb:b8:58:91:1d:83:6f:6e:d5:a8:e7:9d:df:
         85:6f:17:88:bc:c3:3a:7b:6e:2e:2f:3c:4e:52:86:30:62:44:
         39:40:79:86:67:8b:4e:41:d8:72:16:c8:27:fd:bb:e5:c5:aa:
         d5:5e
-----BEGIN CERTIFICATE-----
MIIB8jCCAVugAwIBAwIBATANBgkqhkiG9w0BAQUFADA/MRgwFgYDVQQDEw93d3cu
ZXhhbXBsZS5jb20xCzAJBgNVBAYTAkJFMRYwFAYDVQQKEw1HcmVtd2VsbCBidmJh
MB4XDTcwMDEwMTAwMDAwMFoXDTM4MDExOTAzMTQwN1owPzEYMBYGA1UEAxMPd3d3
LmV4YW1wbGUuY29tMQswCQYDVQQGEwJCRTEWMBQGA1UEChMNR3JlbXdlbGwgYnZi
YTCBnzANBgkqhkiG9w0BAQEFAAOBjQAwgYkCgYEAppCsS8M4+xQ0SGVBppngjZ4Q
ohmScVMAvQeNc+dhOpFqcZPeCZYvtN9VhOByRWHq7g34N3/57fIgwO0sVikITHgQ
dh9Sfew4DeLpIqYrG1HazHqQDkjC7USBtUNq/GgSE1Y7+yOEZ1GK6xRtASzaBVgy
IUqwL4JrUvUvMICKVOsCAwEAATANBgkqhkiG9w0BAQUFAAOBgQBJ8EU49rxd+rVs
IuSafCjtz8o60UYhy5CnQ9GDoYcmYWvYRYvgKTZZ/XrjqQP+W720DhemeVswftII
a2lRvdTmN2dbgdJL6nFyXHuc9Ou4WJEdg29u1ajnnd+FbxeIvMM6e24uLzxOUoYw
YkQ5QHmGZ4tOQdhyFsgn/bvlxarVXg==
-----END CERTIFICATE-----
