Certificate:
    Data:
        Version: 4 (0x3)
        Serial Number: 1 (0x1)
    Signature Algorithm: sha1WithRSAEncryption
        Issuer: CN=ca-true, C=BE, O=Gremwell bvba
        Validity
            Not Before: Jan  1 00:00:00 1970 GMT
            Not After : Jan 19 03:14:07 2038 GMT
        Subject: CN=www.example.com, C=BE, O=Gremwell bvba
        Subject Public Key Info:
            Public Key Algorithm: rsaEncryption
                Public-Key: (1024 bit)
                Modulus:
                    00:a6:90:ac:4b:c3:38:fb:14:34:48:65:41:a6:99:
                    e0:8d:9e:10:a2:19:92:71:53:00:bd:07:8d:73:e7:
                    61:3a:91:6a:71:93:de:09:96:2f:b4:df:55:84:e0:
                    72:45:61:ea:ee:0d:f8:37:7f:f9:ed:f2:20:c0:ed:
                    2c:56:29:08:4c:78:10:76:1f:52:7d:ec:38:0d:e2:
                    e9:22:a6:2b:1b:51:da:cc:7a:90:0e:48:c2:ed:44:
                    81:b5:43:6a:fc:68:12:13:56:3b:fb:23:84:67:51:
                    8a:eb:14:6d:01:2c:da:05:58:32:21:4a:b0:2f:82:
                    6b:52:f5:2f:30:80:8a:54:eb
                Exponent: 65537 (0x10001)
    Signature Algorithm: sha1WithRSAEncryption
         06:17:2e:82:65:35:1d:79:65:81:ed:56:a0:54:97:2d:a5:ad:
         08:cd:7b:ea:b4:e0:22:40:b6:7f:a0:05:5c:92:19:33:a2:c7:
         41:28:8e:e0:5b:66:8f:90:60:c6:87:dc:70:e9:44:2f:5f:c8:
         b9:07:3f:3d:0f:e8:76:24:82:74:be:c2:d2:0f:3b:aa:6e:7b:
         49:6d:a1:8a:18:d2:8b:76:ac:da:f8:27:4c:ba:2a:a6:dd:ef:
         a4:93:70:48:a0:51:b7:d4:7f:d3:2a:80:f3:c5:96:e3:95:2f:
         4d:48:35:32:88:49:dc:45:ea:1a:6e:54:ff:3e:30:ed:f9:18:
         7b:a9
-----BEGIN CERTIFICATE-----
MIIB6jCCAVOgAwIBAwIBATANBgkqhkiG9w0BAQUFADA3MRAwDgYDVQQDEwdjYS10
cnVlMQswCQYDVQQGEwJCRTEWMBQGA1UEChMNR3JlbXdlbGwgYnZiYTAeFw03MDAx
MDEwMDAwMDBaFw0zODAxMTkwMzE0MDdaMD8xGDAWBgNVBAMTD3d3dy5leGFtcGxl
LmNvbTELMAkGA1UEBhMCQkUxFjAUBgNVBAoTDUdyZW13ZWxsIGJ2YmEwgZ8wDQYJ
KoZIhvcNAQEBBQADgY0AMIGJAoGBAKaQrEvDOPsUNEhlQaaZ4I2eEKIZknFTAL0H
jXPnYTqRanGT3gmWL7TfVYTgckVh6u4N+Dd/+e3yIMDtLFYpCEx4EHYfUn3sOA3i
6SKmKxtR2sx6kA5Iwu1EgbVDavxoEhNWO/sjhGdRiusUbQEs2gVYMiFKsC+Ca1L1
LzCAilTrAgMBAAEwDQYJKoZIhvcNAQEFBQADgYEABhcugmU1HXllge1WoFSXLaWt
CM176rTgIkC2f6AFXJIZM6LHQSiO4Ftmj5BgxofccOlEL1/IuQc/PQ/odiSCdL7C
0g87qm57SW2hihjSi3as2vgnTLoqpt3vpJNwSKBRt9R/0yqA88WW45UvTUg1MohJ
3EXqGm5U/z4w7fkYe6k=
-----END CERTIFICATE-----
Certificate:
    Data:
        Version: 4 (0x3)
        Serial Number: 1 (0x1)
    Signature Algorithm: sha1WithRSAEncryption
        Issuer: C=BE, CN=txjsonrpc-test-ca
        Validity
            Not Before: Jan  1 00:00:00 1970 GMT
            Not After : Jan 19 03:14:07 2038 GMT
        Subject: CN=ca-true, C=BE, O=Gremwell bvba
        Subject Public Key Info:
            Public Key Algorithm: rsaEncryption
                Public-Key: (1024 bit)
                Modulus:
                    00:ae:ad:3d:84:22:62:f5:a4:a3:44:29:aa:bf:62:
                    3b:a5:c4:13:a5:c2:22:8d:d7:4e:ab:55:bc:c5:f2:
                    6b:b6:f8:ae:eb:54:c1:30:a6:41:d8:3a:e6:03:6a:
                    60:04:7b:1d:98:82:a9:23:c3:5a:d5:d6:24:37:b4:
                    81:d4:12:7b:29:d5:da:e2:7c:7b:9b:ec:55:84:b4:
                    81:f3:68:44:f3:45:69:0c:d8:11:54:c7:ca:49:2b:
                    32:aa:a1:2f:c5:ef:96:ce:cc:34:ee:e8:9a:ad:aa:
                    57:73:18:a5:33:df:1d:e2:9a:89:b7:72:61:00:50:
                    9c:51:98:22:ec:f7:9e:cd:7d
                Exponent: 65537 (0x10001)
        X509v3 extensions:
            X509v3 Basic Constraints: critical
                CA:TRUE
    Signature Algorithm: sha1WithRSAEncryption
         30:98:58:07:aa:a4:30:9c:89:48:b6:0e:78:a2:3c:4b:61:96:
         e8:bc:33:2a:5c:8b:00:fb:f8:96:30:aa:22:20:19:e6:66:64:
         82:3d:fb:08:c6:b5:e4:fa:cf:b1:6e:7b:c9:7f:a0:92:65:8c:
         5a:c3:62:71:3f:63:8a:a7:fa:3d:98:62:61:e1:b1:f1:97:f1:
         89:43:bd:7c:59:51:fa:4f:59:b8:60:43:49:1e:73:d7:df:e4:
         5c:8c:e2:bd:f3:e7:4f:1c:0e:92:00:3c:73:b9:e7:59:6f:bf:
         cb:e7:4f:75:50:f1:ab:24:8f:34:a5:15:f3:50:03:c5:86:f8:
         76:ae:c4:93:2e:18:66:5c:14:00:b7:05:62:22:41:25:45:4a:
         36:7b:e5:26:40:9e:75:47:be:c7:d8:3c:f9:57:38:31:a9:ed:
         5a:fb:d4:88:7d:6e:26:ca:68:6d:bc:c8:e1:73:4e:e8:e4:dd:
         67:c3:dc:93:ad:b9:d4:ed:35:e5:d4:b8:02:fe:41:93:51:0d:
         fd:0b:fd:8a:22:55:69:3e:50:70:32:4c:66:18:a4:87:c4:e3:
         6a:7b:0a:89:01:29:06:a4:31:b9:dc:0a:e2:ec:8a:b2:45:06:
         5e:99:09:aa:e5:13:81:79:8d:0a:c9:93:d2:ee:dc:02:5f:71:
         45:21:51:e9:bb:6a:39:4b:55:18:90:9d:7a:c3:c1:8f:63:d5:
         45:3e:6a:dd:16:04:46:a2:0b:bf:62:19:23:23:d4:46:cc:e4:
         fa:a5:8e:d9:ab:50:cc:6f:12:cb:a7:83:8f:5b:35:d8:57:d3:
         86:81:c6:39:31:09:4c:d3:65:18:81:35:f4:5b:af:ee:ce:30:
         97:fd:10:d6:2b:fd:4c:d2:74:eb:ac:bc:e4:7a:e7:04:cc:94:
         d7:84:a6:d2:60:d1:64:76:ab:a2:5b:e1:74:1f:7c:48:65:23:
         30:4f:1e:f3:11:76:33:9e:3a:0f:5d:75:30:f8:f4:9c:a5:8e:
         99:1a:a7:94:b3:c0:15:77:9f:22:a8:5b:bf:2f:c2:05:d0:04:
         7e:bc:aa:12:2e:80:cd:fe:98:6c:c1:46:28:ef:e0:78:49:6d:
         c9:a3:5f:1a:e1:34:fd:fe:b3:8c:a3:7b:82:67:9a:ac:12:a1:
         c0:9a:0b:5c:dc:9c:99:ba:a2:9b:aa:bb:6b:51:33:2c:bf:55:
         a9:60:5a:92:0b:74:4e:42:56:30:bf:dc:52:52:0a:6e:c7:1c:
         08:7f:ff:73:22:72:54:08:80:a8:dc:c5:e7:23:f4:5c:14:c1:
         ed:a5:fa:59:d9:7e:c0:69:33:74:59:29:b6:9f:c0:27:ba:42:
         78:c4:79:9b:93:1d:1e:f2
-----BEGIN CERTIFICATE-----
MIIDajCCAVKgAwIBAwIBATANBgkqhkiG9w0BAQUFADApMQswCQYDVQQGEwJCRTEa
MBgGA1UEAxMRdHhqc29ucnBjLXRlc3QtY2EwHhcNNzAwMTAxMDAwMDAwWhcNMzgw
MTE5MDMxNDA3WjA3MRAwDgYDVQQDEwdjYS10cnVlMQswCQYDVQQGEwJCRTEWMBQG
A1UEChMNR3JlbXdlbGwgYnZiYTCBnzANBgkqhkiG9w0BAQEFAAOBjQAwgYkCgYEA
rq09hCJi9aSjRCmqv2I7pcQTpcIijddOq1W8xfJrtviu61TBMKZB2DrmA2pgBHsd
mIKpI8Na1dYkN7SB1BJ7KdXa4nx7m+xVhLSB82hE80VpDNgRVMfKSSsyqqEvxe+W
zsw07uiarapXcxilM98d4pqJt3JhAFCcUZgi7PeezX0CAwEAAaMTMBEwDwYDVR0T
AQH/BAUwAwEB/zANBgkqhkiG9w0BAQUFAAOCAgEAMJhYB6qkMJyJSLYOeKI8S2GW
6LwzKlyLAPv4ljCqIiAZ5mZkgj37CMa15PrPsW57yX+gkmWMWsNicT9jiqf6PZhi
YeGx8ZfxiUO9fFlR+k9ZuGBDSR5z19/kXIzivfPnTxwOkgA8c7nnWW+/y+dPdVDx
qySPNKUV81ADxYb4dq7Eky4YZlwUALcFYiJBJUVKNnvlJkCedUe+x9g8+Vc4Mant
WvvUiH1uJspobbzI4XNO6OTdZ8Pck6251O015dS4Av5Bk1EN/Qv9iiJVaT5QcDJM
Zhikh8TjansKiQEpBqQxudwK4uyKskUGXpkJquUTgXmNCsmT0u7cAl9xRSFR6btq
OUtVGJCdesPBj2PVRT5q3RYERqILv2IZIyPURszk+qWO2atQzG8Sy6eDj1s12FfT
hoHGOTEJTNNlGIE19Fuv7s4wl/0Q1iv9TNJ066y85HrnBMyU14Sm0mDRZHarolvh
dB98SGUjME8e8xF2M546D111MPj0nKWOmRqnlLPAFXefIqhbvy/CBdAEfryqEi6A
zf6YbMFGKO/geEltyaNfGuE0/f6zjKN7gmearBKhwJoLXNycmbqim6q7a1EzLL9V
qWBakgt0TkJWML/cUlIKbsccCH//cyJyVAiAqNzF5yP0XBTB7aX6Wdl+wGkzdFkp
tp/AJ7pCeMR5m5MdHvI=
-----END CERTIFICATE-----
