Certificate:
    Data:
        Version: 4 (0x3)
        Serial Number: 1 (0x1)
    Signature Algorithm: sha1WithRSAEncryption
        Issuer: C=BE, CN=txjsonrpc-test-ca
        Validity
            Not Before: Jan  1 00:00:00 1970 GMT
            Not After : Jan 19 03:14:07 2038 GMT
        Subject: CN=txjsonrpc-pyserver, C=BE, O=Gremwell bvba
        Subject Public Key Info:
            Public Key Algorithm: rsaEncryption
                Public-Key: (1024 bit)
                Modulus:
                    00:db:9a:9f:c9:99:d7:23:12:0e:38:31:23:13:66:
                    f0:de:5d:6d:89:63:c8:ed:fa:03:f1:12:40:ae:1c:
                    73:86:2c:5a:90:05:f4:31:99:eb:5c:41:7e:a9:bb:
                    06:46:dd:73:3e:98:de:ff:a6:ad:ea:35:fc:c3:b6:
                    f7:15:d9:27:d3:3f:72:a2:96:db:ae:5f:a8:da:a4:
                    f4:a5:00:ad:88:33:4e:4c:be:47:4e:f4:82:03:9e:
                    da:c8:8c:43:9b:3c:96:6c:0c:7f:f9:0b:85:7b:0f:
                    2e:4b:57:ba:36:5e:71:2e:e4:b5:04:68:aa:55:0b:
                    2b:3c:a5:d9:ff:6e:ae:23:71
                Exponent: 65537 (0x10001)
    Signature Algorithm: sha1WithRSAEncryption
         ce:b1:51:68:f7:15:13:2f:2b:cd:89:0f:7d:ac:08:80:83:2d:
         d8:4c:c2:4c:15:f3:1d:d4:6f:e9:9d:03:69:6f:02:39:ec:45:
         37:05:64:c0:a3:13:84:bf:88:ca:13:dc:9d:bd:5b:fa:4b:a2:
         f5:cd:82:44:1a:5e:a8:f2:88:87:bc:a7:0f:71:ea:81:e5:f0:
         92:db:a0:8c:63:21:4f:f4:da:af:01:f5:c1:42:a8:e7:c5:fe:
         c7:e1:f7:4b:a1:88:c6:53:1e:51:ab:e2:e1:4b:cb:70:65:d0:
         05:c9:bb:d0:e6:aa:6c:7c:d7:d3:c5:89:8a:82:af:75:90:8c:
         4c:1e:60:d2:f8:af:b8:ea:da:2f:63:64:45:09:00:5b:7e:b8:
         fe:80:cf:df:2f:c4:23:b6:71:48:e4:76:31:26:4a:5e:08:6c:
         b7:95:7c:40:82:e5:1e:9a:df:28:6d:f9:14:f4:31:ca:f4:3c:
         cb:2f:b3:ad:b3:a3:15:b1:c5:e4:16:ff:91:25:3b:cd:25:d5:
         3a:49:70:53:bc:65:57:66:2c:19:3f:94:4c:c5:fd:b5:aa:f7:
         d4:8e:b9:7f:d8:62:ff:7b:db:27:52:fc:a1:30:68:90:6c:ce:
         d4:39:02:30:53:a2:da:43:6b:a6:a7:4e:90:6c:54:50:45:f4:
         10:9e:6e:92:59:7b:de:82:9c:00:6d:eb:49:a9:f5:07:9a:c4:
         a7:46:06:9e:8c:b0:7e:7e:98:6f:a2:30:b9:f3:8c:dd:f5:46:
         d0:c2:71:aa:d3:61:af:61:43:bc:f8:ee:da:6b:3c:6d:0c:f5:
         1a:66:db:1d:df:d4:96:91:2d:91:d2:28:65:5c:9c:db:ee:ba:
         4d:90:70:f3:52:58:80:fe:46:14:31:59:2d:4a:d3:fc:a9:fd:
         c5:00:0e:be:cd:44:56:63:25:98:41:3e:32:6d:cf:5d:d1:ca:
         f8:2d:ae:0a:d3:e3:2b:ca:33:87:70:c2:d8:10:e7:5e:b5:31:
         42:29:23:42:c5:d7:73:e5:d7:f2:4f:e0:f3:fc:c6:a2:ab:c2:
         3b:1c:43:f8:d1:42:59:9c:48:8b:bb:cd:14:1f:80:be:55:52:
         ae:99:0c:12:4c:f1:d9:bd:16:ea:74:f2:31:51:0c:93:e9:d0:
         66:3f:16:bb:48:8b:51:e2:ad:b0:f3:2f:e1:12:0e:dd:6b:1f:
         88:10:4e:75:de:90:9d:64:55:17:4b:ec:01:17:30:96:35:24:
         15:94:aa:b8:56:72:fd:23:2a:47:98:99:cf:56:02:5b:f2:a5:
         c6:b6:24:aa:b8:63:f1:15:9e:7e:3b:8f:75:d7:3d:70:74:6d:
         e1:42:28:fd:65:0e:c6:fe
-----BEGIN CERTIFICATE-----
MIIDYDCCAUigAwIBAwIBATANBgkqhkiG9w0BAQUFADApMQswCQYDVQQGEwJCRTEa
MBgGA1UEAxMRdHhqc29ucnBjLXRlc3QtY2EwHhcNNzAwMTAxMDAwMDAwWhcNMzgw
MTE5MDMxNDA3WjBCMRswGQYDVQQDExJ0eGpzb25ycGMtcHlzZXJ2ZXIxCzAJBgNV
BAYTAkJFMRYwFAYDVQQKEw1HcmVtd2VsbCBidmJhMIGfMA0GCSqGSIb3DQEBAQUA
A4GNADCBiQKBgQDbmp/JmdcjEg44MSMTZvDeXW2JY8jt+gPxEkCuHHOGLFqQBfQx
metcQX6puwZG3XM+mN7/pq3qNfzDtvcV2SfTP3KiltuuX6japPSlAK2IM05MvkdO
9IIDntrIjEObPJZsDH/5C4V7Dy5LV7o2XnEu5LUEaKpVCys8pdn/bq4jcQIDAQAB
MA0GCSqGSIb3DQEBBQUAA4ICAQDOsVFo9xUTLyvNiQ99rAiAgy3YTMJMFfMd1G/p
nQNpbwI57EU3BWTAoxOEv4jKE9ydvVv6S6L1zYJEGl6o8oiHvKcPceqB5fCS26CM
YyFP9NqvAfXBQqjnxf7H4fdLoYjGUx5Rq+LhS8twZdAFybvQ5qpsfNfTxYmKgq91
kIxMHmDS+K+46tovY2RFCQBbfrj+gM/fL8QjtnFI5HYxJkpeCGy3lXxAguUemt8o
bfkU9DHK9DzLL7Ots6MVscXkFv+RJTvNJdU6SXBTvGVXZiwZP5RMxf21qvfUjrl/
2GL/e9snUvyhMGiQbM7UOQIwU6LaQ2ump06QbFRQRfQQnm6SWXvegpwAbetJqfUH
msSnRgaejLB+fphvojC584zd9UbQwnGq02GvYUO8+O7aazxtDPUaZtsd39SWkS2R
0ihlXJzb7rpNkHDzUliA/kYUMVktStP8qf3FAA6+zURWYyWYQT4ybc9d0cr4La4K
0+MryjOHcMLYEOdetTFCKSNCxddz5dfyT+Dz/Maiq8I7HEP40UJZnEiLu80UH4C+
VVKumQwSTPHZvRbqdPIxUQyT6dBmPxa7SItR4q2w8y/hEg7dax+IEE513pCdZFUX
S+wBFzCWNSQVlKq4VnL9IypHmJnPVgJb8qXGtiSquGPxFZ5+O4911z1wdG3hQij9
ZQ7G/g==
-----END CERTIFICATE-----
Certificate:
    Data:
        Version: 3 (0x2)
        Serial Number: 10219423159405941259 (0x8dd2af37f9ca920b)
    Signature Algorithm: sha1WithRSAEncryption
        Issuer: C=BE, CN=txjsonrpc-test-ca
        Validity
            Not Before: Jun 23 15:46:37 2012 GMT
            Not After : Jun 21 15:46:37 2022 GMT
        Subject: C=BE, CN=txjsonrpc-test-ca
        Subject Public Key Info:
            Public Key Algorithm: rsaEncryption
                Public-Key: (4096 bit)
                Modulus:
                    00:d1:25:af:77:c5:a8:72:cf:90:b9:39:10:fb:7b:
                    75:2c:a1:da:6a:95:e5:44:0c:d6:25:4b:58:7f:bb:
                    07:82:59:49:58:32:85:24:cc:3e:77:db:e1:a7:4f:
                    c8:b5:cb:ee:45:38:bd:bc:fb:e3:76:3b:88:04:ca:
                    ab:3a:a3:96:3b:5f:93:9c:28:a6:61:97:dc:a2:3f:
                    a0:93:2b:56:6c:cf:d3:4f:6a:9e:05:d3:1c:cd:ef:
                    75:80:1a:98:b7:92:49:14:33:b8:c4:7c:73:8c:7e:
                    83:a5:81:a2:59:8c:8b:a3:51:36:6d:68:ac:f2:f1:
                    ed:6f:49:d9:af:7a:63:c1:43:31:42:b6:c7:cd:b9:
                    78:b7:33:98:70:92:6c:9e:04:7a:7b:f0:6d:38:87:
                    eb:00:13:17:b9:d9:ec:b4:66:bb:51:d3:fd:81:e3:
                    0e:88:71:23:d2:80:2a:61:de:ab:25:02:47:a9:c1:
                    6b:c9:69:ae:da:47:b6:49:74:ac:a6:e1:c1:76:ba:
                    6d:b1:d9:68:6e:1c:37:a8:e2:18:60:37:b6:58:13:
                    6c:c7:92:7c:c6:45:8c:ef:c3:81:73:10:dc:2f:31:
                    e2:b9:05:5a:9e:28:70:5a:3e:1d:b8:68:71:81:c9:
                    e8:fe:1f:c3:a0:13:f8:e4:24:12:ba:91:8e:15:d2:
                    03:f1:8c:b0:aa:e2:34:e4:6b:f8:06:f6:23:8a:92:
                    43:a6:05:dc:e9:c7:a5:a8:06:d7:6e:91:52:72:47:
                    ab:ae:87:fe:b3:0f:04:87:6f:4b:22:29:e9:a9:06:
                    52:58:7d:03:16:d7:d5:31:44:b4:f1:51:44:a7:2a:
                    ba:5e:09:19:ec:4c:a2:e0:58:fe:0d:4e:b7:90:4d:
                    02:ac:2a:ad:99:14:65:3b:0a:3c:73:45:56:b2:0f:
                    10:25:24:51:79:57:1a:34:1a:10:6f:60:e0:fc:81:
                    db:ca:c2:e2:85:1b:4c:72:13:5c:9d:76:cc:d0:21:
                    33:31:56:82:8f:c5:57:b9:44:fd:8b:76:c1:b6:e4:
                    21:8b:35:9a:ee:54:74:9f:72:6b:19:84:d7:a2:3c:
                    a5:6e:11:0a:f1:93:04:2e:dd:7c:4c:7d:62:10:d4:
                    1b:8b:87:f6:ed:bf:12:b1:8b:f0:9a:7a:ee:02:94:
                    e1:3c:46:2b:7f:9c:54:fb:2e:61:c9:1c:ef:fc:de:
                    25:bc:2d:75:1b:1f:49:5e:44:3b:15:93:ad:c4:89:
                    d9:ae:3c:da:54:ef:d9:af:3a:16:cb:94:1b:6a:14:
                    e4:42:f9:75:33:46:6e:fb:40:bc:f8:82:36:cf:60:
                    f5:c2:a2:98:23:a7:2a:ae:c1:aa:22:f8:87:da:b7:
                    9c:a4:cf
                Exponent: 65537 (0x10001)
        X509v3 extensions:
            X509v3 Subject Key Identifier: 
                9D:8F:84:76:94:CD:07:FE:A3:E8:8B:D7:F9:D9:6E:EF:CA:75:51:7B
            X509v3 Authority Key Identifier: 
                keyid:9D:8F:84:76:94:CD:07:FE:A3:E8:8B:D7:F9:D9:6E:EF:CA:75:51:7B
                DirName:/C=BE/CN=txjsonrpc-test-ca
                serial:8D:D2:AF:37:F9:CA:92:0B

            X509v3 Basic Constraints: critical
                CA:TRUE
            Netscape Cert Type: 
                SSL CA, S/MIME CA
            X509v3 Issuer Alternative Name: 
                <EMPTY>

            Netscape Comment: 
                Test CA for txjsonrcp
            X509v3 Subject Alternative Name: 
                <EMPTY>

            X509v3 Key Usage: critical
                Certificate Sign, CRL Sign
    Signature Algorithm: sha1WithRSAEncryption
         06:82:86:81:a9:1b:7e:2d:ef:f5:fc:cc:d2:9d:d6:82:ad:d0:
         6f:7e:3d:b9:5c:b2:0f:3a:64:21:9a:fb:53:b2:93:81:dc:1a:
         24:fc:b8:30:57:a2:c7:71:0d:9c:1a:0b:8a:6c:89:52:8b:8a:
         f5:af:95:3e:b8:08:39:ee:36:50:ac:60:4d:df:2b:49:a2:72:
         f1:3f:12:3c:d9:55:56:a4:9a:77:2b:77:fa:16:b5:76:d9:f4:
         c4:51:6b:b9:fe:2f:a3:52:e8:64:80:49:22:6d:05:42:87:af:
         9d:85:6c:fa:c9:9b:48:39:7b:89:f5:a0:1e:ff:11:d3:9c:78:
         b1:b2:f6:4d:b1:e8:b3:98:23:2c:d4:20:e1:a1:01:3e:26:0a:
         5b:8e:eb:58:45:22:cf:e1:94:ad:84:40:b0:fb:ff:25:5f:31:
         9a:49:0b:36:ad:c6:1a:b0:42:60:40:e2:a2:3c:5a:36:41:89:
         fc:10:c4:60:ea:d4:85:7b:36:84:df:aa:81:cc:69:e7:52:ca:
         c1:46:b1:79:93:51:4f:24:84:42:14:3a:20:a0:6c:27:76:40:
         0f:96:7e:4e:c3:0c:37:b3:e3:73:49:86:58:31:00:1e:e7:0f:
         87:74:b6:4e:6e:1c:7d:87:a4:33:04:c9:76:ec:e5:3a:85:5f:
         a8:d1:ad:21:64:5e:c5:6a:df:b1:02:6e:65:a4:87:72:06:07:
         da:e5:f2:af:2b:a5:eb:18:80:67:83:a5:3c:e6:ed:d1:58:f9:
         90:5c:d6:e9:2f:76:c1:58:13:b8:bd:88:8a:f3:04:48:bb:42:
         8f:7f:c6:db:b4:30:3f:bb:6c:d5:47:e5:ae:8d:4b:da:92:a5:
         db:d3:6e:a8:9b:c2:6b:56:af:34:63:82:e6:78:f8:1f:54:d7:
         41:aa:a3:c9:7c:a6:83:41:bf:6e:33:7c:ae:e6:92:bd:da:27:
         b4:bc:e2:90:4f:33:1b:01:a1:cd:02:13:7a:31:ef:00:d6:9a:
         6e:38:6b:a7:cb:70:98:a8:0f:ff:1c:56:a8:b7:e6:d2:42:5a:
         bb:f4:78:27:71:13:d0:e8:43:eb:bc:2d:4f:e4:ea:4d:4f:76:
         7f:53:38:34:eb:13:e2:3d:c6:14:98:86:1c:ab:2c:0e:b7:68:
         2e:bd:63:a9:6a:8f:d5:22:2d:ab:13:d7:62:54:51:ff:5c:37:
         08:04:27:da:f9:57:77:05:18:73:88:5f:b0:c1:65:50:36:09:
         d6:c7:f5:ae:6e:3f:04:d1:84:3c:21:74:1d:bd:0a:fb:76:d0:
         13:2b:62:bb:24:48:43:89:d0:18:5c:b4:ad:ea:98:af:6d:fc:
         1c:6b:1f:06:64:54:23:88
-----BEGIN CERTIFICATE-----
MIIFwzCCA6ugAwIBAgIJAI3Srzf5ypILMA0GCSqGSIb3DQEBBQUAMCkxCzAJBgNV
BAYTAkJFMRowGAYDVQQDExF0eGpzb25ycGMtdGVzdC1jYTAeFw0xMjA2MjMxNTQ2
MzdaFw0yMjA2MjExNTQ2MzdaMCkxCzAJBgNVBAYTAkJFMRowGAYDVQQDExF0eGpz
b25ycGMtdGVzdC1jYTCCAiIwDQYJKoZIhvcNAQEBBQADggIPADCCAgoCggIBANEl
r3fFqHLPkLk5EPt7dSyh2mqV5UQM1iVLWH+7B4JZSVgyhSTMPnfb4adPyLXL7kU4
vbz743Y7iATKqzqjljtfk5wopmGX3KI/oJMrVmzP009qngXTHM3vdYAamLeSSRQz
uMR8c4x+g6WBolmMi6NRNm1orPLx7W9J2a96Y8FDMUK2x825eLczmHCSbJ4Eenvw
bTiH6wATF7nZ7LRmu1HT/YHjDohxI9KAKmHeqyUCR6nBa8lprtpHtkl0rKbhwXa6
bbHZaG4cN6jiGGA3tlgTbMeSfMZFjO/DgXMQ3C8x4rkFWp4ocFo+HbhocYHJ6P4f
w6AT+OQkErqRjhXSA/GMsKriNORr+Ab2I4qSQ6YF3OnHpagG126RUnJHq66H/rMP
BIdvSyIp6akGUlh9AxbX1TFEtPFRRKcqul4JGexMouBY/g1Ot5BNAqwqrZkUZTsK
PHNFVrIPECUkUXlXGjQaEG9g4PyB28rC4oUbTHITXJ12zNAhMzFWgo/FV7lE/Yt2
wbbkIYs1mu5UdJ9yaxmE16I8pW4RCvGTBC7dfEx9YhDUG4uH9u2/ErGL8Jp67gKU
4TxGK3+cVPsuYckc7/zeJbwtdRsfSV5EOxWTrcSJ2a482lTv2a86FsuUG2oU5EL5
dTNGbvtAvPiCNs9g9cKimCOnKq7BqiL4h9q3nKTPAgMBAAGjge0wgeowHQYDVR0O
BBYEFJ2PhHaUzQf+o+iL1/nZbu/KdVF7MFkGA1UdIwRSMFCAFJ2PhHaUzQf+o+iL
1/nZbu/KdVF7oS2kKzApMQswCQYDVQQGEwJCRTEaMBgGA1UEAxMRdHhqc29ucnBj
LXRlc3QtY2GCCQCN0q83+cqSCzAPBgNVHRMBAf8EBTADAQH/MBEGCWCGSAGG+EIB
AQQEAwIBBjAJBgNVHRIEAjAAMCQGCWCGSAGG+EIBDQQXFhVUZXN0IENBIGZvciB0
eGpzb25yY3AwCQYDVR0RBAIwADAOBgNVHQ8BAf8EBAMCAQYwDQYJKoZIhvcNAQEF
BQADggIBAAaChoGpG34t7/X8zNKd1oKt0G9+Pblcsg86ZCGa+1Oyk4HcGiT8uDBX
osdxDZwaC4psiVKLivWvlT64CDnuNlCsYE3fK0micvE/EjzZVVakmncrd/oWtXbZ
9MRRa7n+L6NS6GSASSJtBUKHr52FbPrJm0g5e4n1oB7/EdOceLGy9k2x6LOYIyzU
IOGhAT4mCluO61hFIs/hlK2EQLD7/yVfMZpJCzatxhqwQmBA4qI8WjZBifwQxGDq
1IV7NoTfqoHMaedSysFGsXmTUU8khEIUOiCgbCd2QA+Wfk7DDDez43NJhlgxAB7n
D4d0tk5uHH2HpDMEyXbs5TqFX6jRrSFkXsVq37ECbmWkh3IGB9rl8q8rpesYgGeD
pTzm7dFY+ZBc1ukvdsFYE7i9iIrzBEi7Qo9/xtu0MD+7bNVH5a6NS9qSpdvTbqib
wmtWrzRjguZ4+B9U10Gqo8l8poNBv24zfK7mkr3aJ7S84pBPMxsBoc0CE3ox7wDW
mm44a6fLcJioD/8cVqi35tJCWrv0eCdxE9DoQ+u8LU/k6k1Pdn9TODTrE+I9xhSY
hhyrLA63aC69Y6lqj9UiLasT12JUUf9cNwgEJ9r5V3cFGHOIX7DBZVA2CdbH9a5u
PwTRhDwhdB29Cvt20BMrYrskSEOJ0BhctK3qmK9t/BxrHwZkVCOI
-----END CERTIFICATE-----
