Certificate:
    Data:
        Version: 4 (0x3)
        Serial Number: 1 (0x1)
    Signature Algorithm: sha1WithRSAEncryption
        Issuer: C=BE, CN=txjsonrpc-test-ca
        Validity
            Not Before: Jun 23 15:47:38 2012 GMT
            Not After : Jun 23 15:47:38 2013 GMT
        Subject: C=BE, CN=txjsonrpc-pyserver
        Subject Public Key Info:
            Public Key Algorithm: rsaEncryption
                Public-Key: (4096 bit)
                Modulus:
                    00:b2:d7:99:28:9b:01:64:48:bc:1d:71:d2:22:9d:
                    05:00:f8:ee:06:14:fa:71:ad:ad:1a:61:2b:d2:15:
                    45:49:dd:57:90:8f:f2:bf:e2:4f:56:40:cd:dc:be:
                    c4:5b:6d:f9:e0:94:c8:64:30:f9:59:b7:3b:0a:72:
                    5f:7f:32:3f:af:78:6a:4a:a3:20:c6:53:47:e3:dd:
                    ac:7b:84:e7:2a:87:63:64:b0:f4:89:95:ae:1e:7b:
                    4f:88:78:62:42:e4:15:35:35:69:38:83:42:2e:b9:
                    ca:4d:c3:7a:11:24:cd:34:c7:0b:9a:02:53:e8:ac:
                    2e:f7:24:5e:d3:e7:d5:c0:b2:da:3f:3a:56:a3:b9:
                    13:cb:25:f8:59:6d:13:ea:28:a2:88:78:9a:88:a7:
                    45:a8:1f:e1:56:ad:a3:9b:f3:ee:f7:5b:ee:69:8c:
                    e1:6d:f5:b1:09:be:63:46:49:1e:16:24:4e:a9:cc:
                    f1:7c:c5:87:1b:8f:e3:48:ef:aa:44:b2:c2:3e:31:
                    85:28:47:b5:d8:68:12:05:3a:06:cd:e3:ea:d6:d1:
                    cc:59:ac:68:f3:35:7b:a6:53:ce:4c:c9:7b:c7:0f:
                    dd:97:89:b9:2c:a5:cd:ee:14:62:0a:4f:46:f4:0c:
                    33:94:b9:25:4e:e9:ee:ec:2c:18:14:1a:3c:7c:41:
                    db:fb:df:9f:e1:ee:db:28:8e:8b:ec:f2:dc:40:62:
                    d8:34:f7:d5:87:dc:ef:68:ed:50:59:57:0b:a3:10:
                    73:03:b4:bd:66:47:89:94:32:ae:e2:0a:e5:69:92:
                    ae:42:93:1b:cf:9f:eb:73:c6:45:7f:0b:24:9c:f4:
                    b8:c2:fb:87:84:6e:41:be:96:3b:d6:2a:32:fe:04:
                    6b:80:fc:60:4a:0d:51:e0:66:bb:e1:89:26:e9:1b:
                    bc:47:9c:20:23:54:73:92:3b:ff:73:1b:37:7d:00:
                    bd:e6:e6:0a:3b:82:49:eb:38:b3:5c:03:ac:6e:7c:
                    6f:e0:e9:98:dc:b6:b1:93:2e:98:0b:2f:89:99:9b:
                    4f:e4:a2:81:ee:3f:a3:7a:a7:e2:39:d4:24:9c:1a:
                    02:44:a4:fa:f9:af:7d:f7:69:5f:84:cb:72:b1:f3:
                    9d:85:57:08:6b:53:82:a1:f9:f7:a9:f1:04:9b:7c:
                    ca:73:da:66:cb:e6:2b:72:a7:df:80:cd:c6:4d:b4:
                    f0:0c:dc:38:78:e9:a0:70:22:0c:35:bb:d1:af:50:
                    4a:b4:30:8a:6f:52:7d:3a:f1:96:3f:e1:e3:7f:a5:
                    fa:2c:81:5f:4b:7b:38:c8:8b:c6:09:b6:98:9a:51:
                    72:29:a0:c4:ed:43:e1:fc:32:8d:dd:e4:cf:97:83:
                    00:f9:4d
                Exponent: 65537 (0x10001)
        X509v3 extensions:
            X509v3 Basic Constraints: 
                CA:FALSE
            Netscape Cert Type: 
                SSL Server
            Netscape Comment: 
                TinyCA Generated Certificate
            X509v3 Subject Key Identifier: 
                26:8C:A5:F9:A6:4A:FE:4C:E8:0F:04:33:7E:04:26:28:BF:4C:92:F3
            X509v3 Authority Key Identifier: 
                keyid:9D:8F:84:76:94:CD:07:FE:A3:E8:8B:D7:F9:D9:6E:EF:CA:75:51:7B
                DirName:/C=BE/CN=txjsonrpc-test-ca
                serial:8D:D2:AF:37:F9:CA:92:0B

            X509v3 Issuer Alternative Name: 
                <EMPTY>

            X509v3 Subject Alternative Name: 
                <EMPTY>

    Signature Algorithm: sha1WithRSAEncryption
         a2:bc:86:f7:b4:d5:f0:f5:a2:f5:be:2f:ca:cc:6a:96:06:75:
         25:ac:91:f0:4a:1f:5d:f3:c4:e3:ba:70:ef:69:67:93:35:bc:
         80:a7:08:6d:7d:9f:c8:ea:1f:e6:b7:44:13:6e:b4:b9:d2:bb:
         0d:0f:26:4a:7d:42:f9:74:fb:bd:2c:7b:6e:40:15:2a:ab:06:
         94:d1:6b:d8:d6:97:48:99:1d:27:d2:de:14:9e:29:6e:e9:e4:
         87:fb:ae:a3:ba:4c:87:af:ae:c7:95:0c:b6:1e:3d:c9:0e:df:
         25:7e:74:a6:c2:99:34:af:6f:d4:d8:5d:ef:bc:be:4d:fb:70:
         07:1d:b1:75:85:56:10:d4:40:47:50:ca:50:6f:00:21:9d:b2:
         22:4a:18:39:e3:79:4a:95:03:0d:74:f0:e2:86:99:b9:64:35:
         64:bc:c7:7f:91:24:19:f0:eb:97:2c:30:5b:71:c2:84:04:9a:
         d1:44:28:e9:4b:cb:0d:be:eb:16:eb:9b:50:ec:2f:f1:b3:3a:
         af:66:5c:2a:bf:5d:03:57:c5:50:32:b2:c7:0a:2f:0e:9b:ef:
         aa:b3:aa:15:d1:d0:4a:b6:bb:1c:a7:de:97:9f:d8:7d:23:c8:
         5c:a7:c8:4a:1c:a4:47:f4:a5:48:cc:45:e8:32:d1:70:f6:6e:
         2f:d7:d2:c1:81:20:5d:a2:b9:ca:41:ba:26:f0:09:10:0b:0d:
         23:a2:0e:cc:a4:e3:df:3a:cb:c6:52:76:78:f1:d5:05:48:ef:
         8e:03:c7:2b:be:0a:a9:f5:fd:1d:17:16:40:51:b2:20:7e:ec:
         81:c4:d8:19:dc:c9:92:bf:8c:f8:11:03:c3:4b:ff:b1:eb:60:
         70:ed:67:3c:ca:75:79:7b:02:b9:fe:4b:a7:bc:1f:c4:28:60:
         35:1f:5f:5d:29:97:ee:d9:63:53:d0:5c:b7:2a:a9:01:2e:a6:
         21:12:06:e9:af:d7:c2:05:67:82:38:3f:c0:92:53:fb:ae:67:
         19:5f:45:aa:e4:55:76:77:11:f6:e1:cb:8b:b3:90:f9:48:fd:
         66:14:8d:6d:76:36:39:17:5a:db:25:8e:18:71:9f:8e:55:3a:
         df:e3:21:53:91:62:fd:cf:f8:9e:98:35:e2:ee:78:ba:92:3b:
         3f:be:d5:7b:d5:9d:44:6b:dc:61:4b:e8:51:72:b0:f9:b7:66:
         10:e2:71:f7:f8:32:5e:eb:6b:c4:01:8c:6f:d4:9e:bc:60:4b:
         33:b4:1b:f0:fb:16:11:fa:06:50:cc:fe:a4:a5:68:ba:c6:a5:
         6a:66:c9:63:0e:7c:45:ef:64:29:ed:fe:c4:89:0f:33:f5:1b:
         63:84:27:fe:1d:26:17:60
-----BEGIN CERTIFICATE-----
MIIFrTCCA5WgAwIBAwIBATANBgkqhkiG9w0BAQUFADApMQswCQYDVQQGEwJCRTEa
MBgGA1UEAxMRdHhqc29ucnBjLXRlc3QtY2EwHhcNMTIwNjIzMTU0NzM4WhcNMTMw
NjIzMTU0NzM4WjAqMQswCQYDVQQGEwJCRTEbMBkGA1UEAxMSdHhqc29ucnBjLXB5
c2VydmVyMIICIjANBgkqhkiG9w0BAQEFAAOCAg8AMIICCgKCAgEAsteZKJsBZEi8
HXHSIp0FAPjuBhT6ca2tGmEr0hVFSd1XkI/yv+JPVkDN3L7EW2354JTIZDD5Wbc7
CnJffzI/r3hqSqMgxlNH492se4TnKodjZLD0iZWuHntPiHhiQuQVNTVpOINCLrnK
TcN6ESTNNMcLmgJT6Kwu9yRe0+fVwLLaPzpWo7kTyyX4WW0T6iiiiHiaiKdFqB/h
Vq2jm/Pu91vuaYzhbfWxCb5jRkkeFiROqczxfMWHG4/jSO+qRLLCPjGFKEe12GgS
BToGzePq1tHMWaxo8zV7plPOTMl7xw/dl4m5LKXN7hRiCk9G9AwzlLklTunu7CwY
FBo8fEHb+9+f4e7bKI6L7PLcQGLYNPfVh9zvaO1QWVcLoxBzA7S9ZkeJlDKu4grl
aZKuQpMbz5/rc8ZFfwsknPS4wvuHhG5BvpY71ioy/gRrgPxgSg1R4Ga74Ykm6Ru8
R5wgI1Rzkjv/cxs3fQC95uYKO4JJ6zizXAOsbnxv4OmY3Laxky6YCy+JmZtP5KKB
7j+jeqfiOdQknBoCRKT6+a9992lfhMtysfOdhVcIa1OCofn3qfEEm3zKc9pmy+Yr
cqffgM3GTbTwDNw4eOmgcCIMNbvRr1BKtDCKb1J9OvGWP+Hjf6X6LIFfS3s4yIvG
CbaYmlFyKaDE7UPh/DKN3eTPl4MA+U0CAwEAAaOB3jCB2zAJBgNVHRMEAjAAMBEG
CWCGSAGG+EIBAQQEAwIGQDArBglghkgBhvhCAQ0EHhYcVGlueUNBIEdlbmVyYXRl
ZCBDZXJ0aWZpY2F0ZTAdBgNVHQ4EFgQUJoyl+aZK/kzoDwQzfgQmKL9MkvMwWQYD
VR0jBFIwUIAUnY+EdpTNB/6j6IvX+dlu78p1UXuhLaQrMCkxCzAJBgNVBAYTAkJF
MRowGAYDVQQDExF0eGpzb25ycGMtdGVzdC1jYYIJAI3Srzf5ypILMAkGA1UdEgQC
MAAwCQYDVR0RBAIwADANBgkqhkiG9w0BAQUFAAOCAgEAoryG97TV8PWi9b4vysxq
lgZ1JayR8EofXfPE47pw72lnkzW8gKcIbX2fyOof5rdEE260udK7DQ8mSn1C+XT7
vSx7bkAVKqsGlNFr2NaXSJkdJ9LeFJ4pbunkh/uuo7pMh6+ux5UMth49yQ7fJX50
psKZNK9v1Nhd77y+TftwBx2xdYVWENRAR1DKUG8AIZ2yIkoYOeN5SpUDDXTw4oaZ
uWQ1ZLzHf5EkGfDrlywwW3HChASa0UQo6UvLDb7rFuubUOwv8bM6r2ZcKr9dA1fF
UDKyxwovDpvvqrOqFdHQSra7HKfel5/YfSPIXKfIShykR/SlSMxF6DLRcPZuL9fS
wYEgXaK5ykG6JvAJEAsNI6IOzKTj3zrLxlJ2ePHVBUjvjgPHK74KqfX9HRcWQFGy
IH7sgcTYGdzJkr+M+BEDw0v/setgcO1nPMp1eXsCuf5Lp7wfxChgNR9fXSmX7tlj
U9BctyqpAS6mIRIG6a/XwgVngjg/wJJT+65nGV9FquRVdncR9uHLi7OQ+Uj9ZhSN
bXY2ORda2yWOGHGfjlU63+MhU5Fi/c/4npg14u54upI7P77Ve9WdRGvcYUvoUXKw
+bdmEOJx9/gyXutrxAGMb9SevGBLM7Qb8PsWEfoGUMz+pKVousalambJYw58Re9k
Ke3+xIkPM/UbY4Qn/h0mF2A=
-----END CERTIFICATE-----
Certificate:
    Data:
        Version: 3 (0x2)
        Serial Number: 10219423159405941259 (0x8dd2af37f9ca920b)
    Signature Algorithm: sha1WithRSAEncryption
        Issuer: C=BE, CN=txjsonrpc-test-ca
        Validity
            Not Before: Jun 23 15:46:37 2012 GMT
            Not After : Jun 21 15:46:37 2022 GMT
        Subject: C=BE, CN=txjsonrpc-test-ca
        Subject Public Key Info:
            Public Key Algorithm: rsaEncryption
                Public-Key: (4096 bit)
                Modulus:
                    00:d1:25:af:77:c5:a8:72:cf:90:b9:39:10:fb:7b:
                    75:2c:a1:da:6a:95:e5:44:0c:d6:25:4b:58:7f:bb:
                    07:82:59:49:58:32:85:24:cc:3e:77:db:e1:a7:4f:
                    c8:b5:cb:ee:45:38:bd:bc:fb:e3:76:3b:88:04:ca:
                    ab:3a:a3:96:3b:5f:93:9c:28:a6:61:97:dc:a2:3f:
                    a0:93:2b:56:6c:cf:d3:4f:6a:9e:05:d3:1c:cd:ef:
                    75:80:1a:98:b7:92:49:14:33:b8:c4:7c:73:8c:7e:
                    83:a5:81:a2:59:8c:8b:a3:51:36:6d:68:ac:f2:f1:
                    ed:6f:49:d9:af:7a:63:c1:43:31:42:b6:c7:cd:b9:
                    78:b7:33:98:70:92:6c:9e:04:7a:7b:f0:6d:38:87:
                    eb:00:13:17:b9:d9:ec:b4:66:bb:51:d3:fd:81:e3:
                    0e:88:71:23:d2:80:2a:61:de:ab:25:02:47:a9:c1:
                    6b:c9:69:ae:da:47:b6:49:74:ac:a6:e1:c1:76:ba:
                    6d:b1:d9:68:6e:1c:37:a8:e2:18:60:37:b6:58:13:
                    6c:c7:92:7c:c6:45:8c:ef:c3:81:73:10:dc:2f:31:
                    e2:b9:05:5a:9e:28:70:5a:3e:1d:b8:68:71:81:c9:
                    e8:fe:1f:c3:a0:13:f8:e4:24:12:ba:91:8e:15:d2:
                    03:f1:8c:b0:aa:e2:34:e4:6b:f8:06:f6:23:8a:92:
                    43:a6:05:dc:e9:c7:a5:a8:06:d7:6e:91:52:72:47:
                    ab:ae:87:fe:b3:0f:04:87:6f:4b:22:29:e9:a9:06:
                    52:58:7d:03:16:d7:d5:31:44:b4:f1:51:44:a7:2a:
                    ba:5e:09:19:ec:4c:a2:e0:58:fe:0d:4e:b7:90:4d:
                    02:ac:2a:ad:99:14:65:3b:0a:3c:73:45:56:b2:0f:
                    10:25:24:51:79:57:1a:34:1a:10:6f:60:e0:fc:81:
                    db:ca:c2:e2:85:1b:4c:72:13:5c:9d:76:cc:d0:21:
                    33:31:56:82:8f:c5:57:b9:44:fd:8b:76:c1:b6:e4:
                    21:8b:35:9a:ee:54:74:9f:72:6b:19:84:d7:a2:3c:
                    a5:6e:11:0a:f1:93:04:2e:dd:7c:4c:7d:62:10:d4:
                    1b:8b:87:f6:ed:bf:12:b1:8b:f0:9a:7a:ee:02:94:
                    e1:3c:46:2b:7f:9c:54:fb:2e:61:c9:1c:ef:fc:de:
                    25:bc:2d:75:1b:1f:49:5e:44:3b:15:93:ad:c4:89:
                    d9:ae:3c:da:54:ef:d9:af:3a:16:cb:94:1b:6a:14:
                    e4:42:f9:75:33:46:6e:fb:40:bc:f8:82:36:cf:60:
                    f5:c2:a2:98:23:a7:2a:ae:c1:aa:22:f8:87:da:b7:
                    9c:a4:cf
                Exponent: 65537 (0x10001)
        X509v3 extensions:
            X509v3 Subject Key Identifier: 
                9D:8F:84:76:94:CD:07:FE:A3:E8:8B:D7:F9:D9:6E:EF:CA:75:51:7B
            X509v3 Authority Key Identifier: 
                keyid:9D:8F:84:76:94:CD:07:FE:A3:E8:8B:D7:F9:D9:6E:EF:CA:75:51:7B
                DirName:/C=BE/CN=txjsonrpc-test-ca
                serial:8D:D2:AF:37:F9:CA:92:0B

            X509v3 Basic Constraints: critical
                CA:TRUE
            Netscape Cert Type: 
                SSL CA, S/MIME CA
            X509v3 Issuer Alternative Name: 
                <EMPTY>

            Netscape Comment: 
                Test CA for txjsonrcp
            X509v3 Subject Alternative Name: 
                <EMPTY>

            X509v3 Key Usage: critical
                Certificate Sign, CRL Sign
    Signature Algorithm: sha1WithRSAEncryption
         06:82:86:81:a9:1b:7e:2d:ef:f5:fc:cc:d2:9d:d6:82:ad:d0:
         6f:7e:3d:b9:5c:b2:0f:3a:64:21:9a:fb:53:b2:93:81:dc:1a:
         24:fc:b8:30:57:a2:c7:71:0d:9c:1a:0b:8a:6c:89:52:8b:8a:
         f5:af:95:3e:b8:08:39:ee:36:50:ac:60:4d:df:2b:49:a2:72:
         f1:3f:12:3c:d9:55:56:a4:9a:77:2b:77:fa:16:b5:76:d9:f4:
         c4:51:6b:b9:fe:2f:a3:52:e8:64:80:49:22:6d:05:42:87:af:
         9d:85:6c:fa:c9:9b:48:39:7b:89:f5:a0:1e:ff:11:d3:9c:78:
         b1:b2:f6:4d:b1:e8:b3:98:23:2c:d4:20:e1:a1:01:3e:26:0a:
         5b:8e:eb:58:45:22:cf:e1:94:ad:84:40:b0:fb:ff:25:5f:31:
         9a:49:0b:36:ad:c6:1a:b0:42:60:40:e2:a2:3c:5a:36:41:89:
         fc:10:c4:60:ea:d4:85:7b:36:84:df:aa:81:cc:69:e7:52:ca:
         c1:46:b1:79:93:51:4f:24:84:42:14:3a:20:a0:6c:27:76:40:
         0f:96:7e:4e:c3:0c:37:b3:e3:73:49:86:58:31:00:1e:e7:0f:
         87:74:b6:4e:6e:1c:7d:87:a4:33:04:c9:76:ec:e5:3a:85:5f:
         a8:d1:ad:21:64:5e:c5:6a:df:b1:02:6e:65:a4:87:72:06:07:
         da:e5:f2:af:2b:a5:eb:18:80:67:83:a5:3c:e6:ed:d1:58:f9:
         90:5c:d6:e9:2f:76:c1:58:13:b8:bd:88:8a:f3:04:48:bb:42:
         8f:7f:c6:db:b4:30:3f:bb:6c:d5:47:e5:ae:8d:4b:da:92:a5:
         db:d3:6e:a8:9b:c2:6b:56:af:34:63:82:e6:78:f8:1f:54:d7:
         41:aa:a3:c9:7c:a6:83:41:bf:6e:33:7c:ae:e6:92:bd:da:27:
         b4:bc:e2:90:4f:33:1b:01:a1:cd:02:13:7a:31:ef:00:d6:9a:
         6e:38:6b:a7:cb:70:98:a8:0f:ff:1c:56:a8:b7:e6:d2:42:5a:
         bb:f4:78:27:71:13:d0:e8:43:eb:bc:2d:4f:e4:ea:4d:4f:76:
         7f:53:38:34:eb:13:e2:3d:c6:14:98:86:1c:ab:2c:0e:b7:68:
         2e:bd:63:a9:6a:8f:d5:22:2d:ab:13:d7:62:54:51:ff:5c:37:
         08:04:27:da:f9:57:77:05:18:73:88:5f:b0:c1:65:50:36:09:
         d6:c7:f5:ae:6e:3f:04:d1:84:3c:21:74:1d:bd:0a:fb:76:d0:
         13:2b:62:bb:24:48:43:89:d0:18:5c:b4:ad:ea:98:af:6d:fc:
         1c:6b:1f:06:64:54:23:88
-----BEGIN CERTIFICATE-----
MIIFwzCCA6ugAwIBAgIJAI3Srzf5ypILMA0GCSqGSIb3DQEBBQUAMCkxCzAJBgNV
BAYTAkJFMRowGAYDVQQDExF0eGpzb25ycGMtdGVzdC1jYTAeFw0xMjA2MjMxNTQ2
MzdaFw0yMjA2MjExNTQ2MzdaMCkxCzAJBgNVBAYTAkJFMRowGAYDVQQDExF0eGpz
b25ycGMtdGVzdC1jYTCCAiIwDQYJKoZIhvcNAQEBBQADggIPADCCAgoCggIBANEl
r3fFqHLPkLk5EPt7dSyh2mqV5UQM1iVLWH+7B4JZSVgyhSTMPnfb4adPyLXL7kU4
vbz743Y7iATKqzqjljtfk5wopmGX3KI/oJMrVmzP009qngXTHM3vdYAamLeSSRQz
uMR8c4x+g6WBolmMi6NRNm1orPLx7W9J2a96Y8FDMUK2x825eLczmHCSbJ4Eenvw
bTiH6wATF7nZ7LRmu1HT/YHjDohxI9KAKmHeqyUCR6nBa8lprtpHtkl0rKbhwXa6
bbHZaG4cN6jiGGA3tlgTbMeSfMZFjO/DgXMQ3C8x4rkFWp4ocFo+HbhocYHJ6P4f
w6AT+OQkErqRjhXSA/GMsKriNORr+Ab2I4qSQ6YF3OnHpagG126RUnJHq66H/rMP
BIdvSyIp6akGUlh9AxbX1TFEtPFRRKcqul4JGexMouBY/g1Ot5BNAqwqrZkUZTsK
PHNFVrIPECUkUXlXGjQaEG9g4PyB28rC4oUbTHITXJ12zNAhMzFWgo/FV7lE/Yt2
wbbkIYs1mu5UdJ9yaxmE16I8pW4RCvGTBC7dfEx9YhDUG4uH9u2/ErGL8Jp67gKU
4TxGK3+cVPsuYckc7/zeJbwtdRsfSV5EOxWTrcSJ2a482lTv2a86FsuUG2oU5EL5
dTNGbvtAvPiCNs9g9cKimCOnKq7BqiL4h9q3nKTPAgMBAAGjge0wgeowHQYDVR0O
BBYEFJ2PhHaUzQf+o+iL1/nZbu/KdVF7MFkGA1UdIwRSMFCAFJ2PhHaUzQf+o+iL
1/nZbu/KdVF7oS2kKzApMQswCQYDVQQGEwJCRTEaMBgGA1UEAxMRdHhqc29ucnBj
LXRlc3QtY2GCCQCN0q83+cqSCzAPBgNVHRMBAf8EBTADAQH/MBEGCWCGSAGG+EIB
AQQEAwIBBjAJBgNVHRIEAjAAMCQGCWCGSAGG+EIBDQQXFhVUZXN0IENBIGZvciB0
eGpzb25yY3AwCQYDVR0RBAIwADAOBgNVHQ8BAf8EBAMCAQYwDQYJKoZIhvcNAQEF
BQADggIBAAaChoGpG34t7/X8zNKd1oKt0G9+Pblcsg86ZCGa+1Oyk4HcGiT8uDBX
osdxDZwaC4psiVKLivWvlT64CDnuNlCsYE3fK0micvE/EjzZVVakmncrd/oWtXbZ
9MRRa7n+L6NS6GSASSJtBUKHr52FbPrJm0g5e4n1oB7/EdOceLGy9k2x6LOYIyzU
IOGhAT4mCluO61hFIs/hlK2EQLD7/yVfMZpJCzatxhqwQmBA4qI8WjZBifwQxGDq
1IV7NoTfqoHMaedSysFGsXmTUU8khEIUOiCgbCd2QA+Wfk7DDDez43NJhlgxAB7n
D4d0tk5uHH2HpDMEyXbs5TqFX6jRrSFkXsVq37ECbmWkh3IGB9rl8q8rpesYgGeD
pTzm7dFY+ZBc1ukvdsFYE7i9iIrzBEi7Qo9/xtu0MD+7bNVH5a6NS9qSpdvTbqib
wmtWrzRjguZ4+B9U10Gqo8l8poNBv24zfK7mkr3aJ7S84pBPMxsBoc0CE3ox7wDW
mm44a6fLcJioD/8cVqi35tJCWrv0eCdxE9DoQ+u8LU/k6k1Pdn9TODTrE+I9xhSY
hhyrLA63aC69Y6lqj9UiLasT12JUUf9cNwgEJ9r5V3cFGHOIX7DBZVA2CdbH9a5u
PwTRhDwhdB29Cvt20BMrYrskSEOJ0BhctK3qmK9t/BxrHwZkVCOI
-----END CERTIFICATE-----
