Certificate:
    Data:
        Version: 4 (0x3)
        Serial Number: 1 (0x1)
    Signature Algorithm: sha1WithRSAEncryption
        Issuer: C=BE, CN=txjsonrpc-test-ca
        Validity
            Not Before: Jan  1 00:00:00 1970 GMT
            Not After : Jan 19 03:14:07 2038 GMT
        Subject: CN=ca-none, C=BE, O=Gremwell bvba
        Subject Public Key Info:
            Public Key Algorithm: rsaEncryption
                Public-Key: (1024 bit)
                Modulus:
                    00:cd:9f:95:a3:c2:7c:fa:f2:d5:5b:e3:91:7b:11:
                    7e:71:03:45:52:fc:40:1f:a9:41:ed:de:cb:08:71:
                    d7:39:57:d1:86:18:b6:0d:4c:79:e2:d9:1b:7a:7f:
                    72:a2:84:7e:fb:65:d4:c7:1f:65:30:e0:01:eb:dd:
                    5e:e8:59:00:05:c5:ce:22:30:62:26:c2:e5:c9:bb:
                    89:a7:a8:13:22:6e:74:d8:19:13:e4:95:fe:e1:63:
                    59:98:4d:48:b8:9b:0d:b5:a8:5b:d1:10:75:92:dc:
                    85:07:82:1c:14:a3:27:8e:97:bb:39:92:91:0e:35:
                    8a:0c:c8:18:83:c3:6d:25:a9
                Exponent: 65537 (0x10001)
    Signature Algorithm: sha1WithRSAEncryption
         a6:c2:f1:1f:4f:08:77:f0:9a:bd:b9:f8:fc:ea:75:1f:b7:0c:
         04:9b:7e:55:ad:bc:f0:94:61:f3:bb:e5:c0:f3:75:e2:1e:22:
         e9:14:22:e7:77:4d:f6:6f:e6:1f:5b:ed:e6:fd:78:6b:34:68:
         25:be:43:21:fc:1d:3b:e5:da:65:0e:4f:41:aa:35:97:eb:79:
         90:c5:3c:16:e9:e7:c5:dd:f2:70:a0:0c:71:ed:d4:30:bc:59:
         af:f7:fb:d6:0d:a6:a5:e6:3b:b9:2d:55:7f:2f:98:46:20:b4:
         50:cf:e0:32:bc:56:04:bc:b2:3c:8d:bd:9a:7d:50:b2:14:43:
         01:ff:77:02:2e:7f:af:18:01:4e:bd:46:25:28:17:55:95:20:
         68:31:88:3e:02:ce:a7:10:79:f6:8c:76:0d:31:cc:18:23:23:
         07:5b:06:33:43:16:dc:7d:af:c8:6a:d0:ff:99:4c:fb:88:97:
         cb:d5:ab:82:3e:4b:4e:71:e3:25:18:7c:de:f8:f6:f2:bc:c0:
         8a:20:cf:5b:e4:f8:4f:08:22:6e:e4:c8:65:3c:15:ef:66:0c:
         50:b6:84:53:aa:91:46:8c:78:ee:41:9e:c7:a7:41:a1:98:60:
         66:17:b2:c1:55:67:26:43:19:07:79:10:81:f5:fd:56:34:3a:
         67:4a:01:f1:66:c9:69:c8:7b:11:c7:ba:b2:88:4a:9f:ea:e9:
         c3:38:3b:22:80:1b:4e:8b:2d:7f:69:b6:ae:8e:b7:02:ce:5f:
         f5:fe:6c:fd:9c:6d:af:a1:4a:02:57:2d:f3:16:b2:b2:aa:2a:
         bb:85:4e:ac:2e:8b:c6:9a:1b:13:fb:81:8b:8b:28:d2:7d:e9:
         04:88:4b:c9:66:e5:66:c9:33:00:e3:f5:cd:51:7c:78:93:ab:
         8e:09:79:90:4f:08:63:94:29:63:b7:8a:74:ce:4f:4b:f1:e3:
         91:0d:33:6d:4f:b9:e0:07:0d:b8:e6:21:df:82:84:62:2d:6d:
         a2:a9:21:67:a2:52:a4:63:c8:ce:b5:c1:0a:67:5b:66:a5:72:
         4a:24:d3:d3:07:35:3a:7c:00:3b:bb:ab:6d:9e:61:7d:18:6a:
         7f:4c:59:6b:5a:f3:e8:6b:8d:c5:9a:f1:1e:67:d1:68:ed:21:
         37:06:85:57:6f:db:6d:ea:38:45:ae:18:ec:ba:f7:90:1e:e1:
         f9:be:ec:6c:fe:ff:7c:29:9b:d3:c7:45:63:52:b1:79:ea:c4:
         b6:59:ed:ac:65:6c:90:e6:41:df:17:07:18:13:58:82:28:75:
         b9:30:4a:24:66:89:40:00:40:57:0e:bb:2b:00:cc:5e:1e:c3:
         e4:04:f2:8b:d6:ae:8b:6f
-----BEGIN CERTIFICATE-----
MIIDVTCCAT2gAwIBAwIBATANBgkqhkiG9w0BAQUFADApMQswCQYDVQQGEwJCRTEa
MBgGA1UEAxMRdHhqc29ucnBjLXRlc3QtY2EwHhcNNzAwMTAxMDAwMDAwWhcNMzgw
MTE5MDMxNDA3WjA3MRAwDgYDVQQDEwdjYS1ub25lMQswCQYDVQQGEwJCRTEWMBQG
A1UEChMNR3JlbXdlbGwgYnZiYTCBnzANBgkqhkiG9w0BAQEFAAOBjQAwgYkCgYEA
zZ+Vo8J8+vLVW+ORexF+cQNFUvxAH6lB7d7LCHHXOVfRhhi2DUx54tkben9yooR+
+2XUxx9lMOAB691e6FkABcXOIjBiJsLlybuJp6gTIm502BkT5JX+4WNZmE1IuJsN
tahb0RB1ktyFB4IcFKMnjpe7OZKRDjWKDMgYg8NtJakCAwEAATANBgkqhkiG9w0B
AQUFAAOCAgEApsLxH08Id/Cavbn4/Op1H7cMBJt+Va288JRh87vlwPN14h4i6RQi
53dN9m/mH1vt5v14azRoJb5DIfwdO+XaZQ5PQao1l+t5kMU8Funnxd3ycKAMce3U
MLxZr/f71g2mpeY7uS1Vfy+YRiC0UM/gMrxWBLyyPI29mn1QshRDAf93Ai5/rxgB
Tr1GJSgXVZUgaDGIPgLOpxB59ox2DTHMGCMjB1sGM0MW3H2vyGrQ/5lM+4iXy9Wr
gj5LTnHjJRh83vj28rzAiiDPW+T4TwgibuTIZTwV72YMULaEU6qRRox47kGex6dB
oZhgZheywVVnJkMZB3kQgfX9VjQ6Z0oB8WbJach7Ece6sohKn+rpwzg7IoAbTost
f2m2ro63As5f9f5s/Zxtr6FKAlct8xaysqoqu4VOrC6LxpobE/uBi4so0n3pBIhL
yWblZskzAOP1zVF8eJOrjgl5kE8IY5QpY7eKdM5PS/HjkQ0zbU+54AcNuOYh34KE
Yi1toqkhZ6JSpGPIzrXBCmdbZqVySiTT0wc1OnwAO7urbZ5hfRhqf0xZa1rz6GuN
xZrxHmfRaO0hNwaFV2/bbeo4Ra4Y7Lr3kB7h+b7sbP7/fCmb08dFY1KxeerEtlnt
rGVskOZB3xcHGBNYgih1uTBKJGaJQABAVw67KwDMXh7D5ATyi9aui28=
-----END CERTIFICATE-----
Certificate:
    Data:
        Version: 3 (0x2)
        Serial Number: 10219423159405941259 (0x8dd2af37f9ca920b)
    Signature Algorithm: sha1WithRSAEncryption
        Issuer: C=BE, CN=txjsonrpc-test-ca
        Validity
            Not Before: Jun 23 15:46:37 2012 GMT
            Not After : Jun 21 15:46:37 2022 GMT
        Subject: C=BE, CN=txjsonrpc-test-ca
        Subject Public Key Info:
            Public Key Algorithm: rsaEncryption
                Public-Key: (4096 bit)
                Modulus:
                    00:d1:25:af:77:c5:a8:72:cf:90:b9:39:10:fb:7b:
                    75:2c:a1:da:6a:95:e5:44:0c:d6:25:4b:58:7f:bb:
                    07:82:59:49:58:32:85:24:cc:3e:77:db:e1:a7:4f:
                    c8:b5:cb:ee:45:38:bd:bc:fb:e3:76:3b:88:04:ca:
                    ab:3a:a3:96:3b:5f:93:9c:28:a6:61:97:dc:a2:3f:
                    a0:93:2b:56:6c:cf:d3:4f:6a:9e:05:d3:1c:cd:ef:
                    75:80:1a:98:b7:92:49:14:33:b8:c4:7c:73:8c:7e:
                    83:a5:81:a2:59:8c:8b:a3:51:36:6d:68:ac:f2:f1:
                    ed:6f:49:d9:af:7a:63:c1:43:31:42:b6:c7:cd:b9:
                    78:b7:33:98:70:92:6c:9e:04:7a:7b:f0:6d:38:87:
                    eb:00:13:17:b9:d9:ec:b4:66:bb:51:d3:fd:81:e3:
                    0e:88:71:23:d2:80:2a:61:de:ab:25:02:47:a9:c1:
                    6b:c9:69:ae:da:47:b6:49:74:ac:a6:e1:c1:76:ba:
                    6d:b1:d9:68:6e:1c:37:a8:e2:18:60:37:b6:58:13:
                    6c:c7:92:7c:c6:45:8c:ef:c3:81:73:10:dc:2f:31:
                    e2:b9:05:5a:9e:28:70:5a:3e:1d:b8:68:71:81:c9:
                    e8:fe:1f:c3:a0:13:f8:e4:24:12:ba:91:8e:15:d2:
                    03:f1:8c:b0:aa:e2:34:e4:6b:f8:06:f6:23:8a:92:
                    43:a6:05:dc:e9:c7:a5:a8:06:d7:6e:91:52:72:47:
                    ab:ae:87:fe:b3:0f:04:87:6f:4b:22:29:e9:a9:06:
                    52:58:7d:03:16:d7:d5:31:44:b4:f1:51:44:a7:2a:
                    ba:5e:09:19:ec:4c:a2:e0:58:fe:0d:4e:b7:90:4d:
                    02:ac:2a:ad:99:14:65:3b:0a:3c:73:45:56:b2:0f:
                    10:25:24:51:79:57:1a:34:1a:10:6f:60:e0:fc:81:
                    db:ca:c2:e2:85:1b:4c:72:13:5c:9d:76:cc:d0:21:
                    33:31:56:82:8f:c5:57:b9:44:fd:8b:76:c1:b6:e4:
                    21:8b:35:9a:ee:54:74:9f:72:6b:19:84:d7:a2:3c:
                    a5:6e:11:0a:f1:93:04:2e:dd:7c:4c:7d:62:10:d4:
                    1b:8b:87:f6:ed:bf:12:b1:8b:f0:9a:7a:ee:02:94:
                    e1:3c:46:2b:7f:9c:54:fb:2e:61:c9:1c:ef:fc:de:
                    25:bc:2d:75:1b:1f:49:5e:44:3b:15:93:ad:c4:89:
                    d9:ae:3c:da:54:ef:d9:af:3a:16:cb:94:1b:6a:14:
                    e4:42:f9:75:33:46:6e:fb:40:bc:f8:82:36:cf:60:
                    f5:c2:a2:98:23:a7:2a:ae:c1:aa:22:f8:87:da:b7:
                    9c:a4:cf
                Exponent: 65537 (0x10001)
        X509v3 extensions:
            X509v3 Subject Key Identifier: 
                9D:8F:84:76:94:CD:07:FE:A3:E8:8B:D7:F9:D9:6E:EF:CA:75:51:7B
            X509v3 Authority Key Identifier: 
                keyid:9D:8F:84:76:94:CD:07:FE:A3:E8:8B:D7:F9:D9:6E:EF:CA:75:51:7B
                DirName:/C=BE/CN=txjsonrpc-test-ca
                serial:8D:D2:AF:37:F9:CA:92:0B

            X509v3 Basic Constraints: critical
                CA:TRUE
            Netscape Cert Type: 
                SSL CA, S/MIME CA
            X509v3 Issuer Alternative Name: 
                <EMPTY>

            Netscape Comment: 
                Test CA for txjsonrcp
            X509v3 Subject Alternative Name: 
                <EMPTY>

            X509v3 Key Usage: critical
                Certificate Sign, CRL Sign
    Signature Algorithm: sha1WithRSAEncryption
         06:82:86:81:a9:1b:7e:2d:ef:f5:fc:cc:d2:9d:d6:82:ad:d0:
         6f:7e:3d:b9:5c:b2:0f:3a:64:21:9a:fb:53:b2:93:81:dc:1a:
         24:fc:b8:30:57:a2:c7:71:0d:9c:1a:0b:8a:6c:89:52:8b:8a:
         f5:af:95:3e:b8:08:39:ee:36:50:ac:60:4d:df:2b:49:a2:72:
         f1:3f:12:3c:d9:55:56:a4:9a:77:2b:77:fa:16:b5:76:d9:f4:
         c4:51:6b:b9:fe:2f:a3:52:e8:64:80:49:22:6d:05:42:87:af:
         9d:85:6c:fa:c9:9b:48:39:7b:89:f5:a0:1e:ff:11:d3:9c:78:
         b1:b2:f6:4d:b1:e8:b3:98:23:2c:d4:20:e1:a1:01:3e:26:0a:
         5b:8e:eb:58:45:22:cf:e1:94:ad:84:40:b0:fb:ff:25:5f:31:
         9a:49:0b:36:ad:c6:1a:b0:42:60:40:e2:a2:3c:5a:36:41:89:
         fc:10:c4:60:ea:d4:85:7b:36:84:df:aa:81:cc:69:e7:52:ca:
         c1:46:b1:79:93:51:4f:24:84:42:14:3a:20:a0:6c:27:76:40:
         0f:96:7e:4e:c3:0c:37:b3:e3:73:49:86:58:31:00:1e:e7:0f:
         87:74:b6:4e:6e:1c:7d:87:a4:33:04:c9:76:ec:e5:3a:85:5f:
         a8:d1:ad:21:64:5e:c5:6a:df:b1:02:6e:65:a4:87:72:06:07:
         da:e5:f2:af:2b:a5:eb:18:80:67:83:a5:3c:e6:ed:d1:58:f9:
         90:5c:d6:e9:2f:76:c1:58:13:b8:bd:88:8a:f3:04:48:bb:42:
         8f:7f:c6:db:b4:30:3f:bb:6c:d5:47:e5:ae:8d:4b:da:92:a5:
         db:d3:6e:a8:9b:c2:6b:56:af:34:63:82:e6:78:f8:1f:54:d7:
         41:aa:a3:c9:7c:a6:83:41:bf:6e:33:7c:ae:e6:92:bd:da:27:
         b4:bc:e2:90:4f:33:1b:01:a1:cd:02:13:7a:31:ef:00:d6:9a:
         6e:38:6b:a7:cb:70:98:a8:0f:ff:1c:56:a8:b7:e6:d2:42:5a:
         bb:f4:78:27:71:13:d0:e8:43:eb:bc:2d:4f:e4:ea:4d:4f:76:
         7f:53:38:34:eb:13:e2:3d:c6:14:98:86:1c:ab:2c:0e:b7:68:
         2e:bd:63:a9:6a:8f:d5:22:2d:ab:13:d7:62:54:51:ff:5c:37:
         08:04:27:da:f9:57:77:05:18:73:88:5f:b0:c1:65:50:36:09:
         d6:c7:f5:ae:6e:3f:04:d1:84:3c:21:74:1d:bd:0a:fb:76:d0:
         13:2b:62:bb:24:48:43:89:d0:18:5c:b4:ad:ea:98:af:6d:fc:
         1c:6b:1f:06:64:54:23:88
-----BEGIN CERTIFICATE-----
MIIFwzCCA6ugAwIBAgIJAI3Srzf5ypILMA0GCSqGSIb3DQEBBQUAMCkxCzAJBgNV
BAYTAkJFMRowGAYDVQQDExF0eGpzb25ycGMtdGVzdC1jYTAeFw0xMjA2MjMxNTQ2
MzdaFw0yMjA2MjExNTQ2MzdaMCkxCzAJBgNVBAYTAkJFMRowGAYDVQQDExF0eGpz
b25ycGMtdGVzdC1jYTCCAiIwDQYJKoZIhvcNAQEBBQADggIPADCCAgoCggIBANEl
r3fFqHLPkLk5EPt7dSyh2mqV5UQM1iVLWH+7B4JZSVgyhSTMPnfb4adPyLXL7kU4
vbz743Y7iATKqzqjljtfk5wopmGX3KI/oJMrVmzP009qngXTHM3vdYAamLeSSRQz
uMR8c4x+g6WBolmMi6NRNm1orPLx7W9J2a96Y8FDMUK2x825eLczmHCSbJ4Eenvw
bTiH6wATF7nZ7LRmu1HT/YHjDohxI9KAKmHeqyUCR6nBa8lprtpHtkl0rKbhwXa6
bbHZaG4cN6jiGGA3tlgTbMeSfMZFjO/DgXMQ3C8x4rkFWp4ocFo+HbhocYHJ6P4f
w6AT+OQkErqRjhXSA/GMsKriNORr+Ab2I4qSQ6YF3OnHpagG126RUnJHq66H/rMP
BIdvSyIp6akGUlh9AxbX1TFEtPFRRKcqul4JGexMouBY/g1Ot5BNAqwqrZkUZTsK
PHNFVrIPECUkUXlXGjQaEG9g4PyB28rC4oUbTHITXJ12zNAhMzFWgo/FV7lE/Yt2
wbbkIYs1mu5UdJ9yaxmE16I8pW4RCvGTBC7dfEx9YhDUG4uH9u2/ErGL8Jp67gKU
4TxGK3+cVPsuYckc7/zeJbwtdRsfSV5EOxWTrcSJ2a482lTv2a86FsuUG2oU5EL5
dTNGbvtAvPiCNs9g9cKimCOnKq7BqiL4h9q3nKTPAgMBAAGjge0wgeowHQYDVR0O
BBYEFJ2PhHaUzQf+o+iL1/nZbu/KdVF7MFkGA1UdIwRSMFCAFJ2PhHaUzQf+o+iL
1/nZbu/KdVF7oS2kKzApMQswCQYDVQQGEwJCRTEaMBgGA1UEAxMRdHhqc29ucnBj
LXRlc3QtY2GCCQCN0q83+cqSCzAPBgNVHRMBAf8EBTADAQH/MBEGCWCGSAGG+EIB
AQQEAwIBBjAJBgNVHRIEAjAAMCQGCWCGSAGG+EIBDQQXFhVUZXN0IENBIGZvciB0
eGpzb25yY3AwCQYDVR0RBAIwADAOBgNVHQ8BAf8EBAMCAQYwDQYJKoZIhvcNAQEF
BQADggIBAAaChoGpG34t7/X8zNKd1oKt0G9+Pblcsg86ZCGa+1Oyk4HcGiT8uDBX
osdxDZwaC4psiVKLivWvlT64CDnuNlCsYE3fK0micvE/EjzZVVakmncrd/oWtXbZ
9MRRa7n+L6NS6GSASSJtBUKHr52FbPrJm0g5e4n1oB7/EdOceLGy9k2x6LOYIyzU
IOGhAT4mCluO61hFIs/hlK2EQLD7/yVfMZpJCzatxhqwQmBA4qI8WjZBifwQxGDq
1IV7NoTfqoHMaedSysFGsXmTUU8khEIUOiCgbCd2QA+Wfk7DDDez43NJhlgxAB7n
D4d0tk5uHH2HpDMEyXbs5TqFX6jRrSFkXsVq37ECbmWkh3IGB9rl8q8rpesYgGeD
pTzm7dFY+ZBc1ukvdsFYE7i9iIrzBEi7Qo9/xtu0MD+7bNVH5a6NS9qSpdvTbqib
wmtWrzRjguZ4+B9U10Gqo8l8poNBv24zfK7mkr3aJ7S84pBPMxsBoc0CE3ox7wDW
mm44a6fLcJioD/8cVqi35tJCWrv0eCdxE9DoQ+u8LU/k6k1Pdn9TODTrE+I9xhSY
hhyrLA63aC69Y6lqj9UiLasT12JUUf9cNwgEJ9r5V3cFGHOIX7DBZVA2CdbH9a5u
PwTRhDwhdB29Cvt20BMrYrskSEOJ0BhctK3qmK9t/BxrHwZkVCOI
-----END CERTIFICATE-----
