Certificate:
    Data:
        Version: 4 (0x3)
        Serial Number: 1 (0x1)
    Signature Algorithm: sha1WithRSAEncryption
        Issuer: CN=ca-false, C=BE, O=Gremwell bvba
        Validity
            Not Before: Jan  1 00:00:00 1970 GMT
            Not After : Jan 19 03:14:07 2038 GMT
        Subject: CN=www.example.com, C=BE, O=Gremwell bvba
        Subject Public Key Info:
            Public Key Algorithm: rsaEncryption
                Public-Key: (1024 bit)
                Modulus:
                    00:a6:90:ac:4b:c3:38:fb:14:34:48:65:41:a6:99:
                    e0:8d:9e:10:a2:19:92:71:53:00:bd:07:8d:73:e7:
                    61:3a:91:6a:71:93:de:09:96:2f:b4:df:55:84:e0:
                    72:45:61:ea:ee:0d:f8:37:7f:f9:ed:f2:20:c0:ed:
                    2c:56:29:08:4c:78:10:76:1f:52:7d:ec:38:0d:e2:
                    e9:22:a6:2b:1b:51:da:cc:7a:90:0e:48:c2:ed:44:
                    81:b5:43:6a:fc:68:12:13:56:3b:fb:23:84:67:51:
                    8a:eb:14:6d:01:2c:da:05:58:32:21:4a:b0:2f:82:
                    6b:52:f5:2f:30:80:8a:54:eb
                Exponent: 65537 (0x10001)
    Signature Algorithm: sha1WithRSAEncryption
         4a:b6:d8:88:b8:42:ac:e1:92:59:94:f9:14:d0:ee:90:0c:11:
         75:4f:43:15:c1:93:fe:ad:35:de:c0:c8:bb:a7:e1:9f:4b:77:
         da:a5:f6:d3:3a:08:14:83:c7:b6:b0:f6:75:a1:ca:18:90:6d:
         d4:31:e6:8a:1b:f9:e5:78:33:79:f7:33:3c:54:fe:88:93:f4:
         1c:c5:db:de:03:9f:c1:b6:71:43:59:0e:40:8f:28:7a:e2:e5:
         49:b3:5c:ab:ff:f4:95:d6:1e:ac:9f:5e:36:82:ef:a6:a0:bc:
         77:90:bf:6d:30:5a:e9:d9:62:b3:34:31:f1:db:87:89:05:0c:
         84:76
-----BEGIN CERTIFICATE-----
MIIB6zCCAVSgAwIBAwIBATANBgkqhkiG9w0BAQUFADA4MREwDwYDVQQDEwhjYS1m
YWxzZTELMAkGA1UEBhMCQkUxFjAUBgNVBAoTDUdyZW13ZWxsIGJ2YmEwHhcNNzAw
MTAxMDAwMDAwWhcNMzgwMTE5MDMxNDA3WjA/MRgwFgYDVQQDEw93d3cuZXhhbXBs
ZS5jb20xCzAJBgNVBAYTAkJFMRYwFAYDVQQKEw1HcmVtd2VsbCBidmJhMIGfMA0G
CSqGSIb3DQEBAQUAA4GNADCBiQKBgQCmkKxLwzj7FDRIZUGmmeCNnhCiGZJxUwC9
B41z52E6kWpxk94Jli+031WE4HJFYeruDfg3f/nt8iDA7SxWKQhMeBB2H1J97DgN
4ukipisbUdrMepAOSMLtRIG1Q2r8aBITVjv7I4RnUYrrFG0BLNoFWDIhSrAvgmtS
9S8wgIpU6wIDAQABMA0GCSqGSIb3DQEBBQUAA4GBAEq22Ii4QqzhklmU+RTQ7pAM
EXVPQxXBk/6tNd7AyLun4Z9Ld9ql9tM6CBSDx7aw9nWhyhiQbdQx5oob+eV4M3n3
MzxU/oiT9BzF294Dn8G2cUNZDkCPKHri5UmzXKv/9JXWHqyfXjaC76agvHeQv20w
WunZYrM0MfHbh4kFDIR2
-----END CERTIFICATE-----
Certificate:
    Data:
        Version: 4 (0x3)
        Serial Number: 1 (0x1)
    Signature Algorithm: sha1WithRSAEncryption
        Issuer: C=BE, CN=txjsonrpc-test-ca
        Validity
            Not Before: Jan  1 00:00:00 1970 GMT
            Not After : Jan 19 03:14:07 2038 GMT
        Subject: CN=ca-false, C=BE, O=Gremwell bvba
        Subject Public Key Info:
            Public Key Algorithm: rsaEncryption
                Public-Key: (1024 bit)
                Modulus:
                    00:dd:da:39:8d:cf:d6:64:27:91:c4:9e:3f:d7:93:
                    5e:49:bf:05:c4:ec:12:52:2b:09:47:5a:6c:81:59:
                    12:9a:4b:54:c1:b4:b1:49:59:86:79:f1:d7:7c:20:
                    cb:c4:ab:52:3e:7b:f0:25:e6:dc:5e:b4:84:df:77:
                    f6:68:e9:da:d8:fc:cb:b6:30:b9:9a:f6:ad:91:86:
                    9b:6a:7e:ed:ed:d9:23:1f:c6:23:d6:00:fa:2b:8a:
                    63:01:3f:45:8a:17:cc:d8:32:8f:aa:da:62:15:d8:
                    62:42:a3:f4:a8:45:40:86:f5:38:3c:13:c1:09:03:
                    4c:5e:01:e7:b1:9f:77:48:65
                Exponent: 65537 (0x10001)
        X509v3 extensions:
            X509v3 Basic Constraints: critical
                CA:FALSE
    Signature Algorithm: sha1WithRSAEncryption
         7b:b4:71:e3:ed:88:d5:26:3e:96:86:55:79:96:01:22:fc:b1:
         60:80:03:da:99:af:22:4d:eb:d5:99:3d:13:d9:07:f2:c9:7e:
         2f:67:14:f2:5f:35:c8:14:36:5d:7a:ab:e9:e0:78:a6:96:f4:
         c7:1e:d8:d8:92:7c:39:44:b4:ea:7e:5f:44:11:b7:9f:1e:9c:
         8f:98:84:62:98:ee:9e:41:a4:3d:d1:31:96:82:b8:7c:98:8c:
         d8:10:7b:c8:d6:ba:eb:7a:6f:e6:29:81:57:a7:bf:41:ef:58:
         3e:99:79:45:e4:b4:e7:fc:78:04:9b:b4:3a:da:81:9f:0f:2d:
         79:28:87:bd:c8:b7:75:f0:fc:ab:20:1a:a2:27:95:8b:73:b3:
         22:28:65:bf:0b:aa:40:6d:b0:64:73:11:e3:53:8d:3c:40:db:
         26:52:6c:b6:14:09:4d:01:e2:de:47:dc:2d:2b:37:68:45:da:
         80:91:c4:20:5e:03:9d:4e:ac:36:ca:6c:32:8f:f8:6a:6d:a9:
         42:88:20:11:fc:d3:d7:28:58:bb:8f:cc:1e:c1:be:2c:8c:83:
         50:8e:a4:c7:ff:a9:99:57:c1:3b:9a:94:19:30:9b:e5:16:8c:
         36:81:93:30:e9:b9:b6:82:48:1d:b6:2d:b7:cd:34:31:15:4f:
         f4:78:fb:f6:ef:62:66:2d:c7:3e:8a:65:27:dd:4f:df:b9:09:
         d1:cb:28:74:4e:bb:e1:97:33:cd:4b:1f:69:23:d6:b0:11:c6:
         a7:d1:4c:91:26:e3:ce:34:85:1f:c8:3a:a0:8f:93:2f:e4:c0:
         d8:e8:a1:33:b5:cb:4b:3f:cf:14:8b:01:ec:67:e6:3a:8d:5f:
         e9:23:28:e4:7e:b7:df:db:b4:4a:d5:c4:01:ef:21:f4:59:4b:
         31:60:1f:b7:ad:27:7a:0d:5c:99:ff:1f:8e:84:25:d8:48:29:
         92:96:e4:40:47:b0:8b:72:17:81:e2:3f:87:2e:73:71:c3:b1:
         fb:36:32:dc:67:5c:41:9c:9a:da:6f:e8:e9:1c:d6:fc:35:3e:
         3f:e1:0c:21:87:d6:56:61:73:be:4a:76:61:bf:a4:63:b7:7c:
         5d:98:41:90:5c:c4:fa:f0:02:28:fe:0c:59:5c:a6:a9:f1:11:
         c8:7a:22:f6:b8:73:31:ea:d1:27:ad:7b:03:2e:79:4a:3a:96:
         87:7b:61:0a:7f:e2:44:16:26:c3:6c:f1:ac:23:09:65:e8:71:
         09:7e:f2:ab:34:d5:60:b4:9e:4a:e0:96:b8:29:c2:52:e5:09:
         fd:d9:e5:16:58:f7:cc:b0:c3:50:87:a9:6b:1d:79:be:08:c1:
         4c:a9:2b:ca:bb:28:8c:e1
-----BEGIN CERTIFICATE-----
MIIDaDCCAVCgAwIBAwIBATANBgkqhkiG9w0BAQUFADApMQswCQYDVQQGEwJCRTEa
MBgGA1UEAxMRdHhqc29ucnBjLXRlc3QtY2EwHhcNNzAwMTAxMDAwMDAwWhcNMzgw
MTE5MDMxNDA3WjA4MREwDwYDVQQDEwhjYS1mYWxzZTELMAkGA1UEBhMCQkUxFjAU
BgNVBAoTDUdyZW13ZWxsIGJ2YmEwgZ8wDQYJKoZIhvcNAQEBBQADgY0AMIGJAoGB
AN3aOY3P1mQnkcSeP9eTXkm/BcTsElIrCUdabIFZEppLVMG0sUlZhnnx13wgy8Sr
Uj578CXm3F60hN939mjp2tj8y7YwuZr2rZGGm2p+7e3ZIx/GI9YA+iuKYwE/RYoX
zNgyj6raYhXYYkKj9KhFQIb1ODwTwQkDTF4B57Gfd0hlAgMBAAGjEDAOMAwGA1Ud
EwEB/wQCMAAwDQYJKoZIhvcNAQEFBQADggIBAHu0cePtiNUmPpaGVXmWASL8sWCA
A9qZryJN69WZPRPZB/LJfi9nFPJfNcgUNl16q+ngeKaW9Mce2NiSfDlEtOp+X0QR
t58enI+YhGKY7p5BpD3RMZaCuHyYjNgQe8jWuut6b+YpgVenv0HvWD6ZeUXktOf8
eASbtDragZ8PLXkoh73It3Xw/KsgGqInlYtzsyIoZb8LqkBtsGRzEeNTjTxA2yZS
bLYUCU0B4t5H3C0rN2hF2oCRxCBeA51OrDbKbDKP+GptqUKIIBH809coWLuPzB7B
viyMg1COpMf/qZlXwTualBkwm+UWjDaBkzDpubaCSB22LbfNNDEVT/R4+/bvYmYt
xz6KZSfdT9+5CdHLKHROu+GXM81LH2kj1rARxqfRTJEm4840hR/IOqCPky/kwNjo
oTO1y0s/zxSLAexn5jqNX+kjKOR+t9/btErVxAHvIfRZSzFgH7etJ3oNXJn/H46E
JdhIKZKW5EBHsItyF4HiP4cuc3HDsfs2MtxnXEGcmtpv6Okc1vw1Pj/hDCGH1lZh
c75KdmG/pGO3fF2YQZBcxPrwAij+DFlcpqnxEch6Iva4czHq0SetewMueUo6lod7
YQp/4kQWJsNs8awjCWXocQl+8qs01WC0nkrglrgpwlLlCf3Z5RZY98yww1CHqWsd
eb4IwUypK8q7KIzh
-----END CERTIFICATE-----
