Certificate:
    Data:
        Version: 4 (0x3)
        Serial Number: 1 (0x1)
    Signature Algorithm: sha1WithRSAEncryption
        Issuer: CN=ca-none, C=BE, O=Gremwell bvba
        Validity
            Not Before: Jun 23 15:47:38 2012 GMT
            Not After : Jun 23 15:47:38 2013 GMT
        Subject: C=BE, CN=txjsonrpc-pyserver
        Subject Public Key Info:
            Public Key Algorithm: rsaEncryption
                Public-Key: (4096 bit)
                Modulus:
                    00:b2:d7:99:28:9b:01:64:48:bc:1d:71:d2:22:9d:
                    05:00:f8:ee:06:14:fa:71:ad:ad:1a:61:2b:d2:15:
                    45:49:dd:57:90:8f:f2:bf:e2:4f:56:40:cd:dc:be:
                    c4:5b:6d:f9:e0:94:c8:64:30:f9:59:b7:3b:0a:72:
                    5f:7f:32:3f:af:78:6a:4a:a3:20:c6:53:47:e3:dd:
                    ac:7b:84:e7:2a:87:63:64:b0:f4:89:95:ae:1e:7b:
                    4f:88:78:62:42:e4:15:35:35:69:38:83:42:2e:b9:
                    ca:4d:c3:7a:11:24:cd:34:c7:0b:9a:02:53:e8:ac:
                    2e:f7:24:5e:d3:e7:d5:c0:b2:da:3f:3a:56:a3:b9:
                    13:cb:25:f8:59:6d:13:ea:28:a2:88:78:9a:88:a7:
                    45:a8:1f:e1:56:ad:a3:9b:f3:ee:f7:5b:ee:69:8c:
                    e1:6d:f5:b1:09:be:63:46:49:1e:16:24:4e:a9:cc:
                    f1:7c:c5:87:1b:8f:e3:48:ef:aa:44:b2:c2:3e:31:
                    85:28:47:b5:d8:68:12:05:3a:06:cd:e3:ea:d6:d1:
                    cc:59:ac:68:f3:35:7b:a6:53:ce:4c:c9:7b:c7:0f:
                    dd:97:89:b9:2c:a5:cd:ee:14:62:0a:4f:46:f4:0c:
                    33:94:b9:25:4e:e9:ee:ec:2c:18:14:1a:3c:7c:41:
                    db:fb:df:9f:e1:ee:db:28:8e:8b:ec:f2:dc:40:62:
                    d8:34:f7:d5:87:dc:ef:68:ed:50:59:57:0b:a3:10:
                    73:03:b4:bd:66:47:89:94:32:ae:e2:0a:e5:69:92:
                    ae:42:93:1b:cf:9f:eb:73:c6:45:7f:0b:24:9c:f4:
                    b8:c2:fb:87:84:6e:41:be:96:3b:d6:2a:32:fe:04:
                    6b:80:fc:60:4a:0d:51:e0:66:bb:e1:89:26:e9:1b:
                    bc:47:9c:20:23:54:73:92:3b:ff:73:1b:37:7d:00:
                    bd:e6:e6:0a:3b:82:49:eb:38:b3:5c:03:ac:6e:7c:
                    6f:e0:e9:98:dc:b6:b1:93:2e:98:0b:2f:89:99:9b:
                    4f:e4:a2:81:ee:3f:a3:7a:a7:e2:39:d4:24:9c:1a:
                    02:44:a4:fa:f9:af:7d:f7:69:5f:84:cb:72:b1:f3:
                    9d:85:57:08:6b:53:82:a1:f9:f7:a9:f1:04:9b:7c:
                    ca:73:da:66:cb:e6:2b:72:a7:df:80:cd:c6:4d:b4:
                    f0:0c:dc:38:78:e9:a0:70:22:0c:35:bb:d1:af:50:
                    4a:b4:30:8a:6f:52:7d:3a:f1:96:3f:e1:e3:7f:a5:
                    fa:2c:81:5f:4b:7b:38:c8:8b:c6:09:b6:98:9a:51:
                    72:29:a0:c4:ed:43:e1:fc:32:8d:dd:e4:cf:97:83:
                    00:f9:4d
                Exponent: 65537 (0x10001)
        X509v3 extensions:
            X509v3 Basic Constraints: 
                CA:FALSE
            Netscape Cert Type: 
                SSL Server
            Netscape Comment: 
                TinyCA Generated Certificate
            X509v3 Subject Key Identifier: 
                26:8C:A5:F9:A6:4A:FE:4C:E8:0F:04:33:7E:04:26:28:BF:4C:92:F3
            X509v3 Authority Key Identifier: 
                keyid:9D:8F:84:76:94:CD:07:FE:A3:E8:8B:D7:F9:D9:6E:EF:CA:75:51:7B
                DirName:/C=BE/CN=txjsonrpc-test-ca
                serial:8D:D2:AF:37:F9:CA:92:0B

            X509v3 Issuer Alternative Name: 
                <EMPTY>

            X509v3 Subject Alternative Name: 
                <EMPTY>

    Signature Algorithm: sha1WithRSAEncryption
         a1:25:0d:9b:e2:fb:c9:ff:01:06:00:1e:93:11:2b:02:35:7c:
         00:cf:5f:a3:6f:91:42:32:8f:13:80:50:65:66:b6:dc:33:89:
         fb:69:71:c5:da:30:ac:94:46:bf:81:81:b0:9a:7e:b9:8d:31:
         77:6b:e9:d6:ef:65:63:cb:2a:16:3d:26:43:9f:94:c6:3a:7d:
         3f:45:0c:10:dd:ee:fa:ed:ad:bb:2e:9e:e5:c0:37:13:b9:e0:
         57:b8:0c:96:bf:ec:54:fb:72:c8:f7:ad:ab:c7:20:91:c7:33:
         b1:df:c3:f8:bb:6d:37:5f:bb:e2:a7:b8:6c:45:e3:8c:ea:5e:
         5d:b2
-----BEGIN CERTIFICATE-----
MIIEOjCCA6OgAwIBAwIBATANBgkqhkiG9w0BAQUFADA3MRAwDgYDVQQDEwdjYS1u
b25lMQswCQYDVQQGEwJCRTEWMBQGA1UEChMNR3JlbXdlbGwgYnZiYTAeFw0xMjA2
MjMxNTQ3MzhaFw0xMzA2MjMxNTQ3MzhaMCoxCzAJBgNVBAYTAkJFMRswGQYDVQQD
ExJ0eGpzb25ycGMtcHlzZXJ2ZXIwggIiMA0GCSqGSIb3DQEBAQUAA4ICDwAwggIK
AoICAQCy15komwFkSLwdcdIinQUA+O4GFPpxra0aYSvSFUVJ3VeQj/K/4k9WQM3c
vsRbbfnglMhkMPlZtzsKcl9/Mj+veGpKoyDGU0fj3ax7hOcqh2NksPSJla4ee0+I
eGJC5BU1NWk4g0IuucpNw3oRJM00xwuaAlPorC73JF7T59XAsto/OlajuRPLJfhZ
bRPqKKKIeJqIp0WoH+FWraOb8+73W+5pjOFt9bEJvmNGSR4WJE6pzPF8xYcbj+NI
76pEssI+MYUoR7XYaBIFOgbN4+rW0cxZrGjzNXumU85MyXvHD92Xibkspc3uFGIK
T0b0DDOUuSVO6e7sLBgUGjx8Qdv735/h7tsojovs8txAYtg099WH3O9o7VBZVwuj
EHMDtL1mR4mUMq7iCuVpkq5CkxvPn+tzxkV/CySc9LjC+4eEbkG+ljvWKjL+BGuA
/GBKDVHgZrvhiSbpG7xHnCAjVHOSO/9zGzd9AL3m5go7gknrOLNcA6xufG/g6Zjc
trGTLpgLL4mZm0/kooHuP6N6p+I51CScGgJEpPr5r333aV+Ey3Kx852FVwhrU4Kh
+fep8QSbfMpz2mbL5ityp9+AzcZNtPAM3Dh46aBwIgw1u9GvUEq0MIpvUn068ZY/
4eN/pfosgV9LezjIi8YJtpiaUXIpoMTtQ+H8Mo3d5M+XgwD5TQIDAQABo4HeMIHb
MAkGA1UdEwQCMAAwEQYJYIZIAYb4QgEBBAQDAgZAMCsGCWCGSAGG+EIBDQQeFhxU
aW55Q0EgR2VuZXJhdGVkIENlcnRpZmljYXRlMB0GA1UdDgQWBBQmjKX5pkr+TOgP
BDN+BCYov0yS8zBZBgNVHSMEUjBQgBSdj4R2lM0H/qPoi9f52W7vynVRe6EtpCsw
KTELMAkGA1UEBhMCQkUxGjAYBgNVBAMTEXR4anNvbnJwYy10ZXN0LWNhggkAjdKv
N/nKkgswCQYDVR0SBAIwADAJBgNVHREEAjAAMA0GCSqGSIb3DQEBBQUAA4GBAKEl
DZvi+8n/AQYAHpMRKwI1fADPX6NvkUIyjxOAUGVmttwziftpccXaMKyURr+BgbCa
frmNMXdr6dbvZWPLKhY9JkOflMY6fT9FDBDd7vrtrbsunuXANxO54Fe4DJa/7FT7
csj3ravHIJHHM7Hfw/i7bTdfu+KnuGxF44zqXl2y
-----END CERTIFICATE-----
Certificate:
    Data:
        Version: 4 (0x3)
        Serial Number: 1 (0x1)
    Signature Algorithm: sha1WithRSAEncryption
        Issuer: C=BE, CN=txjsonrpc-test-ca
        Validity
            Not Before: Jan  1 00:00:00 1970 GMT
            Not After : Jan 19 03:14:07 2038 GMT
        Subject: CN=ca-none, C=BE, O=Gremwell bvba
        Subject Public Key Info:
            Public Key Algorithm: rsaEncryption
                Public-Key: (1024 bit)
                Modulus:
                    00:bc:f3:f0:82:20:eb:6a:44:28:35:5b:0d:cb:27:
                    dd:45:85:97:cf:0d:a7:c1:d2:76:33:24:ee:9a:98:
                    8a:be:08:41:1f:d1:fe:84:2f:fc:77:57:28:ce:97:
                    61:ef:34:25:1d:89:36:21:67:f3:8b:23:ab:b6:fd:
                    ef:dd:46:16:40:a5:1e:3f:9a:6d:30:79:22:53:5d:
                    18:a0:17:de:75:b9:b6:8f:d0:36:58:c1:d1:d3:68:
                    c3:37:ce:b2:4f:84:82:d7:11:36:46:80:7a:63:8c:
                    3d:ac:5d:0b:4c:56:ce:c8:b1:d6:6a:38:d6:0b:0a:
                    a2:85:20:64:23:a7:be:8a:0d
                Exponent: 65537 (0x10001)
    Signature Algorithm: sha1WithRSAEncryption
         28:49:60:08:ca:0a:c7:5e:ed:43:86:28:05:af:57:98:39:03:
         79:a1:a4:e3:bf:90:10:e3:94:4b:48:28:9d:10:5e:69:58:ed:
         52:84:86:b2:cf:78:be:07:43:21:75:97:45:9f:7d:e8:ac:26:
         e6:16:e7:2b:7b:3a:19:ba:14:53:0f:8d:91:f3:ca:d9:09:12:
         f6:69:01:e2:ad:e0:01:a1:43:cc:a4:64:14:55:c7:a0:fc:4e:
         1c:9d:80:2c:31:7c:ee:4d:6f:ba:c2:43:9c:8f:c9:38:ea:65:
         1c:dd:07:56:2c:43:c3:e3:6a:c5:28:e5:4b:0b:77:94:1d:41:
         8d:ea:66:a7:d5:6d:4d:bb:a7:54:30:a5:dd:6c:c3:30:83:dd:
         9f:05:41:9a:d7:ef:30:ab:70:25:4c:d8:86:3c:2f:24:5c:bc:
         a6:e0:08:49:7f:36:e7:05:84:5a:0a:9c:ac:9e:3f:a9:99:89:
         1e:c7:3d:13:3c:9b:d3:a8:8d:9a:dd:93:dc:0e:56:0e:6a:35:
         9b:67:f6:b5:87:62:7b:09:d0:95:83:6b:c0:27:56:7e:2b:6a:
         a4:c6:04:a3:80:02:65:27:b0:b1:90:0e:02:02:29:20:d5:c4:
         c7:ad:d3:80:e3:b1:dc:82:25:a9:85:5f:ba:b1:d2:95:ad:06:
         86:4e:5f:32:76:cf:62:32:22:38:f1:c1:30:94:ed:7a:0d:46:
         de:c2:cc:9b:2a:d3:38:3d:ad:db:1d:38:b2:05:2c:58:c0:a4:
         1c:9a:ce:9c:ac:1f:a3:37:52:7e:84:ca:2e:db:64:c8:30:24:
         03:5a:dd:69:15:d6:e4:44:29:08:ac:60:fd:a3:58:a0:ae:27:
         b4:e6:38:7e:14:0a:69:0f:b2:99:63:a7:4e:23:23:1e:22:1e:
         61:52:6f:d9:ae:ff:d8:40:da:f5:67:ac:8c:6c:63:b4:09:1a:
         4c:64:d3:5a:8c:60:02:c4:e3:c1:aa:95:79:a7:df:5f:df:53:
         37:f2:d7:ac:79:e2:4a:ec:4c:b3:5a:df:e5:cc:9a:66:80:36:
         39:3b:00:fa:0e:13:6c:80:5a:9c:55:df:da:aa:47:70:c1:06:
         16:cf:0c:2f:96:50:53:ff:fb:25:ef:79:41:2c:d9:34:0c:c7:
         3b:a8:e9:a5:ad:03:54:1b:72:d1:07:b5:21:4e:d2:ea:c3:da:
         c1:66:34:cf:d4:68:c4:ba:75:a5:71:b1:25:c4:3d:40:18:45:
         15:47:1c:3c:e6:fb:f9:6a:dd:87:5a:07:f3:c5:62:db:4b:34:
         07:84:9a:65:72:e5:0a:4d:05:44:3f:fc:2b:94:de:d3:a6:42:
         b1:36:f6:26:7c:60:00:93
-----BEGIN CERTIFICATE-----
MIIDVTCCAT2gAwIBAwIBATANBgkqhkiG9w0BAQUFADApMQswCQYDVQQGEwJCRTEa
MBgGA1UEAxMRdHhqc29ucnBjLXRlc3QtY2EwHhcNNzAwMTAxMDAwMDAwWhcNMzgw
MTE5MDMxNDA3WjA3MRAwDgYDVQQDEwdjYS1ub25lMQswCQYDVQQGEwJCRTEWMBQG
A1UEChMNR3JlbXdlbGwgYnZiYTCBnzANBgkqhkiG9w0BAQEFAAOBjQAwgYkCgYEA
vPPwgiDrakQoNVsNyyfdRYWXzw2nwdJ2MyTumpiKvghBH9H+hC/8d1cozpdh7zQl
HYk2IWfziyOrtv3v3UYWQKUeP5ptMHkiU10YoBfedbm2j9A2WMHR02jDN86yT4SC
1xE2RoB6Y4w9rF0LTFbOyLHWajjWCwqihSBkI6e+ig0CAwEAATANBgkqhkiG9w0B
AQUFAAOCAgEAKElgCMoKx17tQ4YoBa9XmDkDeaGk47+QEOOUS0gonRBeaVjtUoSG
ss94vgdDIXWXRZ996Kwm5hbnK3s6GboUUw+NkfPK2QkS9mkB4q3gAaFDzKRkFFXH
oPxOHJ2ALDF87k1vusJDnI/JOOplHN0HVixDw+NqxSjlSwt3lB1Bjepmp9VtTbun
VDCl3WzDMIPdnwVBmtfvMKtwJUzYhjwvJFy8puAISX825wWEWgqcrJ4/qZmJHsc9
Ezyb06iNmt2T3A5WDmo1m2f2tYdiewnQlYNrwCdWfitqpMYEo4ACZSewsZAOAgIp
INXEx63TgOOx3IIlqYVfurHSla0Ghk5fMnbPYjIiOPHBMJTteg1G3sLMmyrTOD2t
2x04sgUsWMCkHJrOnKwfozdSfoTKLttkyDAkA1rdaRXW5EQpCKxg/aNYoK4ntOY4
fhQKaQ+ymWOnTiMjHiIeYVJv2a7/2EDa9WesjGxjtAkaTGTTWoxgAsTjwaqVeaff
X99TN/LXrHniSuxMs1rf5cyaZoA2OTsA+g4TbIBanFXf2qpHcMEGFs8ML5ZQU//7
Je95QSzZNAzHO6jppa0DVBty0Qe1IU7S6sPawWY0z9RoxLp1pXGxJcQ9QBhFFUcc
POb7+Wrdh1oH88Vi20s0B4SaZXLlCk0FRD/8K5Te06ZCsTb2JnxgAJM=
-----END CERTIFICATE-----
