Certificate:
    Data:
        Version: 4 (0x3)
        Serial Number: 1 (0x1)
    Signature Algorithm: sha1WithRSAEncryption
        Issuer: CN=ca-none, C=BE, O=Gremwell bvba
        Validity
            Not Before: Jan  1 00:00:00 1970 GMT
            Not After : Jan 19 03:14:07 2038 GMT
        Subject: CN=www.example.com, C=BE, O=Gremwell bvba
        Subject Public Key Info:
            Public Key Algorithm: rsaEncryption
                Public-Key: (1024 bit)
                Modulus:
                    00:a6:90:ac:4b:c3:38:fb:14:34:48:65:41:a6:99:
                    e0:8d:9e:10:a2:19:92:71:53:00:bd:07:8d:73:e7:
                    61:3a:91:6a:71:93:de:09:96:2f:b4:df:55:84:e0:
                    72:45:61:ea:ee:0d:f8:37:7f:f9:ed:f2:20:c0:ed:
                    2c:56:29:08:4c:78:10:76:1f:52:7d:ec:38:0d:e2:
                    e9:22:a6:2b:1b:51:da:cc:7a:90:0e:48:c2:ed:44:
                    81:b5:43:6a:fc:68:12:13:56:3b:fb:23:84:67:51:
                    8a:eb:14:6d:01:2c:da:05:58:32:21:4a:b0:2f:82:
                    6b:52:f5:2f:30:80:8a:54:eb
                Exponent: 65537 (0x10001)
    Signature Algorithm: sha1WithRSAEncryption
         3b:a3:2d:44:c0:3f:3f:1a:bb:fa:37:8a:d0:29:fa:85:b6:29:
         56:34:27:ef:ef:64:ac:1c:b9:b7:68:8c:0a:5f:b5:53:b9:67:
         89:13:28:27:d4:8c:f7:bf:c9:46:74:61:b8:8b:7c:e8:fc:1f:
         8d:ae:f2:f7:15:20:d1:98:30:16:72:d3:6c:15:61:4f:86:10:
         9b:e4:d6:bd:9b:f2:fe:05:24:a7:0d:77:2b:46:9c:a3:34:01:
         c2:c7:68:58:50:af:67:bf:59:d6:a7:5b:de:74:45:64:7e:5d:
         7d:1c:22:5b:cc:22:7b:83:11:f3:a0:5f:f5:d1:06:25:7c:c1:
         cd:b1
-----BEGIN CERTIFICATE-----
MIIB6jCCAVOgAwIBAwIBATANBgkqhkiG9w0BAQUFADA3MRAwDgYDVQQDEwdjYS1u
b25lMQswCQYDVQQGEwJCRTEWMBQGA1UEChMNR3JlbXdlbGwgYnZiYTAeFw03MDAx
MDEwMDAwMDBaFw0zODAxMTkwMzE0MDdaMD8xGDAWBgNVBAMTD3d3dy5leGFtcGxl
LmNvbTELMAkGA1UEBhMCQkUxFjAUBgNVBAoTDUdyZW13ZWxsIGJ2YmEwgZ8wDQYJ
KoZIhvcNAQEBBQADgY0AMIGJAoGBAKaQrEvDOPsUNEhlQaaZ4I2eEKIZknFTAL0H
jXPnYTqRanGT3gmWL7TfVYTgckVh6u4N+Dd/+e3yIMDtLFYpCEx4EHYfUn3sOA3i
6SKmKxtR2sx6kA5Iwu1EgbVDavxoEhNWO/sjhGdRiusUbQEs2gVYMiFKsC+Ca1L1
LzCAilTrAgMBAAEwDQYJKoZIhvcNAQEFBQADgYEAO6MtRMA/Pxq7+jeK0Cn6hbYp
VjQn7+9krBy5t2iMCl+1U7lniRMoJ9SM97/JRnRhuIt86Pwfja7y9xUg0ZgwFnLT
bBVhT4YQm+TWvZvy/gUkpw13K0acozQBwsdoWFCvZ79Z1qdb3nRFZH5dfRwiW8wi
e4MR86Bf9dEGJXzBzbE=
-----END CERTIFICATE-----
Certificate:
    Data:
        Version: 4 (0x3)
        Serial Number: 1 (0x1)
    Signature Algorithm: sha1WithRSAEncryption
        Issuer: C=BE, CN=txjsonrpc-test-ca
        Validity
            Not Before: Jan  1 00:00:00 1970 GMT
            Not After : Jan 19 03:14:07 2038 GMT
        Subject: CN=ca-none, C=BE, O=Gremwell bvba
        Subject Public Key Info:
            Public Key Algorithm: rsaEncryption
                Public-Key: (1024 bit)
                Modulus:
                    00:bd:2b:77:b5:51:53:69:f4:83:ef:17:3c:8c:46:
                    b6:ad:9d:fd:3f:99:70:94:74:ba:ae:5f:95:1a:91:
                    3e:02:ab:54:a3:9f:b1:5c:c4:65:1a:d1:24:65:97:
                    e8:ac:35:eb:33:7d:88:da:45:59:02:79:3c:0c:4f:
                    c8:02:4f:60:42:6d:bc:12:5c:2d:02:83:b4:08:14:
                    18:f4:35:3e:d2:50:69:be:7e:e7:83:5c:c2:40:41:
                    f0:e9:34:b8:5a:bd:4f:ea:14:7f:68:77:97:17:e2:
                    01:0b:dc:21:81:cc:6b:cd:e7:26:55:6e:5c:1e:b8:
                    a4:c1:b6:79:6a:59:b4:fa:51
                Exponent: 65537 (0x10001)
    Signature Algorithm: sha1WithRSAEncryption
         9f:4f:b1:59:30:34:d9:0c:60:4d:51:64:ad:ab:8f:d8:9f:70:
         30:04:db:c3:30:42:36:8e:79:55:07:c0:47:e4:d1:26:ec:ef:
         01:cd:32:2c:a0:44:12:76:97:55:5a:2d:d9:e0:4e:cd:f4:1c:
         30:56:8f:9f:df:03:3c:36:d2:42:06:f0:4d:4f:d8:6f:6a:4f:
         4f:33:4d:67:52:a3:3c:74:39:74:76:81:ab:17:84:6c:87:95:
         61:76:0a:1b:14:0e:7e:9c:eb:a8:0a:e6:13:7c:b9:98:a9:cc:
         70:e6:1d:f7:2d:99:e8:63:c2:38:40:73:af:01:02:9f:53:6f:
         87:5e:30:29:db:a4:10:51:91:06:7a:a9:de:3e:a1:35:1d:97:
         72:63:d3:85:54:77:e6:95:3d:c7:e8:79:89:b7:76:23:3f:a8:
         84:4f:e0:8e:96:ed:34:23:8a:85:10:e6:9a:b1:4f:d0:54:78:
         8c:ce:f5:9f:51:4a:df:84:49:3d:fd:fd:0b:59:2f:88:dc:12:
         92:cf:35:27:05:a0:17:b9:9c:9f:6c:f8:d9:b9:1b:f2:f4:55:
         36:20:ce:70:70:d5:bd:41:98:da:e5:93:19:23:88:81:31:91:
         39:4d:af:a3:3c:50:88:7b:7b:0a:c6:26:5b:c9:e7:85:ae:38:
         5c:ed:a5:87:8d:da:f4:c1:90:60:b6:a7:41:65:89:4b:84:1e:
         f9:8d:46:43:b9:56:d1:82:40:d3:ac:3b:f3:e4:80:18:b8:7d:
         18:a6:a8:5e:12:9e:d5:12:14:91:5e:25:e7:41:3c:2d:f7:36:
         91:9d:1e:17:0b:95:5a:bf:bf:9d:ea:91:f4:5d:b3:da:73:91:
         6e:c9:0d:de:52:ee:ce:35:5a:9b:7a:29:f7:f6:e6:08:e7:e9:
         b5:b5:47:ee:e4:30:a3:7a:56:e2:7f:18:97:b7:86:b6:c5:b8:
         04:88:71:1a:91:e4:37:9c:65:b4:af:3d:72:5f:e0:fa:62:dd:
         70:45:90:81:a9:e7:1b:00:9a:8f:e5:61:b2:61:9a:57:73:b8:
         15:af:46:a6:12:6e:ba:0b:4c:c6:2e:ac:d8:62:49:6f:ce:2a:
         43:5c:1d:30:42:64:5d:8c:fd:1e:88:7e:6b:53:66:14:85:03:
         7f:74:c8:fd:71:4f:ff:a5:6b:c5:e1:03:00:bd:c2:bb:8a:03:
         c6:4c:4e:de:4c:d2:f4:8c:f5:01:74:ff:d2:f6:a3:33:0e:79:
         04:96:b4:ae:11:b4:c1:1c:e1:3d:5a:67:94:05:cf:58:62:21:
         bb:34:1f:00:01:ef:6c:ac:37:b4:82:c2:cf:d2:f1:b9:ff:7b:
         9d:a9:65:ef:80:dc:36:93
-----BEGIN CERTIFICATE-----
MIIDVTCCAT2gAwIBAwIBATANBgkqhkiG9w0BAQUFADApMQswCQYDVQQGEwJCRTEa
MBgGA1UEAxMRdHhqc29ucnBjLXRlc3QtY2EwHhcNNzAwMTAxMDAwMDAwWhcNMzgw
MTE5MDMxNDA3WjA3MRAwDgYDVQQDEwdjYS1ub25lMQswCQYDVQQGEwJCRTEWMBQG
A1UEChMNR3JlbXdlbGwgYnZiYTCBnzANBgkqhkiG9w0BAQEFAAOBjQAwgYkCgYEA
vSt3tVFTafSD7xc8jEa2rZ39P5lwlHS6rl+VGpE+AqtUo5+xXMRlGtEkZZforDXr
M32I2kVZAnk8DE/IAk9gQm28ElwtAoO0CBQY9DU+0lBpvn7ng1zCQEHw6TS4Wr1P
6hR/aHeXF+IBC9whgcxrzecmVW5cHrikwbZ5alm0+lECAwEAATANBgkqhkiG9w0B
AQUFAAOCAgEAn0+xWTA02QxgTVFkrauP2J9wMATbwzBCNo55VQfAR+TRJuzvAc0y
LKBEEnaXVVot2eBOzfQcMFaPn98DPDbSQgbwTU/Yb2pPTzNNZ1KjPHQ5dHaBqxeE
bIeVYXYKGxQOfpzrqArmE3y5mKnMcOYd9y2Z6GPCOEBzrwECn1Nvh14wKdukEFGR
Bnqp3j6hNR2XcmPThVR35pU9x+h5ibd2Iz+ohE/gjpbtNCOKhRDmmrFP0FR4jM71
n1FK34RJPf39C1kviNwSks81JwWgF7mcn2z42bkb8vRVNiDOcHDVvUGY2uWTGSOI
gTGROU2vozxQiHt7CsYmW8nnha44XO2lh43a9MGQYLanQWWJS4Qe+Y1GQ7lW0YJA
06w78+SAGLh9GKaoXhKe1RIUkV4l50E8Lfc2kZ0eFwuVWr+/neqR9F2z2nORbskN
3lLuzjVam3op9/bmCOfptbVH7uQwo3pW4n8Yl7eGtsW4BIhxGpHkN5xltK89cl/g
+mLdcEWQgannGwCaj+VhsmGaV3O4Fa9GphJuugtMxi6s2GJJb84qQ1wdMEJkXYz9
Hoh+a1NmFIUDf3TI/XFP/6VrxeEDAL3Cu4oDxkxO3kzS9Iz1AXT/0vajMw55BJa0
rhG0wRzhPVpnlAXPWGIhuzQfAAHvbKw3tILCz9Lxuf97nall74DcNpM=
-----END CERTIFICATE-----
