Certificate:
    Data:
        Version: 4 (0x3)
        Serial Number: 1 (0x1)
    Signature Algorithm: sha1WithRSAEncryption
        Issuer: CN=ca-false, C=BE, O=Gremwell bvba
        Validity
            Not Before: Jun 23 15:47:38 2012 GMT
            Not After : Jun 23 15:47:38 2013 GMT
        Subject: C=BE, CN=txjsonrpc-pyserver
        Subject Public Key Info:
            Public Key Algorithm: rsaEncryption
                Public-Key: (4096 bit)
                Modulus:
                    00:b2:d7:99:28:9b:01:64:48:bc:1d:71:d2:22:9d:
                    05:00:f8:ee:06:14:fa:71:ad:ad:1a:61:2b:d2:15:
                    45:49:dd:57:90:8f:f2:bf:e2:4f:56:40:cd:dc:be:
                    c4:5b:6d:f9:e0:94:c8:64:30:f9:59:b7:3b:0a:72:
                    5f:7f:32:3f:af:78:6a:4a:a3:20:c6:53:47:e3:dd:
                    ac:7b:84:e7:2a:87:63:64:b0:f4:89:95:ae:1e:7b:
                    4f:88:78:62:42:e4:15:35:35:69:38:83:42:2e:b9:
                    ca:4d:c3:7a:11:24:cd:34:c7:0b:9a:02:53:e8:ac:
                    2e:f7:24:5e:d3:e7:d5:c0:b2:da:3f:3a:56:a3:b9:
                    13:cb:25:f8:59:6d:13:ea:28:a2:88:78:9a:88:a7:
                    45:a8:1f:e1:56:ad:a3:9b:f3:ee:f7:5b:ee:69:8c:
                    e1:6d:f5:b1:09:be:63:46:49:1e:16:24:4e:a9:cc:
                    f1:7c:c5:87:1b:8f:e3:48:ef:aa:44:b2:c2:3e:31:
                    85:28:47:b5:d8:68:12:05:3a:06:cd:e3:ea:d6:d1:
                    cc:59:ac:68:f3:35:7b:a6:53:ce:4c:c9:7b:c7:0f:
                    dd:97:89:b9:2c:a5:cd:ee:14:62:0a:4f:46:f4:0c:
                    33:94:b9:25:4e:e9:ee:ec:2c:18:14:1a:3c:7c:41:
                    db:fb:df:9f:e1:ee:db:28:8e:8b:ec:f2:dc:40:62:
                    d8:34:f7:d5:87:dc:ef:68:ed:50:59:57:0b:a3:10:
                    73:03:b4:bd:66:47:89:94:32:ae:e2:0a:e5:69:92:
                    ae:42:93:1b:cf:9f:eb:73:c6:45:7f:0b:24:9c:f4:
                    b8:c2:fb:87:84:6e:41:be:96:3b:d6:2a:32:fe:04:
                    6b:80:fc:60:4a:0d:51:e0:66:bb:e1:89:26:e9:1b:
                    bc:47:9c:20:23:54:73:92:3b:ff:73:1b:37:7d:00:
                    bd:e6:e6:0a:3b:82:49:eb:38:b3:5c:03:ac:6e:7c:
                    6f:e0:e9:98:dc:b6:b1:93:2e:98:0b:2f:89:99:9b:
                    4f:e4:a2:81:ee:3f:a3:7a:a7:e2:39:d4:24:9c:1a:
                    02:44:a4:fa:f9:af:7d:f7:69:5f:84:cb:72:b1:f3:
                    9d:85:57:08:6b:53:82:a1:f9:f7:a9:f1:04:9b:7c:
                    ca:73:da:66:cb:e6:2b:72:a7:df:80:cd:c6:4d:b4:
                    f0:0c:dc:38:78:e9:a0:70:22:0c:35:bb:d1:af:50:
                    4a:b4:30:8a:6f:52:7d:3a:f1:96:3f:e1:e3:7f:a5:
                    fa:2c:81:5f:4b:7b:38:c8:8b:c6:09:b6:98:9a:51:
                    72:29:a0:c4:ed:43:e1:fc:32:8d:dd:e4:cf:97:83:
                    00:f9:4d
                Exponent: 65537 (0x10001)
        X509v3 extensions:
            X509v3 Basic Constraints: 
                CA:FALSE
            Netscape Cert Type: 
                SSL Server
            Netscape Comment: 
                TinyCA Generated Certificate
            X509v3 Subject Key Identifier: 
                26:8C:A5:F9:A6:4A:FE:4C:E8:0F:04:33:7E:04:26:28:BF:4C:92:F3
            X509v3 Authority Key Identifier: 
                keyid:9D:8F:84:76:94:CD:07:FE:A3:E8:8B:D7:F9:D9:6E:EF:CA:75:51:7B
                DirName:/C=BE/CN=txjsonrpc-test-ca
                serial:8D:D2:AF:37:F9:CA:92:0B

            X509v3 Issuer Alternative Name: 
                <EMPTY>

            X509v3 Subject Alternative Name: 
                <EMPTY>

    Signature Algorithm: sha1WithRSAEncryption
         91:37:9b:0d:0c:6c:00:77:71:c1:dc:59:2a:50:83:1e:da:6f:
         e1:49:d8:44:5e:54:9a:38:31:c5:37:6b:ef:ab:f0:9f:a6:09:
         94:93:bf:9a:d6:3f:3a:f8:89:c5:9c:a9:3e:99:c4:8c:3f:2f:
         8a:ac:d8:f1:60:c0:e3:be:bd:56:c4:b3:07:4e:d9:22:72:1d:
         d9:61:cd:16:1e:83:e7:b1:7b:67:51:be:cf:b3:da:b5:e6:a5:
         61:81:ea:73:71:2b:7d:88:1c:89:1a:20:27:ae:99:a7:40:ed:
         95:c8:63:52:19:83:83:5f:d9:06:ac:2b:d2:14:0f:59:28:fa:
         db:81
-----BEGIN CERTIFICATE-----
MIIEOzCCA6SgAwIBAwIBATANBgkqhkiG9w0BAQUFADA4MREwDwYDVQQDEwhjYS1m
YWxzZTELMAkGA1UEBhMCQkUxFjAUBgNVBAoTDUdyZW13ZWxsIGJ2YmEwHhcNMTIw
NjIzMTU0NzM4WhcNMTMwNjIzMTU0NzM4WjAqMQswCQYDVQQGEwJCRTEbMBkGA1UE
AxMSdHhqc29ucnBjLXB5c2VydmVyMIICIjANBgkqhkiG9w0BAQEFAAOCAg8AMIIC
CgKCAgEAsteZKJsBZEi8HXHSIp0FAPjuBhT6ca2tGmEr0hVFSd1XkI/yv+JPVkDN
3L7EW2354JTIZDD5Wbc7CnJffzI/r3hqSqMgxlNH492se4TnKodjZLD0iZWuHntP
iHhiQuQVNTVpOINCLrnKTcN6ESTNNMcLmgJT6Kwu9yRe0+fVwLLaPzpWo7kTyyX4
WW0T6iiiiHiaiKdFqB/hVq2jm/Pu91vuaYzhbfWxCb5jRkkeFiROqczxfMWHG4/j
SO+qRLLCPjGFKEe12GgSBToGzePq1tHMWaxo8zV7plPOTMl7xw/dl4m5LKXN7hRi
Ck9G9AwzlLklTunu7CwYFBo8fEHb+9+f4e7bKI6L7PLcQGLYNPfVh9zvaO1QWVcL
oxBzA7S9ZkeJlDKu4grlaZKuQpMbz5/rc8ZFfwsknPS4wvuHhG5BvpY71ioy/gRr
gPxgSg1R4Ga74Ykm6Ru8R5wgI1Rzkjv/cxs3fQC95uYKO4JJ6zizXAOsbnxv4OmY
3Laxky6YCy+JmZtP5KKB7j+jeqfiOdQknBoCRKT6+a9992lfhMtysfOdhVcIa1OC
ofn3qfEEm3zKc9pmy+YrcqffgM3GTbTwDNw4eOmgcCIMNbvRr1BKtDCKb1J9OvGW
P+Hjf6X6LIFfS3s4yIvGCbaYmlFyKaDE7UPh/DKN3eTPl4MA+U0CAwEAAaOB3jCB
2zAJBgNVHRMEAjAAMBEGCWCGSAGG+EIBAQQEAwIGQDArBglghkgBhvhCAQ0EHhYc
VGlueUNBIEdlbmVyYXRlZCBDZXJ0aWZpY2F0ZTAdBgNVHQ4EFgQUJoyl+aZK/kzo
DwQzfgQmKL9MkvMwWQYDVR0jBFIwUIAUnY+EdpTNB/6j6IvX+dlu78p1UXuhLaQr
MCkxCzAJBgNVBAYTAkJFMRowGAYDVQQDExF0eGpzb25ycGMtdGVzdC1jYYIJAI3S
rzf5ypILMAkGA1UdEgQCMAAwCQYDVR0RBAIwADANBgkqhkiG9w0BAQUFAAOBgQCR
N5sNDGwAd3HB3FkqUIMe2m/hSdhEXlSaODHFN2vvq/CfpgmUk7+a1j86+InFnKk+
mcSMPy+KrNjxYMDjvr1WxLMHTtkich3ZYc0WHoPnsXtnUb7Ps9q15qVhgepzcSt9
iByJGiAnrpmnQO2VyGNSGYODX9kGrCvSFA9ZKPrbgQ==
-----END CERTIFICATE-----
Certificate:
    Data:
        Version: 4 (0x3)
        Serial Number: 1 (0x1)
    Signature Algorithm: sha1WithRSAEncryption
        Issuer: C=BE, CN=txjsonrpc-test-ca
        Validity
            Not Before: Jan  1 00:00:00 1970 GMT
            Not After : Jan 19 03:14:07 2038 GMT
        Subject: CN=ca-false, C=BE, O=Gremwell bvba
        Subject Public Key Info:
            Public Key Algorithm: rsaEncryption
                Public-Key: (1024 bit)
                Modulus:
                    00:99:6a:2d:1c:c1:39:c4:07:4e:91:41:db:b0:28:
                    b4:59:cc:9a:f3:82:1d:8c:fa:bb:4b:5f:ed:da:fa:
                    27:b7:04:62:40:e1:52:06:65:43:42:b3:f2:42:8c:
                    03:e5:92:6d:15:15:31:2c:78:1f:bf:82:94:2c:b8:
                    51:a7:d5:05:c5:c1:78:dd:cb:dc:d3:17:2f:49:5a:
                    67:47:83:ae:31:42:16:d6:e8:04:b2:e9:de:b7:fb:
                    8e:2c:e8:f3:af:1f:4d:38:08:08:cd:00:b3:87:75:
                    44:ce:4d:c8:37:fd:55:e5:75:fc:df:5d:1c:6b:6d:
                    ee:c9:2b:ca:4d:d5:51:79:05
                Exponent: 65537 (0x10001)
        X509v3 extensions:
            X509v3 Basic Constraints: critical
                CA:FALSE
    Signature Algorithm: sha1WithRSAEncryption
         7e:0c:d2:d7:87:78:58:89:6f:1d:96:cf:d5:0d:c3:a4:50:23:
         16:12:e3:e4:6f:47:aa:e7:7a:8c:07:10:95:46:8a:ea:0f:bc:
         ee:12:e6:25:ca:cf:75:96:bf:c0:b6:18:84:e8:4d:64:8d:ac:
         db:02:ab:f0:02:6b:d8:90:2c:d2:00:28:c8:22:26:ad:1a:b0:
         d1:09:45:fa:3e:37:f5:05:4f:63:a4:5e:66:1f:62:a0:da:7b:
         05:90:2c:b9:f1:dd:4e:d1:31:64:13:6a:96:21:2c:ab:45:04:
         ec:85:a9:88:3b:c8:ae:7f:2a:0e:db:d4:5c:f6:43:24:e3:53:
         22:b5:9f:df:3a:6b:0a:a2:57:37:a2:23:b3:2c:fc:1c:73:cc:
         fd:77:54:6b:f5:e5:fb:44:b6:a2:a3:d1:b0:00:09:4c:ba:c7:
         dc:6a:0f:7b:f5:8f:52:12:c7:b8:93:10:77:cd:cc:00:6f:37:
         b8:1a:c0:ee:80:8c:f2:e6:e9:6c:86:8e:73:f7:42:d3:84:ab:
         75:eb:0b:1c:74:8e:f6:9f:46:b5:53:e3:43:b9:cf:3e:37:2a:
         46:d1:19:94:29:59:28:b8:6b:9a:4f:7e:83:ff:e6:fa:c3:11:
         42:5d:9c:40:e9:99:98:96:02:16:95:ed:3f:91:2a:72:a4:5c:
         f4:21:93:bf:68:ff:f4:92:49:91:2f:fc:8e:93:27:79:8d:82:
         1d:7f:9a:3d:47:7c:c5:cf:7a:84:68:e4:33:89:7d:12:0a:01:
         5e:1c:55:34:3f:52:35:26:00:80:fc:bf:e2:37:05:7b:3c:78:
         6f:56:95:fd:9e:dd:62:6e:9d:a4:68:41:37:2a:2e:bc:b4:51:
         1e:9a:41:01:b3:6c:6c:34:a2:15:3a:9c:f2:bd:0d:73:08:13:
         73:91:7f:61:e8:62:36:29:45:01:d8:5e:dc:bd:66:84:68:1b:
         45:8e:20:e3:21:d2:1b:f1:34:18:cd:f6:93:e0:02:1b:99:29:
         15:6c:d3:d9:bd:91:7e:b2:70:6e:75:cb:17:62:7a:0c:03:be:
         5d:87:8e:a8:9c:cd:4a:f6:f0:75:81:d9:a2:dd:1e:93:5b:03:
         0e:8f:2c:03:ca:68:d5:52:04:c5:5b:c3:63:c0:65:95:d3:b2:
         17:6e:21:ad:4c:55:bd:bb:c3:75:82:4e:6f:f3:ad:1c:5c:52:
         da:8b:45:7d:9e:c1:e4:3f:93:7c:fc:7d:db:64:5f:b9:d2:8d:
         86:ab:0e:df:65:18:96:1c:be:bb:61:53:39:3c:20:38:87:01:
         40:d1:01:24:bc:45:27:3a:2d:e5:9a:38:11:fe:99:08:c0:4f:
         e2:09:97:ad:22:2d:a9:2d
-----BEGIN CERTIFICATE-----
MIIDaDCCAVCgAwIBAwIBATANBgkqhkiG9w0BAQUFADApMQswCQYDVQQGEwJCRTEa
MBgGA1UEAxMRdHhqc29ucnBjLXRlc3QtY2EwHhcNNzAwMTAxMDAwMDAwWhcNMzgw
MTE5MDMxNDA3WjA4MREwDwYDVQQDEwhjYS1mYWxzZTELMAkGA1UEBhMCQkUxFjAU
BgNVBAoTDUdyZW13ZWxsIGJ2YmEwgZ8wDQYJKoZIhvcNAQEBBQADgY0AMIGJAoGB
AJlqLRzBOcQHTpFB27AotFnMmvOCHYz6u0tf7dr6J7cEYkDhUgZlQ0Kz8kKMA+WS
bRUVMSx4H7+ClCy4UafVBcXBeN3L3NMXL0laZ0eDrjFCFtboBLLp3rf7jizo868f
TTgICM0As4d1RM5NyDf9VeV1/N9dHGtt7skryk3VUXkFAgMBAAGjEDAOMAwGA1Ud
EwEB/wQCMAAwDQYJKoZIhvcNAQEFBQADggIBAH4M0teHeFiJbx2Wz9UNw6RQIxYS
4+RvR6rneowHEJVGiuoPvO4S5iXKz3WWv8C2GIToTWSNrNsCq/ACa9iQLNIAKMgi
Jq0asNEJRfo+N/UFT2OkXmYfYqDaewWQLLnx3U7RMWQTapYhLKtFBOyFqYg7yK5/
Kg7b1Fz2QyTjUyK1n986awqiVzeiI7Ms/BxzzP13VGv15ftEtqKj0bAACUy6x9xq
D3v1j1ISx7iTEHfNzABvN7gawO6AjPLm6WyGjnP3QtOEq3XrCxx0jvafRrVT40O5
zz43KkbRGZQpWSi4a5pPfoP/5vrDEUJdnEDpmZiWAhaV7T+RKnKkXPQhk79o//SS
SZEv/I6TJ3mNgh1/mj1HfMXPeoRo5DOJfRIKAV4cVTQ/UjUmAID8v+I3BXs8eG9W
lf2e3WJunaRoQTcqLry0UR6aQQGzbGw0ohU6nPK9DXMIE3ORf2HoYjYpRQHYXty9
ZoRoG0WOIOMh0hvxNBjN9pPgAhuZKRVs09m9kX6ycG51yxdiegwDvl2HjqiczUr2
8HWB2aLdHpNbAw6PLAPKaNVSBMVbw2PAZZXTshduIa1MVb27w3WCTm/zrRxcUtqL
RX2eweQ/k3z8fdtkX7nSjYarDt9lGJYcvrthUzk8IDiHAUDRASS8RSc6LeWaOBH+
mQjAT+IJl60iLakt
-----END CERTIFICATE-----
