Certificate:
    Data:
        Version: 4 (0x3)
        Serial Number: 1 (0x1)
    Signature Algorithm: sha1WithRSAEncryption
        Issuer: C=BE, CN=txjsonrpc-test-ca
        Validity
            Not Before: Jan  1 00:00:00 1970 GMT
            Not After : Jan 19 03:14:07 2038 GMT
        Subject: CN=www.example.com, C=BE, O=Gremwell bvba
        Subject Public Key Info:
            Public Key Algorithm: rsaEncryption
                Public-Key: (1024 bit)
                Modulus:
                    00:a6:90:ac:4b:c3:38:fb:14:34:48:65:41:a6:99:
                    e0:8d:9e:10:a2:19:92:71:53:00:bd:07:8d:73:e7:
                    61:3a:91:6a:71:93:de:09:96:2f:b4:df:55:84:e0:
                    72:45:61:ea:ee:0d:f8:37:7f:f9:ed:f2:20:c0:ed:
                    2c:56:29:08:4c:78:10:76:1f:52:7d:ec:38:0d:e2:
                    e9:22:a6:2b:1b:51:da:cc:7a:90:0e:48:c2:ed:44:
                    81:b5:43:6a:fc:68:12:13:56:3b:fb:23:84:67:51:
                    8a:eb:14:6d:01:2c:da:05:58:32:21:4a:b0:2f:82:
                    6b:52:f5:2f:30:80:8a:54:eb
                Exponent: 65537 (0x10001)
    Signature Algorithm: sha1WithRSAEncryption
         b7:67:d0:da:2c:30:56:b1:ff:39:eb:58:42:eb:7f:f4:15:01:
         bc:26:2e:c5:5d:22:a4:7b:f4:f4:58:94:31:12:33:8a:9d:d5:
         09:65:1b:a3:58:b6:f9:de:0d:b2:62:7e:ed:b4:d3:45:1d:35:
         59:13:c5:9c:34:86:2b:6d:4e:cb:85:d7:e0:b7:15:36:0f:ae:
         3c:30:45:fd:58:ba:98:43:c1:aa:cf:cf:34:ba:e9:93:c5:74:
         dd:6f:0f:2d:72:34:cd:30:2d:13:73:d8:08:55:60:d9:aa:21:
         3e:51:b8:c0:04:4a:62:82:02:65:9b:f5:58:2a:d0:2b:97:94:
         55:38:fc:4c:7c:1d:8d:0c:24:f8:40:3c:19:44:48:52:cd:d1:
         d2:ef:6f:de:f3:4b:37:a3:23:85:94:76:6f:88:44:bd:e6:10:
         dd:77:e0:6c:ef:f6:72:82:59:8a:02:5e:36:ec:53:30:ab:23:
         f0:a3:a7:7c:f4:e2:dc:12:90:0c:79:74:aa:99:72:71:bb:bc:
         94:4e:53:ed:8c:6e:4c:b7:18:f1:be:fe:86:46:62:c2:8a:7d:
         4a:1b:fe:4f:c4:74:f4:b2:32:b3:fd:4d:04:79:f9:66:69:3e:
         ac:11:54:ad:99:e6:80:20:fc:0a:f6:5b:67:c8:e9:1c:3e:99:
         b9:60:c6:75:c9:15:97:4e:2d:e7:5a:96:b8:62:e1:3f:8f:2b:
         0c:9b:85:a6:ab:cd:d7:ba:0c:59:02:39:73:a1:10:bd:01:10:
         ec:4b:7e:79:fb:d3:e5:59:0d:46:c4:d6:d1:ca:f9:f4:0f:09:
         70:fe:b6:9d:df:40:8b:5b:55:4f:f4:c0:d9:f4:f0:31:f3:29:
         5e:61:22:21:13:6b:3d:61:a2:2d:8f:2b:f8:6c:bb:0c:e8:87:
         d5:f4:cf:d1:47:36:bc:02:5a:72:a5:53:60:e2:b7:0b:1e:0d:
         35:70:7c:f7:7b:83:4a:0f:83:3f:79:79:13:24:92:43:d5:61:
         d8:62:9e:82:5c:c7:49:6b:59:d4:b9:ef:dd:3a:40:ae:5b:82:
         f0:81:2f:c5:e2:f2:0d:c0:44:81:97:6a:12:35:04:72:52:cb:
         04:84:7e:96:02:d8:a5:40:09:8b:78:ed:3d:b1:0a:d9:9d:b4:
         4e:c4:06:df:55:0b:bb:e5:fa:47:4b:7e:83:5b:08:33:2f:ae:
         69:c4:ca:ee:ef:4c:bd:2b:a8:02:c9:05:06:be:18:26:d5:fa:
         ed:d4:f8:54:3b:c8:41:a1:d0:36:fa:f5:6b:52:54:06:a5:6a:
         2f:0e:c0:02:e1:3e:d2:56:1c:1c:b1:bc:c7:e0:bf:8a:07:30:
         99:bb:b3:41:ec:b9:a6:22
-----BEGIN CERTIFICATE-----
MIIDXTCCAUWgAwIBAwIBATANBgkqhkiG9w0BAQUFADApMQswCQYDVQQGEwJCRTEa
MBgGA1UEAxMRdHhqc29ucnBjLXRlc3QtY2EwHhcNNzAwMTAxMDAwMDAwWhcNMzgw
MTE5MDMxNDA3WjA/MRgwFgYDVQQDEw93d3cuZXhhbXBsZS5jb20xCzAJBgNVBAYT
AkJFMRYwFAYDVQQKEw1HcmVtd2VsbCBidmJhMIGfMA0GCSqGSIb3DQEBAQUAA4GN
ADCBiQKBgQCmkKxLwzj7FDRIZUGmmeCNnhCiGZJxUwC9B41z52E6kWpxk94Jli+0
31WE4HJFYeruDfg3f/nt8iDA7SxWKQhMeBB2H1J97DgN4ukipisbUdrMepAOSMLt
RIG1Q2r8aBITVjv7I4RnUYrrFG0BLNoFWDIhSrAvgmtS9S8wgIpU6wIDAQABMA0G
CSqGSIb3DQEBBQUAA4ICAQC3Z9DaLDBWsf8561hC63/0FQG8Ji7FXSKke/T0WJQx
EjOKndUJZRujWLb53g2yYn7ttNNFHTVZE8WcNIYrbU7LhdfgtxU2D648MEX9WLqY
Q8Gqz880uumTxXTdbw8tcjTNMC0Tc9gIVWDZqiE+UbjABEpiggJlm/VYKtArl5RV
OPxMfB2NDCT4QDwZREhSzdHS72/e80s3oyOFlHZviES95hDdd+Bs7/ZyglmKAl42
7FMwqyPwo6d89OLcEpAMeXSqmXJxu7yUTlPtjG5Mtxjxvv6GRmLCin1KG/5PxHT0
sjKz/U0EeflmaT6sEVStmeaAIPwK9ltnyOkcPpm5YMZ1yRWXTi3nWpa4YuE/jysM
m4Wmq83XugxZAjlzoRC9ARDsS355+9PlWQ1GxNbRyvn0Dwlw/rad30CLW1VP9MDZ
9PAx8yleYSIhE2s9YaItjyv4bLsM6IfV9M/RRza8AlpypVNg4rcLHg01cHz3e4NK
D4M/eXkTJJJD1WHYYp6CXMdJa1nUue/dOkCuW4LwgS/F4vINwESBl2oSNQRyUssE
hH6WAtilQAmLeO09sQrZnbROxAbfVQu75fpHS36DWwgzL65pxMru70y9K6gCyQUG
vhgm1frt1PhUO8hBodA2+vVrUlQGpWovDsAC4T7SVhwcsbzH4L+KBzCZu7NB7Lmm
Ig==
-----END CERTIFICATE-----
Certificate:
    Data:
        Version: 3 (0x2)
        Serial Number: 10219423159405941259 (0x8dd2af37f9ca920b)
    Signature Algorithm: sha1WithRSAEncryption
        Issuer: C=BE, CN=txjsonrpc-test-ca
        Validity
            Not Before: Jun 23 15:46:37 2012 GMT
            Not After : Jun 21 15:46:37 2022 GMT
        Subject: C=BE, CN=txjsonrpc-test-ca
        Subject Public Key Info:
            Public Key Algorithm: rsaEncryption
                Public-Key: (4096 bit)
                Modulus:
                    00:d1:25:af:77:c5:a8:72:cf:90:b9:39:10:fb:7b:
                    75:2c:a1:da:6a:95:e5:44:0c:d6:25:4b:58:7f:bb:
                    07:82:59:49:58:32:85:24:cc:3e:77:db:e1:a7:4f:
                    c8:b5:cb:ee:45:38:bd:bc:fb:e3:76:3b:88:04:ca:
                    ab:3a:a3:96:3b:5f:93:9c:28:a6:61:97:dc:a2:3f:
                    a0:93:2b:56:6c:cf:d3:4f:6a:9e:05:d3:1c:cd:ef:
                    75:80:1a:98:b7:92:49:14:33:b8:c4:7c:73:8c:7e:
                    83:a5:81:a2:59:8c:8b:a3:51:36:6d:68:ac:f2:f1:
                    ed:6f:49:d9:af:7a:63:c1:43:31:42:b6:c7:cd:b9:
                    78:b7:33:98:70:92:6c:9e:04:7a:7b:f0:6d:38:87:
                    eb:00:13:17:b9:d9:ec:b4:66:bb:51:d3:fd:81:e3:
                    0e:88:71:23:d2:80:2a:61:de:ab:25:02:47:a9:c1:
                    6b:c9:69:ae:da:47:b6:49:74:ac:a6:e1:c1:76:ba:
                    6d:b1:d9:68:6e:1c:37:a8:e2:18:60:37:b6:58:13:
                    6c:c7:92:7c:c6:45:8c:ef:c3:81:73:10:dc:2f:31:
                    e2:b9:05:5a:9e:28:70:5a:3e:1d:b8:68:71:81:c9:
                    e8:fe:1f:c3:a0:13:f8:e4:24:12:ba:91:8e:15:d2:
                    03:f1:8c:b0:aa:e2:34:e4:6b:f8:06:f6:23:8a:92:
                    43:a6:05:dc:e9:c7:a5:a8:06:d7:6e:91:52:72:47:
                    ab:ae:87:fe:b3:0f:04:87:6f:4b:22:29:e9:a9:06:
                    52:58:7d:03:16:d7:d5:31:44:b4:f1:51:44:a7:2a:
                    ba:5e:09:19:ec:4c:a2:e0:58:fe:0d:4e:b7:90:4d:
                    02:ac:2a:ad:99:14:65:3b:0a:3c:73:45:56:b2:0f:
                    10:25:24:51:79:57:1a:34:1a:10:6f:60:e0:fc:81:
                    db:ca:c2:e2:85:1b:4c:72:13:5c:9d:76:cc:d0:21:
                    33:31:56:82:8f:c5:57:b9:44:fd:8b:76:c1:b6:e4:
                    21:8b:35:9a:ee:54:74:9f:72:6b:19:84:d7:a2:3c:
                    a5:6e:11:0a:f1:93:04:2e:dd:7c:4c:7d:62:10:d4:
                    1b:8b:87:f6:ed:bf:12:b1:8b:f0:9a:7a:ee:02:94:
                    e1:3c:46:2b:7f:9c:54:fb:2e:61:c9:1c:ef:fc:de:
                    25:bc:2d:75:1b:1f:49:5e:44:3b:15:93:ad:c4:89:
                    d9:ae:3c:da:54:ef:d9:af:3a:16:cb:94:1b:6a:14:
                    e4:42:f9:75:33:46:6e:fb:40:bc:f8:82:36:cf:60:
                    f5:c2:a2:98:23:a7:2a:ae:c1:aa:22:f8:87:da:b7:
                    9c:a4:cf
                Exponent: 65537 (0x10001)
        X509v3 extensions:
            X509v3 Subject Key Identifier: 
                9D:8F:84:76:94:CD:07:FE:A3:E8:8B:D7:F9:D9:6E:EF:CA:75:51:7B
            X509v3 Authority Key Identifier: 
                keyid:9D:8F:84:76:94:CD:07:FE:A3:E8:8B:D7:F9:D9:6E:EF:CA:75:51:7B
                DirName:/C=BE/CN=txjsonrpc-test-ca
                serial:8D:D2:AF:37:F9:CA:92:0B

            X509v3 Basic Constraints: critical
                CA:TRUE
            Netscape Cert Type: 
                SSL CA, S/MIME CA
            X509v3 Issuer Alternative Name: 
                <EMPTY>

            Netscape Comment: 
                Test CA for txjsonrcp
            X509v3 Subject Alternative Name: 
                <EMPTY>

            X509v3 Key Usage: critical
                Certificate Sign, CRL Sign
    Signature Algorithm: sha1WithRSAEncryption
         06:82:86:81:a9:1b:7e:2d:ef:f5:fc:cc:d2:9d:d6:82:ad:d0:
         6f:7e:3d:b9:5c:b2:0f:3a:64:21:9a:fb:53:b2:93:81:dc:1a:
         24:fc:b8:30:57:a2:c7:71:0d:9c:1a:0b:8a:6c:89:52:8b:8a:
         f5:af:95:3e:b8:08:39:ee:36:50:ac:60:4d:df:2b:49:a2:72:
         f1:3f:12:3c:d9:55:56:a4:9a:77:2b:77:fa:16:b5:76:d9:f4:
         c4:51:6b:b9:fe:2f:a3:52:e8:64:80:49:22:6d:05:42:87:af:
         9d:85:6c:fa:c9:9b:48:39:7b:89:f5:a0:1e:ff:11:d3:9c:78:
         b1:b2:f6:4d:b1:e8:b3:98:23:2c:d4:20:e1:a1:01:3e:26:0a:
         5b:8e:eb:58:45:22:cf:e1:94:ad:84:40:b0:fb:ff:25:5f:31:
         9a:49:0b:36:ad:c6:1a:b0:42:60:40:e2:a2:3c:5a:36:41:89:
         fc:10:c4:60:ea:d4:85:7b:36:84:df:aa:81:cc:69:e7:52:ca:
         c1:46:b1:79:93:51:4f:24:84:42:14:3a:20:a0:6c:27:76:40:
         0f:96:7e:4e:c3:0c:37:b3:e3:73:49:86:58:31:00:1e:e7:0f:
         87:74:b6:4e:6e:1c:7d:87:a4:33:04:c9:76:ec:e5:3a:85:5f:
         a8:d1:ad:21:64:5e:c5:6a:df:b1:02:6e:65:a4:87:72:06:07:
         da:e5:f2:af:2b:a5:eb:18:80:67:83:a5:3c:e6:ed:d1:58:f9:
         90:5c:d6:e9:2f:76:c1:58:13:b8:bd:88:8a:f3:04:48:bb:42:
         8f:7f:c6:db:b4:30:3f:bb:6c:d5:47:e5:ae:8d:4b:da:92:a5:
         db:d3:6e:a8:9b:c2:6b:56:af:34:63:82:e6:78:f8:1f:54:d7:
         41:aa:a3:c9:7c:a6:83:41:bf:6e:33:7c:ae:e6:92:bd:da:27:
         b4:bc:e2:90:4f:33:1b:01:a1:cd:02:13:7a:31:ef:00:d6:9a:
         6e:38:6b:a7:cb:70:98:a8:0f:ff:1c:56:a8:b7:e6:d2:42:5a:
         bb:f4:78:27:71:13:d0:e8:43:eb:bc:2d:4f:e4:ea:4d:4f:76:
         7f:53:38:34:eb:13:e2:3d:c6:14:98:86:1c:ab:2c:0e:b7:68:
         2e:bd:63:a9:6a:8f:d5:22:2d:ab:13:d7:62:54:51:ff:5c:37:
         08:04:27:da:f9:57:77:05:18:73:88:5f:b0:c1:65:50:36:09:
         d6:c7:f5:ae:6e:3f:04:d1:84:3c:21:74:1d:bd:0a:fb:76:d0:
         13:2b:62:bb:24:48:43:89:d0:18:5c:b4:ad:ea:98:af:6d:fc:
         1c:6b:1f:06:64:54:23:88
-----BEGIN CERTIFICATE-----
MIIFwzCCA6ugAwIBAgIJAI3Srzf5ypILMA0GCSqGSIb3DQEBBQUAMCkxCzAJBgNV
BAYTAkJFMRowGAYDVQQDExF0eGpzb25ycGMtdGVzdC1jYTAeFw0xMjA2MjMxNTQ2
MzdaFw0yMjA2MjExNTQ2MzdaMCkxCzAJBgNVBAYTAkJFMRowGAYDVQQDExF0eGpz
b25ycGMtdGVzdC1jYTCCAiIwDQYJKoZIhvcNAQEBBQADggIPADCCAgoCggIBANEl
r3fFqHLPkLk5EPt7dSyh2mqV5UQM1iVLWH+7B4JZSVgyhSTMPnfb4adPyLXL7kU4
vbz743Y7iATKqzqjljtfk5wopmGX3KI/oJMrVmzP009qngXTHM3vdYAamLeSSRQz
uMR8c4x+g6WBolmMi6NRNm1orPLx7W9J2a96Y8FDMUK2x825eLczmHCSbJ4Eenvw
bTiH6wATF7nZ7LRmu1HT/YHjDohxI9KAKmHeqyUCR6nBa8lprtpHtkl0rKbhwXa6
bbHZaG4cN6jiGGA3tlgTbMeSfMZFjO/DgXMQ3C8x4rkFWp4ocFo+HbhocYHJ6P4f
w6AT+OQkErqRjhXSA/GMsKriNORr+Ab2I4qSQ6YF3OnHpagG126RUnJHq66H/rMP
BIdvSyIp6akGUlh9AxbX1TFEtPFRRKcqul4JGexMouBY/g1Ot5BNAqwqrZkUZTsK
PHNFVrIPECUkUXlXGjQaEG9g4PyB28rC4oUbTHITXJ12zNAhMzFWgo/FV7lE/Yt2
wbbkIYs1mu5UdJ9yaxmE16I8pW4RCvGTBC7dfEx9YhDUG4uH9u2/ErGL8Jp67gKU
4TxGK3+cVPsuYckc7/zeJbwtdRsfSV5EOxWTrcSJ2a482lTv2a86FsuUG2oU5EL5
dTNGbvtAvPiCNs9g9cKimCOnKq7BqiL4h9q3nKTPAgMBAAGjge0wgeowHQYDVR0O
BBYEFJ2PhHaUzQf+o+iL1/nZbu/KdVF7MFkGA1UdIwRSMFCAFJ2PhHaUzQf+o+iL
1/nZbu/KdVF7oS2kKzApMQswCQYDVQQGEwJCRTEaMBgGA1UEAxMRdHhqc29ucnBj
LXRlc3QtY2GCCQCN0q83+cqSCzAPBgNVHRMBAf8EBTADAQH/MBEGCWCGSAGG+EIB
AQQEAwIBBjAJBgNVHRIEAjAAMCQGCWCGSAGG+EIBDQQXFhVUZXN0IENBIGZvciB0
eGpzb25yY3AwCQYDVR0RBAIwADAOBgNVHQ8BAf8EBAMCAQYwDQYJKoZIhvcNAQEF
BQADggIBAAaChoGpG34t7/X8zNKd1oKt0G9+Pblcsg86ZCGa+1Oyk4HcGiT8uDBX
osdxDZwaC4psiVKLivWvlT64CDnuNlCsYE3fK0micvE/EjzZVVakmncrd/oWtXbZ
9MRRa7n+L6NS6GSASSJtBUKHr52FbPrJm0g5e4n1oB7/EdOceLGy9k2x6LOYIyzU
IOGhAT4mCluO61hFIs/hlK2EQLD7/yVfMZpJCzatxhqwQmBA4qI8WjZBifwQxGDq
1IV7NoTfqoHMaedSysFGsXmTUU8khEIUOiCgbCd2QA+Wfk7DDDez43NJhlgxAB7n
D4d0tk5uHH2HpDMEyXbs5TqFX6jRrSFkXsVq37ECbmWkh3IGB9rl8q8rpesYgGeD
pTzm7dFY+ZBc1ukvdsFYE7i9iIrzBEi7Qo9/xtu0MD+7bNVH5a6NS9qSpdvTbqib
wmtWrzRjguZ4+B9U10Gqo8l8poNBv24zfK7mkr3aJ7S84pBPMxsBoc0CE3ox7wDW
mm44a6fLcJioD/8cVqi35tJCWrv0eCdxE9DoQ+u8LU/k6k1Pdn9TODTrE+I9xhSY
hhyrLA63aC69Y6lqj9UiLasT12JUUf9cNwgEJ9r5V3cFGHOIX7DBZVA2CdbH9a5u
PwTRhDwhdB29Cvt20BMrYrskSEOJ0BhctK3qmK9t/BxrHwZkVCOI
-----END CERTIFICATE-----
