Certificate:
    Data:
        Version: 4 (0x3)
        Serial Number: 1 (0x1)
    Signature Algorithm: sha1WithRSAEncryption
        Issuer: CN=txjsonrpc-pyserver, C=BE, O=Gremwell bvba
        Validity
            Not Before: Jan  1 00:00:00 1970 GMT
            Not After : Jan 19 03:14:07 2038 GMT
        Subject: CN=txjsonrpc-pyserver, C=BE, O=Gremwell bvba
        Subject Public Key Info:
            Public Key Algorithm: rsaEncryption
                Public-Key: (1024 bit)
                Modulus:
                    00:db:9a:9f:c9:99:d7:23:12:0e:38:31:23:13:66:
                    f0:de:5d:6d:89:63:c8:ed:fa:03:f1:12:40:ae:1c:
                    73:86:2c:5a:90:05:f4:31:99:eb:5c:41:7e:a9:bb:
                    06:46:dd:73:3e:98:de:ff:a6:ad:ea:35:fc:c3:b6:
                    f7:15:d9:27:d3:3f:72:a2:96:db:ae:5f:a8:da:a4:
                    f4:a5:00:ad:88:33:4e:4c:be:47:4e:f4:82:03:9e:
                    da:c8:8c:43:9b:3c:96:6c:0c:7f:f9:0b:85:7b:0f:
                    2e:4b:57:ba:36:5e:71:2e:e4:b5:04:68:aa:55:0b:
                    2b:3c:a5:d9:ff:6e:ae:23:71
                Exponent: 65537 (0x10001)
    Signature Algorithm: sha1WithRSAEncryption
         6b:15:53:4f:38:76:68:9e:b2:4e:19:0d:52:68:b8:a1:5f:c8:
         6c:d6:c3:ea:76:44:53:94:f8:ac:08:bd:17:ef:0c:df:af:75:
         63:59:0a:86:8f:08:b3:f4:3c:dd:06:11:91:6f:3e:69:94:3d:
         d9:00:ca:9b:22:95:5f:e9:bd:ab:c3:d4:37:e1:fb:7a:0c:a3:
         fa:28:8d:f6:9e:09:d1:49:ba:5f:3f:85:47:10:ef:47:c1:3a:
         c8:f0:f9:f8:ea:2d:e3:85:8c:7d:d7:6c:f1:9c:ed:89:6c:24:
         98:fc:13:a7:de:d5:33:50:c4:cc:20:d3:71:c3:1b:d8:74:e2:
         e4:08
-----BEGIN CERTIFICATE-----
MIIB+DCCAWGgAwIBAwIBATANBgkqhkiG9w0BAQUFADBCMRswGQYDVQQDExJ0eGpz
b25ycGMtcHlzZXJ2ZXIxCzAJBgNVBAYTAkJFMRYwFAYDVQQKEw1HcmVtd2VsbCBi
dmJhMB4XDTcwMDEwMTAwMDAwMFoXDTM4MDExOTAzMTQwN1owQjEbMBkGA1UEAxMS
dHhqc29ucnBjLXB5c2VydmVyMQswCQYDVQQGEwJCRTEWMBQGA1UEChMNR3JlbXdl
bGwgYnZiYTCBnzANBgkqhkiG9w0BAQEFAAOBjQAwgYkCgYEA25qfyZnXIxIOODEj
E2bw3l1tiWPI7foD8RJArhxzhixakAX0MZnrXEF+qbsGRt1zPpje/6at6jX8w7b3
Fdkn0z9yopbbrl+o2qT0pQCtiDNOTL5HTvSCA57ayIxDmzyWbAx/+QuFew8uS1e6
Nl5xLuS1BGiqVQsrPKXZ/26uI3ECAwEAATANBgkqhkiG9w0BAQUFAAOBgQBrFVNP
OHZonrJOGQ1SaLihX8hs1sPqdkRTlPisCL0X7wzfr3VjWQqGjwiz9DzdBhGRbz5p
lD3ZAMqbIpVf6b2rw9Q34ft6DKP6KI32ngnRSbpfP4VHEO9HwTrI8Pn46i3jhYx9
12zxnO2JbCSY/BOn3tUzUMTMINNxwxvYdOLkCA==
-----END CERTIFICATE-----
