Certificate:
    Data:
        Version: 4 (0x3)
        Serial Number: 1 (0x1)
    Signature Algorithm: sha1WithRSAEncryption
        Issuer: CN=ca-false, C=BE, O=Gremwell bvba
        Validity
            Not Before: Jan  1 00:00:00 1970 GMT
            Not After : Jan 19 03:14:07 2038 GMT
        Subject: CN=txjsonrpc-pyserver, C=BE, O=Gremwell bvba
        Subject Public Key Info:
            Public Key Algorithm: rsaEncryption
                Public-Key: (1024 bit)
                Modulus:
                    00:db:9a:9f:c9:99:d7:23:12:0e:38:31:23:13:66:
                    f0:de:5d:6d:89:63:c8:ed:fa:03:f1:12:40:ae:1c:
                    73:86:2c:5a:90:05:f4:31:99:eb:5c:41:7e:a9:bb:
                    06:46:dd:73:3e:98:de:ff:a6:ad:ea:35:fc:c3:b6:
                    f7:15:d9:27:d3:3f:72:a2:96:db:ae:5f:a8:da:a4:
                    f4:a5:00:ad:88:33:4e:4c:be:47:4e:f4:82:03:9e:
                    da:c8:8c:43:9b:3c:96:6c:0c:7f:f9:0b:85:7b:0f:
                    2e:4b:57:ba:36:5e:71:2e:e4:b5:04:68:aa:55:0b:
                    2b:3c:a5:d9:ff:6e:ae:23:71
                Exponent: 65537 (0x10001)
    Signature Algorithm: sha1WithRSAEncryption
         28:57:bb:e1:bd:43:3d:e5:d9:8e:0b:19:7c:48:ef:51:50:f9:
         d2:77:80:c6:2e:fa:e6:27:2d:02:3a:16:36:cf:46:ec:cd:1e:
         40:a2:92:ff:49:ee:16:e7:1f:5c:6d:d7:c6:cc:09:99:c1:3f:
         be:14:a2:fd:1c:18:88:cc:2c:9d:91:66:b8:d3:81:fa:ca:b5:
         e7:ac:50:76:d6:2b:48:e8:09:96:8d:62:06:36:93:d8:59:0b:
         0f:ae:04:97:0e:c2:a9:a2:b9:5d:67:04:f3:a9:14:f8:58:64:
         13:23:4c:97:9d:eb:54:c8:45:a4:df:d6:53:4c:de:90:34:49:
         39:6d
-----BEGIN CERTIFICATE-----
MIIB7jCCAVegAwIBAwIBATANBgkqhkiG9w0BAQUFADA4MREwDwYDVQQDEwhjYS1m
YWxzZTELMAkGA1UEBhMCQkUxFjAUBgNVBAoTDUdyZW13ZWxsIGJ2YmEwHhcNNzAw
MTAxMDAwMDAwWhcNMzgwMTE5MDMxNDA3WjBCMRswGQYDVQQDExJ0eGpzb25ycGMt
cHlzZXJ2ZXIxCzAJBgNVBAYTAkJFMRYwFAYDVQQKEw1HcmVtd2VsbCBidmJhMIGf
MA0GCSqGSIb3DQEBAQUAA4GNADCBiQKBgQDbmp/JmdcjEg44MSMTZvDeXW2JY8jt
+gPxEkCuHHOGLFqQBfQxmetcQX6puwZG3XM+mN7/pq3qNfzDtvcV2SfTP3Kiltuu
X6japPSlAK2IM05MvkdO9IIDntrIjEObPJZsDH/5C4V7Dy5LV7o2XnEu5LUEaKpV
Cys8pdn/bq4jcQIDAQABMA0GCSqGSIb3DQEBBQUAA4GBAChXu+G9Qz3l2Y4LGXxI
71FQ+dJ3gMYu+uYnLQI6FjbPRuzNHkCikv9J7hbnH1xt18bMCZnBP74Uov0cGIjM
LJ2RZrjTgfrKteesUHbWK0joCZaNYgY2k9hZCw+uBJcOwqmiuV1nBPOpFPhYZBMj
TJed61TIRaTf1lNM3pA0STlt
-----END CERTIFICATE-----
Certificate:
    Data:
        Version: 4 (0x3)
        Serial Number: 1 (0x1)
    Signature Algorithm: sha1WithRSAEncryption
        Issuer: C=BE, CN=txjsonrpc-test-ca
        Validity
            Not Before: Jan  1 00:00:00 1970 GMT
            Not After : Jan 19 03:14:07 2038 GMT
        Subject: CN=ca-false, C=BE, O=Gremwell bvba
        Subject Public Key Info:
            Public Key Algorithm: rsaEncryption
                Public-Key: (1024 bit)
                Modulus:
                    00:c6:8e:e7:ee:97:b6:48:3c:76:97:1a:18:2a:6c:
                    71:82:b7:26:6e:40:e0:cf:80:82:8a:f1:16:ee:1f:
                    d4:7d:da:69:1e:24:58:1f:e2:02:19:13:6c:02:39:
                    e7:33:e4:e2:86:bd:77:05:8a:58:6b:97:34:be:f5:
                    83:66:54:c6:e2:d8:62:a1:30:73:b3:99:9b:e1:a4:
                    b1:69:0d:fb:23:9e:4b:32:3b:65:ca:87:96:37:f7:
                    b4:d1:25:36:70:f0:66:02:da:d8:4f:ab:05:dc:5d:
                    55:e2:f7:ed:9b:b1:58:33:57:09:d5:18:20:d0:66:
                    de:67:ae:2c:79:e1:d3:75:81
                Exponent: 65537 (0x10001)
        X509v3 extensions:
            X509v3 Basic Constraints: critical
                CA:FALSE
    Signature Algorithm: sha1WithRSAEncryption
         64:6a:e6:53:25:3f:07:de:94:1d:af:b5:b9:bc:dc:55:b3:26:
         02:8c:37:40:4d:5a:70:d9:60:80:bb:9a:b4:2d:c9:07:23:b6:
         29:27:54:03:be:58:d1:d3:bd:69:d8:1f:a8:6e:e1:a0:84:65:
         03:7c:02:0a:80:15:62:f1:cd:2d:7a:cc:c9:2a:44:38:8b:b9:
         26:d0:85:0b:9b:78:fb:77:34:36:ec:5a:31:2a:fb:b1:3e:5a:
         f2:2b:e8:20:60:8d:2e:55:30:a5:ac:77:14:09:0c:76:43:f5:
         44:1f:7e:54:e3:f2:42:0f:ea:98:ab:7c:fa:4e:a7:9e:50:aa:
         61:fb:9b:ac:6f:0a:d7:9f:51:33:a5:a5:17:e6:63:36:40:67:
         8f:b3:f6:a2:60:2c:63:a5:cf:82:1b:6f:d5:cd:3d:99:52:eb:
         36:53:64:1f:1b:37:aa:a7:8b:e2:dc:00:75:66:c8:49:d1:b8:
         8d:39:74:43:29:86:77:97:d0:86:cb:41:11:78:a1:57:01:80:
         f2:b6:1c:bc:6e:d1:a0:db:d9:56:0b:03:c7:94:a1:64:fd:75:
         52:40:52:29:03:e1:d6:94:3e:fc:b9:da:d3:b0:45:a0:73:78:
         7f:08:02:0b:d3:ee:ba:c1:50:04:12:c7:74:11:e5:85:e2:50:
         1b:39:10:37:5a:46:83:68:c5:33:cd:6a:9a:3b:b7:98:43:4e:
         31:ee:8f:88:5d:96:05:78:1c:b6:13:e7:02:98:0f:8f:38:0b:
         5e:53:82:e3:4f:d9:f8:01:ab:0a:d0:40:8c:56:6f:3e:e6:85:
         5f:54:d4:1a:b4:48:1c:01:e3:fb:f4:41:9e:83:ef:8b:1e:13:
         f2:b8:d7:33:7f:56:42:98:2e:24:64:a1:a3:38:70:2b:6f:8b:
         cc:56:07:dd:b5:5f:14:53:f4:c3:a8:98:b4:aa:b2:3b:6f:38:
         51:30:a6:7d:c6:59:52:e7:43:76:4e:75:40:f1:42:87:ce:2c:
         d0:b2:b0:55:8d:9e:e1:6a:e8:b0:10:ea:4c:13:30:ea:6c:d8:
         9d:16:55:7c:f8:6f:5a:a8:ee:e6:32:1c:7d:1f:20:cc:55:32:
         05:22:ad:23:e4:d7:fc:96:7c:ab:13:90:c1:c2:06:38:f8:72:
         53:a1:46:38:33:38:3d:11:ad:fc:c2:6a:1d:da:0b:db:21:70:
         5a:3f:bd:51:5f:95:98:bb:66:6c:57:7d:db:a8:55:81:6a:a9:
         89:9d:cf:e1:eb:82:c8:5f:47:b9:28:79:36:2c:d2:c0:7d:75:
         ae:e0:b4:15:49:2c:00:06:cb:46:65:33:13:7c:e6:ee:0c:5b:
         97:45:b0:3d:d5:68:26:a7
-----BEGIN CERTIFICATE-----
MIIDaDCCAVCgAwIBAwIBATANBgkqhkiG9w0BAQUFADApMQswCQYDVQQGEwJCRTEa
MBgGA1UEAxMRdHhqc29ucnBjLXRlc3QtY2EwHhcNNzAwMTAxMDAwMDAwWhcNMzgw
MTE5MDMxNDA3WjA4MREwDwYDVQQDEwhjYS1mYWxzZTELMAkGA1UEBhMCQkUxFjAU
BgNVBAoTDUdyZW13ZWxsIGJ2YmEwgZ8wDQYJKoZIhvcNAQEBBQADgY0AMIGJAoGB
AMaO5+6Xtkg8dpcaGCpscYK3Jm5A4M+AgorxFu4f1H3aaR4kWB/iAhkTbAI55zPk
4oa9dwWKWGuXNL71g2ZUxuLYYqEwc7OZm+GksWkN+yOeSzI7ZcqHljf3tNElNnDw
ZgLa2E+rBdxdVeL37ZuxWDNXCdUYINBm3meuLHnh03WBAgMBAAGjEDAOMAwGA1Ud
EwEB/wQCMAAwDQYJKoZIhvcNAQEFBQADggIBAGRq5lMlPwfelB2vtbm83FWzJgKM
N0BNWnDZYIC7mrQtyQcjtiknVAO+WNHTvWnYH6hu4aCEZQN8AgqAFWLxzS16zMkq
RDiLuSbQhQubePt3NDbsWjEq+7E+WvIr6CBgjS5VMKWsdxQJDHZD9UQfflTj8kIP
6pirfPpOp55QqmH7m6xvCtefUTOlpRfmYzZAZ4+z9qJgLGOlz4Ibb9XNPZlS6zZT
ZB8bN6qni+LcAHVmyEnRuI05dEMphneX0IbLQRF4oVcBgPK2HLxu0aDb2VYLA8eU
oWT9dVJAUikD4daUPvy52tOwRaBzeH8IAgvT7rrBUAQSx3QR5YXiUBs5EDdaRoNo
xTPNapo7t5hDTjHuj4hdlgV4HLYT5wKYD484C15TguNP2fgBqwrQQIxWbz7mhV9U
1Bq0SBwB4/v0QZ6D74seE/K41zN/VkKYLiRkoaM4cCtvi8xWB921XxRT9MOomLSq
sjtvOFEwpn3GWVLnQ3ZOdUDxQofOLNCysFWNnuFq6LAQ6kwTMOps2J0WVXz4b1qo
7uYyHH0fIMxVMgUirSPk1/yWfKsTkMHCBjj4clOhRjgzOD0RrfzCah3aC9shcFo/
vVFflZi7ZmxXfduoVYFqqYmdz+HrgshfR7koeTYs0sB9da7gtBVJLAAGy0ZlMxN8
5u4MW5dFsD3VaCan
-----END CERTIFICATE-----
