Certificate:
    Data:
        Version: 4 (0x3)
        Serial Number: 1 (0x1)
    Signature Algorithm: sha1WithRSAEncryption
        Issuer: CN=ca-true, C=BE, O=Gremwell bvba
        Validity
            Not Before: Jun 23 15:47:38 2012 GMT
            Not After : Jun 23 15:47:38 2013 GMT
        Subject: C=BE, CN=txjsonrpc-pyserver
        Subject Public Key Info:
            Public Key Algorithm: rsaEncryption
                Public-Key: (4096 bit)
                Modulus:
                    00:b2:d7:99:28:9b:01:64:48:bc:1d:71:d2:22:9d:
                    05:00:f8:ee:06:14:fa:71:ad:ad:1a:61:2b:d2:15:
                    45:49:dd:57:90:8f:f2:bf:e2:4f:56:40:cd:dc:be:
                    c4:5b:6d:f9:e0:94:c8:64:30:f9:59:b7:3b:0a:72:
                    5f:7f:32:3f:af:78:6a:4a:a3:20:c6:53:47:e3:dd:
                    ac:7b:84:e7:2a:87:63:64:b0:f4:89:95:ae:1e:7b:
                    4f:88:78:62:42:e4:15:35:35:69:38:83:42:2e:b9:
                    ca:4d:c3:7a:11:24:cd:34:c7:0b:9a:02:53:e8:ac:
                    2e:f7:24:5e:d3:e7:d5:c0:b2:da:3f:3a:56:a3:b9:
                    13:cb:25:f8:59:6d:13:ea:28:a2:88:78:9a:88:a7:
                    45:a8:1f:e1:56:ad:a3:9b:f3:ee:f7:5b:ee:69:8c:
                    e1:6d:f5:b1:09:be:63:46:49:1e:16:24:4e:a9:cc:
                    f1:7c:c5:87:1b:8f:e3:48:ef:aa:44:b2:c2:3e:31:
                    85:28:47:b5:d8:68:12:05:3a:06:cd:e3:ea:d6:d1:
                    cc:59:ac:68:f3:35:7b:a6:53:ce:4c:c9:7b:c7:0f:
                    dd:97:89:b9:2c:a5:cd:ee:14:62:0a:4f:46:f4:0c:
                    33:94:b9:25:4e:e9:ee:ec:2c:18:14:1a:3c:7c:41:
                    db:fb:df:9f:e1:ee:db:28:8e:8b:ec:f2:dc:40:62:
                    d8:34:f7:d5:87:dc:ef:68:ed:50:59:57:0b:a3:10:
                    73:03:b4:bd:66:47:89:94:32:ae:e2:0a:e5:69:92:
                    ae:42:93:1b:cf:9f:eb:73:c6:45:7f:0b:24:9c:f4:
                    b8:c2:fb:87:84:6e:41:be:96:3b:d6:2a:32:fe:04:
                    6b:80:fc:60:4a:0d:51:e0:66:bb:e1:89:26:e9:1b:
                    bc:47:9c:20:23:54:73:92:3b:ff:73:1b:37:7d:00:
                    bd:e6:e6:0a:3b:82:49:eb:38:b3:5c:03:ac:6e:7c:
                    6f:e0:e9:98:dc:b6:b1:93:2e:98:0b:2f:89:99:9b:
                    4f:e4:a2:81:ee:3f:a3:7a:a7:e2:39:d4:24:9c:1a:
                    02:44:a4:fa:f9:af:7d:f7:69:5f:84:cb:72:b1:f3:
                    9d:85:57:08:6b:53:82:a1:f9:f7:a9:f1:04:9b:7c:
                    ca:73:da:66:cb:e6:2b:72:a7:df:80:cd:c6:4d:b4:
                    f0:0c:dc:38:78:e9:a0:70:22:0c:35:bb:d1:af:50:
                    4a:b4:30:8a:6f:52:7d:3a:f1:96:3f:e1:e3:7f:a5:
                    fa:2c:81:5f:4b:7b:38:c8:8b:c6:09:b6:98:9a:51:
                    72:29:a0:c4:ed:43:e1:fc:32:8d:dd:e4:cf:97:83:
                    00:f9:4d
                Exponent: 65537 (0x10001)
        X509v3 extensions:
            X509v3 Basic Constraints: 
                CA:FALSE
            Netscape Cert Type: 
                SSL Server
            Netscape Comment: 
                TinyCA Generated Certificate
            X509v3 Subject Key Identifier: 
                26:8C:A5:F9:A6:4A:FE:4C:E8:0F:04:33:7E:04:26:28:BF:4C:92:F3
            X509v3 Authority Key Identifier: 
                keyid:9D:8F:84:76:94:CD:07:FE:A3:E8:8B:D7:F9:D9:6E:EF:CA:75:51:7B
                DirName:/C=BE/CN=txjsonrpc-test-ca
                serial:8D:D2:AF:37:F9:CA:92:0B

            X509v3 Issuer Alternative Name: 
                <EMPTY>

            X509v3 Subject Alternative Name: 
                <EMPTY>

    Signature Algorithm: sha1WithRSAEncryption
         96:e4:1a:22:d6:bd:d7:6f:46:e7:a9:5f:e6:e7:94:f7:b4:8f:
         8f:d7:ba:3b:19:7d:48:85:d8:19:8a:d0:21:fd:1d:14:81:90:
         44:95:60:3c:84:59:69:6a:f5:28:18:bd:a1:42:e1:fd:ca:2e:
         ee:3f:0c:f4:c8:15:8b:92:f3:d8:6c:f9:8d:ed:5a:53:fd:e8:
         1c:b0:e6:5c:55:63:ba:a0:ce:06:ba:c5:06:72:b3:fa:4b:73:
         74:2f:f9:e1:91:c8:e8:be:e9:a4:58:cf:6a:65:2f:d7:7e:06:
         eb:f0:48:07:c0:73:15:c0:c2:34:0a:9f:98:1f:64:9b:b8:11:
         b8:7a
-----BEGIN CERTIFICATE-----
MIIEOjCCA6OgAwIBAwIBATANBgkqhkiG9w0BAQUFADA3MRAwDgYDVQQDEwdjYS10
cnVlMQswCQYDVQQGEwJCRTEWMBQGA1UEChMNR3JlbXdlbGwgYnZiYTAeFw0xMjA2
MjMxNTQ3MzhaFw0xMzA2MjMxNTQ3MzhaMCoxCzAJBgNVBAYTAkJFMRswGQYDVQQD
ExJ0eGpzb25ycGMtcHlzZXJ2ZXIwggIiMA0GCSqGSIb3DQEBAQUAA4ICDwAwggIK
AoICAQCy15komwFkSLwdcdIinQUA+O4GFPpxra0aYSvSFUVJ3VeQj/K/4k9WQM3c
vsRbbfnglMhkMPlZtzsKcl9/Mj+veGpKoyDGU0fj3ax7hOcqh2NksPSJla4ee0+I
eGJC5BU1NWk4g0IuucpNw3oRJM00xwuaAlPorC73JF7T59XAsto/OlajuRPLJfhZ
bRPqKKKIeJqIp0WoH+FWraOb8+73W+5pjOFt9bEJvmNGSR4WJE6pzPF8xYcbj+NI
76pEssI+MYUoR7XYaBIFOgbN4+rW0cxZrGjzNXumU85MyXvHD92Xibkspc3uFGIK
T0b0DDOUuSVO6e7sLBgUGjx8Qdv735/h7tsojovs8txAYtg099WH3O9o7VBZVwuj
EHMDtL1mR4mUMq7iCuVpkq5CkxvPn+tzxkV/CySc9LjC+4eEbkG+ljvWKjL+BGuA
/GBKDVHgZrvhiSbpG7xHnCAjVHOSO/9zGzd9AL3m5go7gknrOLNcA6xufG/g6Zjc
trGTLpgLL4mZm0/kooHuP6N6p+I51CScGgJEpPr5r333aV+Ey3Kx852FVwhrU4Kh
+fep8QSbfMpz2mbL5ityp9+AzcZNtPAM3Dh46aBwIgw1u9GvUEq0MIpvUn068ZY/
4eN/pfosgV9LezjIi8YJtpiaUXIpoMTtQ+H8Mo3d5M+XgwD5TQIDAQABo4HeMIHb
MAkGA1UdEwQCMAAwEQYJYIZIAYb4QgEBBAQDAgZAMCsGCWCGSAGG+EIBDQQeFhxU
aW55Q0EgR2VuZXJhdGVkIENlcnRpZmljYXRlMB0GA1UdDgQWBBQmjKX5pkr+TOgP
BDN+BCYov0yS8zBZBgNVHSMEUjBQgBSdj4R2lM0H/qPoi9f52W7vynVRe6EtpCsw
KTELMAkGA1UEBhMCQkUxGjAYBgNVBAMTEXR4anNvbnJwYy10ZXN0LWNhggkAjdKv
N/nKkgswCQYDVR0SBAIwADAJBgNVHREEAjAAMA0GCSqGSIb3DQEBBQUAA4GBAJbk
GiLWvddvRuepX+bnlPe0j4/XujsZfUiF2BmK0CH9HRSBkESVYDyEWWlq9SgYvaFC
4f3KLu4/DPTIFYuS89hs+Y3tWlP96Byw5lxVY7qgzga6xQZys/pLc3Qv+eGRyOi+
6aRYz2plL9d+BuvwSAfAcxXAwjQKn5gfZJu4Ebh6
-----END CERTIFICATE-----
Certificate:
    Data:
        Version: 4 (0x3)
        Serial Number: 1 (0x1)
    Signature Algorithm: sha1WithRSAEncryption
        Issuer: C=BE, CN=txjsonrpc-test-ca
        Validity
            Not Before: Jan  1 00:00:00 1970 GMT
            Not After : Jan 19 03:14:07 2038 GMT
        Subject: CN=ca-true, C=BE, O=Gremwell bvba
        Subject Public Key Info:
            Public Key Algorithm: rsaEncryption
                Public-Key: (1024 bit)
                Modulus:
                    00:c1:79:52:c2:60:d3:53:a0:c2:4b:bd:81:2d:25:
                    09:9d:15:ea:21:d8:28:19:f4:fe:62:8e:64:ac:0d:
                    65:99:f2:ea:35:4c:3e:83:92:4c:3b:ff:51:7b:50:
                    04:4e:35:cb:3b:3c:34:9d:c3:62:14:7f:ca:fa:2b:
                    fe:87:49:3a:e5:a3:5b:3d:86:fb:e5:68:5e:7a:3c:
                    93:96:20:c2:11:d8:f1:66:b3:31:6b:ea:d9:89:f9:
                    10:fc:c2:47:6f:ca:5d:ca:ba:2e:83:0f:cb:7b:18:
                    51:94:c3:3e:cb:e9:64:2e:dc:9a:be:3f:e3:9f:bd:
                    d3:c9:d1:6c:d0:59:4a:f9:a9
                Exponent: 65537 (0x10001)
        X509v3 extensions:
            X509v3 Basic Constraints: critical
                CA:TRUE
    Signature Algorithm: sha1WithRSAEncryption
         44:f3:9c:da:dc:c5:73:87:b5:3e:b9:d8:05:fe:f9:cb:02:46:
         34:12:89:b0:f9:c0:00:f0:a5:8b:6b:62:b3:8c:bc:12:7c:66:
         f1:00:d9:5c:3f:d4:c1:da:b6:db:0f:a8:20:09:27:9a:51:82:
         88:f8:16:74:b3:f7:30:38:d0:0f:b3:28:c4:00:e5:d1:d4:5d:
         b9:13:44:9f:09:7d:17:03:7e:2e:8a:96:5c:8d:7c:df:f3:75:
         da:ab:38:33:fc:19:fb:7f:69:43:c8:5a:ef:e6:a3:ff:80:41:
         be:70:27:79:3d:3d:b3:74:10:41:ec:23:76:22:d4:29:3e:4d:
         e6:f7:ef:96:5e:e5:7b:a4:e8:b9:ea:ae:7c:3e:a9:fa:f8:9b:
         ad:81:30:a7:dd:60:32:e8:c9:f0:40:87:52:2a:1f:de:60:44:
         78:d4:a1:03:f5:5a:4e:cc:e1:60:49:90:49:bd:7d:7b:f7:4b:
         1d:1b:d1:23:79:75:b9:5b:16:39:b9:d4:8c:8e:39:4a:8d:06:
         56:f9:b3:0f:99:cb:a9:a5:b2:2a:b8:f3:7b:60:0f:00:c7:52:
         5c:de:bd:21:f4:8c:f4:ae:71:fe:42:c3:d7:df:a4:7e:f7:bc:
         1f:67:cf:71:5c:62:05:0e:4d:d3:b2:8f:c1:e2:6c:4f:e0:44:
         63:62:d4:89:df:65:33:79:a6:34:38:10:1f:a1:eb:39:94:b0:
         cb:c0:75:2c:dd:84:64:9f:48:59:b6:61:28:5a:a5:08:58:40:
         6d:4c:02:b8:62:51:ba:1d:a4:62:a9:a7:de:ce:1e:26:f7:9b:
         89:48:8c:f6:7d:af:1e:23:9b:4f:87:ec:32:0c:7f:f4:e3:c8:
         6e:6f:d3:03:22:63:91:8e:53:2d:7d:15:0d:e7:ff:c4:c8:98:
         b1:28:5e:0b:b5:2a:77:25:5f:3e:ca:04:fb:fb:12:fa:c2:89:
         25:13:80:fb:a0:66:22:81:08:0a:8a:93:00:4d:33:72:1c:55:
         9e:60:55:04:07:cb:46:ab:2f:80:8e:ca:f6:ac:21:a0:dc:5c:
         3f:91:8b:65:42:b8:d7:47:af:70:c8:73:07:76:cd:70:10:47:
         32:a4:1b:b5:0d:c9:54:c0:b6:ab:96:52:e3:c6:07:b0:32:33:
         13:77:29:62:ff:45:f1:7a:6b:62:0e:23:a1:10:91:bb:7d:8c:
         b4:4e:59:b1:1d:cb:b6:cb:de:3d:17:b0:8c:ce:27:c7:cc:98:
         b1:3d:0d:59:96:00:26:7a:a1:7e:3b:45:45:cf:9d:5b:30:8c:
         ee:9f:b3:7e:3c:7c:35:e3:9f:bf:1c:99:0b:a8:d3:7a:04:3b:
         46:5c:f5:f9:52:1c:6b:30
-----BEGIN CERTIFICATE-----
MIIDajCCAVKgAwIBAwIBATANBgkqhkiG9w0BAQUFADApMQswCQYDVQQGEwJCRTEa
MBgGA1UEAxMRdHhqc29ucnBjLXRlc3QtY2EwHhcNNzAwMTAxMDAwMDAwWhcNMzgw
MTE5MDMxNDA3WjA3MRAwDgYDVQQDEwdjYS10cnVlMQswCQYDVQQGEwJCRTEWMBQG
A1UEChMNR3JlbXdlbGwgYnZiYTCBnzANBgkqhkiG9w0BAQEFAAOBjQAwgYkCgYEA
wXlSwmDTU6DCS72BLSUJnRXqIdgoGfT+Yo5krA1lmfLqNUw+g5JMO/9Re1AETjXL
Ozw0ncNiFH/K+iv+h0k65aNbPYb75WheejyTliDCEdjxZrMxa+rZifkQ/MJHb8pd
yrougw/LexhRlMM+y+lkLtyavj/jn73TydFs0FlK+akCAwEAAaMTMBEwDwYDVR0T
AQH/BAUwAwEB/zANBgkqhkiG9w0BAQUFAAOCAgEARPOc2tzFc4e1PrnYBf75ywJG
NBKJsPnAAPCli2tis4y8Enxm8QDZXD/Uwdq22w+oIAknmlGCiPgWdLP3MDjQD7Mo
xADl0dRduRNEnwl9FwN+LoqWXI183/N12qs4M/wZ+39pQ8ha7+aj/4BBvnAneT09
s3QQQewjdiLUKT5N5vfvll7le6TouequfD6p+vibrYEwp91gMujJ8ECHUiof3mBE
eNShA/VaTszhYEmQSb19e/dLHRvRI3l1uVsWObnUjI45So0GVvmzD5nLqaWyKrjz
e2APAMdSXN69IfSM9K5x/kLD19+kfve8H2fPcVxiBQ5N07KPweJsT+BEY2LUid9l
M3mmNDgQH6HrOZSwy8B1LN2EZJ9IWbZhKFqlCFhAbUwCuGJRuh2kYqmn3s4eJveb
iUiM9n2vHiObT4fsMgx/9OPIbm/TAyJjkY5TLX0VDef/xMiYsSheC7UqdyVfPsoE
+/sS+sKJJROA+6BmIoEICoqTAE0zchxVnmBVBAfLRqsvgI7K9qwhoNxcP5GLZUK4
10evcMhzB3bNcBBHMqQbtQ3JVMC2q5ZS48YHsDIzE3cpYv9F8XprYg4joRCRu32M
tE5ZsR3LtsvePRewjM4nx8yYsT0NWZYAJnqhfjtFRc+dWzCM7p+zfjx8NeOfvxyZ
C6jTegQ7Rlz1+VIcazA=
-----END CERTIFICATE-----
