Certificate:
    Data:
        Version: 4 (0x3)
        Serial Number: 1 (0x1)
    Signature Algorithm: sha1WithRSAEncryption
        Issuer: C=BE, CN=txjsonrpc-test-ca
        Validity
            Not Before: Jan  1 00:00:00 1970 GMT
            Not After : Jan 19 03:14:07 2038 GMT
        Subject: CN=ca-none, C=BE, O=Gremwell bvba
        Subject Public Key Info:
            Public Key Algorithm: rsaEncryption
                Public-Key: (1024 bit)
                Modulus:
                    00:bd:2b:77:b5:51:53:69:f4:83:ef:17:3c:8c:46:
                    b6:ad:9d:fd:3f:99:70:94:74:ba:ae:5f:95:1a:91:
                    3e:02:ab:54:a3:9f:b1:5c:c4:65:1a:d1:24:65:97:
                    e8:ac:35:eb:33:7d:88:da:45:59:02:79:3c:0c:4f:
                    c8:02:4f:60:42:6d:bc:12:5c:2d:02:83:b4:08:14:
                    18:f4:35:3e:d2:50:69:be:7e:e7:83:5c:c2:40:41:
                    f0:e9:34:b8:5a:bd:4f:ea:14:7f:68:77:97:17:e2:
                    01:0b:dc:21:81:cc:6b:cd:e7:26:55:6e:5c:1e:b8:
                    a4:c1:b6:79:6a:59:b4:fa:51
                Exponent: 65537 (0x10001)
    Signature Algorithm: sha1WithRSAEncryption
         9f:4f:b1:59:30:34:d9:0c:60:4d:51:64:ad:ab:8f:d8:9f:70:
         30:04:db:c3:30:42:36:8e:79:55:07:c0:47:e4:d1:26:ec:ef:
         01:cd:32:2c:a0:44:12:76:97:55:5a:2d:d9:e0:4e:cd:f4:1c:
         30:56:8f:9f:df:03:3c:36:d2:42:06:f0:4d:4f:d8:6f:6a:4f:
         4f:33:4d:67:52:a3:3c:74:39:74:76:81:ab:17:84:6c:87:95:
         61:76:0a:1b:14:0e:7e:9c:eb:a8:0a:e6:13:7c:b9:98:a9:cc:
         70:e6:1d:f7:2d:99:e8:63:c2:38:40:73:af:01:02:9f:53:6f:
         87:5e:30:29:db:a4:10:51:91:06:7a:a9:de:3e:a1:35:1d:97:
         72:63:d3:85:54:77:e6:95:3d:c7:e8:79:89:b7:76:23:3f:a8:
         84:4f:e0:8e:96:ed:34:23:8a:85:10:e6:9a:b1:4f:d0:54:78:
         8c:ce:f5:9f:51:4a:df:84:49:3d:fd:fd:0b:59:2f:88:dc:12:
         92:cf:35:27:05:a0:17:b9:9c:9f:6c:f8:d9:b9:1b:f2:f4:55:
         36:20:ce:70:70:d5:bd:41:98:da:e5:93:19:23:88:81:31:91:
         39:4d:af:a3:3c:50:88:7b:7b:0a:c6:26:5b:c9:e7:85:ae:38:
         5c:ed:a5:87:8d:da:f4:c1:90:60:b6:a7:41:65:89:4b:84:1e:
         f9:8d:46:43:b9:56:d1:82:40:d3:ac:3b:f3:e4:80:18:b8:7d:
         18:a6:a8:5e:12:9e:d5:12:14:91:5e:25:e7:41:3c:2d:f7:36:
         91:9d:1e:17:0b:95:5a:bf:bf:9d:ea:91:f4:5d:b3:da:73:91:
         6e:c9:0d:de:52:ee:ce:35:5a:9b:7a:29:f7:f6:e6:08:e7:e9:
         b5:b5:47:ee:e4:30:a3:7a:56:e2:7f:18:97:b7:86:b6:c5:b8:
         04:88:71:1a:91:e4:37:9c:65:b4:af:3d:72:5f:e0:fa:62:dd:
         70:45:90:81:a9:e7:1b:00:9a:8f:e5:61:b2:61:9a:57:73:b8:
         15:af:46:a6:12:6e:ba:0b:4c:c6:2e:ac:d8:62:49:6f:ce:2a:
         43:5c:1d:30:42:64:5d:8c:fd:1e:88:7e:6b:53:66:14:85:03:
         7f:74:c8:fd:71:4f:ff:a5:6b:c5:e1:03:00:bd:c2:bb:8a:03:
         c6:4c:4e:de:4c:d2:f4:8c:f5:01:74:ff:d2:f6:a3:33:0e:79:
         04:96:b4:ae:11:b4:c1:1c:e1:3d:5a:67:94:05:cf:58:62:21:
         bb:34:1f:00:01:ef:6c:ac:37:b4:82:c2:cf:d2:f1:b9:ff:7b:
         9d:a9:65:ef:80:dc:36:93
-----BEGIN CERTIFICATE-----
MIIDVTCCAT2gAwIBAwIBATANBgkqhkiG9w0BAQUFADApMQswCQYDVQQGEwJCRTEa
MBgGA1UEAxMRdHhqc29ucnBjLXRlc3QtY2EwHhcNNzAwMTAxMDAwMDAwWhcNMzgw
MTE5MDMxNDA3WjA3MRAwDgYDVQQDEwdjYS1ub25lMQswCQYDVQQGEwJCRTEWMBQG
A1UEChMNR3JlbXdlbGwgYnZiYTCBnzANBgkqhkiG9w0BAQEFAAOBjQAwgYkCgYEA
vSt3tVFTafSD7xc8jEa2rZ39P5lwlHS6rl+VGpE+AqtUo5+xXMRlGtEkZZforDXr
M32I2kVZAnk8DE/IAk9gQm28ElwtAoO0CBQY9DU+0lBpvn7ng1zCQEHw6TS4Wr1P
6hR/aHeXF+IBC9whgcxrzecmVW5cHrikwbZ5alm0+lECAwEAATANBgkqhkiG9w0B
AQUFAAOCAgEAn0+xWTA02QxgTVFkrauP2J9wMATbwzBCNo55VQfAR+TRJuzvAc0y
LKBEEnaXVVot2eBOzfQcMFaPn98DPDbSQgbwTU/Yb2pPTzNNZ1KjPHQ5dHaBqxeE
bIeVYXYKGxQOfpzrqArmE3y5mKnMcOYd9y2Z6GPCOEBzrwECn1Nvh14wKdukEFGR
Bnqp3j6hNR2XcmPThVR35pU9x+h5ibd2Iz+ohE/gjpbtNCOKhRDmmrFP0FR4jM71
n1FK34RJPf39C1kviNwSks81JwWgF7mcn2z42bkb8vRVNiDOcHDVvUGY2uWTGSOI
gTGROU2vozxQiHt7CsYmW8nnha44XO2lh43a9MGQYLanQWWJS4Qe+Y1GQ7lW0YJA
06w78+SAGLh9GKaoXhKe1RIUkV4l50E8Lfc2kZ0eFwuVWr+/neqR9F2z2nORbskN
3lLuzjVam3op9/bmCOfptbVH7uQwo3pW4n8Yl7eGtsW4BIhxGpHkN5xltK89cl/g
+mLdcEWQgannGwCaj+VhsmGaV3O4Fa9GphJuugtMxi6s2GJJb84qQ1wdMEJkXYz9
Hoh+a1NmFIUDf3TI/XFP/6VrxeEDAL3Cu4oDxkxO3kzS9Iz1AXT/0vajMw55BJa0
rhG0wRzhPVpnlAXPWGIhuzQfAAHvbKw3tILCz9Lxuf97nall74DcNpM=
-----END CERTIFICATE-----
Certificate:
    Data:
        Version: 3 (0x2)
        Serial Number: 10219423159405941259 (0x8dd2af37f9ca920b)
    Signature Algorithm: sha1WithRSAEncryption
        Issuer: C=BE, CN=txjsonrpc-test-ca
        Validity
            Not Before: Jun 23 15:46:37 2012 GMT
            Not After : Jun 21 15:46:37 2022 GMT
        Subject: C=BE, CN=txjsonrpc-test-ca
        Subject Public Key Info:
            Public Key Algorithm: rsaEncryption
                Public-Key: (4096 bit)
                Modulus:
                    00:d1:25:af:77:c5:a8:72:cf:90:b9:39:10:fb:7b:
                    75:2c:a1:da:6a:95:e5:44:0c:d6:25:4b:58:7f:bb:
                    07:82:59:49:58:32:85:24:cc:3e:77:db:e1:a7:4f:
                    c8:b5:cb:ee:45:38:bd:bc:fb:e3:76:3b:88:04:ca:
                    ab:3a:a3:96:3b:5f:93:9c:28:a6:61:97:dc:a2:3f:
                    a0:93:2b:56:6c:cf:d3:4f:6a:9e:05:d3:1c:cd:ef:
                    75:80:1a:98:b7:92:49:14:33:b8:c4:7c:73:8c:7e:
                    83:a5:81:a2:59:8c:8b:a3:51:36:6d:68:ac:f2:f1:
                    ed:6f:49:d9:af:7a:63:c1:43:31:42:b6:c7:cd:b9:
                    78:b7:33:98:70:92:6c:9e:04:7a:7b:f0:6d:38:87:
                    eb:00:13:17:b9:d9:ec:b4:66:bb:51:d3:fd:81:e3:
                    0e:88:71:23:d2:80:2a:61:de:ab:25:02:47:a9:c1:
                    6b:c9:69:ae:da:47:b6:49:74:ac:a6:e1:c1:76:ba:
                    6d:b1:d9:68:6e:1c:37:a8:e2:18:60:37:b6:58:13:
                    6c:c7:92:7c:c6:45:8c:ef:c3:81:73:10:dc:2f:31:
                    e2:b9:05:5a:9e:28:70:5a:3e:1d:b8:68:71:81:c9:
                    e8:fe:1f:c3:a0:13:f8:e4:24:12:ba:91:8e:15:d2:
                    03:f1:8c:b0:aa:e2:34:e4:6b:f8:06:f6:23:8a:92:
                    43:a6:05:dc:e9:c7:a5:a8:06:d7:6e:91:52:72:47:
                    ab:ae:87:fe:b3:0f:04:87:6f:4b:22:29:e9:a9:06:
                    52:58:7d:03:16:d7:d5:31:44:b4:f1:51:44:a7:2a:
                    ba:5e:09:19:ec:4c:a2:e0:58:fe:0d:4e:b7:90:4d:
                    02:ac:2a:ad:99:14:65:3b:0a:3c:73:45:56:b2:0f:
                    10:25:24:51:79:57:1a:34:1a:10:6f:60:e0:fc:81:
                    db:ca:c2:e2:85:1b:4c:72:13:5c:9d:76:cc:d0:21:
                    33:31:56:82:8f:c5:57:b9:44:fd:8b:76:c1:b6:e4:
                    21:8b:35:9a:ee:54:74:9f:72:6b:19:84:d7:a2:3c:
                    a5:6e:11:0a:f1:93:04:2e:dd:7c:4c:7d:62:10:d4:
                    1b:8b:87:f6:ed:bf:12:b1:8b:f0:9a:7a:ee:02:94:
                    e1:3c:46:2b:7f:9c:54:fb:2e:61:c9:1c:ef:fc:de:
                    25:bc:2d:75:1b:1f:49:5e:44:3b:15:93:ad:c4:89:
                    d9:ae:3c:da:54:ef:d9:af:3a:16:cb:94:1b:6a:14:
                    e4:42:f9:75:33:46:6e:fb:40:bc:f8:82:36:cf:60:
                    f5:c2:a2:98:23:a7:2a:ae:c1:aa:22:f8:87:da:b7:
                    9c:a4:cf
                Exponent: 65537 (0x10001)
        X509v3 extensions:
            X509v3 Subject Key Identifier: 
                9D:8F:84:76:94:CD:07:FE:A3:E8:8B:D7:F9:D9:6E:EF:CA:75:51:7B
            X509v3 Authority Key Identifier: 
                keyid:9D:8F:84:76:94:CD:07:FE:A3:E8:8B:D7:F9:D9:6E:EF:CA:75:51:7B
                DirName:/C=BE/CN=txjsonrpc-test-ca
                serial:8D:D2:AF:37:F9:CA:92:0B

            X509v3 Basic Constraints: critical
                CA:TRUE
            Netscape Cert Type: 
                SSL CA, S/MIME CA
            X509v3 Issuer Alternative Name: 
                <EMPTY>

            Netscape Comment: 
                Test CA for txjsonrcp
            X509v3 Subject Alternative Name: 
                <EMPTY>

            X509v3 Key Usage: critical
                Certificate Sign, CRL Sign
    Signature Algorithm: sha1WithRSAEncryption
         06:82:86:81:a9:1b:7e:2d:ef:f5:fc:cc:d2:9d:d6:82:ad:d0:
         6f:7e:3d:b9:5c:b2:0f:3a:64:21:9a:fb:53:b2:93:81:dc:1a:
         24:fc:b8:30:57:a2:c7:71:0d:9c:1a:0b:8a:6c:89:52:8b:8a:
         f5:af:95:3e:b8:08:39:ee:36:50:ac:60:4d:df:2b:49:a2:72:
         f1:3f:12:3c:d9:55:56:a4:9a:77:2b:77:fa:16:b5:76:d9:f4:
         c4:51:6b:b9:fe:2f:a3:52:e8:64:80:49:22:6d:05:42:87:af:
         9d:85:6c:fa:c9:9b:48:39:7b:89:f5:a0:1e:ff:11:d3:9c:78:
         b1:b2:f6:4d:b1:e8:b3:98:23:2c:d4:20:e1:a1:01:3e:26:0a:
         5b:8e:eb:58:45:22:cf:e1:94:ad:84:40:b0:fb:ff:25:5f:31:
         9a:49:0b:36:ad:c6:1a:b0:42:60:40:e2:a2:3c:5a:36:41:89:
         fc:10:c4:60:ea:d4:85:7b:36:84:df:aa:81:cc:69:e7:52:ca:
         c1:46:b1:79:93:51:4f:24:84:42:14:3a:20:a0:6c:27:76:40:
         0f:96:7e:4e:c3:0c:37:b3:e3:73:49:86:58:31:00:1e:e7:0f:
         87:74:b6:4e:6e:1c:7d:87:a4:33:04:c9:76:ec:e5:3a:85:5f:
         a8:d1:ad:21:64:5e:c5:6a:df:b1:02:6e:65:a4:87:72:06:07:
         da:e5:f2:af:2b:a5:eb:18:80:67:83:a5:3c:e6:ed:d1:58:f9:
         90:5c:d6:e9:2f:76:c1:58:13:b8:bd:88:8a:f3:04:48:bb:42:
         8f:7f:c6:db:b4:30:3f:bb:6c:d5:47:e5:ae:8d:4b:da:92:a5:
         db:d3:6e:a8:9b:c2:6b:56:af:34:63:82:e6:78:f8:1f:54:d7:
         41:aa:a3:c9:7c:a6:83:41:bf:6e:33:7c:ae:e6:92:bd:da:27:
         b4:bc:e2:90:4f:33:1b:01:a1:cd:02:13:7a:31:ef:00:d6:9a:
         6e:38:6b:a7:cb:70:98:a8:0f:ff:1c:56:a8:b7:e6:d2:42:5a:
         bb:f4:78:27:71:13:d0:e8:43:eb:bc:2d:4f:e4:ea:4d:4f:76:
         7f:53:38:34:eb:13:e2:3d:c6:14:98:86:1c:ab:2c:0e:b7:68:
         2e:bd:63:a9:6a:8f:d5:22:2d:ab:13:d7:62:54:51:ff:5c:37:
         08:04:27:da:f9:57:77:05:18:73:88:5f:b0:c1:65:50:36:09:
         d6:c7:f5:ae:6e:3f:04:d1:84:3c:21:74:1d:bd:0a:fb:76:d0:
         13:2b:62:bb:24:48:43:89:d0:18:5c:b4:ad:ea:98:af:6d:fc:
         1c:6b:1f:06:64:54:23:88
-----BEGIN CERTIFICATE-----
MIIFwzCCA6ugAwIBAgIJAI3Srzf5ypILMA0GCSqGSIb3DQEBBQUAMCkxCzAJBgNV
BAYTAkJFMRowGAYDVQQDExF0eGpzb25ycGMtdGVzdC1jYTAeFw0xMjA2MjMxNTQ2
MzdaFw0yMjA2MjExNTQ2MzdaMCkxCzAJBgNVBAYTAkJFMRowGAYDVQQDExF0eGpz
b25ycGMtdGVzdC1jYTCCAiIwDQYJKoZIhvcNAQEBBQADggIPADCCAgoCggIBANEl
r3fFqHLPkLk5EPt7dSyh2mqV5UQM1iVLWH+7B4JZSVgyhSTMPnfb4adPyLXL7kU4
vbz743Y7iATKqzqjljtfk5wopmGX3KI/oJMrVmzP009qngXTHM3vdYAamLeSSRQz
uMR8c4x+g6WBolmMi6NRNm1orPLx7W9J2a96Y8FDMUK2x825eLczmHCSbJ4Eenvw
bTiH6wATF7nZ7LRmu1HT/YHjDohxI9KAKmHeqyUCR6nBa8lprtpHtkl0rKbhwXa6
bbHZaG4cN6jiGGA3tlgTbMeSfMZFjO/DgXMQ3C8x4rkFWp4ocFo+HbhocYHJ6P4f
w6AT+OQkErqRjhXSA/GMsKriNORr+Ab2I4qSQ6YF3OnHpagG126RUnJHq66H/rMP
BIdvSyIp6akGUlh9AxbX1TFEtPFRRKcqul4JGexMouBY/g1Ot5BNAqwqrZkUZTsK
PHNFVrIPECUkUXlXGjQaEG9g4PyB28rC4oUbTHITXJ12zNAhMzFWgo/FV7lE/Yt2
wbbkIYs1mu5UdJ9yaxmE16I8pW4RCvGTBC7dfEx9YhDUG4uH9u2/ErGL8Jp67gKU
4TxGK3+cVPsuYckc7/zeJbwtdRsfSV5EOxWTrcSJ2a482lTv2a86FsuUG2oU5EL5
dTNGbvtAvPiCNs9g9cKimCOnKq7BqiL4h9q3nKTPAgMBAAGjge0wgeowHQYDVR0O
BBYEFJ2PhHaUzQf+o+iL1/nZbu/KdVF7MFkGA1UdIwRSMFCAFJ2PhHaUzQf+o+iL
1/nZbu/KdVF7oS2kKzApMQswCQYDVQQGEwJCRTEaMBgGA1UEAxMRdHhqc29ucnBj
LXRlc3QtY2GCCQCN0q83+cqSCzAPBgNVHRMBAf8EBTADAQH/MBEGCWCGSAGG+EIB
AQQEAwIBBjAJBgNVHRIEAjAAMCQGCWCGSAGG+EIBDQQXFhVUZXN0IENBIGZvciB0
eGpzb25yY3AwCQYDVR0RBAIwADAOBgNVHQ8BAf8EBAMCAQYwDQYJKoZIhvcNAQEF
BQADggIBAAaChoGpG34t7/X8zNKd1oKt0G9+Pblcsg86ZCGa+1Oyk4HcGiT8uDBX
osdxDZwaC4psiVKLivWvlT64CDnuNlCsYE3fK0micvE/EjzZVVakmncrd/oWtXbZ
9MRRa7n+L6NS6GSASSJtBUKHr52FbPrJm0g5e4n1oB7/EdOceLGy9k2x6LOYIyzU
IOGhAT4mCluO61hFIs/hlK2EQLD7/yVfMZpJCzatxhqwQmBA4qI8WjZBifwQxGDq
1IV7NoTfqoHMaedSysFGsXmTUU8khEIUOiCgbCd2QA+Wfk7DDDez43NJhlgxAB7n
D4d0tk5uHH2HpDMEyXbs5TqFX6jRrSFkXsVq37ECbmWkh3IGB9rl8q8rpesYgGeD
pTzm7dFY+ZBc1ukvdsFYE7i9iIrzBEi7Qo9/xtu0MD+7bNVH5a6NS9qSpdvTbqib
wmtWrzRjguZ4+B9U10Gqo8l8poNBv24zfK7mkr3aJ7S84pBPMxsBoc0CE3ox7wDW
mm44a6fLcJioD/8cVqi35tJCWrv0eCdxE9DoQ+u8LU/k6k1Pdn9TODTrE+I9xhSY
hhyrLA63aC69Y6lqj9UiLasT12JUUf9cNwgEJ9r5V3cFGHOIX7DBZVA2CdbH9a5u
PwTRhDwhdB29Cvt20BMrYrskSEOJ0BhctK3qmK9t/BxrHwZkVCOI
-----END CERTIFICATE-----
