Certificate:
    Data:
        Version: 4 (0x3)
        Serial Number: 1 (0x1)
    Signature Algorithm: sha1WithRSAEncryption
        Issuer: C=BE, CN=txjsonrpc-test-ca
        Validity
            Not Before: Jan  1 00:00:00 1970 GMT
            Not After : Jan 19 03:14:07 2038 GMT
        Subject: CN=ca-none, C=BE, O=Gremwell bvba
        Subject Public Key Info:
            Public Key Algorithm: rsaEncryption
                Public-Key: (1024 bit)
                Modulus:
                    00:bc:f3:f0:82:20:eb:6a:44:28:35:5b:0d:cb:27:
                    dd:45:85:97:cf:0d:a7:c1:d2:76:33:24:ee:9a:98:
                    8a:be:08:41:1f:d1:fe:84:2f:fc:77:57:28:ce:97:
                    61:ef:34:25:1d:89:36:21:67:f3:8b:23:ab:b6:fd:
                    ef:dd:46:16:40:a5:1e:3f:9a:6d:30:79:22:53:5d:
                    18:a0:17:de:75:b9:b6:8f:d0:36:58:c1:d1:d3:68:
                    c3:37:ce:b2:4f:84:82:d7:11:36:46:80:7a:63:8c:
                    3d:ac:5d:0b:4c:56:ce:c8:b1:d6:6a:38:d6:0b:0a:
                    a2:85:20:64:23:a7:be:8a:0d
                Exponent: 65537 (0x10001)
    Signature Algorithm: sha1WithRSAEncryption
         28:49:60:08:ca:0a:c7:5e:ed:43:86:28:05:af:57:98:39:03:
         79:a1:a4:e3:bf:90:10:e3:94:4b:48:28:9d:10:5e:69:58:ed:
         52:84:86:b2:cf:78:be:07:43:21:75:97:45:9f:7d:e8:ac:26:
         e6:16:e7:2b:7b:3a:19:ba:14:53:0f:8d:91:f3:ca:d9:09:12:
         f6:69:01:e2:ad:e0:01:a1:43:cc:a4:64:14:55:c7:a0:fc:4e:
         1c:9d:80:2c:31:7c:ee:4d:6f:ba:c2:43:9c:8f:c9:38:ea:65:
         1c:dd:07:56:2c:43:c3:e3:6a:c5:28:e5:4b:0b:77:94:1d:41:
         8d:ea:66:a7:d5:6d:4d:bb:a7:54:30:a5:dd:6c:c3:30:83:dd:
         9f:05:41:9a:d7:ef:30:ab:70:25:4c:d8:86:3c:2f:24:5c:bc:
         a6:e0:08:49:7f:36:e7:05:84:5a:0a:9c:ac:9e:3f:a9:99:89:
         1e:c7:3d:13:3c:9b:d3:a8:8d:9a:dd:93:dc:0e:56:0e:6a:35:
         9b:67:f6:b5:87:62:7b:09:d0:95:83:6b:c0:27:56:7e:2b:6a:
         a4:c6:04:a3:80:02:65:27:b0:b1:90:0e:02:02:29:20:d5:c4:
         c7:ad:d3:80:e3:b1:dc:82:25:a9:85:5f:ba:b1:d2:95:ad:06:
         86:4e:5f:32:76:cf:62:32:22:38:f1:c1:30:94:ed:7a:0d:46:
         de:c2:cc:9b:2a:d3:38:3d:ad:db:1d:38:b2:05:2c:58:c0:a4:
         1c:9a:ce:9c:ac:1f:a3:37:52:7e:84:ca:2e:db:64:c8:30:24:
         03:5a:dd:69:15:d6:e4:44:29:08:ac:60:fd:a3:58:a0:ae:27:
         b4:e6:38:7e:14:0a:69:0f:b2:99:63:a7:4e:23:23:1e:22:1e:
         61:52:6f:d9:ae:ff:d8:40:da:f5:67:ac:8c:6c:63:b4:09:1a:
         4c:64:d3:5a:8c:60:02:c4:e3:c1:aa:95:79:a7:df:5f:df:53:
         37:f2:d7:ac:79:e2:4a:ec:4c:b3:5a:df:e5:cc:9a:66:80:36:
         39:3b:00:fa:0e:13:6c:80:5a:9c:55:df:da:aa:47:70:c1:06:
         16:cf:0c:2f:96:50:53:ff:fb:25:ef:79:41:2c:d9:34:0c:c7:
         3b:a8:e9:a5:ad:03:54:1b:72:d1:07:b5:21:4e:d2:ea:c3:da:
         c1:66:34:cf:d4:68:c4:ba:75:a5:71:b1:25:c4:3d:40:18:45:
         15:47:1c:3c:e6:fb:f9:6a:dd:87:5a:07:f3:c5:62:db:4b:34:
         07:84:9a:65:72:e5:0a:4d:05:44:3f:fc:2b:94:de:d3:a6:42:
         b1:36:f6:26:7c:60:00:93
-----BEGIN CERTIFICATE-----
MIIDVTCCAT2gAwIBAwIBATANBgkqhkiG9w0BAQUFADApMQswCQYDVQQGEwJCRTEa
MBgGA1UEAxMRdHhqc29ucnBjLXRlc3QtY2EwHhcNNzAwMTAxMDAwMDAwWhcNMzgw
MTE5MDMxNDA3WjA3MRAwDgYDVQQDEwdjYS1ub25lMQswCQYDVQQGEwJCRTEWMBQG
A1UEChMNR3JlbXdlbGwgYnZiYTCBnzANBgkqhkiG9w0BAQEFAAOBjQAwgYkCgYEA
vPPwgiDrakQoNVsNyyfdRYWXzw2nwdJ2MyTumpiKvghBH9H+hC/8d1cozpdh7zQl
HYk2IWfziyOrtv3v3UYWQKUeP5ptMHkiU10YoBfedbm2j9A2WMHR02jDN86yT4SC
1xE2RoB6Y4w9rF0LTFbOyLHWajjWCwqihSBkI6e+ig0CAwEAATANBgkqhkiG9w0B
AQUFAAOCAgEAKElgCMoKx17tQ4YoBa9XmDkDeaGk47+QEOOUS0gonRBeaVjtUoSG
ss94vgdDIXWXRZ996Kwm5hbnK3s6GboUUw+NkfPK2QkS9mkB4q3gAaFDzKRkFFXH
oPxOHJ2ALDF87k1vusJDnI/JOOplHN0HVixDw+NqxSjlSwt3lB1Bjepmp9VtTbun
VDCl3WzDMIPdnwVBmtfvMKtwJUzYhjwvJFy8puAISX825wWEWgqcrJ4/qZmJHsc9
Ezyb06iNmt2T3A5WDmo1m2f2tYdiewnQlYNrwCdWfitqpMYEo4ACZSewsZAOAgIp
INXEx63TgOOx3IIlqYVfurHSla0Ghk5fMnbPYjIiOPHBMJTteg1G3sLMmyrTOD2t
2x04sgUsWMCkHJrOnKwfozdSfoTKLttkyDAkA1rdaRXW5EQpCKxg/aNYoK4ntOY4
fhQKaQ+ymWOnTiMjHiIeYVJv2a7/2EDa9WesjGxjtAkaTGTTWoxgAsTjwaqVeaff
X99TN/LXrHniSuxMs1rf5cyaZoA2OTsA+g4TbIBanFXf2qpHcMEGFs8ML5ZQU//7
Je95QSzZNAzHO6jppa0DVBty0Qe1IU7S6sPawWY0z9RoxLp1pXGxJcQ9QBhFFUcc
POb7+Wrdh1oH88Vi20s0B4SaZXLlCk0FRD/8K5Te06ZCsTb2JnxgAJM=
-----END CERTIFICATE-----
Certificate:
    Data:
        Version: 3 (0x2)
        Serial Number: 10219423159405941259 (0x8dd2af37f9ca920b)
    Signature Algorithm: sha1WithRSAEncryption
        Issuer: C=BE, CN=txjsonrpc-test-ca
        Validity
            Not Before: Jun 23 15:46:37 2012 GMT
            Not After : Jun 21 15:46:37 2022 GMT
        Subject: C=BE, CN=txjsonrpc-test-ca
        Subject Public Key Info:
            Public Key Algorithm: rsaEncryption
                Public-Key: (4096 bit)
                Modulus:
                    00:d1:25:af:77:c5:a8:72:cf:90:b9:39:10:fb:7b:
                    75:2c:a1:da:6a:95:e5:44:0c:d6:25:4b:58:7f:bb:
                    07:82:59:49:58:32:85:24:cc:3e:77:db:e1:a7:4f:
                    c8:b5:cb:ee:45:38:bd:bc:fb:e3:76:3b:88:04:ca:
                    ab:3a:a3:96:3b:5f:93:9c:28:a6:61:97:dc:a2:3f:
                    a0:93:2b:56:6c:cf:d3:4f:6a:9e:05:d3:1c:cd:ef:
                    75:80:1a:98:b7:92:49:14:33:b8:c4:7c:73:8c:7e:
                    83:a5:81:a2:59:8c:8b:a3:51:36:6d:68:ac:f2:f1:
                    ed:6f:49:d9:af:7a:63:c1:43:31:42:b6:c7:cd:b9:
                    78:b7:33:98:70:92:6c:9e:04:7a:7b:f0:6d:38:87:
                    eb:00:13:17:b9:d9:ec:b4:66:bb:51:d3:fd:81:e3:
                    0e:88:71:23:d2:80:2a:61:de:ab:25:02:47:a9:c1:
                    6b:c9:69:ae:da:47:b6:49:74:ac:a6:e1:c1:76:ba:
                    6d:b1:d9:68:6e:1c:37:a8:e2:18:60:37:b6:58:13:
                    6c:c7:92:7c:c6:45:8c:ef:c3:81:73:10:dc:2f:31:
                    e2:b9:05:5a:9e:28:70:5a:3e:1d:b8:68:71:81:c9:
                    e8:fe:1f:c3:a0:13:f8:e4:24:12:ba:91:8e:15:d2:
                    03:f1:8c:b0:aa:e2:34:e4:6b:f8:06:f6:23:8a:92:
                    43:a6:05:dc:e9:c7:a5:a8:06:d7:6e:91:52:72:47:
                    ab:ae:87:fe:b3:0f:04:87:6f:4b:22:29:e9:a9:06:
                    52:58:7d:03:16:d7:d5:31:44:b4:f1:51:44:a7:2a:
                    ba:5e:09:19:ec:4c:a2:e0:58:fe:0d:4e:b7:90:4d:
                    02:ac:2a:ad:99:14:65:3b:0a:3c:73:45:56:b2:0f:
                    10:25:24:51:79:57:1a:34:1a:10:6f:60:e0:fc:81:
                    db:ca:c2:e2:85:1b:4c:72:13:5c:9d:76:cc:d0:21:
                    33:31:56:82:8f:c5:57:b9:44:fd:8b:76:c1:b6:e4:
                    21:8b:35:9a:ee:54:74:9f:72:6b:19:84:d7:a2:3c:
                    a5:6e:11:0a:f1:93:04:2e:dd:7c:4c:7d:62:10:d4:
                    1b:8b:87:f6:ed:bf:12:b1:8b:f0:9a:7a:ee:02:94:
                    e1:3c:46:2b:7f:9c:54:fb:2e:61:c9:1c:ef:fc:de:
                    25:bc:2d:75:1b:1f:49:5e:44:3b:15:93:ad:c4:89:
                    d9:ae:3c:da:54:ef:d9:af:3a:16:cb:94:1b:6a:14:
                    e4:42:f9:75:33:46:6e:fb:40:bc:f8:82:36:cf:60:
                    f5:c2:a2:98:23:a7:2a:ae:c1:aa:22:f8:87:da:b7:
                    9c:a4:cf
                Exponent: 65537 (0x10001)
        X509v3 extensions:
            X509v3 Subject Key Identifier: 
                9D:8F:84:76:94:CD:07:FE:A3:E8:8B:D7:F9:D9:6E:EF:CA:75:51:7B
            X509v3 Authority Key Identifier: 
                keyid:9D:8F:84:76:94:CD:07:FE:A3:E8:8B:D7:F9:D9:6E:EF:CA:75:51:7B
                DirName:/C=BE/CN=txjsonrpc-test-ca
                serial:8D:D2:AF:37:F9:CA:92:0B

            X509v3 Basic Constraints: critical
                CA:TRUE
            Netscape Cert Type: 
                SSL CA, S/MIME CA
            X509v3 Issuer Alternative Name: 
                <EMPTY>

            Netscape Comment: 
                Test CA for txjsonrcp
            X509v3 Subject Alternative Name: 
                <EMPTY>

            X509v3 Key Usage: critical
                Certificate Sign, CRL Sign
    Signature Algorithm: sha1WithRSAEncryption
         06:82:86:81:a9:1b:7e:2d:ef:f5:fc:cc:d2:9d:d6:82:ad:d0:
         6f:7e:3d:b9:5c:b2:0f:3a:64:21:9a:fb:53:b2:93:81:dc:1a:
         24:fc:b8:30:57:a2:c7:71:0d:9c:1a:0b:8a:6c:89:52:8b:8a:
         f5:af:95:3e:b8:08:39:ee:36:50:ac:60:4d:df:2b:49:a2:72:
         f1:3f:12:3c:d9:55:56:a4:9a:77:2b:77:fa:16:b5:76:d9:f4:
         c4:51:6b:b9:fe:2f:a3:52:e8:64:80:49:22:6d:05:42:87:af:
         9d:85:6c:fa:c9:9b:48:39:7b:89:f5:a0:1e:ff:11:d3:9c:78:
         b1:b2:f6:4d:b1:e8:b3:98:23:2c:d4:20:e1:a1:01:3e:26:0a:
         5b:8e:eb:58:45:22:cf:e1:94:ad:84:40:b0:fb:ff:25:5f:31:
         9a:49:0b:36:ad:c6:1a:b0:42:60:40:e2:a2:3c:5a:36:41:89:
         fc:10:c4:60:ea:d4:85:7b:36:84:df:aa:81:cc:69:e7:52:ca:
         c1:46:b1:79:93:51:4f:24:84:42:14:3a:20:a0:6c:27:76:40:
         0f:96:7e:4e:c3:0c:37:b3:e3:73:49:86:58:31:00:1e:e7:0f:
         87:74:b6:4e:6e:1c:7d:87:a4:33:04:c9:76:ec:e5:3a:85:5f:
         a8:d1:ad:21:64:5e:c5:6a:df:b1:02:6e:65:a4:87:72:06:07:
         da:e5:f2:af:2b:a5:eb:18:80:67:83:a5:3c:e6:ed:d1:58:f9:
         90:5c:d6:e9:2f:76:c1:58:13:b8:bd:88:8a:f3:04:48:bb:42:
         8f:7f:c6:db:b4:30:3f:bb:6c:d5:47:e5:ae:8d:4b:da:92:a5:
         db:d3:6e:a8:9b:c2:6b:56:af:34:63:82:e6:78:f8:1f:54:d7:
         41:aa:a3:c9:7c:a6:83:41:bf:6e:33:7c:ae:e6:92:bd:da:27:
         b4:bc:e2:90:4f:33:1b:01:a1:cd:02:13:7a:31:ef:00:d6:9a:
         6e:38:6b:a7:cb:70:98:a8:0f:ff:1c:56:a8:b7:e6:d2:42:5a:
         bb:f4:78:27:71:13:d0:e8:43:eb:bc:2d:4f:e4:ea:4d:4f:76:
         7f:53:38:34:eb:13:e2:3d:c6:14:98:86:1c:ab:2c:0e:b7:68:
         2e:bd:63:a9:6a:8f:d5:22:2d:ab:13:d7:62:54:51:ff:5c:37:
         08:04:27:da:f9:57:77:05:18:73:88:5f:b0:c1:65:50:36:09:
         d6:c7:f5:ae:6e:3f:04:d1:84:3c:21:74:1d:bd:0a:fb:76:d0:
         13:2b:62:bb:24:48:43:89:d0:18:5c:b4:ad:ea:98:af:6d:fc:
         1c:6b:1f:06:64:54:23:88
-----BEGIN CERTIFICATE-----
MIIFwzCCA6ugAwIBAgIJAI3Srzf5ypILMA0GCSqGSIb3DQEBBQUAMCkxCzAJBgNV
BAYTAkJFMRowGAYDVQQDExF0eGpzb25ycGMtdGVzdC1jYTAeFw0xMjA2MjMxNTQ2
MzdaFw0yMjA2MjExNTQ2MzdaMCkxCzAJBgNVBAYTAkJFMRowGAYDVQQDExF0eGpz
b25ycGMtdGVzdC1jYTCCAiIwDQYJKoZIhvcNAQEBBQADggIPADCCAgoCggIBANEl
r3fFqHLPkLk5EPt7dSyh2mqV5UQM1iVLWH+7B4JZSVgyhSTMPnfb4adPyLXL7kU4
vbz743Y7iATKqzqjljtfk5wopmGX3KI/oJMrVmzP009qngXTHM3vdYAamLeSSRQz
uMR8c4x+g6WBolmMi6NRNm1orPLx7W9J2a96Y8FDMUK2x825eLczmHCSbJ4Eenvw
bTiH6wATF7nZ7LRmu1HT/YHjDohxI9KAKmHeqyUCR6nBa8lprtpHtkl0rKbhwXa6
bbHZaG4cN6jiGGA3tlgTbMeSfMZFjO/DgXMQ3C8x4rkFWp4ocFo+HbhocYHJ6P4f
w6AT+OQkErqRjhXSA/GMsKriNORr+Ab2I4qSQ6YF3OnHpagG126RUnJHq66H/rMP
BIdvSyIp6akGUlh9AxbX1TFEtPFRRKcqul4JGexMouBY/g1Ot5BNAqwqrZkUZTsK
PHNFVrIPECUkUXlXGjQaEG9g4PyB28rC4oUbTHITXJ12zNAhMzFWgo/FV7lE/Yt2
wbbkIYs1mu5UdJ9yaxmE16I8pW4RCvGTBC7dfEx9YhDUG4uH9u2/ErGL8Jp67gKU
4TxGK3+cVPsuYckc7/zeJbwtdRsfSV5EOxWTrcSJ2a482lTv2a86FsuUG2oU5EL5
dTNGbvtAvPiCNs9g9cKimCOnKq7BqiL4h9q3nKTPAgMBAAGjge0wgeowHQYDVR0O
BBYEFJ2PhHaUzQf+o+iL1/nZbu/KdVF7MFkGA1UdIwRSMFCAFJ2PhHaUzQf+o+iL
1/nZbu/KdVF7oS2kKzApMQswCQYDVQQGEwJCRTEaMBgGA1UEAxMRdHhqc29ucnBj
LXRlc3QtY2GCCQCN0q83+cqSCzAPBgNVHRMBAf8EBTADAQH/MBEGCWCGSAGG+EIB
AQQEAwIBBjAJBgNVHRIEAjAAMCQGCWCGSAGG+EIBDQQXFhVUZXN0IENBIGZvciB0
eGpzb25yY3AwCQYDVR0RBAIwADAOBgNVHQ8BAf8EBAMCAQYwDQYJKoZIhvcNAQEF
BQADggIBAAaChoGpG34t7/X8zNKd1oKt0G9+Pblcsg86ZCGa+1Oyk4HcGiT8uDBX
osdxDZwaC4psiVKLivWvlT64CDnuNlCsYE3fK0micvE/EjzZVVakmncrd/oWtXbZ
9MRRa7n+L6NS6GSASSJtBUKHr52FbPrJm0g5e4n1oB7/EdOceLGy9k2x6LOYIyzU
IOGhAT4mCluO61hFIs/hlK2EQLD7/yVfMZpJCzatxhqwQmBA4qI8WjZBifwQxGDq
1IV7NoTfqoHMaedSysFGsXmTUU8khEIUOiCgbCd2QA+Wfk7DDDez43NJhlgxAB7n
D4d0tk5uHH2HpDMEyXbs5TqFX6jRrSFkXsVq37ECbmWkh3IGB9rl8q8rpesYgGeD
pTzm7dFY+ZBc1ukvdsFYE7i9iIrzBEi7Qo9/xtu0MD+7bNVH5a6NS9qSpdvTbqib
wmtWrzRjguZ4+B9U10Gqo8l8poNBv24zfK7mkr3aJ7S84pBPMxsBoc0CE3ox7wDW
mm44a6fLcJioD/8cVqi35tJCWrv0eCdxE9DoQ+u8LU/k6k1Pdn9TODTrE+I9xhSY
hhyrLA63aC69Y6lqj9UiLasT12JUUf9cNwgEJ9r5V3cFGHOIX7DBZVA2CdbH9a5u
PwTRhDwhdB29Cvt20BMrYrskSEOJ0BhctK3qmK9t/BxrHwZkVCOI
-----END CERTIFICATE-----
