Certificate:
    Data:
        Version: 4 (0x3)
        Serial Number: 1 (0x1)
    Signature Algorithm: sha1WithRSAEncryption
        Issuer: C=BE, CN=txjsonrpc-pyserver
        Validity
            Not Before: Jun 23 15:47:38 2012 GMT
            Not After : Jun 23 15:47:38 2013 GMT
        Subject: C=BE, CN=txjsonrpc-pyserver
        Subject Public Key Info:
            Public Key Algorithm: rsaEncryption
                Public-Key: (4096 bit)
                Modulus:
                    00:b2:d7:99:28:9b:01:64:48:bc:1d:71:d2:22:9d:
                    05:00:f8:ee:06:14:fa:71:ad:ad:1a:61:2b:d2:15:
                    45:49:dd:57:90:8f:f2:bf:e2:4f:56:40:cd:dc:be:
                    c4:5b:6d:f9:e0:94:c8:64:30:f9:59:b7:3b:0a:72:
                    5f:7f:32:3f:af:78:6a:4a:a3:20:c6:53:47:e3:dd:
                    ac:7b:84:e7:2a:87:63:64:b0:f4:89:95:ae:1e:7b:
                    4f:88:78:62:42:e4:15:35:35:69:38:83:42:2e:b9:
                    ca:4d:c3:7a:11:24:cd:34:c7:0b:9a:02:53:e8:ac:
                    2e:f7:24:5e:d3:e7:d5:c0:b2:da:3f:3a:56:a3:b9:
                    13:cb:25:f8:59:6d:13:ea:28:a2:88:78:9a:88:a7:
                    45:a8:1f:e1:56:ad:a3:9b:f3:ee:f7:5b:ee:69:8c:
                    e1:6d:f5:b1:09:be:63:46:49:1e:16:24:4e:a9:cc:
                    f1:7c:c5:87:1b:8f:e3:48:ef:aa:44:b2:c2:3e:31:
                    85:28:47:b5:d8:68:12:05:3a:06:cd:e3:ea:d6:d1:
                    cc:59:ac:68:f3:35:7b:a6:53:ce:4c:c9:7b:c7:0f:
                    dd:97:89:b9:2c:a5:cd:ee:14:62:0a:4f:46:f4:0c:
                    33:94:b9:25:4e:e9:ee:ec:2c:18:14:1a:3c:7c:41:
                    db:fb:df:9f:e1:ee:db:28:8e:8b:ec:f2:dc:40:62:
                    d8:34:f7:d5:87:dc:ef:68:ed:50:59:57:0b:a3:10:
                    73:03:b4:bd:66:47:89:94:32:ae:e2:0a:e5:69:92:
                    ae:42:93:1b:cf:9f:eb:73:c6:45:7f:0b:24:9c:f4:
                    b8:c2:fb:87:84:6e:41:be:96:3b:d6:2a:32:fe:04:
                    6b:80:fc:60:4a:0d:51:e0:66:bb:e1:89:26:e9:1b:
                    bc:47:9c:20:23:54:73:92:3b:ff:73:1b:37:7d:00:
                    bd:e6:e6:0a:3b:82:49:eb:38:b3:5c:03:ac:6e:7c:
                    6f:e0:e9:98:dc:b6:b1:93:2e:98:0b:2f:89:99:9b:
                    4f:e4:a2:81:ee:3f:a3:7a:a7:e2:39:d4:24:9c:1a:
                    02:44:a4:fa:f9:af:7d:f7:69:5f:84:cb:72:b1:f3:
                    9d:85:57:08:6b:53:82:a1:f9:f7:a9:f1:04:9b:7c:
                    ca:73:da:66:cb:e6:2b:72:a7:df:80:cd:c6:4d:b4:
                    f0:0c:dc:38:78:e9:a0:70:22:0c:35:bb:d1:af:50:
                    4a:b4:30:8a:6f:52:7d:3a:f1:96:3f:e1:e3:7f:a5:
                    fa:2c:81:5f:4b:7b:38:c8:8b:c6:09:b6:98:9a:51:
                    72:29:a0:c4:ed:43:e1:fc:32:8d:dd:e4:cf:97:83:
                    00:f9:4d
                Exponent: 65537 (0x10001)
        X509v3 extensions:
            X509v3 Basic Constraints: 
                CA:FALSE
            Netscape Cert Type: 
                SSL Server
            Netscape Comment: 
                TinyCA Generated Certificate
            X509v3 Subject Key Identifier: 
                26:8C:A5:F9:A6:4A:FE:4C:E8:0F:04:33:7E:04:26:28:BF:4C:92:F3
            X509v3 Authority Key Identifier: 
                keyid:9D:8F:84:76:94:CD:07:FE:A3:E8:8B:D7:F9:D9:6E:EF:CA:75:51:7B
                DirName:/C=BE/CN=txjsonrpc-test-ca
                serial:8D:D2:AF:37:F9:CA:92:0B

            X509v3 Issuer Alternative Name: 
                <EMPTY>

            X509v3 Subject Alternative Name: 
                <EMPTY>

    Signature Algorithm: sha1WithRSAEncryption
         22:39:05:c2:c0:d1:39:bc:61:f5:e0:e5:31:cc:1b:96:c5:db:
         9c:ab:11:11:bd:26:68:1c:f0:e3:46:05:ca:07:a7:99:48:04:
         d0:a9:4c:58:46:ea:34:5f:4a:91:88:a5:c0:1c:b1:0e:bd:c6:
         79:51:05:b9:58:4f:f2:54:f3:d7:40:cc:d1:2a:7f:a9:bf:90:
         81:39:bf:59:e4:34:7f:6c:bc:8b:73:57:4e:11:28:de:f0:82:
         c7:61:86:ee:8b:c9:5d:6c:3c:20:d5:11:d6:51:c9:7e:9a:00:
         af:f3:95:bb:c2:22:66:2e:de:58:92:a5:77:30:ad:b6:64:73:
         dd:3f:14:6a:a3:f8:a0:9d:30:d6:ee:b7:90:3c:77:a0:ff:63:
         5e:ab:e2:fe:67:e9:9c:26:6e:48:47:23:6e:fe:e8:f2:eb:cc:
         06:cf:3c:b3:6a:a3:d5:1d:94:10:08:e1:1a:52:15:cd:a2:eb:
         15:6c:07:63:3e:f5:c5:6c:9a:9d:05:32:09:72:2e:74:fb:94:
         62:6e:a8:14:40:a2:03:9c:53:fc:0a:35:84:73:01:49:61:a1:
         bb:56:f5:73:09:2d:9d:9d:4f:e0:5f:58:d0:70:d8:a9:db:33:
         9a:51:82:a8:5d:6a:7e:9c:89:13:18:4f:fa:6c:93:4d:4c:18:
         03:18:3f:d6:c5:18:60:0d:33:02:3e:87:2b:1f:24:bd:b6:ae:
         0e:e3:d7:1d:d6:1c:8d:11:9b:dd:e2:c6:11:33:e7:e7:78:13:
         7e:db:13:46:0b:8c:e5:ed:f5:30:d8:08:8a:95:42:6d:91:4a:
         6a:e0:12:65:84:e6:1b:05:cb:5d:0c:2b:be:37:36:e2:de:1a:
         c6:bd:7d:c9:01:28:b8:f7:a2:b7:9a:f7:b4:db:1b:7c:c2:40:
         09:16:17:aa:74:97:51:45:06:4f:f8:a7:11:f7:5e:0a:70:e3:
         f8:0d:74:87:13:1a:2a:a7:38:c7:40:a5:ea:b4:5e:9b:16:b2:
         93:e8:98:ca:37:63:74:52:55:db:ff:ba:0a:1b:f3:b3:08:43:
         96:b9:b2:08:48:f3:70:28:b0:88:c7:a0:a6:af:97:5d:0e:c4:
         46:56:b7:0c:03:eb:3d:fa:c0:47:fd:e4:35:87:c6:cf:31:0f:
         b0:f9:50:d0:8a:9c:18:af:2d:c4:9d:73:b7:df:ac:9d:6c:4d:
         c0:63:5f:b4:48:ea:8b:e6:1b:6b:0b:04:53:84:a1:60:f9:82:
         bd:a1:83:1b:ea:6a:f9:1d:89:aa:c4:fb:84:d3:f9:38:65:e3:
         90:75:3b:43:73:fc:75:aa:9a:fc:c7:c3:5a:5c:3c:97:cd:ac:
         c9:0a:7e:0b:9c:e2:ea:4d
-----BEGIN CERTIFICATE-----
MIIFrjCCA5agAwIBAwIBATANBgkqhkiG9w0BAQUFADAqMQswCQYDVQQGEwJCRTEb
MBkGA1UEAxMSdHhqc29ucnBjLXB5c2VydmVyMB4XDTEyMDYyMzE1NDczOFoXDTEz
MDYyMzE1NDczOFowKjELMAkGA1UEBhMCQkUxGzAZBgNVBAMTEnR4anNvbnJwYy1w
eXNlcnZlcjCCAiIwDQYJKoZIhvcNAQEBBQADggIPADCCAgoCggIBALLXmSibAWRI
vB1x0iKdBQD47gYU+nGtrRphK9IVRUndV5CP8r/iT1ZAzdy+xFtt+eCUyGQw+Vm3
OwpyX38yP694akqjIMZTR+PdrHuE5yqHY2Sw9ImVrh57T4h4YkLkFTU1aTiDQi65
yk3DehEkzTTHC5oCU+isLvckXtPn1cCy2j86VqO5E8sl+FltE+ooooh4moinRagf
4Vato5vz7vdb7mmM4W31sQm+Y0ZJHhYkTqnM8XzFhxuP40jvqkSywj4xhShHtdho
EgU6Bs3j6tbRzFmsaPM1e6ZTzkzJe8cP3ZeJuSylze4UYgpPRvQMM5S5JU7p7uws
GBQaPHxB2/vfn+Hu2yiOi+zy3EBi2DT31Yfc72jtUFlXC6MQcwO0vWZHiZQyruIK
5WmSrkKTG8+f63PGRX8LJJz0uML7h4RuQb6WO9YqMv4Ea4D8YEoNUeBmu+GJJukb
vEecICNUc5I7/3MbN30AvebmCjuCSes4s1wDrG58b+DpmNy2sZMumAsviZmbT+Si
ge4/o3qn4jnUJJwaAkSk+vmvffdpX4TLcrHznYVXCGtTgqH596nxBJt8ynPaZsvm
K3Kn34DNxk208AzcOHjpoHAiDDW70a9QSrQwim9SfTrxlj/h43+l+iyBX0t7OMiL
xgm2mJpRcimgxO1D4fwyjd3kz5eDAPlNAgMBAAGjgd4wgdswCQYDVR0TBAIwADAR
BglghkgBhvhCAQEEBAMCBkAwKwYJYIZIAYb4QgENBB4WHFRpbnlDQSBHZW5lcmF0
ZWQgQ2VydGlmaWNhdGUwHQYDVR0OBBYEFCaMpfmmSv5M6A8EM34EJii/TJLzMFkG
A1UdIwRSMFCAFJ2PhHaUzQf+o+iL1/nZbu/KdVF7oS2kKzApMQswCQYDVQQGEwJC
RTEaMBgGA1UEAxMRdHhqc29ucnBjLXRlc3QtY2GCCQCN0q83+cqSCzAJBgNVHRIE
AjAAMAkGA1UdEQQCMAAwDQYJKoZIhvcNAQEFBQADggIBACI5BcLA0Tm8YfXg5THM
G5bF25yrERG9Jmgc8ONGBcoHp5lIBNCpTFhG6jRfSpGIpcAcsQ69xnlRBblYT/JU
89dAzNEqf6m/kIE5v1nkNH9svItzV04RKN7wgsdhhu6LyV1sPCDVEdZRyX6aAK/z
lbvCImYu3liSpXcwrbZkc90/FGqj+KCdMNbut5A8d6D/Y16r4v5n6ZwmbkhHI27+
6PLrzAbPPLNqo9UdlBAI4RpSFc2i6xVsB2M+9cVsmp0FMglyLnT7lGJuqBRAogOc
U/wKNYRzAUlhobtW9XMJLZ2dT+BfWNBw2KnbM5pRgqhdan6ciRMYT/psk01MGAMY
P9bFGGANMwI+hysfJL22rg7j1x3WHI0Rm93ixhEz5+d4E37bE0YLjOXt9TDYCIqV
Qm2RSmrgEmWE5hsFy10MK743NuLeGsa9fckBKLj3orea97TbG3zCQAkWF6p0l1FF
Bk/4pxH3Xgpw4/gNdIcTGiqnOMdApeq0XpsWspPomMo3Y3RSVdv/ugob87MIQ5a5
sghI83AosIjHoKavl10OxEZWtwwD6z36wEf95DWHxs8xD7D5UNCKnBivLcSdc7ff
rJ1sTcBjX7RI6ovmG2sLBFOEoWD5gr2hgxvqavkdiarE+4TT+Thl45B1O0Nz/HWq
mvzHw1pcPJfNrMkKfguc4upN
-----END CERTIFICATE-----
