Certificate:
    Data:
        Version: 3 (0x2)
        Serial Number: 1 (0x1)
    Signature Algorithm: sha1WithRSAEncryption
        Issuer: C=BE, CN=txjsonrpc-pyserver
        Validity
            Not Before: Jun 23 15:47:38 2012 GMT
            Not After : Jun 23 15:47:38 2013 GMT
        Subject: C=BE, CN=txjsonrpc-pyserver
        Subject Public Key Info:
            Public Key Algorithm: rsaEncryption
                Public-Key: (4096 bit)
                Modulus:
                    00:c2:ce:97:54:6c:40:72:c9:fb:50:fb:20:75:12:
                    1f:cf:85:97:1f:a2:e0:dd:c9:89:92:08:77:e2:45:
                    ed:2d:38:fc:14:09:c4:87:58:2c:7e:9d:96:9d:d1:
                    74:7d:a2:0c:62:35:53:f5:9d:c0:6e:99:f0:ff:e4:
                    59:7b:ab:48:ae:30:81:9c:9a:64:2d:38:fe:7f:91:
                    46:66:d2:2d:95:59:19:2a:5c:ff:50:85:90:bc:85:
                    53:d5:03:f7:8a:89:09:f7:66:ed:12:e6:75:f5:46:
                    16:41:27:a6:e3:30:86:61:ea:ad:18:fc:52:d2:69:
                    82:15:21:6f:a7:de:66:2b:8d:e6:f7:a0:64:f1:20:
                    b0:ac:db:61:9a:d2:9e:8f:7e:bf:9a:d9:13:53:50:
                    b2:63:28:ac:1a:a5:c1:94:63:91:9e:3b:73:a6:e8:
                    6b:ed:49:3c:c3:32:7f:9f:42:ad:88:11:96:bc:37:
                    db:03:af:c9:f7:94:28:2f:f4:ef:43:48:75:44:49:
                    5f:bd:ac:99:32:eb:d8:7f:ce:aa:c6:75:56:c7:93:
                    09:57:a0:71:a9:60:7b:7e:c1:8b:6b:6f:af:88:16:
                    57:21:58:17:c1:9e:63:fc:85:7f:26:7f:39:84:44:
                    ea:8a:78:c7:b4:40:07:de:71:eb:d8:a1:07:45:fe:
                    f7:63:29:cf:9c:54:fa:0a:60:3f:2c:d2:b8:9a:3a:
                    54:7c:aa:10:17:31:59:82:b1:de:72:f1:a6:01:f4:
                    1f:b8:b9:ea:16:41:1e:29:f9:6f:65:52:70:5b:20:
                    0d:f1:18:61:af:87:d1:84:41:aa:59:0a:be:a6:ae:
                    bf:72:19:c5:6e:8b:6a:23:f2:6d:1c:2c:d1:4f:b7:
                    01:31:fa:d0:86:71:77:66:1e:ce:c2:4c:16:22:c4:
                    88:fd:e9:50:61:ff:6d:45:bd:05:83:71:b7:f7:d9:
                    72:92:f7:7d:98:b9:e7:e7:7c:ed:ed:a2:52:14:2d:
                    2f:83:2e:ae:7b:cc:36:ba:eb:15:89:61:f2:0a:a4:
                    e7:0c:8b:09:7e:df:4d:d3:d7:38:da:9d:1b:49:07:
                    fb:b2:7e:34:25:c5:de:d1:f6:35:4a:a3:bd:6e:07:
                    d2:9a:36:21:ce:b4:41:b5:01:dd:92:a4:85:f2:7f:
                    4d:27:ec:fc:b2:71:30:54:9a:97:07:40:c5:f6:80:
                    5f:d9:7a:e3:33:66:3e:33:3d:df:9f:bc:cb:cb:28:
                    cc:b6:36:2d:81:52:09:7a:81:60:f1:1d:7f:69:8a:
                    93:93:59:fd:3e:9a:ab:0c:4e:e8:65:6e:91:44:a0:
                    5e:b9:0e:e6:fc:2c:36:d4:1c:bc:47:9b:27:99:4b:
                    4e:24:d7
                Exponent: 65537 (0x10001)
        X509v3 extensions:
            X509v3 Basic Constraints: 
                CA:FALSE
            Netscape Cert Type: 
                SSL Server
            Netscape Comment: 
                TinyCA Generated Certificate
            X509v3 Subject Key Identifier: 
                26:8C:A5:F9:A6:4A:FE:4C:E8:0F:04:33:7E:04:26:28:BF:4C:92:F3
            X509v3 Authority Key Identifier: 
                keyid:9D:8F:84:76:94:CD:07:FE:A3:E8:8B:D7:F9:D9:6E:EF:CA:75:51:7B
                DirName:/C=BE/CN=txjsonrpc-test-ca
                serial:8D:D2:AF:37:F9:CA:92:0B

            X509v3 Issuer Alternative Name: 
                <EMPTY>

            X509v3 Subject Alternative Name: 
                <EMPTY>

    Signature Algorithm: sha1WithRSAEncryption
         63:87:d8:fc:46:03:5d:1f:fb:07:a4:15:af:2e:6f:39:c1:2b:
         39:9a:07:46:9d:07:95:43:6d:14:da:1f:a7:ea:76:5d:02:0a:
         b5:d0:ea:1d:d9:cd:3a:9f:67:55:3e:ad:75:e6:35:37:c2:52:
         e4:22:e2:fc:4a:c7:3d:a2:82:67:a9:63:0b:fa:a7:20:81:43:
         a6:3f:d4:b7:b8:6e:12:51:c9:b0:db:ca:dd:ae:d7:c0:33:9d:
         df:1c:88:59:14:13:31:76:47:86:7e:4c:cc:00:c6:d9:66:f8:
         b9:38:06:25:7b:6b:32:f0:fa:bc:ea:f1:7b:3a:83:27:d0:e7:
         64:b2:0e:39:35:94:6c:dc:83:5f:ea:de:06:24:a8:3c:35:af:
         d7:f3:ca:0d:d1:5c:d2:f3:60:6f:4f:a8:4f:a0:4c:4d:c7:50:
         7a:30:4f:17:a0:1d:37:be:9e:27:63:fd:bf:3d:86:51:09:db:
         47:db:79:c8:8f:43:13:c8:b2:90:f1:3f:c7:55:2f:73:58:67:
         3f:18:d1:3e:2c:4c:bc:e7:8c:cb:d2:1e:3d:b4:bc:53:b2:7b:
         b6:77:22:1c:0c:17:02:5f:27:53:d8:24:97:25:de:09:69:d3:
         a4:2b:a5:4e:0b:5d:f2:6e:34:00:41:56:6d:1e:c2:55:1c:5d:
         40:72:0f:b9:22:81:6f:a1:f6:f4:7e:85:89:b6:84:3f:59:90:
         5d:4f:bc:7a:6f:ef:8b:25:2b:10:44:a2:b8:16:93:45:10:43:
         73:0a:e6:97:7c:06:c0:7f:4a:72:07:a9:35:76:47:c9:40:4d:
         0c:1b:0d:79:51:1c:cd:41:e8:0b:ce:00:6c:3e:b6:da:41:31:
         36:6d:9a:e4:74:6a:37:db:e5:87:df:a4:8e:a6:16:05:36:62:
         44:6e:77:f5:0f:82:27:54:fd:9d:77:77:0f:19:23:74:4f:45:
         79:71:0e:5b:47:c2:a4:1f:34:03:5d:c0:cc:d1:fc:86:a7:98:
         93:66:68:80:77:96:a4:96:fd:f7:46:84:49:61:71:ce:e9:ee:
         9d:09:cf:01:97:25:b2:49:57:8b:f4:4b:01:03:19:1d:32:a0:
         86:2f:23:7a:e4:57:fa:2b:a3:7e:7d:73:89:c3:4d:c2:b6:db:
         ce:03:ef:cf:8d:b9:29:3b:11:37:9e:8c:13:18:08:64:d6:da:
         97:d5:0d:cb:40:8f:ed:01:7b:38:f8:4b:d7:9e:1d:63:56:e1:
         30:77:f2:99:7a:b9:8f:d6:0e:49:8d:d6:b5:1f:d8:c3:6c:11:
         af:f8:b4:f2:67:b7:71:ed:8e:5b:86:c8:de:ad:1b:12:8a:b2:
         f5:c7:46:64:04:ba:e3:8d
-----BEGIN CERTIFICATE-----
MIIFrjCCA5agAwIBAgIBATANBgkqhkiG9w0BAQUFADAqMQswCQYDVQQGEwJCRTEb
MBkGA1UEAxMSdHhqc29ucnBjLXB5c2VydmVyMB4XDTEyMDYyMzE1NDczOFoXDTEz
MDYyMzE1NDczOFowKjELMAkGA1UEBhMCQkUxGzAZBgNVBAMTEnR4anNvbnJwYy1w
eXNlcnZlcjCCAiIwDQYJKoZIhvcNAQEBBQADggIPADCCAgoCggIBAMLOl1RsQHLJ
+1D7IHUSH8+Flx+i4N3JiZIId+JF7S04/BQJxIdYLH6dlp3RdH2iDGI1U/WdwG6Z
8P/kWXurSK4wgZyaZC04/n+RRmbSLZVZGSpc/1CFkLyFU9UD94qJCfdm7RLmdfVG
FkEnpuMwhmHqrRj8UtJpghUhb6feZiuN5vegZPEgsKzbYZrSno9+v5rZE1NQsmMo
rBqlwZRjkZ47c6boa+1JPMMyf59CrYgRlrw32wOvyfeUKC/070NIdURJX72smTLr
2H/OqsZ1VseTCVegcalge37Bi2tvr4gWVyFYF8GeY/yFfyZ/OYRE6op4x7RAB95x
69ihB0X+92Mpz5xU+gpgPyzSuJo6VHyqEBcxWYKx3nLxpgH0H7i56hZBHin5b2VS
cFsgDfEYYa+H0YRBqlkKvqauv3IZxW6LaiPybRws0U+3ATH60IZxd2YezsJMFiLE
iP3pUGH/bUW9BYNxt/fZcpL3fZi55+d87e2iUhQtL4MurnvMNrrrFYlh8gqk5wyL
CX7fTdPXONqdG0kH+7J+NCXF3tH2NUqjvW4H0po2Ic60QbUB3ZKkhfJ/TSfs/LJx
MFSalwdAxfaAX9l64zNmPjM935+8y8sozLY2LYFSCXqBYPEdf2mKk5NZ/T6aqwxO
6GVukUSgXrkO5vwsNtQcvEebJ5lLTiTXAgMBAAGjgd4wgdswCQYDVR0TBAIwADAR
BglghkgBhvhCAQEEBAMCBkAwKwYJYIZIAYb4QgENBB4WHFRpbnlDQSBHZW5lcmF0
ZWQgQ2VydGlmaWNhdGUwHQYDVR0OBBYEFCaMpfmmSv5M6A8EM34EJii/TJLzMFkG
A1UdIwRSMFCAFJ2PhHaUzQf+o+iL1/nZbu/KdVF7oS2kKzApMQswCQYDVQQGEwJC
RTEaMBgGA1UEAxMRdHhqc29ucnBjLXRlc3QtY2GCCQCN0q83+cqSCzAJBgNVHRIE
AjAAMAkGA1UdEQQCMAAwDQYJKoZIhvcNAQEFBQADggIBAGOH2PxGA10f+wekFa8u
bznBKzmaB0adB5VDbRTaH6fqdl0CCrXQ6h3ZzTqfZ1U+rXXmNTfCUuQi4vxKxz2i
gmepYwv6pyCBQ6Y/1Le4bhJRybDbyt2u18Aznd8ciFkUEzF2R4Z+TMwAxtlm+Lk4
BiV7azLw+rzq8Xs6gyfQ52SyDjk1lGzcg1/q3gYkqDw1r9fzyg3RXNLzYG9PqE+g
TE3HUHowTxegHTe+nidj/b89hlEJ20fbeciPQxPIspDxP8dVL3NYZz8Y0T4sTLzn
jMvSHj20vFOye7Z3IhwMFwJfJ1PYJJcl3glp06QrpU4LXfJuNABBVm0ewlUcXUBy
D7kigW+h9vR+hYm2hD9ZkF1PvHpv74slKxBEorgWk0UQQ3MK5pd8BsB/SnIHqTV2
R8lATQwbDXlRHM1B6AvOAGw+ttpBMTZtmuR0ajfb5YffpI6mFgU2YkRud/UPgidU
/Z13dw8ZI3RPRXlxDltHwqQfNANdwMzR/IanmJNmaIB3lqSW/fdGhElhcc7p7p0J
zwGXJbJJV4v0SwEDGR0yoIYvI3rkV/oro359c4nDTcK2284D78+NuSk7ETeejBMY
CGTW2pfVDctAj+0Bezj4S9eeHWNW4TB38pl6uY/WDkmN1rUf2MNsEa/4tPJnt3Ht
jluGyN6tGxKKsvXHRmQEuuON
-----END CERTIFICATE-----
