Certificate:
    Data:
        Version: 4 (0x3)
        Serial Number: 1 (0x1)
    Signature Algorithm: sha1WithRSAEncryption
        Issuer: CN=www.example.com, C=BE, O=Gremwell bvba
        Validity
            Not Before: Jan  1 00:00:00 1970 GMT
            Not After : Jan 19 03:14:07 2038 GMT
        Subject: CN=www.example.com, C=BE, O=Gremwell bvba
        Subject Public Key Info:
            Public Key Algorithm: rsaEncryption
                Public-Key: (1024 bit)
                Modulus:
                    00:e7:e8:3b:45:39:c1:9d:53:e1:0b:91:8a:21:cf:
                    03:7a:1e:c9:f5:a9:01:18:65:b0:92:1a:31:4a:de:
                    b0:9d:42:84:7b:0f:95:a6:6d:2f:d2:9f:03:84:d1:
                    55:30:c7:06:81:3e:22:eb:d4:55:42:af:52:d2:b6:
                    e6:24:a6:95:ee:0e:83:db:b7:9c:5d:d5:b4:71:3f:
                    e0:92:ec:6a:01:f1:2b:15:ef:b9:83:9c:1b:43:05:
                    8b:fa:4d:be:66:6a:13:bc:69:cd:12:db:d8:4a:3f:
                    ea:6f:67:63:58:4c:b7:d7:70:cd:c6:56:07:47:96:
                    c6:f8:7f:98:5a:7a:34:4d:77
                Exponent: 65537 (0x10001)
    Signature Algorithm: sha1WithRSAEncryption
         ae:f9:3b:9b:55:08:6a:a7:09:82:b4:6e:59:56:e9:1d:06:c3:
         a6:94:21:47:12:8c:57:67:65:1b:a4:4f:de:7b:25:c4:d0:5e:
         36:1f:94:2a:46:d0:42:65:3c:42:5e:45:20:0d:f2:43:a5:45:
         1d:5e:ad:c4:f9:39:4b:7d:12:50:38:35:5c:6b:2b:46:11:10:
         dc:e7:b9:46:33:64:16:66:70:92:58:0f:28:04:15:58:93:ec:
         57:ce:23:f5:07:5a:c5:4f:26:ea:9f:24:09:9f:a2:29:5f:b4:
         9e:12:ce:7a:dd:c0:ac:ee:05:e1:33:f9:7b:3c:77:7e:8a:85:
         18:6a
-----BEGIN CERTIFICATE-----
MIIB8jCCAVugAwIBAwIBATANBgkqhkiG9w0BAQUFADA/MRgwFgYDVQQDEw93d3cu
ZXhhbXBsZS5jb20xCzAJBgNVBAYTAkJFMRYwFAYDVQQKEw1HcmVtd2VsbCBidmJh
MB4XDTcwMDEwMTAwMDAwMFoXDTM4MDExOTAzMTQwN1owPzEYMBYGA1UEAxMPd3d3
LmV4YW1wbGUuY29tMQswCQYDVQQGEwJCRTEWMBQGA1UEChMNR3JlbXdlbGwgYnZi
YTCBnzANBgkqhkiG9w0BAQEFAAOBjQAwgYkCgYEA5+g7RTnBnVPhC5GKIc8Deh7J
9akBGGWwkhoxSt6wnUKEew+Vpm0v0p8DhNFVMMcGgT4i69RVQq9S0rbmJKaV7g6D
27ecXdW0cT/gkuxqAfErFe+5g5wbQwWL+k2+ZmoTvGnNEtvYSj/qb2djWEy313DN
xlYHR5bG+H+YWno0TXcCAwEAATANBgkqhkiG9w0BAQUFAAOBgQCu+TubVQhqpwmC
tG5ZVukdBsOmlCFHEoxXZ2UbpE/eeyXE0F42H5QqRtBCZTxCXkUgDfJDpUUdXq3E
+TlLfRJQODVcaytGERDc57lGM2QWZnCSWA8oBBVYk+xXziP1B1rFTybqnyQJn6Ip
X7SeEs563cCs7gXhM/l7PHd+ioUYag==
-----END CERTIFICATE-----
