Certificate:
    Data:
        Version: 4 (0x3)
        Serial Number: 1 (0x1)
    Signature Algorithm: sha1WithRSAEncryption
        Issuer: CN=www.example.com, C=BE, O=Gremwell bvba
        Validity
            Not Before: Jan  1 00:00:00 1970 GMT
            Not After : Jan 19 03:14:07 2038 GMT
        Subject: CN=www.example.com, C=BE, O=Gremwell bvba
        Subject Public Key Info:
            Public Key Algorithm: rsaEncryption
                Public-Key: (1024 bit)
                Modulus:
                    00:a7:c5:84:67:25:b0:8a:b7:f4:35:2e:57:f7:d2:
                    59:75:05:f6:86:55:ca:b2:64:5b:f0:07:b3:d9:26:
                    9c:8d:e2:dc:e2:e8:b0:39:a6:be:9f:d9:40:d3:38:
                    5f:db:ab:32:68:a4:fb:d6:01:b7:1e:27:b5:b8:28:
                    9a:c1:02:cc:cd:9a:c9:6d:0f:3a:8a:72:1e:fa:fc:
                    f3:1d:a2:35:bc:9f:23:22:da:3a:36:0b:6d:6d:04:
                    91:b8:18:2f:a8:c5:00:22:bf:4b:7a:4c:1a:57:c4:
                    80:d5:7c:08:69:75:0a:be:88:68:51:ca:5d:a8:ef:
                    28:14:be:5b:28:e7:ea:1f:f5
                Exponent: 65537 (0x10001)
    Signature Algorithm: sha1WithRSAEncryption
         1d:07:a2:4b:03:b3:ff:fb:40:08:74:71:3c:13:7f:30:f4:34:
         a1:f4:a2:6c:d4:57:ec:a8:74:48:d6:8d:02:9f:9a:8a:aa:b4:
         c7:95:bd:c3:23:f0:e4:68:9e:4d:35:14:0c:96:92:94:5e:5d:
         14:c2:1d:ac:79:cb:2c:eb:0e:95:c7:54:f9:69:5d:94:1b:82:
         47:e4:52:ec:c9:44:a9:81:a8:ee:d0:2e:2f:c5:6e:47:38:13:
         11:12:ff:89:91:3a:ab:e6:e2:12:88:4c:27:c3:96:c9:03:cf:
         73:78:8b:e9:d3:70:c5:6f:19:cd:2d:31:2e:0b:91:50:df:82:
         d3:18
-----BEGIN CERTIFICATE-----
MIIB8jCCAVugAwIBAwIBATANBgkqhkiG9w0BAQUFADA/MRgwFgYDVQQDEw93d3cu
ZXhhbXBsZS5jb20xCzAJBgNVBAYTAkJFMRYwFAYDVQQKEw1HcmVtd2VsbCBidmJh
MB4XDTcwMDEwMTAwMDAwMFoXDTM4MDExOTAzMTQwN1owPzEYMBYGA1UEAxMPd3d3
LmV4YW1wbGUuY29tMQswCQYDVQQGEwJCRTEWMBQGA1UEChMNR3JlbXdlbGwgYnZi
YTCBnzANBgkqhkiG9w0BAQEFAAOBjQAwgYkCgYEAp8WEZyWwirf0NS5X99JZdQX2
hlXKsmRb8Aez2SacjeLc4uiwOaa+n9lA0zhf26syaKT71gG3Hie1uCiawQLMzZrJ
bQ86inIe+vzzHaI1vJ8jIto6NgttbQSRuBgvqMUAIr9LekwaV8SA1XwIaXUKvoho
UcpdqO8oFL5bKOfqH/UCAwEAATANBgkqhkiG9w0BAQUFAAOBgQAdB6JLA7P/+0AI
dHE8E38w9DSh9KJs1FfsqHRI1o0Cn5qKqrTHlb3DI/DkaJ5NNRQMlpKUXl0Uwh2s
ecss6w6Vx1T5aV2UG4JH5FLsyUSpgaju0C4vxW5HOBMREv+JkTqr5uISiEwnw5bJ
A89zeIvp03DFbxnNLTEuC5FQ34LTGA==
-----END CERTIFICATE-----
