Certificate:
    Data:
        Version: 4 (0x3)
        Serial Number: 1 (0x1)
    Signature Algorithm: sha1WithRSAEncryption
        Issuer: CN=www.example.com, C=BE, O=Gremwell bvba
        Validity
            Not Before: Jan  1 00:00:00 1970 GMT
            Not After : Jan 19 03:14:07 2038 GMT
        Subject: CN=www.example.com, C=BE, O=Gremwell bvba
        Subject Public Key Info:
            Public Key Algorithm: rsaEncryption
                Public-Key: (1024 bit)
                Modulus:
                    00:ad:a2:95:61:12:b1:a8:78:38:1a:02:ac:15:2e:
                    06:a2:00:fd:21:e1:1d:07:76:8e:ca:1c:5f:be:22:
                    f0:6d:e0:d8:ae:fc:97:89:ad:31:53:ac:18:f6:72:
                    b4:99:37:bb:7f:61:36:41:d1:fe:28:73:27:3f:81:
                    52:3c:0a:f0:08:ab:89:67:35:7a:b7:7f:8f:65:ed:
                    cb:dc:4b:89:9a:69:df:02:4b:94:ac:b1:8d:7c:58:
                    25:36:82:a4:16:f7:4c:ad:78:c9:a0:9b:6b:2b:70:
                    1d:29:52:23:e6:23:05:c6:6f:e8:60:43:15:1a:37:
                    04:3c:40:cd:f8:72:2f:b9:cf
                Exponent: 65537 (0x10001)
    Signature Algorithm: sha1WithRSAEncryption
         89:05:16:e2:06:09:9d:57:46:16:a4:62:90:2f:11:b0:24:dc:
         f8:90:ec:05:c4:0f:5c:3a:c0:b1:0c:8b:9f:96:b5:51:66:35:
         82:48:94:5b:78:b5:d0:8b:f5:dd:2d:9f:61:59:79:a5:81:cf:
         f2:c2:5e:cb:21:c3:2f:4c:a1:08:60:0b:8e:6a:59:6a:a1:79:
         93:97:2f:be:2e:d3:9b:c1:24:c8:a7:af:ad:bd:15:9b:bb:16:
         8c:d5:0c:8f:d0:a5:b0:12:c9:a3:19:a8:21:2d:51:60:47:7d:
         ee:f1:48:6b:f8:77:12:28:db:c7:ac:60:c6:25:f1:21:f7:a2:
         30:5e
-----BEGIN CERTIFICATE-----
MIIB8jCCAVugAwIBAwIBATANBgkqhkiG9w0BAQUFADA/MRgwFgYDVQQDEw93d3cu
ZXhhbXBsZS5jb20xCzAJBgNVBAYTAkJFMRYwFAYDVQQKEw1HcmVtd2VsbCBidmJh
MB4XDTcwMDEwMTAwMDAwMFoXDTM4MDExOTAzMTQwN1owPzEYMBYGA1UEAxMPd3d3
LmV4YW1wbGUuY29tMQswCQYDVQQGEwJCRTEWMBQGA1UEChMNR3JlbXdlbGwgYnZi
YTCBnzANBgkqhkiG9w0BAQEFAAOBjQAwgYkCgYEAraKVYRKxqHg4GgKsFS4GogD9
IeEdB3aOyhxfviLwbeDYrvyXia0xU6wY9nK0mTe7f2E2QdH+KHMnP4FSPArwCKuJ
ZzV6t3+PZe3L3EuJmmnfAkuUrLGNfFglNoKkFvdMrXjJoJtrK3AdKVIj5iMFxm/o
YEMVGjcEPEDN+HIvuc8CAwEAATANBgkqhkiG9w0BAQUFAAOBgQCJBRbiBgmdV0YW
pGKQLxGwJNz4kOwFxA9cOsCxDIuflrVRZjWCSJRbeLXQi/XdLZ9hWXmlgc/ywl7L
IcMvTKEIYAuOallqoXmTly++LtObwSTIp6+tvRWbuxaM1QyP0KWwEsmjGaghLVFg
R33u8Uhr+HcSKNvHrGDGJfEh96IwXg==
-----END CERTIFICATE-----
