Certificate:
    Data:
        Version: 4 (0x3)
        Serial Number: 1 (0x1)
    Signature Algorithm: sha1WithRSAEncryption
        Issuer: CN=ca-false, C=BE, O=Gremwell bvba
        Validity
            Not Before: Jan  1 00:00:00 1970 GMT
            Not After : Jan 19 03:14:07 2038 GMT
        Subject: CN=www.example.com, C=BE, O=Gremwell bvba
        Subject Public Key Info:
            Public Key Algorithm: rsaEncryption
                Public-Key: (1024 bit)
                Modulus:
                    00:e9:35:a1:32:af:b1:3c:40:67:b0:7b:32:c3:c5:
                    3b:56:79:cc:c5:a8:e7:08:e3:1a:49:95:79:59:a7:
                    ba:2c:fd:9c:c6:e5:a4:2d:db:d0:ce:12:75:0f:3f:
                    e0:0b:26:c7:45:96:26:cd:f2:6e:4a:03:2e:38:6c:
                    04:29:05:d6:87:d7:e9:0b:18:ff:a2:fb:e7:e0:6b:
                    17:2b:f4:8f:a5:1f:b7:76:37:e9:c3:6f:7f:7a:33:
                    4d:b9:0a:f7:03:1e:2b:15:78:c7:13:d6:cf:dd:c1:
                    14:ec:b3:69:1d:ec:dd:d5:43:7a:16:44:ba:a4:b4:
                    e6:26:16:c4:0a:dd:4d:43:89
                Exponent: 65537 (0x10001)
    Signature Algorithm: sha1WithRSAEncryption
         24:16:d1:d2:04:c5:a2:f3:de:2c:33:17:e3:ff:fc:2e:6d:43:
         49:df:9b:fe:2d:7d:a5:44:f1:b2:ec:44:9e:28:df:96:34:c7:
         6e:76:0a:80:ea:8e:ac:ef:91:05:2c:e0:67:46:86:fe:f5:3b:
         80:7e:b7:d5:76:c2:8e:41:ff:84:d8:9b:63:47:61:b1:39:93:
         0b:74:51:a7:fc:96:88:4c:3d:cf:90:99:21:00:e6:d6:48:a0:
         62:ee:65:85:c8:51:7f:5b:7b:44:23:af:52:75:ba:57:5b:90:
         7d:58:fc:2b:f5:67:d0:d3:c2:12:f1:8a:11:48:9e:96:f7:87:
         bd:b9
-----BEGIN CERTIFICATE-----
MIIB6zCCAVSgAwIBAwIBATANBgkqhkiG9w0BAQUFADA4MREwDwYDVQQDEwhjYS1m
YWxzZTELMAkGA1UEBhMCQkUxFjAUBgNVBAoTDUdyZW13ZWxsIGJ2YmEwHhcNNzAw
MTAxMDAwMDAwWhcNMzgwMTE5MDMxNDA3WjA/MRgwFgYDVQQDEw93d3cuZXhhbXBs
ZS5jb20xCzAJBgNVBAYTAkJFMRYwFAYDVQQKEw1HcmVtd2VsbCBidmJhMIGfMA0G
CSqGSIb3DQEBAQUAA4GNADCBiQKBgQDpNaEyr7E8QGewezLDxTtWeczFqOcI4xpJ
lXlZp7os/ZzG5aQt29DOEnUPP+ALJsdFlibN8m5KAy44bAQpBdaH1+kLGP+i++fg
axcr9I+lH7d2N+nDb396M025CvcDHisVeMcT1s/dwRTss2kd7N3VQ3oWRLqktOYm
FsQK3U1DiQIDAQABMA0GCSqGSIb3DQEBBQUAA4GBACQW0dIExaLz3iwzF+P//C5t
Q0nfm/4tfaVE8bLsRJ4o35Y0x252CoDqjqzvkQUs4GdGhv71O4B+t9V2wo5B/4TY
m2NHYbE5kwt0Uaf8lohMPc+QmSEA5tZIoGLuZYXIUX9be0Qjr1J1uldbkH1Y/Cv1
Z9DTwhLxihFInpb3h725
-----END CERTIFICATE-----
Certificate:
    Data:
        Version: 4 (0x3)
        Serial Number: 1 (0x1)
    Signature Algorithm: sha1WithRSAEncryption
        Issuer: C=BE, CN=txjsonrpc-test-ca
        Validity
            Not Before: Jan  1 00:00:00 1970 GMT
            Not After : Jan 19 03:14:07 2038 GMT
        Subject: CN=ca-false, C=BE, O=Gremwell bvba
        Subject Public Key Info:
            Public Key Algorithm: rsaEncryption
                Public-Key: (1024 bit)
                Modulus:
                    00:f6:9d:42:3f:31:ab:e9:2e:8b:ff:10:ea:23:c9:
                    2b:41:7a:89:85:64:fb:46:65:b7:c1:55:e9:71:09:
                    63:cd:c5:2c:e0:a5:ef:55:9e:07:75:a4:b5:24:12:
                    bb:96:cf:c6:bb:03:27:e7:75:12:81:d4:bc:ce:11:
                    76:67:79:22:7a:b9:ec:72:fe:3d:e1:7a:0f:c0:26:
                    05:fc:c4:5c:13:a7:c2:29:56:3d:b6:b9:92:d4:14:
                    2e:e8:51:82:57:50:9e:f2:35:b6:ae:13:69:0d:10:
                    0b:dc:ba:89:24:b1:e9:a2:e0:36:5e:a0:19:96:f7:
                    8c:94:f7:1a:b1:bc:37:2f:47
                Exponent: 65537 (0x10001)
        X509v3 extensions:
            X509v3 Basic Constraints: critical
                CA:FALSE
    Signature Algorithm: sha1WithRSAEncryption
         54:4c:03:2e:81:71:00:fe:64:99:f5:02:22:d1:87:e2:b2:06:
         5b:56:94:33:4e:86:91:ab:c1:3a:3b:49:c6:76:b0:d3:d3:ed:
         c2:d4:ce:0b:69:f4:dc:7e:db:c5:43:83:51:e2:58:65:8d:bf:
         e9:3a:5b:51:eb:34:78:50:01:da:7f:a0:aa:08:09:0c:67:2e:
         68:4f:5c:c8:15:86:1d:7e:50:c8:e4:e3:e8:1a:83:32:a8:9c:
         9e:ad:3b:60:99:59:cd:bf:b8:44:74:e1:5d:e1:b1:22:2a:18:
         9f:c6:36:6c:5c:0f:b4:e4:3a:cf:e5:ce:f1:97:ca:de:df:79:
         c6:3e:de:f7:3f:a0:ff:92:11:49:07:8a:31:0a:b9:19:26:2c:
         cc:2c:aa:06:f5:30:ee:1d:ed:40:31:3a:26:f5:f4:01:b5:9b:
         36:dc:fc:94:07:a3:42:88:59:28:e8:ee:62:be:b5:1c:b2:26:
         18:6a:66:9c:df:5d:3d:eb:c2:7d:42:31:d1:a6:8b:34:71:bd:
         ce:ee:2d:6d:f8:e0:5e:1f:e0:73:2b:ea:27:10:0e:bf:1b:9b:
         f9:9b:18:83:d7:80:41:a8:1d:47:28:32:3f:60:8c:ea:4a:ab:
         9a:91:d7:63:2e:20:65:98:1a:44:20:fa:44:81:1c:a6:51:3d:
         f2:6f:51:76:3d:e3:ca:6d:e4:4e:86:7d:72:e2:8a:4a:c3:c6:
         c0:78:13:ff:94:4c:6d:57:3f:d4:30:c8:e3:4d:6f:75:1e:fc:
         28:37:8f:05:6f:03:ea:8c:7f:9c:75:80:e5:ea:3f:14:d4:17:
         3d:0e:24:12:4e:9b:44:78:c1:73:86:d3:7c:5f:4a:b8:c8:ae:
         87:c1:57:17:55:13:dd:5f:f8:4c:be:d2:f6:2a:91:27:82:cb:
         d4:70:19:01:bc:e0:ee:15:d9:ad:a6:39:65:20:23:4f:b9:90:
         93:ed:7c:94:e3:c0:e4:28:83:9c:43:a7:9c:5e:88:71:36:65:
         31:90:fd:7f:69:68:88:d0:e5:0a:f3:e0:ad:00:21:e1:d7:58:
         90:86:58:1a:31:1b:7e:9c:07:bd:c7:3a:eb:d7:8f:38:31:5f:
         08:83:24:cb:d0:16:79:8c:18:2d:4d:6d:45:0c:17:bc:fd:e4:
         fc:ff:61:42:3d:ce:ac:ff:79:2d:34:92:85:51:14:cb:9b:76:
         8a:92:78:78:61:80:f2:f4:89:dd:42:a0:09:48:28:50:2f:5f:
         34:51:d6:b2:d4:7c:83:bd:b3:e7:d1:34:c4:e6:d3:58:7e:9b:
         d3:b2:95:af:ed:c6:bc:8d:2b:4d:35:a2:f7:22:db:dc:32:84:
         3f:9a:61:3d:28:4b:c0:a2
-----BEGIN CERTIFICATE-----
MIIDaDCCAVCgAwIBAwIBATANBgkqhkiG9w0BAQUFADApMQswCQYDVQQGEwJCRTEa
MBgGA1UEAxMRdHhqc29ucnBjLXRlc3QtY2EwHhcNNzAwMTAxMDAwMDAwWhcNMzgw
MTE5MDMxNDA3WjA4MREwDwYDVQQDEwhjYS1mYWxzZTELMAkGA1UEBhMCQkUxFjAU
BgNVBAoTDUdyZW13ZWxsIGJ2YmEwgZ8wDQYJKoZIhvcNAQEBBQADgY0AMIGJAoGB
APadQj8xq+kui/8Q6iPJK0F6iYVk+0Zlt8FV6XEJY83FLOCl71WeB3WktSQSu5bP
xrsDJ+d1EoHUvM4Rdmd5Inq57HL+PeF6D8AmBfzEXBOnwilWPba5ktQULuhRgldQ
nvI1tq4TaQ0QC9y6iSSx6aLgNl6gGZb3jJT3GrG8Ny9HAgMBAAGjEDAOMAwGA1Ud
EwEB/wQCMAAwDQYJKoZIhvcNAQEFBQADggIBAFRMAy6BcQD+ZJn1AiLRh+KyBltW
lDNOhpGrwTo7ScZ2sNPT7cLUzgtp9Nx+28VDg1HiWGWNv+k6W1HrNHhQAdp/oKoI
CQxnLmhPXMgVhh1+UMjk4+gagzKonJ6tO2CZWc2/uER04V3hsSIqGJ/GNmxcD7Tk
Os/lzvGXyt7fecY+3vc/oP+SEUkHijEKuRkmLMwsqgb1MO4d7UAxOib19AG1mzbc
/JQHo0KIWSjo7mK+tRyyJhhqZpzfXT3rwn1CMdGmizRxvc7uLW344F4f4HMr6icQ
Dr8bm/mbGIPXgEGoHUcoMj9gjOpKq5qR12MuIGWYGkQg+kSBHKZRPfJvUXY948pt
5E6GfXLiikrDxsB4E/+UTG1XP9QwyONNb3Ue/Cg3jwVvA+qMf5x1gOXqPxTUFz0O
JBJOm0R4wXOG03xfSrjIrofBVxdVE91f+Ey+0vYqkSeCy9RwGQG84O4V2a2mOWUg
I0+5kJPtfJTjwOQog5xDp5xeiHE2ZTGQ/X9paIjQ5Qrz4K0AIeHXWJCGWBoxG36c
B73HOuvXjzgxXwiDJMvQFnmMGC1NbUUMF7z95Pz/YUI9zqz/eS00koVRFMubdoqS
eHhhgPL0id1CoAlIKFAvXzRR1rLUfIO9s+fRNMTm01h+m9Oyla/txryNK001ovci
29wyhD+aYT0oS8Ci
-----END CERTIFICATE-----
