Certificate:
    Data:
        Version: 3 (0x2)
        Serial Number: 1 (0x1)
    Signature Algorithm: sha1WithRSAEncryption
        Issuer: C=BE, CN=txjsonrpc-pyserver
        Validity
            Not Before: Jun 23 15:47:38 2012 GMT
            Not After : Jun 23 15:47:38 2013 GMT
        Subject: C=BE, CN=txjsonrpc-pyserver
        Subject Public Key Info:
            Public Key Algorithm: rsaEncryption
                Public-Key: (4096 bit)
                Modulus:
                    00:bb:f8:cf:64:88:f8:df:4e:9a:32:ac:54:94:a7:
                    ef:47:2c:43:1c:7e:75:1f:f3:12:6c:63:8c:f7:29:
                    31:3e:fa:5e:b1:46:13:02:39:56:0f:21:56:cd:5d:
                    b8:3c:5a:cb:3b:70:04:1d:11:19:b1:a8:72:ff:cb:
                    18:6c:d6:12:d7:e6:e6:30:10:19:c7:cb:9e:d2:4b:
                    82:06:62:79:ff:d7:5b:3f:93:e5:8e:50:f8:68:0a:
                    4d:b9:d0:08:b6:ca:7e:0e:6d:ba:b6:93:20:a7:a5:
                    86:d1:9e:6a:4a:0f:23:da:3c:9c:de:3f:04:69:ac:
                    1d:e5:60:bf:9c:8a:96:1b:55:e6:5f:02:4d:ef:87:
                    4c:9c:8f:a6:cb:b8:0f:6e:25:cf:d2:11:d7:fa:06:
                    d1:17:7e:86:d6:23:dd:8a:86:b2:ad:6a:d8:45:e5:
                    d2:04:ac:cb:2b:4a:44:e4:22:cc:9a:6d:c0:6e:65:
                    d6:aa:74:fd:21:e7:ac:20:38:56:af:1a:3c:72:a9:
                    06:ef:bf:76:28:b3:06:ef:45:99:b1:a5:a7:68:1a:
                    be:6c:99:23:a0:f4:4d:4d:0e:36:7e:79:ab:8c:9c:
                    67:3f:db:68:61:3a:6e:3a:cb:c1:b9:ac:78:2f:6f:
                    8f:a4:25:30:e7:fa:70:54:62:1b:22:f3:c8:6a:1a:
                    0f:a4:16:c1:16:3a:8e:79:34:d0:75:7f:1f:b1:a2:
                    24:e6:ff:8d:50:cf:88:af:fe:b1:ec:3a:6b:a5:db:
                    e4:b0:e3:31:53:e8:9b:12:72:75:34:45:b8:4a:a3:
                    aa:86:81:4c:0e:d1:e0:d7:de:e2:c1:64:8d:bd:ea:
                    f0:e2:93:77:cf:7e:d5:c7:e9:d6:10:ce:02:b0:83:
                    1e:ad:f6:8d:04:51:f5:ff:1b:d4:de:da:de:f0:6a:
                    bc:70:b7:49:e9:44:3f:11:1a:7b:87:13:31:41:cb:
                    0d:3e:44:cf:33:47:e3:eb:a3:73:e0:a1:65:d3:12:
                    1b:36:ad:64:8a:3f:59:69:fa:24:74:3e:c0:27:d1:
                    ff:33:13:79:d2:06:08:8f:ab:56:2b:76:86:10:d5:
                    90:d8:5c:25:68:26:86:b7:78:64:2e:e6:d2:38:ac:
                    13:a1:7a:4f:fa:33:48:4f:6a:c8:a8:5a:75:d6:96:
                    4c:9d:79:e5:ad:04:2e:2b:70:eb:8c:ca:62:26:c0:
                    f2:26:6b:99:1f:04:8a:4b:3f:27:ac:48:20:cd:fe:
                    7c:1f:ac:0e:10:f5:85:cc:20:de:88:4f:54:b0:7d:
                    8a:4f:de:2a:74:c0:5b:6f:42:39:37:f7:35:4b:12:
                    cf:ff:fb:77:46:0d:f6:cb:79:82:22:31:6a:03:fd:
                    39:28:27
                Exponent: 65537 (0x10001)
        X509v3 extensions:
            X509v3 Basic Constraints: 
                CA:FALSE
            Netscape Cert Type: 
                SSL Server
            Netscape Comment: 
                TinyCA Generated Certificate
            X509v3 Subject Key Identifier: 
                26:8C:A5:F9:A6:4A:FE:4C:E8:0F:04:33:7E:04:26:28:BF:4C:92:F3
            X509v3 Authority Key Identifier: 
                keyid:9D:8F:84:76:94:CD:07:FE:A3:E8:8B:D7:F9:D9:6E:EF:CA:75:51:7B
                DirName:/C=BE/CN=txjsonrpc-test-ca
                serial:8D:D2:AF:37:F9:CA:92:0B

            X509v3 Issuer Alternative Name: 
                <EMPTY>

            X509v3 Subject Alternative Name: 
                <EMPTY>

    Signature Algorithm: sha1WithRSAEncryption
         26:28:e8:95:44:6e:18:d4:ae:e7:fa:ea:ec:e0:a1:e3:c6:0c:
         bb:37:9b:f5:35:fc:bb:37:53:e2:d7:34:60:40:51:1a:fb:c7:
         9b:ec:5b:68:4e:da:91:8f:3f:01:dc:6b:80:3f:72:28:87:46:
         a3:28:0d:87:e5:1c:8f:08:14:01:ea:c0:83:3c:ab:8f:0c:54:
         04:a2:f2:b5:48:ce:97:fb:62:33:a6:a1:e9:c9:66:01:88:7f:
         48:00:de:a1:38:69:d6:ef:57:d4:a1:01:5c:7a:43:89:3d:53:
         ff:03:d7:e1:50:76:b3:39:ac:80:df:b7:3f:62:b8:3e:81:11:
         81:48:35:b5:ff:de:f6:30:ef:dd:20:b1:66:ed:9b:8d:b3:ee:
         88:4a:ce:66:09:e3:68:54:3a:4e:40:a3:01:10:42:15:1b:2c:
         28:d6:1e:45:80:a3:a1:6d:5c:54:90:32:e5:82:eb:e7:8c:86:
         6c:c1:45:ce:28:46:db:9d:fd:01:ab:5f:45:8c:a1:09:85:fe:
         0c:3f:f9:c6:20:76:da:2e:26:7a:3c:3d:4d:d9:b6:89:35:a3:
         57:10:21:15:dc:68:d4:a1:0e:3e:2c:82:5f:1b:48:74:b1:1f:
         d1:45:95:58:bc:57:ca:b6:05:07:db:d1:a9:ab:6c:a5:a1:96:
         f5:8a:3f:dc:5c:25:4b:6b:22:44:cf:18:da:b1:b4:64:1e:94:
         6a:14:04:e9:f1:53:0a:63:6b:65:73:85:c4:8c:4c:60:1f:0a:
         a0:0a:38:77:69:a8:ae:1f:fc:5b:f7:a3:fd:34:f5:35:3c:09:
         16:c7:4d:1c:e6:a2:89:85:3c:64:27:74:8f:0e:63:da:5e:77:
         2a:ac:10:2a:e4:3b:b9:3e:68:82:03:f9:00:73:51:2d:4b:cb:
         7e:53:85:a5:c1:30:0b:2f:91:94:41:ac:00:08:6a:ed:cd:b3:
         e2:8f:6d:b4:b7:03:0d:f2:06:bd:b2:a0:d9:36:54:ce:37:18:
         66:70:4b:a9:61:16:2b:bb:86:83:3d:21:bb:ff:c3:ae:69:5f:
         45:96:2a:c0:35:89:d4:d9:72:6a:5d:6f:82:45:6f:b4:2d:54:
         3f:f6:20:bc:c5:eb:11:66:05:47:73:59:13:7a:ee:9e:4a:b1:
         d0:e2:5a:57:c5:d8:c7:bd:82:35:05:84:06:aa:11:09:c9:1b:
         d8:af:e8:c0:78:c7:a8:09:8d:5f:64:af:15:b1:2b:7b:5c:10:
         2e:2a:91:0d:14:5a:f2:77:72:f8:db:1f:06:04:af:6e:2f:2d:
         34:cf:ce:c2:3f:73:29:5e:92:94:16:23:2d:aa:2c:4a:f0:e6:
         cd:5f:8b:8c:a9:bd:5c:95
-----BEGIN CERTIFICATE-----
MIIFrjCCA5agAwIBAgIBATANBgkqhkiG9w0BAQUFADAqMQswCQYDVQQGEwJCRTEb
MBkGA1UEAxMSdHhqc29ucnBjLXB5c2VydmVyMB4XDTEyMDYyMzE1NDczOFoXDTEz
MDYyMzE1NDczOFowKjELMAkGA1UEBhMCQkUxGzAZBgNVBAMTEnR4anNvbnJwYy1w
eXNlcnZlcjCCAiIwDQYJKoZIhvcNAQEBBQADggIPADCCAgoCggIBALv4z2SI+N9O
mjKsVJSn70csQxx+dR/zEmxjjPcpMT76XrFGEwI5Vg8hVs1duDxayztwBB0RGbGo
cv/LGGzWEtfm5jAQGcfLntJLggZief/XWz+T5Y5Q+GgKTbnQCLbKfg5turaTIKel
htGeakoPI9o8nN4/BGmsHeVgv5yKlhtV5l8CTe+HTJyPpsu4D24lz9IR1/oG0Rd+
htYj3YqGsq1q2EXl0gSsyytKROQizJptwG5l1qp0/SHnrCA4Vq8aPHKpBu+/diiz
Bu9FmbGlp2gavmyZI6D0TU0ONn55q4ycZz/baGE6bjrLwbmseC9vj6QlMOf6cFRi
GyLzyGoaD6QWwRY6jnk00HV/H7GiJOb/jVDPiK/+sew6a6Xb5LDjMVPomxJydTRF
uEqjqoaBTA7R4Nfe4sFkjb3q8OKTd89+1cfp1hDOArCDHq32jQRR9f8b1N7a3vBq
vHC3SelEPxEae4cTMUHLDT5EzzNH4+ujc+ChZdMSGzatZIo/WWn6JHQ+wCfR/zMT
edIGCI+rVit2hhDVkNhcJWgmhrd4ZC7m0jisE6F6T/ozSE9qyKhaddaWTJ155a0E
Litw64zKYibA8iZrmR8Eiks/J6xIIM3+fB+sDhD1hcwg3ohPVLB9ik/eKnTAW29C
OTf3NUsSz//7d0YN9st5giIxagP9OSgnAgMBAAGjgd4wgdswCQYDVR0TBAIwADAR
BglghkgBhvhCAQEEBAMCBkAwKwYJYIZIAYb4QgENBB4WHFRpbnlDQSBHZW5lcmF0
ZWQgQ2VydGlmaWNhdGUwHQYDVR0OBBYEFCaMpfmmSv5M6A8EM34EJii/TJLzMFkG
A1UdIwRSMFCAFJ2PhHaUzQf+o+iL1/nZbu/KdVF7oS2kKzApMQswCQYDVQQGEwJC
RTEaMBgGA1UEAxMRdHhqc29ucnBjLXRlc3QtY2GCCQCN0q83+cqSCzAJBgNVHRIE
AjAAMAkGA1UdEQQCMAAwDQYJKoZIhvcNAQEFBQADggIBACYo6JVEbhjUruf66uzg
oePGDLs3m/U1/Ls3U+LXNGBAURr7x5vsW2hO2pGPPwHca4A/ciiHRqMoDYflHI8I
FAHqwIM8q48MVASi8rVIzpf7YjOmoenJZgGIf0gA3qE4adbvV9ShAVx6Q4k9U/8D
1+FQdrM5rIDftz9iuD6BEYFINbX/3vYw790gsWbtm42z7ohKzmYJ42hUOk5AowEQ
QhUbLCjWHkWAo6FtXFSQMuWC6+eMhmzBRc4oRtud/QGrX0WMoQmF/gw/+cYgdtou
Jno8PU3Ztok1o1cQIRXcaNShDj4sgl8bSHSxH9FFlVi8V8q2BQfb0amrbKWhlvWK
P9xcJUtrIkTPGNqxtGQelGoUBOnxUwpja2VzhcSMTGAfCqAKOHdpqK4f/Fv3o/00
9TU8CRbHTRzmoomFPGQndI8OY9pedyqsECrkO7k+aIID+QBzUS1Ly35ThaXBMAsv
kZRBrAAIau3Ns+KPbbS3Aw3yBr2yoNk2VM43GGZwS6lhFiu7hoM9Ibv/w65pX0WW
KsA1idTZcmpdb4JFb7QtVD/2ILzF6xFmBUdzWRN67p5KsdDiWlfF2Me9gjUFhAaq
EQnJG9iv6MB4x6gJjV9krxWxK3tcEC4qkQ0UWvJ3cvjbHwYEr24vLTTPzsI/cyle
kpQWIy2qLErw5s1fi4ypvVyV
-----END CERTIFICATE-----
