Certificate:
    Data:
        Version: 3 (0x2)
        Serial Number: 1 (0x1)
    Signature Algorithm: sha1WithRSAEncryption
        Issuer: CN=ca-false, C=BE, O=Gremwell bvba
        Validity
            Not Before: Jun 23 15:47:38 2012 GMT
            Not After : Jun 23 15:47:38 2013 GMT
        Subject: C=BE, CN=txjsonrpc-pyserver
        Subject Public Key Info:
            Public Key Algorithm: rsaEncryption
                Public-Key: (4096 bit)
                Modulus:
                    00:bb:f8:cf:64:88:f8:df:4e:9a:32:ac:54:94:a7:
                    ef:47:2c:43:1c:7e:75:1f:f3:12:6c:63:8c:f7:29:
                    31:3e:fa:5e:b1:46:13:02:39:56:0f:21:56:cd:5d:
                    b8:3c:5a:cb:3b:70:04:1d:11:19:b1:a8:72:ff:cb:
                    18:6c:d6:12:d7:e6:e6:30:10:19:c7:cb:9e:d2:4b:
                    82:06:62:79:ff:d7:5b:3f:93:e5:8e:50:f8:68:0a:
                    4d:b9:d0:08:b6:ca:7e:0e:6d:ba:b6:93:20:a7:a5:
                    86:d1:9e:6a:4a:0f:23:da:3c:9c:de:3f:04:69:ac:
                    1d:e5:60:bf:9c:8a:96:1b:55:e6:5f:02:4d:ef:87:
                    4c:9c:8f:a6:cb:b8:0f:6e:25:cf:d2:11:d7:fa:06:
                    d1:17:7e:86:d6:23:dd:8a:86:b2:ad:6a:d8:45:e5:
                    d2:04:ac:cb:2b:4a:44:e4:22:cc:9a:6d:c0:6e:65:
                    d6:aa:74:fd:21:e7:ac:20:38:56:af:1a:3c:72:a9:
                    06:ef:bf:76:28:b3:06:ef:45:99:b1:a5:a7:68:1a:
                    be:6c:99:23:a0:f4:4d:4d:0e:36:7e:79:ab:8c:9c:
                    67:3f:db:68:61:3a:6e:3a:cb:c1:b9:ac:78:2f:6f:
                    8f:a4:25:30:e7:fa:70:54:62:1b:22:f3:c8:6a:1a:
                    0f:a4:16:c1:16:3a:8e:79:34:d0:75:7f:1f:b1:a2:
                    24:e6:ff:8d:50:cf:88:af:fe:b1:ec:3a:6b:a5:db:
                    e4:b0:e3:31:53:e8:9b:12:72:75:34:45:b8:4a:a3:
                    aa:86:81:4c:0e:d1:e0:d7:de:e2:c1:64:8d:bd:ea:
                    f0:e2:93:77:cf:7e:d5:c7:e9:d6:10:ce:02:b0:83:
                    1e:ad:f6:8d:04:51:f5:ff:1b:d4:de:da:de:f0:6a:
                    bc:70:b7:49:e9:44:3f:11:1a:7b:87:13:31:41:cb:
                    0d:3e:44:cf:33:47:e3:eb:a3:73:e0:a1:65:d3:12:
                    1b:36:ad:64:8a:3f:59:69:fa:24:74:3e:c0:27:d1:
                    ff:33:13:79:d2:06:08:8f:ab:56:2b:76:86:10:d5:
                    90:d8:5c:25:68:26:86:b7:78:64:2e:e6:d2:38:ac:
                    13:a1:7a:4f:fa:33:48:4f:6a:c8:a8:5a:75:d6:96:
                    4c:9d:79:e5:ad:04:2e:2b:70:eb:8c:ca:62:26:c0:
                    f2:26:6b:99:1f:04:8a:4b:3f:27:ac:48:20:cd:fe:
                    7c:1f:ac:0e:10:f5:85:cc:20:de:88:4f:54:b0:7d:
                    8a:4f:de:2a:74:c0:5b:6f:42:39:37:f7:35:4b:12:
                    cf:ff:fb:77:46:0d:f6:cb:79:82:22:31:6a:03:fd:
                    39:28:27
                Exponent: 65537 (0x10001)
        X509v3 extensions:
            X509v3 Basic Constraints: 
                CA:FALSE
            Netscape Cert Type: 
                SSL Server
            Netscape Comment: 
                TinyCA Generated Certificate
            X509v3 Subject Key Identifier: 
                26:8C:A5:F9:A6:4A:FE:4C:E8:0F:04:33:7E:04:26:28:BF:4C:92:F3
            X509v3 Authority Key Identifier: 
                keyid:9D:8F:84:76:94:CD:07:FE:A3:E8:8B:D7:F9:D9:6E:EF:CA:75:51:7B
                DirName:/C=BE/CN=txjsonrpc-test-ca
                serial:8D:D2:AF:37:F9:CA:92:0B

            X509v3 Issuer Alternative Name: 
                <EMPTY>

            X509v3 Subject Alternative Name: 
                <EMPTY>

    Signature Algorithm: sha1WithRSAEncryption
         83:23:1e:a9:68:ee:bc:70:61:44:37:06:97:6a:06:9b:4b:a5:
         7c:b0:7c:b6:01:a9:78:6f:d0:d4:fb:15:9e:64:d2:4b:19:a8:
         c9:1b:1c:ce:fc:de:0a:75:45:fb:27:e7:2d:b2:8b:a8:cc:e5:
         81:21:e8:df:ed:14:6e:54:6d:57:09:1e:27:47:81:57:a2:fc:
         e5:f6:5b:70:0f:c5:3d:41:3c:66:a2:c7:f9:43:82:4e:5d:7c:
         95:a8:25:45:0d:bb:10:3d:8d:e0:cc:db:1b:fc:24:1f:42:ca:
         4e:18:f9:5b:0d:9f:c6:ea:2d:5a:cb:4a:ea:1b:eb:90:39:fe:
         67:98
-----BEGIN CERTIFICATE-----
MIIEOzCCA6SgAwIBAgIBATANBgkqhkiG9w0BAQUFADA4MREwDwYDVQQDEwhjYS1m
YWxzZTELMAkGA1UEBhMCQkUxFjAUBgNVBAoTDUdyZW13ZWxsIGJ2YmEwHhcNMTIw
NjIzMTU0NzM4WhcNMTMwNjIzMTU0NzM4WjAqMQswCQYDVQQGEwJCRTEbMBkGA1UE
AxMSdHhqc29ucnBjLXB5c2VydmVyMIICIjANBgkqhkiG9w0BAQEFAAOCAg8AMIIC
CgKCAgEAu/jPZIj4306aMqxUlKfvRyxDHH51H/MSbGOM9ykxPvpesUYTAjlWDyFW
zV24PFrLO3AEHREZsahy/8sYbNYS1+bmMBAZx8ue0kuCBmJ5/9dbP5PljlD4aApN
udAItsp+Dm26tpMgp6WG0Z5qSg8j2jyc3j8Eaawd5WC/nIqWG1XmXwJN74dMnI+m
y7gPbiXP0hHX+gbRF36G1iPdioayrWrYReXSBKzLK0pE5CLMmm3AbmXWqnT9Iees
IDhWrxo8cqkG7792KLMG70WZsaWnaBq+bJkjoPRNTQ42fnmrjJxnP9toYTpuOsvB
uax4L2+PpCUw5/pwVGIbIvPIahoPpBbBFjqOeTTQdX8fsaIk5v+NUM+Ir/6x7Dpr
pdvksOMxU+ibEnJ1NEW4SqOqhoFMDtHg197iwWSNverw4pN3z37Vx+nWEM4CsIMe
rfaNBFH1/xvU3tre8Gq8cLdJ6UQ/ERp7hxMxQcsNPkTPM0fj66Nz4KFl0xIbNq1k
ij9ZafokdD7AJ9H/MxN50gYIj6tWK3aGENWQ2FwlaCaGt3hkLubSOKwToXpP+jNI
T2rIqFp11pZMnXnlrQQuK3DrjMpiJsDyJmuZHwSKSz8nrEggzf58H6wOEPWFzCDe
iE9UsH2KT94qdMBbb0I5N/c1SxLP//t3Rg32y3mCIjFqA/05KCcCAwEAAaOB3jCB
2zAJBgNVHRMEAjAAMBEGCWCGSAGG+EIBAQQEAwIGQDArBglghkgBhvhCAQ0EHhYc
VGlueUNBIEdlbmVyYXRlZCBDZXJ0aWZpY2F0ZTAdBgNVHQ4EFgQUJoyl+aZK/kzo
DwQzfgQmKL9MkvMwWQYDVR0jBFIwUIAUnY+EdpTNB/6j6IvX+dlu78p1UXuhLaQr
MCkxCzAJBgNVBAYTAkJFMRowGAYDVQQDExF0eGpzb25ycGMtdGVzdC1jYYIJAI3S
rzf5ypILMAkGA1UdEgQCMAAwCQYDVR0RBAIwADANBgkqhkiG9w0BAQUFAAOBgQCD
Ix6paO68cGFENwaXagabS6V8sHy2Aal4b9DU+xWeZNJLGajJGxzO/N4KdUX7J+ct
souozOWBIejf7RRuVG1XCR4nR4FXovzl9ltwD8U9QTxmosf5Q4JOXXyVqCVFDbsQ
PY3gzNsb/CQfQspOGPlbDZ/G6i1ay0rqG+uQOf5nmA==
-----END CERTIFICATE-----
Certificate:
    Data:
        Version: 4 (0x3)
        Serial Number: 1 (0x1)
    Signature Algorithm: sha1WithRSAEncryption
        Issuer: C=BE, CN=txjsonrpc-test-ca
        Validity
            Not Before: Jan  1 00:00:00 1970 GMT
            Not After : Jan 19 03:14:07 2038 GMT
        Subject: CN=ca-false, C=BE, O=Gremwell bvba
        Subject Public Key Info:
            Public Key Algorithm: rsaEncryption
                Public-Key: (1024 bit)
                Modulus:
                    00:c6:5a:af:35:f6:b9:70:44:80:64:4c:c3:59:74:
                    74:e4:58:09:e7:48:15:4f:0a:96:d1:b0:74:23:7b:
                    25:99:5b:29:f0:cf:a1:52:58:6b:38:9c:fe:e8:94:
                    a3:27:b9:26:5c:b6:53:d2:1b:86:14:25:ee:ca:5d:
                    6b:f2:5a:50:92:4b:32:73:9f:d8:5f:f5:62:84:3e:
                    af:1e:c5:e4:8f:49:5a:58:7a:66:9b:88:82:3b:fd:
                    0c:47:7d:eb:aa:58:14:d1:b0:11:df:9e:a4:18:42:
                    65:a6:d0:05:02:0c:9c:d3:a2:ed:28:6f:82:de:b7:
                    2c:29:ef:22:e7:7d:cc:36:69
                Exponent: 65537 (0x10001)
        X509v3 extensions:
            X509v3 Basic Constraints: critical
                CA:FALSE
    Signature Algorithm: sha1WithRSAEncryption
         59:e6:3a:a6:9b:60:1c:3d:b9:54:35:e8:d4:b0:fa:6f:3d:82:
         50:35:09:9c:ef:f9:e2:15:af:71:5d:23:e9:82:76:f2:1a:6d:
         cc:e0:09:d2:ed:98:8e:81:64:7b:b5:c4:49:d3:43:9e:9d:85:
         66:9a:84:eb:e7:17:6a:7b:7c:3d:09:70:ad:5b:aa:dd:48:65:
         ef:89:b1:7c:93:de:c7:8d:d7:f5:59:52:be:72:a8:3e:7b:6d:
         9d:20:5b:26:70:33:23:02:94:1e:38:7f:1b:45:ef:a2:15:98:
         ed:84:be:cb:a4:6e:36:7b:49:2a:39:fd:0a:91:09:2b:cb:fe:
         00:11:1a:26:76:32:f0:33:55:00:93:47:05:cd:37:73:be:9a:
         b1:79:9d:7c:f1:39:24:c5:c1:00:a2:d5:d3:4b:26:16:23:9b:
         a1:4c:72:56:32:ba:7e:3a:ec:10:b7:f8:17:fd:6b:2c:43:1a:
         75:26:e7:33:b3:de:d7:28:b0:9e:2e:77:7f:6f:db:fd:7f:b8:
         92:75:9f:3d:ef:d7:40:fb:36:a3:89:cd:b7:9b:a5:8c:4d:52:
         b2:90:17:ee:49:8b:bd:b2:03:59:3c:ed:41:25:38:05:58:2a:
         f0:a3:4c:d5:9d:7c:49:70:e0:e3:2b:de:c3:1b:4b:d5:89:c9:
         e3:cc:5e:93:09:ff:5a:66:69:2a:85:a7:33:f4:6b:34:dd:74:
         06:93:50:3c:5c:0b:78:7f:8b:64:5c:81:9e:63:9c:1e:bc:23:
         40:97:59:9b:5a:66:93:31:5c:33:2e:8a:05:7d:55:48:da:9d:
         f3:7b:c2:3c:87:69:1c:65:4a:8b:0a:12:90:b2:3e:2d:d9:58:
         e0:d8:94:46:09:fc:fb:fe:f1:0d:8e:ee:10:4a:d4:9b:4d:c4:
         49:9d:06:ab:49:3d:5e:71:85:39:43:96:0f:52:8c:1c:f5:b3:
         2b:76:ff:21:39:ff:b6:81:10:5c:da:ab:77:09:6d:93:6a:1d:
         9a:bb:00:8c:f0:82:26:7a:d4:62:54:76:49:92:ce:44:ab:22:
         2f:db:22:e3:99:40:f5:14:b6:e7:b2:a7:13:b6:1a:e9:75:dc:
         2a:7c:73:b4:ae:ef:67:d2:13:ac:aa:cc:9f:c7:54:1a:af:8c:
         d3:82:37:8d:83:7b:4d:7c:74:4c:6c:45:7d:a5:c2:4d:c5:b7:
         6a:51:f1:69:6a:4a:2a:09:bb:7f:06:e4:0c:a4:9c:d9:db:01:
         4e:d6:da:a0:f2:05:72:b2:41:75:b3:89:11:ce:1e:97:25:24:
         76:f5:53:b2:b7:1b:77:d9:bf:93:a3:ec:20:e0:5f:e8:1e:01:
         b6:5f:be:08:92:3f:90:c7
-----BEGIN CERTIFICATE-----
MIIDaDCCAVCgAwIBAwIBATANBgkqhkiG9w0BAQUFADApMQswCQYDVQQGEwJCRTEa
MBgGA1UEAxMRdHhqc29ucnBjLXRlc3QtY2EwHhcNNzAwMTAxMDAwMDAwWhcNMzgw
MTE5MDMxNDA3WjA4MREwDwYDVQQDEwhjYS1mYWxzZTELMAkGA1UEBhMCQkUxFjAU
BgNVBAoTDUdyZW13ZWxsIGJ2YmEwgZ8wDQYJKoZIhvcNAQEBBQADgY0AMIGJAoGB
AMZarzX2uXBEgGRMw1l0dORYCedIFU8KltGwdCN7JZlbKfDPoVJYazic/uiUoye5
Jly2U9IbhhQl7spda/JaUJJLMnOf2F/1YoQ+rx7F5I9JWlh6ZpuIgjv9DEd966pY
FNGwEd+epBhCZabQBQIMnNOi7Shvgt63LCnvIud9zDZpAgMBAAGjEDAOMAwGA1Ud
EwEB/wQCMAAwDQYJKoZIhvcNAQEFBQADggIBAFnmOqabYBw9uVQ16NSw+m89glA1
CZzv+eIVr3FdI+mCdvIabczgCdLtmI6BZHu1xEnTQ56dhWaahOvnF2p7fD0JcK1b
qt1IZe+JsXyT3seN1/VZUr5yqD57bZ0gWyZwMyMClB44fxtF76IVmO2EvsukbjZ7
SSo5/QqRCSvL/gARGiZ2MvAzVQCTRwXNN3O+mrF5nXzxOSTFwQCi1dNLJhYjm6FM
clYyun467BC3+Bf9ayxDGnUm5zOz3tcosJ4ud39v2/1/uJJ1nz3v10D7NqOJzbeb
pYxNUrKQF+5Ji72yA1k87UElOAVYKvCjTNWdfElw4OMr3sMbS9WJyePMXpMJ/1pm
aSqFpzP0azTddAaTUDxcC3h/i2RcgZ5jnB68I0CXWZtaZpMxXDMuigV9VUjanfN7
wjyHaRxlSosKEpCyPi3ZWODYlEYJ/Pv+8Q2O7hBK1JtNxEmdBqtJPV5xhTlDlg9S
jBz1syt2/yE5/7aBEFzaq3cJbZNqHZq7AIzwgiZ61GJUdkmSzkSrIi/bIuOZQPUU
tueypxO2Gul13Cp8c7Su72fSE6yqzJ/HVBqvjNOCN42De018dExsRX2lwk3Ft2pR
8WlqSioJu38G5AyknNnbAU7W2qDyBXKyQXWziRHOHpclJHb1U7K3G3fZv5Oj7CDg
X+geAbZfvgiSP5DH
-----END CERTIFICATE-----
