Certificate:
    Data:
        Version: 3 (0x2)
        Serial Number: 1 (0x1)
    Signature Algorithm: sha1WithRSAEncryption
        Issuer: CN=ca-true, C=BE, O=Gremwell bvba
        Validity
            Not Before: Jun 23 15:47:38 2012 GMT
            Not After : Jun 23 15:47:38 2013 GMT
        Subject: C=BE, CN=txjsonrpc-pyserver
        Subject Public Key Info:
            Public Key Algorithm: rsaEncryption
                Public-Key: (4096 bit)
                Modulus:
                    00:bb:f8:cf:64:88:f8:df:4e:9a:32:ac:54:94:a7:
                    ef:47:2c:43:1c:7e:75:1f:f3:12:6c:63:8c:f7:29:
                    31:3e:fa:5e:b1:46:13:02:39:56:0f:21:56:cd:5d:
                    b8:3c:5a:cb:3b:70:04:1d:11:19:b1:a8:72:ff:cb:
                    18:6c:d6:12:d7:e6:e6:30:10:19:c7:cb:9e:d2:4b:
                    82:06:62:79:ff:d7:5b:3f:93:e5:8e:50:f8:68:0a:
                    4d:b9:d0:08:b6:ca:7e:0e:6d:ba:b6:93:20:a7:a5:
                    86:d1:9e:6a:4a:0f:23:da:3c:9c:de:3f:04:69:ac:
                    1d:e5:60:bf:9c:8a:96:1b:55:e6:5f:02:4d:ef:87:
                    4c:9c:8f:a6:cb:b8:0f:6e:25:cf:d2:11:d7:fa:06:
                    d1:17:7e:86:d6:23:dd:8a:86:b2:ad:6a:d8:45:e5:
                    d2:04:ac:cb:2b:4a:44:e4:22:cc:9a:6d:c0:6e:65:
                    d6:aa:74:fd:21:e7:ac:20:38:56:af:1a:3c:72:a9:
                    06:ef:bf:76:28:b3:06:ef:45:99:b1:a5:a7:68:1a:
                    be:6c:99:23:a0:f4:4d:4d:0e:36:7e:79:ab:8c:9c:
                    67:3f:db:68:61:3a:6e:3a:cb:c1:b9:ac:78:2f:6f:
                    8f:a4:25:30:e7:fa:70:54:62:1b:22:f3:c8:6a:1a:
                    0f:a4:16:c1:16:3a:8e:79:34:d0:75:7f:1f:b1:a2:
                    24:e6:ff:8d:50:cf:88:af:fe:b1:ec:3a:6b:a5:db:
                    e4:b0:e3:31:53:e8:9b:12:72:75:34:45:b8:4a:a3:
                    aa:86:81:4c:0e:d1:e0:d7:de:e2:c1:64:8d:bd:ea:
                    f0:e2:93:77:cf:7e:d5:c7:e9:d6:10:ce:02:b0:83:
                    1e:ad:f6:8d:04:51:f5:ff:1b:d4:de:da:de:f0:6a:
                    bc:70:b7:49:e9:44:3f:11:1a:7b:87:13:31:41:cb:
                    0d:3e:44:cf:33:47:e3:eb:a3:73:e0:a1:65:d3:12:
                    1b:36:ad:64:8a:3f:59:69:fa:24:74:3e:c0:27:d1:
                    ff:33:13:79:d2:06:08:8f:ab:56:2b:76:86:10:d5:
                    90:d8:5c:25:68:26:86:b7:78:64:2e:e6:d2:38:ac:
                    13:a1:7a:4f:fa:33:48:4f:6a:c8:a8:5a:75:d6:96:
                    4c:9d:79:e5:ad:04:2e:2b:70:eb:8c:ca:62:26:c0:
                    f2:26:6b:99:1f:04:8a:4b:3f:27:ac:48:20:cd:fe:
                    7c:1f:ac:0e:10:f5:85:cc:20:de:88:4f:54:b0:7d:
                    8a:4f:de:2a:74:c0:5b:6f:42:39:37:f7:35:4b:12:
                    cf:ff:fb:77:46:0d:f6:cb:79:82:22:31:6a:03:fd:
                    39:28:27
                Exponent: 65537 (0x10001)
        X509v3 extensions:
            X509v3 Basic Constraints: 
                CA:FALSE
            Netscape Cert Type: 
                SSL Server
            Netscape Comment: 
                TinyCA Generated Certificate
            X509v3 Subject Key Identifier: 
                26:8C:A5:F9:A6:4A:FE:4C:E8:0F:04:33:7E:04:26:28:BF:4C:92:F3
            X509v3 Authority Key Identifier: 
                keyid:9D:8F:84:76:94:CD:07:FE:A3:E8:8B:D7:F9:D9:6E:EF:CA:75:51:7B
                DirName:/C=BE/CN=txjsonrpc-test-ca
                serial:8D:D2:AF:37:F9:CA:92:0B

            X509v3 Issuer Alternative Name: 
                <EMPTY>

            X509v3 Subject Alternative Name: 
                <EMPTY>

    Signature Algorithm: sha1WithRSAEncryption
         12:a7:b7:ed:f6:57:79:7d:ba:cf:5a:b8:53:d6:c5:fa:cc:83:
         d1:88:54:39:44:9c:bd:45:a9:7f:a3:89:42:45:60:5e:e2:54:
         55:04:12:38:f0:ca:f6:ea:5c:7e:21:00:5d:25:b0:7f:88:72:
         ac:11:2f:f9:03:ab:3c:65:5a:31:fd:e7:76:83:72:0c:86:27:
         1b:49:d3:f4:87:d8:16:a0:7d:6d:24:68:d6:ca:50:a1:1e:15:
         a6:8a:69:f9:f6:3e:ca:75:cd:7a:a0:c8:c1:8b:8a:e4:ac:aa:
         b6:4a:ef:32:00:7f:9e:b4:26:12:86:0d:c9:23:01:97:aa:b8:
         f6:d0
-----BEGIN CERTIFICATE-----
MIIEOjCCA6OgAwIBAgIBATANBgkqhkiG9w0BAQUFADA3MRAwDgYDVQQDEwdjYS10
cnVlMQswCQYDVQQGEwJCRTEWMBQGA1UEChMNR3JlbXdlbGwgYnZiYTAeFw0xMjA2
MjMxNTQ3MzhaFw0xMzA2MjMxNTQ3MzhaMCoxCzAJBgNVBAYTAkJFMRswGQYDVQQD
ExJ0eGpzb25ycGMtcHlzZXJ2ZXIwggIiMA0GCSqGSIb3DQEBAQUAA4ICDwAwggIK
AoICAQC7+M9kiPjfTpoyrFSUp+9HLEMcfnUf8xJsY4z3KTE++l6xRhMCOVYPIVbN
Xbg8Wss7cAQdERmxqHL/yxhs1hLX5uYwEBnHy57SS4IGYnn/11s/k+WOUPhoCk25
0Ai2yn4Obbq2kyCnpYbRnmpKDyPaPJzePwRprB3lYL+cipYbVeZfAk3vh0ycj6bL
uA9uJc/SEdf6BtEXfobWI92KhrKtathF5dIErMsrSkTkIsyabcBuZdaqdP0h56wg
OFavGjxyqQbvv3YoswbvRZmxpadoGr5smSOg9E1NDjZ+eauMnGc/22hhOm46y8G5
rHgvb4+kJTDn+nBUYhsi88hqGg+kFsEWOo55NNB1fx+xoiTm/41Qz4iv/rHsOmul
2+Sw4zFT6JsScnU0RbhKo6qGgUwO0eDX3uLBZI296vDik3fPftXH6dYQzgKwgx6t
9o0EUfX/G9Te2t7warxwt0npRD8RGnuHEzFByw0+RM8zR+Pro3PgoWXTEhs2rWSK
P1lp+iR0PsAn0f8zE3nSBgiPq1YrdoYQ1ZDYXCVoJoa3eGQu5tI4rBOhek/6M0hP
asioWnXWlkydeeWtBC4rcOuMymImwPIma5kfBIpLPyesSCDN/nwfrA4Q9YXMIN6I
T1SwfYpP3ip0wFtvQjk39zVLEs//+3dGDfbLeYIiMWoD/TkoJwIDAQABo4HeMIHb
MAkGA1UdEwQCMAAwEQYJYIZIAYb4QgEBBAQDAgZAMCsGCWCGSAGG+EIBDQQeFhxU
aW55Q0EgR2VuZXJhdGVkIENlcnRpZmljYXRlMB0GA1UdDgQWBBQmjKX5pkr+TOgP
BDN+BCYov0yS8zBZBgNVHSMEUjBQgBSdj4R2lM0H/qPoi9f52W7vynVRe6EtpCsw
KTELMAkGA1UEBhMCQkUxGjAYBgNVBAMTEXR4anNvbnJwYy10ZXN0LWNhggkAjdKv
N/nKkgswCQYDVR0SBAIwADAJBgNVHREEAjAAMA0GCSqGSIb3DQEBBQUAA4GBABKn
t+32V3l9us9auFPWxfrMg9GIVDlEnL1FqX+jiUJFYF7iVFUEEjjwyvbqXH4hAF0l
sH+IcqwRL/kDqzxlWjH953aDcgyGJxtJ0/SH2BagfW0kaNbKUKEeFaaKafn2Psp1
zXqgyMGLiuSsqrZK7zIAf560JhKGDckjAZequPbQ
-----END CERTIFICATE-----
Certificate:
    Data:
        Version: 4 (0x3)
        Serial Number: 1 (0x1)
    Signature Algorithm: sha1WithRSAEncryption
        Issuer: C=BE, CN=txjsonrpc-test-ca
        Validity
            Not Before: Jan  1 00:00:00 1970 GMT
            Not After : Jan 19 03:14:07 2038 GMT
        Subject: CN=ca-true, C=BE, O=Gremwell bvba
        Subject Public Key Info:
            Public Key Algorithm: rsaEncryption
                Public-Key: (1024 bit)
                Modulus:
                    00:cf:2f:24:84:12:8b:76:a3:d2:9c:ab:7e:f5:eb:
                    dd:08:43:64:cc:5b:a4:f5:6a:00:0e:b6:bf:93:e0:
                    ad:bb:36:db:09:96:c4:7c:96:7f:a9:a7:3e:ff:66:
                    d8:85:b8:37:dc:ad:a4:11:1a:a3:da:8a:16:5c:65:
                    64:3a:21:ff:53:b7:6a:d4:4a:cb:16:93:7f:4c:fc:
                    a6:0f:76:9d:01:0e:05:6c:a4:97:c8:fb:e3:d0:5a:
                    25:7b:ce:62:f0:2b:c9:60:f6:d2:b0:5b:08:18:97:
                    4f:f8:af:a2:b5:e5:30:34:16:e1:8e:52:49:ac:c5:
                    7f:8f:37:7e:02:6d:bc:a0:c3
                Exponent: 65537 (0x10001)
        X509v3 extensions:
            X509v3 Basic Constraints: critical
                CA:TRUE
    Signature Algorithm: sha1WithRSAEncryption
         60:fb:54:17:f4:1e:88:f4:d3:1c:10:63:24:a4:95:f0:ac:95:
         08:d5:5e:f1:14:a8:fc:b0:ac:fb:7b:ae:f1:be:65:ce:46:db:
         1d:78:e5:26:d4:45:4b:42:07:38:1f:27:5f:1e:6d:fa:8a:f4:
         b1:3f:f9:e2:27:00:c2:64:85:54:82:83:b2:95:bf:a0:bc:52:
         6a:47:b4:fb:f6:8b:f6:db:40:f2:8f:0a:ee:5c:c5:a4:59:06:
         f5:ea:6e:d5:64:6a:75:05:0a:5b:6e:73:8f:17:6c:49:97:2c:
         3c:3d:36:9c:a2:84:4d:8b:ca:f4:e7:0c:30:0f:33:c7:1c:c9:
         11:b0:c0:12:0a:65:a7:f5:86:e7:a1:60:e4:2f:bf:b5:c2:e2:
         fd:63:7e:7b:53:ea:3e:05:0b:1e:53:43:4e:fa:d1:6d:2e:15:
         80:9e:78:f8:b7:1d:6c:60:ac:80:1c:64:20:42:5d:33:c2:7b:
         45:16:02:51:1e:83:cb:1a:1d:01:94:f7:63:40:c2:fd:a5:5f:
         91:d8:cb:a2:f8:24:b9:ae:3b:dc:35:03:e5:57:00:af:40:1b:
         93:64:e8:f0:8b:eb:0c:6c:03:32:c1:30:e9:1d:dc:62:f4:29:
         9a:b2:db:50:65:a1:ea:98:b8:1e:79:85:ce:08:14:4e:63:fe:
         54:52:17:f2:aa:9b:cd:f3:45:10:02:bb:bf:0f:e6:6f:ff:79:
         a7:f9:dd:e6:b6:33:bb:1e:9e:66:91:5f:6c:50:cc:73:8b:b8:
         46:f7:6b:03:fd:c0:f0:a7:8c:c0:c0:b4:cc:c9:b8:c8:64:b7:
         6c:92:ff:a4:c4:1c:35:96:f0:f0:b2:a9:7a:59:87:13:44:82:
         47:2f:ac:68:fa:4e:7c:63:28:61:dd:4a:8a:34:34:f1:7b:65:
         85:6b:31:4e:90:38:e6:83:57:d6:6c:4a:15:6e:4e:de:ca:ec:
         26:dd:af:48:15:76:88:f3:1b:57:4e:a4:3d:c2:1f:9f:e2:12:
         77:a9:20:23:de:42:91:c0:59:b3:27:32:d7:d0:b2:da:9f:09:
         91:d3:17:2c:b2:1b:90:e2:3c:3d:c7:d5:1d:e9:18:35:b3:02:
         d1:07:2d:9b:28:73:92:33:fe:e6:a5:54:91:55:52:5b:d5:7f:
         2f:88:dd:9b:66:7c:73:37:d2:e8:bd:2c:73:0c:2c:d2:db:0a:
         f4:76:fd:83:69:38:c7:e4:8b:c2:e2:a0:5c:f2:5b:c0:f9:2b:
         39:19:29:7f:6e:ec:02:1f:64:72:a9:71:8e:c3:22:b4:52:35:
         4d:1e:fa:ea:90:86:3b:b2:2a:a9:14:f8:74:d4:e5:0c:0a:29:
         88:b8:98:7b:c9:77:db:51
-----BEGIN CERTIFICATE-----
MIIDajCCAVKgAwIBAwIBATANBgkqhkiG9w0BAQUFADApMQswCQYDVQQGEwJCRTEa
MBgGA1UEAxMRdHhqc29ucnBjLXRlc3QtY2EwHhcNNzAwMTAxMDAwMDAwWhcNMzgw
MTE5MDMxNDA3WjA3MRAwDgYDVQQDEwdjYS10cnVlMQswCQYDVQQGEwJCRTEWMBQG
A1UEChMNR3JlbXdlbGwgYnZiYTCBnzANBgkqhkiG9w0BAQEFAAOBjQAwgYkCgYEA
zy8khBKLdqPSnKt+9evdCENkzFuk9WoADra/k+CtuzbbCZbEfJZ/qac+/2bYhbg3
3K2kERqj2ooWXGVkOiH/U7dq1ErLFpN/TPymD3adAQ4FbKSXyPvj0Fole85i8CvJ
YPbSsFsIGJdP+K+iteUwNBbhjlJJrMV/jzd+Am28oMMCAwEAAaMTMBEwDwYDVR0T
AQH/BAUwAwEB/zANBgkqhkiG9w0BAQUFAAOCAgEAYPtUF/QeiPTTHBBjJKSV8KyV
CNVe8RSo/LCs+3uu8b5lzkbbHXjlJtRFS0IHOB8nXx5t+or0sT/54icAwmSFVIKD
spW/oLxSake0+/aL9ttA8o8K7lzFpFkG9epu1WRqdQUKW25zjxdsSZcsPD02nKKE
TYvK9OcMMA8zxxzJEbDAEgplp/WG56Fg5C+/tcLi/WN+e1PqPgULHlNDTvrRbS4V
gJ54+LcdbGCsgBxkIEJdM8J7RRYCUR6DyxodAZT3Y0DC/aVfkdjLovgkua473DUD
5VcAr0Abk2To8IvrDGwDMsEw6R3cYvQpmrLbUGWh6pi4HnmFzggUTmP+VFIX8qqb
zfNFEAK7vw/mb/95p/nd5rYzux6eZpFfbFDMc4u4RvdrA/3A8KeMwMC0zMm4yGS3
bJL/pMQcNZbw8LKpelmHE0SCRy+saPpOfGMoYd1KijQ08XtlhWsxTpA45oNX1mxK
FW5O3srsJt2vSBV2iPMbV06kPcIfn+ISd6kgI95CkcBZsycy19Cy2p8JkdMXLLIb
kOI8PcfVHekYNbMC0QctmyhzkjP+5qVUkVVSW9V/L4jdm2Z8czfS6L0scwws0tsK
9Hb9g2k4x+SLwuKgXPJbwPkrORkpf27sAh9kcqlxjsMitFI1TR766pCGO7IqqRT4
dNTlDAopiLiYe8l321E=
-----END CERTIFICATE-----
