Certificate:
    Data:
        Version: 4 (0x3)
        Serial Number: 1 (0x1)
    Signature Algorithm: sha1WithRSAEncryption
        Issuer: C=BE, CN=txjsonrpc-test-ca
        Validity
            Not Before: Jan  1 00:00:00 1970 GMT
            Not After : Jan 19 03:14:07 2038 GMT
        Subject: CN=www.example.com, C=BE, O=Gremwell bvba
        Subject Public Key Info:
            Public Key Algorithm: rsaEncryption
                Public-Key: (1024 bit)
                Modulus:
                    00:e9:35:a1:32:af:b1:3c:40:67:b0:7b:32:c3:c5:
                    3b:56:79:cc:c5:a8:e7:08:e3:1a:49:95:79:59:a7:
                    ba:2c:fd:9c:c6:e5:a4:2d:db:d0:ce:12:75:0f:3f:
                    e0:0b:26:c7:45:96:26:cd:f2:6e:4a:03:2e:38:6c:
                    04:29:05:d6:87:d7:e9:0b:18:ff:a2:fb:e7:e0:6b:
                    17:2b:f4:8f:a5:1f:b7:76:37:e9:c3:6f:7f:7a:33:
                    4d:b9:0a:f7:03:1e:2b:15:78:c7:13:d6:cf:dd:c1:
                    14:ec:b3:69:1d:ec:dd:d5:43:7a:16:44:ba:a4:b4:
                    e6:26:16:c4:0a:dd:4d:43:89
                Exponent: 65537 (0x10001)
    Signature Algorithm: sha1WithRSAEncryption
         6b:ff:df:9d:ca:e8:f4:09:22:0b:d6:cd:7d:bf:41:0d:69:1e:
         37:ea:d2:65:a6:58:07:61:7c:93:23:d8:fd:63:0e:ad:35:85:
         41:e6:cf:ed:04:43:24:c7:ee:17:ed:bb:06:5c:fc:20:63:a4:
         7f:ac:4f:2e:9c:ab:17:56:f3:3d:a4:22:37:3a:1d:74:12:4d:
         ed:f4:cf:9c:fc:1c:13:41:50:3a:e3:6d:b1:b3:fd:1f:3e:32:
         a9:a3:4f:b7:9d:22:1e:89:6e:00:8c:e3:c9:a8:50:18:69:b2:
         45:4e:11:ba:72:a1:5b:8d:95:55:4b:99:9c:d6:95:76:c3:40:
         67:c3:7a:bc:6f:d5:86:24:92:ac:16:47:a4:5c:5d:6e:0b:65:
         ef:0d:ae:ff:53:68:ee:62:35:28:d5:c1:a9:dd:7c:3a:d1:f1:
         29:d0:0f:16:4c:d5:23:b0:4e:a9:fd:2c:89:c2:95:27:2d:d5:
         4a:79:a5:51:bb:db:ce:b5:90:4c:de:68:cf:32:5d:90:15:6c:
         6a:a5:00:1a:31:94:41:b4:bc:bd:f3:b5:15:79:ba:3f:47:11:
         df:cd:43:15:32:4b:cc:30:ef:e3:54:0c:02:9a:ec:d8:cf:ba:
         e5:78:4d:92:b2:19:53:fe:18:33:0a:4c:e9:6e:47:df:fd:b1:
         89:28:99:3c:2e:8b:05:6b:50:00:8d:79:c7:2b:1c:9a:11:21:
         3f:cc:86:7c:7c:0e:18:a0:a7:d0:0c:a9:18:f4:18:9c:17:0c:
         60:d6:6a:75:a9:e5:72:32:35:5a:f7:f3:ea:46:13:8c:c4:73:
         0b:c4:a0:c3:03:c2:06:32:cf:8b:8f:94:7a:6f:13:df:e1:2b:
         ff:78:25:1d:f3:6c:4b:ea:d9:95:95:ed:bb:e8:d7:ab:71:65:
         ef:d1:9f:50:e7:16:9c:35:83:95:fe:c2:78:d3:a8:b5:7f:ff:
         43:72:cd:2f:6c:88:04:db:d6:27:74:8c:75:5b:d1:4f:8e:05:
         af:70:83:37:65:24:d1:10:25:35:03:17:dc:0e:3f:d3:54:98:
         76:5b:d7:46:24:0e:59:93:de:4e:b9:d9:b3:b0:38:e5:a3:f4:
         fe:9b:c8:c6:fc:e1:5d:b2:d0:e3:d0:f5:7f:19:99:a2:bf:00:
         d9:44:e6:8d:74:b0:ac:6e:93:b6:9b:c0:da:83:01:a2:0b:bc:
         a5:dd:66:7c:4c:f4:26:07:ee:a0:50:4e:36:cc:4b:50:d2:9e:
         21:c8:52:75:56:47:14:24:41:0a:fc:d5:f7:27:ea:d6:37:b4:
         5d:00:31:ef:a5:fd:fe:cf:f3:25:77:b2:5d:ae:85:05:9c:66:
         8e:b8:d3:e5:02:a9:56:9e
-----BEGIN CERTIFICATE-----
MIIDXTCCAUWgAwIBAwIBATANBgkqhkiG9w0BAQUFADApMQswCQYDVQQGEwJCRTEa
MBgGA1UEAxMRdHhqc29ucnBjLXRlc3QtY2EwHhcNNzAwMTAxMDAwMDAwWhcNMzgw
MTE5MDMxNDA3WjA/MRgwFgYDVQQDEw93d3cuZXhhbXBsZS5jb20xCzAJBgNVBAYT
AkJFMRYwFAYDVQQKEw1HcmVtd2VsbCBidmJhMIGfMA0GCSqGSIb3DQEBAQUAA4GN
ADCBiQKBgQDpNaEyr7E8QGewezLDxTtWeczFqOcI4xpJlXlZp7os/ZzG5aQt29DO
EnUPP+ALJsdFlibN8m5KAy44bAQpBdaH1+kLGP+i++fgaxcr9I+lH7d2N+nDb396
M025CvcDHisVeMcT1s/dwRTss2kd7N3VQ3oWRLqktOYmFsQK3U1DiQIDAQABMA0G
CSqGSIb3DQEBBQUAA4ICAQBr/9+dyuj0CSIL1s19v0ENaR436tJlplgHYXyTI9j9
Yw6tNYVB5s/tBEMkx+4X7bsGXPwgY6R/rE8unKsXVvM9pCI3Oh10Ek3t9M+c/BwT
QVA6422xs/0fPjKpo0+3nSIeiW4AjOPJqFAYabJFThG6cqFbjZVVS5mc1pV2w0Bn
w3q8b9WGJJKsFkekXF1uC2XvDa7/U2juYjUo1cGp3Xw60fEp0A8WTNUjsE6p/SyJ
wpUnLdVKeaVRu9vOtZBM3mjPMl2QFWxqpQAaMZRBtLy987UVebo/RxHfzUMVMkvM
MO/jVAwCmuzYz7rleE2SshlT/hgzCkzpbkff/bGJKJk8LosFa1AAjXnHKxyaESE/
zIZ8fA4YoKfQDKkY9BicFwxg1mp1qeVyMjVa9/PqRhOMxHMLxKDDA8IGMs+Lj5R6
bxPf4Sv/eCUd82xL6tmVle276NercWXv0Z9Q5xacNYOV/sJ406i1f/9Dcs0vbIgE
29YndIx1W9FPjgWvcIM3ZSTRECU1AxfcDj/TVJh2W9dGJA5Zk95OudmzsDjlo/T+
m8jG/OFdstDj0PV/GZmivwDZROaNdLCsbpO2m8DagwGiC7yl3WZ8TPQmB+6gUE42
zEtQ0p4hyFJ1VkcUJEEK/NX3J+rWN7RdADHvpf3+z/Mld7JdroUFnGaOuNPlAqlW
ng==
-----END CERTIFICATE-----
Certificate:
    Data:
        Version: 3 (0x2)
        Serial Number: 10219423159405941259 (0x8dd2af37f9ca920b)
    Signature Algorithm: sha1WithRSAEncryption
        Issuer: C=BE, CN=txjsonrpc-test-ca
        Validity
            Not Before: Jun 23 15:46:37 2012 GMT
            Not After : Jun 21 15:46:37 2022 GMT
        Subject: C=BE, CN=txjsonrpc-test-ca
        Subject Public Key Info:
            Public Key Algorithm: rsaEncryption
                Public-Key: (4096 bit)
                Modulus:
                    00:d1:25:af:77:c5:a8:72:cf:90:b9:39:10:fb:7b:
                    75:2c:a1:da:6a:95:e5:44:0c:d6:25:4b:58:7f:bb:
                    07:82:59:49:58:32:85:24:cc:3e:77:db:e1:a7:4f:
                    c8:b5:cb:ee:45:38:bd:bc:fb:e3:76:3b:88:04:ca:
                    ab:3a:a3:96:3b:5f:93:9c:28:a6:61:97:dc:a2:3f:
                    a0:93:2b:56:6c:cf:d3:4f:6a:9e:05:d3:1c:cd:ef:
                    75:80:1a:98:b7:92:49:14:33:b8:c4:7c:73:8c:7e:
                    83:a5:81:a2:59:8c:8b:a3:51:36:6d:68:ac:f2:f1:
                    ed:6f:49:d9:af:7a:63:c1:43:31:42:b6:c7:cd:b9:
                    78:b7:33:98:70:92:6c:9e:04:7a:7b:f0:6d:38:87:
                    eb:00:13:17:b9:d9:ec:b4:66:bb:51:d3:fd:81:e3:
                    0e:88:71:23:d2:80:2a:61:de:ab:25:02:47:a9:c1:
                    6b:c9:69:ae:da:47:b6:49:74:ac:a6:e1:c1:76:ba:
                    6d:b1:d9:68:6e:1c:37:a8:e2:18:60:37:b6:58:13:
                    6c:c7:92:7c:c6:45:8c:ef:c3:81:73:10:dc:2f:31:
                    e2:b9:05:5a:9e:28:70:5a:3e:1d:b8:68:71:81:c9:
                    e8:fe:1f:c3:a0:13:f8:e4:24:12:ba:91:8e:15:d2:
                    03:f1:8c:b0:aa:e2:34:e4:6b:f8:06:f6:23:8a:92:
                    43:a6:05:dc:e9:c7:a5:a8:06:d7:6e:91:52:72:47:
                    ab:ae:87:fe:b3:0f:04:87:6f:4b:22:29:e9:a9:06:
                    52:58:7d:03:16:d7:d5:31:44:b4:f1:51:44:a7:2a:
                    ba:5e:09:19:ec:4c:a2:e0:58:fe:0d:4e:b7:90:4d:
                    02:ac:2a:ad:99:14:65:3b:0a:3c:73:45:56:b2:0f:
                    10:25:24:51:79:57:1a:34:1a:10:6f:60:e0:fc:81:
                    db:ca:c2:e2:85:1b:4c:72:13:5c:9d:76:cc:d0:21:
                    33:31:56:82:8f:c5:57:b9:44:fd:8b:76:c1:b6:e4:
                    21:8b:35:9a:ee:54:74:9f:72:6b:19:84:d7:a2:3c:
                    a5:6e:11:0a:f1:93:04:2e:dd:7c:4c:7d:62:10:d4:
                    1b:8b:87:f6:ed:bf:12:b1:8b:f0:9a:7a:ee:02:94:
                    e1:3c:46:2b:7f:9c:54:fb:2e:61:c9:1c:ef:fc:de:
                    25:bc:2d:75:1b:1f:49:5e:44:3b:15:93:ad:c4:89:
                    d9:ae:3c:da:54:ef:d9:af:3a:16:cb:94:1b:6a:14:
                    e4:42:f9:75:33:46:6e:fb:40:bc:f8:82:36:cf:60:
                    f5:c2:a2:98:23:a7:2a:ae:c1:aa:22:f8:87:da:b7:
                    9c:a4:cf
                Exponent: 65537 (0x10001)
        X509v3 extensions:
            X509v3 Subject Key Identifier: 
                9D:8F:84:76:94:CD:07:FE:A3:E8:8B:D7:F9:D9:6E:EF:CA:75:51:7B
            X509v3 Authority Key Identifier: 
                keyid:9D:8F:84:76:94:CD:07:FE:A3:E8:8B:D7:F9:D9:6E:EF:CA:75:51:7B
                DirName:/C=BE/CN=txjsonrpc-test-ca
                serial:8D:D2:AF:37:F9:CA:92:0B

            X509v3 Basic Constraints: critical
                CA:TRUE
            Netscape Cert Type: 
                SSL CA, S/MIME CA
            X509v3 Issuer Alternative Name: 
                <EMPTY>

            Netscape Comment: 
                Test CA for txjsonrcp
            X509v3 Subject Alternative Name: 
                <EMPTY>

            X509v3 Key Usage: critical
                Certificate Sign, CRL Sign
    Signature Algorithm: sha1WithRSAEncryption
         06:82:86:81:a9:1b:7e:2d:ef:f5:fc:cc:d2:9d:d6:82:ad:d0:
         6f:7e:3d:b9:5c:b2:0f:3a:64:21:9a:fb:53:b2:93:81:dc:1a:
         24:fc:b8:30:57:a2:c7:71:0d:9c:1a:0b:8a:6c:89:52:8b:8a:
         f5:af:95:3e:b8:08:39:ee:36:50:ac:60:4d:df:2b:49:a2:72:
         f1:3f:12:3c:d9:55:56:a4:9a:77:2b:77:fa:16:b5:76:d9:f4:
         c4:51:6b:b9:fe:2f:a3:52:e8:64:80:49:22:6d:05:42:87:af:
         9d:85:6c:fa:c9:9b:48:39:7b:89:f5:a0:1e:ff:11:d3:9c:78:
         b1:b2:f6:4d:b1:e8:b3:98:23:2c:d4:20:e1:a1:01:3e:26:0a:
         5b:8e:eb:58:45:22:cf:e1:94:ad:84:40:b0:fb:ff:25:5f:31:
         9a:49:0b:36:ad:c6:1a:b0:42:60:40:e2:a2:3c:5a:36:41:89:
         fc:10:c4:60:ea:d4:85:7b:36:84:df:aa:81:cc:69:e7:52:ca:
         c1:46:b1:79:93:51:4f:24:84:42:14:3a:20:a0:6c:27:76:40:
         0f:96:7e:4e:c3:0c:37:b3:e3:73:49:86:58:31:00:1e:e7:0f:
         87:74:b6:4e:6e:1c:7d:87:a4:33:04:c9:76:ec:e5:3a:85:5f:
         a8:d1:ad:21:64:5e:c5:6a:df:b1:02:6e:65:a4:87:72:06:07:
         da:e5:f2:af:2b:a5:eb:18:80:67:83:a5:3c:e6:ed:d1:58:f9:
         90:5c:d6:e9:2f:76:c1:58:13:b8:bd:88:8a:f3:04:48:bb:42:
         8f:7f:c6:db:b4:30:3f:bb:6c:d5:47:e5:ae:8d:4b:da:92:a5:
         db:d3:6e:a8:9b:c2:6b:56:af:34:63:82:e6:78:f8:1f:54:d7:
         41:aa:a3:c9:7c:a6:83:41:bf:6e:33:7c:ae:e6:92:bd:da:27:
         b4:bc:e2:90:4f:33:1b:01:a1:cd:02:13:7a:31:ef:00:d6:9a:
         6e:38:6b:a7:cb:70:98:a8:0f:ff:1c:56:a8:b7:e6:d2:42:5a:
         bb:f4:78:27:71:13:d0:e8:43:eb:bc:2d:4f:e4:ea:4d:4f:76:
         7f:53:38:34:eb:13:e2:3d:c6:14:98:86:1c:ab:2c:0e:b7:68:
         2e:bd:63:a9:6a:8f:d5:22:2d:ab:13:d7:62:54:51:ff:5c:37:
         08:04:27:da:f9:57:77:05:18:73:88:5f:b0:c1:65:50:36:09:
         d6:c7:f5:ae:6e:3f:04:d1:84:3c:21:74:1d:bd:0a:fb:76:d0:
         13:2b:62:bb:24:48:43:89:d0:18:5c:b4:ad:ea:98:af:6d:fc:
         1c:6b:1f:06:64:54:23:88
-----BEGIN CERTIFICATE-----
MIIFwzCCA6ugAwIBAgIJAI3Srzf5ypILMA0GCSqGSIb3DQEBBQUAMCkxCzAJBgNV
BAYTAkJFMRowGAYDVQQDExF0eGpzb25ycGMtdGVzdC1jYTAeFw0xMjA2MjMxNTQ2
MzdaFw0yMjA2MjExNTQ2MzdaMCkxCzAJBgNVBAYTAkJFMRowGAYDVQQDExF0eGpz
b25ycGMtdGVzdC1jYTCCAiIwDQYJKoZIhvcNAQEBBQADggIPADCCAgoCggIBANEl
r3fFqHLPkLk5EPt7dSyh2mqV5UQM1iVLWH+7B4JZSVgyhSTMPnfb4adPyLXL7kU4
vbz743Y7iATKqzqjljtfk5wopmGX3KI/oJMrVmzP009qngXTHM3vdYAamLeSSRQz
uMR8c4x+g6WBolmMi6NRNm1orPLx7W9J2a96Y8FDMUK2x825eLczmHCSbJ4Eenvw
bTiH6wATF7nZ7LRmu1HT/YHjDohxI9KAKmHeqyUCR6nBa8lprtpHtkl0rKbhwXa6
bbHZaG4cN6jiGGA3tlgTbMeSfMZFjO/DgXMQ3C8x4rkFWp4ocFo+HbhocYHJ6P4f
w6AT+OQkErqRjhXSA/GMsKriNORr+Ab2I4qSQ6YF3OnHpagG126RUnJHq66H/rMP
BIdvSyIp6akGUlh9AxbX1TFEtPFRRKcqul4JGexMouBY/g1Ot5BNAqwqrZkUZTsK
PHNFVrIPECUkUXlXGjQaEG9g4PyB28rC4oUbTHITXJ12zNAhMzFWgo/FV7lE/Yt2
wbbkIYs1mu5UdJ9yaxmE16I8pW4RCvGTBC7dfEx9YhDUG4uH9u2/ErGL8Jp67gKU
4TxGK3+cVPsuYckc7/zeJbwtdRsfSV5EOxWTrcSJ2a482lTv2a86FsuUG2oU5EL5
dTNGbvtAvPiCNs9g9cKimCOnKq7BqiL4h9q3nKTPAgMBAAGjge0wgeowHQYDVR0O
BBYEFJ2PhHaUzQf+o+iL1/nZbu/KdVF7MFkGA1UdIwRSMFCAFJ2PhHaUzQf+o+iL
1/nZbu/KdVF7oS2kKzApMQswCQYDVQQGEwJCRTEaMBgGA1UEAxMRdHhqc29ucnBj
LXRlc3QtY2GCCQCN0q83+cqSCzAPBgNVHRMBAf8EBTADAQH/MBEGCWCGSAGG+EIB
AQQEAwIBBjAJBgNVHRIEAjAAMCQGCWCGSAGG+EIBDQQXFhVUZXN0IENBIGZvciB0
eGpzb25yY3AwCQYDVR0RBAIwADAOBgNVHQ8BAf8EBAMCAQYwDQYJKoZIhvcNAQEF
BQADggIBAAaChoGpG34t7/X8zNKd1oKt0G9+Pblcsg86ZCGa+1Oyk4HcGiT8uDBX
osdxDZwaC4psiVKLivWvlT64CDnuNlCsYE3fK0micvE/EjzZVVakmncrd/oWtXbZ
9MRRa7n+L6NS6GSASSJtBUKHr52FbPrJm0g5e4n1oB7/EdOceLGy9k2x6LOYIyzU
IOGhAT4mCluO61hFIs/hlK2EQLD7/yVfMZpJCzatxhqwQmBA4qI8WjZBifwQxGDq
1IV7NoTfqoHMaedSysFGsXmTUU8khEIUOiCgbCd2QA+Wfk7DDDez43NJhlgxAB7n
D4d0tk5uHH2HpDMEyXbs5TqFX6jRrSFkXsVq37ECbmWkh3IGB9rl8q8rpesYgGeD
pTzm7dFY+ZBc1ukvdsFYE7i9iIrzBEi7Qo9/xtu0MD+7bNVH5a6NS9qSpdvTbqib
wmtWrzRjguZ4+B9U10Gqo8l8poNBv24zfK7mkr3aJ7S84pBPMxsBoc0CE3ox7wDW
mm44a6fLcJioD/8cVqi35tJCWrv0eCdxE9DoQ+u8LU/k6k1Pdn9TODTrE+I9xhSY
hhyrLA63aC69Y6lqj9UiLasT12JUUf9cNwgEJ9r5V3cFGHOIX7DBZVA2CdbH9a5u
PwTRhDwhdB29Cvt20BMrYrskSEOJ0BhctK3qmK9t/BxrHwZkVCOI
-----END CERTIFICATE-----
