Certificate:
    Data:
        Version: 4 (0x3)
        Serial Number: 1 (0x1)
    Signature Algorithm: sha1WithRSAEncryption
        Issuer: CN=ca-true, C=BE, O=Gremwell bvba
        Validity
            Not Before: Jan  1 00:00:00 1970 GMT
            Not After : Jan 19 03:14:07 2038 GMT
        Subject: CN=www.example.com, C=BE, O=Gremwell bvba
        Subject Public Key Info:
            Public Key Algorithm: rsaEncryption
                Public-Key: (1024 bit)
                Modulus:
                    00:e9:35:a1:32:af:b1:3c:40:67:b0:7b:32:c3:c5:
                    3b:56:79:cc:c5:a8:e7:08:e3:1a:49:95:79:59:a7:
                    ba:2c:fd:9c:c6:e5:a4:2d:db:d0:ce:12:75:0f:3f:
                    e0:0b:26:c7:45:96:26:cd:f2:6e:4a:03:2e:38:6c:
                    04:29:05:d6:87:d7:e9:0b:18:ff:a2:fb:e7:e0:6b:
                    17:2b:f4:8f:a5:1f:b7:76:37:e9:c3:6f:7f:7a:33:
                    4d:b9:0a:f7:03:1e:2b:15:78:c7:13:d6:cf:dd:c1:
                    14:ec:b3:69:1d:ec:dd:d5:43:7a:16:44:ba:a4:b4:
                    e6:26:16:c4:0a:dd:4d:43:89
                Exponent: 65537 (0x10001)
    Signature Algorithm: sha1WithRSAEncryption
         6d:fd:21:cd:32:31:94:5b:bd:ac:cd:37:6b:a3:12:ff:56:92:
         3c:98:e0:12:9f:9f:52:81:ea:8e:f8:90:ca:67:b2:8c:57:18:
         31:59:b2:60:bf:cd:13:cc:c4:77:2b:98:73:84:db:5f:bd:d2:
         e1:8f:08:74:6f:87:c0:4d:28:9c:c8:ac:75:ba:15:26:a2:05:
         c2:03:12:43:fe:d9:64:04:6b:a2:00:0a:f2:52:f9:cd:4e:59:
         ae:97:3a:5a:ed:b9:ca:05:0b:5d:c1:40:c5:7e:6d:ec:67:32:
         03:80:2e:3d:0c:16:44:c0:89:bf:e8:ab:5e:60:12:58:3b:f0:
         11:52
-----BEGIN CERTIFICATE-----
MIIB6jCCAVOgAwIBAwIBATANBgkqhkiG9w0BAQUFADA3MRAwDgYDVQQDEwdjYS10
cnVlMQswCQYDVQQGEwJCRTEWMBQGA1UEChMNR3JlbXdlbGwgYnZiYTAeFw03MDAx
MDEwMDAwMDBaFw0zODAxMTkwMzE0MDdaMD8xGDAWBgNVBAMTD3d3dy5leGFtcGxl
LmNvbTELMAkGA1UEBhMCQkUxFjAUBgNVBAoTDUdyZW13ZWxsIGJ2YmEwgZ8wDQYJ
KoZIhvcNAQEBBQADgY0AMIGJAoGBAOk1oTKvsTxAZ7B7MsPFO1Z5zMWo5wjjGkmV
eVmnuiz9nMblpC3b0M4SdQ8/4Asmx0WWJs3ybkoDLjhsBCkF1ofX6QsY/6L75+Br
Fyv0j6Uft3Y36cNvf3ozTbkK9wMeKxV4xxPWz93BFOyzaR3s3dVDehZEuqS05iYW
xArdTUOJAgMBAAEwDQYJKoZIhvcNAQEFBQADgYEAbf0hzTIxlFu9rM03a6MS/1aS
PJjgEp+fUoHqjviQymeyjFcYMVmyYL/NE8zEdyuYc4TbX73S4Y8IdG+HwE0onMis
dboVJqIFwgMSQ/7ZZARrogAK8lL5zU5Zrpc6Wu25ygULXcFAxX5t7GcyA4AuPQwW
RMCJv+irXmASWDvwEVI=
-----END CERTIFICATE-----
Certificate:
    Data:
        Version: 4 (0x3)
        Serial Number: 1 (0x1)
    Signature Algorithm: sha1WithRSAEncryption
        Issuer: C=BE, CN=txjsonrpc-test-ca
        Validity
            Not Before: Jan  1 00:00:00 1970 GMT
            Not After : Jan 19 03:14:07 2038 GMT
        Subject: CN=ca-true, C=BE, O=Gremwell bvba
        Subject Public Key Info:
            Public Key Algorithm: rsaEncryption
                Public-Key: (1024 bit)
                Modulus:
                    00:e0:2b:a7:80:dd:85:11:cd:ac:e1:1d:52:62:7c:
                    0c:f7:14:02:ca:2e:7c:6e:cf:31:de:2f:f3:97:0b:
                    5c:a6:e3:8c:ab:c7:93:a0:a7:7c:0d:e2:42:50:55:
                    71:4a:70:b8:44:6c:5d:40:62:53:e3:83:e9:28:0e:
                    ad:f0:fd:0f:01:7b:95:e8:0d:5f:21:d8:51:6d:14:
                    9b:67:52:9a:2f:dd:ae:41:f9:4f:54:64:92:b1:4b:
                    1f:f9:d9:8a:2f:8e:d1:c6:73:e5:aa:a2:68:14:83:
                    48:21:6e:66:d4:c9:87:a4:68:a4:ae:07:a0:b2:92:
                    95:e6:85:8f:f1:9a:66:12:07
                Exponent: 65537 (0x10001)
        X509v3 extensions:
            X509v3 Basic Constraints: critical
                CA:TRUE
    Signature Algorithm: sha1WithRSAEncryption
         63:44:3f:9a:f2:73:c1:1b:e8:fd:09:4a:32:07:f0:ac:58:a6:
         8d:48:08:28:18:ab:70:8c:97:74:23:68:38:e5:5b:bb:90:85:
         d2:d3:04:af:07:53:61:fd:60:8c:70:b4:a3:c6:6a:9e:78:cf:
         ba:cd:24:9c:45:db:a3:31:65:90:cb:71:b7:52:9e:4e:6a:cf:
         58:33:6f:db:7c:d0:34:22:4e:48:6d:0c:ba:a3:af:e8:2c:ad:
         3a:39:dc:c1:61:39:72:45:05:63:5c:4f:13:87:5e:79:ea:98:
         d9:70:62:1b:23:a9:d5:8e:74:b5:ed:9a:6e:83:da:0b:45:9f:
         05:a1:7e:fb:3a:65:11:49:9c:40:d6:23:27:44:42:55:27:4b:
         a5:5f:e6:cf:05:68:1d:86:e6:54:0a:19:1d:44:8d:6b:bd:2b:
         f1:43:22:02:00:f8:b8:ea:9b:20:3a:ec:28:00:5d:fb:af:f6:
         1c:42:d4:6a:c0:6b:8f:5b:04:85:bf:50:58:57:c2:80:2b:e6:
         75:07:1a:9a:9c:be:a5:82:4c:84:9c:f0:47:bd:2c:d9:93:2e:
         8a:ea:29:02:60:eb:f5:8b:c5:ef:32:d4:12:9d:32:c2:92:fd:
         6d:8d:8d:40:21:d1:5d:7b:97:80:53:f2:a5:f9:26:c7:f8:88:
         e8:d5:b1:f6:aa:47:72:0b:e8:f7:f1:32:c5:45:2b:9d:e5:41:
         78:52:1b:a3:9e:9e:ed:51:3d:fe:a0:a3:aa:a2:80:5f:f1:7e:
         ea:0b:36:13:5e:ce:30:d3:ba:a7:71:68:27:ac:9f:95:0f:95:
         47:86:27:0b:1b:cb:5c:e2:66:91:17:9a:d2:a6:08:57:0d:8d:
         91:7b:03:ab:af:0d:4d:5a:dc:bb:6c:a2:c9:cf:33:25:ab:9c:
         28:44:9f:04:1a:7f:61:d2:74:a6:5f:46:3d:8c:5b:7a:53:57:
         fe:79:74:a1:46:ff:61:94:77:69:d6:81:90:82:8c:b2:07:31:
         c3:0c:d0:db:52:8f:fb:6f:0d:53:c1:5f:89:45:ef:e2:1d:c4:
         de:6a:7a:b4:6b:7a:a9:87:22:ab:a1:70:ff:16:5e:a0:54:1f:
         42:f6:dd:27:c1:72:53:4d:8f:b9:aa:24:84:5b:89:42:73:f0:
         a5:c7:2f:be:de:09:fa:c5:13:0b:ab:ae:1f:6b:e4:78:c0:d7:
         49:c6:7b:e0:26:6c:34:d0:27:81:c2:99:3b:97:fe:df:05:fc:
         81:84:60:e6:17:6e:35:9b:c3:6d:48:85:a2:f3:d8:64:26:65:
         f7:3d:12:81:66:4d:b3:c6:65:ad:4f:3b:22:99:59:76:16:d1:
         e8:64:a4:7d:a8:c2:c5:f0
-----BEGIN CERTIFICATE-----
MIIDajCCAVKgAwIBAwIBATANBgkqhkiG9w0BAQUFADApMQswCQYDVQQGEwJCRTEa
MBgGA1UEAxMRdHhqc29ucnBjLXRlc3QtY2EwHhcNNzAwMTAxMDAwMDAwWhcNMzgw
MTE5MDMxNDA3WjA3MRAwDgYDVQQDEwdjYS10cnVlMQswCQYDVQQGEwJCRTEWMBQG
A1UEChMNR3JlbXdlbGwgYnZiYTCBnzANBgkqhkiG9w0BAQEFAAOBjQAwgYkCgYEA
4CungN2FEc2s4R1SYnwM9xQCyi58bs8x3i/zlwtcpuOMq8eToKd8DeJCUFVxSnC4
RGxdQGJT44PpKA6t8P0PAXuV6A1fIdhRbRSbZ1KaL92uQflPVGSSsUsf+dmKL47R
xnPlqqJoFINIIW5m1MmHpGikrgegspKV5oWP8ZpmEgcCAwEAAaMTMBEwDwYDVR0T
AQH/BAUwAwEB/zANBgkqhkiG9w0BAQUFAAOCAgEAY0Q/mvJzwRvo/QlKMgfwrFim
jUgIKBircIyXdCNoOOVbu5CF0tMErwdTYf1gjHC0o8ZqnnjPus0knEXbozFlkMtx
t1KeTmrPWDNv23zQNCJOSG0MuqOv6CytOjncwWE5ckUFY1xPE4deeeqY2XBiGyOp
1Y50te2aboPaC0WfBaF++zplEUmcQNYjJ0RCVSdLpV/mzwVoHYbmVAoZHUSNa70r
8UMiAgD4uOqbIDrsKABd+6/2HELUasBrj1sEhb9QWFfCgCvmdQcampy+pYJMhJzw
R70s2ZMuiuopAmDr9YvF7zLUEp0ywpL9bY2NQCHRXXuXgFPypfkmx/iI6NWx9qpH
cgvo9/EyxUUrneVBeFIbo56e7VE9/qCjqqKAX/F+6gs2E17OMNO6p3FoJ6yflQ+V
R4YnCxvLXOJmkRea0qYIVw2NkXsDq68NTVrcu2yiyc8zJaucKESfBBp/YdJ0pl9G
PYxbelNX/nl0oUb/YZR3adaBkIKMsgcxwwzQ21KP+28NU8FfiUXv4h3E3mp6tGt6
qYciq6Fw/xZeoFQfQvbdJ8FyU02PuaokhFuJQnPwpccvvt4J+sUTC6uuH2vkeMDX
ScZ74CZsNNAngcKZO5f+3wX8gYRg5hduNZvDbUiFovPYZCZl9z0SgWZNs8ZlrU87
IplZdhbR6GSkfajCxfA=
-----END CERTIFICATE-----
