Certificate:
    Data:
        Version: 4 (0x3)
        Serial Number: 1 (0x1)
    Signature Algorithm: sha1WithRSAEncryption
        Issuer: CN=www.example.com, C=BE, O=Gremwell bvba
        Validity
            Not Before: Jan  1 00:00:00 1970 GMT
            Not After : Jan 19 03:14:07 2038 GMT
        Subject: CN=www.example.com, C=BE, O=Gremwell bvba
        Subject Public Key Info:
            Public Key Algorithm: rsaEncryption
                Public-Key: (1024 bit)
                Modulus:
                    00:e9:35:a1:32:af:b1:3c:40:67:b0:7b:32:c3:c5:
                    3b:56:79:cc:c5:a8:e7:08:e3:1a:49:95:79:59:a7:
                    ba:2c:fd:9c:c6:e5:a4:2d:db:d0:ce:12:75:0f:3f:
                    e0:0b:26:c7:45:96:26:cd:f2:6e:4a:03:2e:38:6c:
                    04:29:05:d6:87:d7:e9:0b:18:ff:a2:fb:e7:e0:6b:
                    17:2b:f4:8f:a5:1f:b7:76:37:e9:c3:6f:7f:7a:33:
                    4d:b9:0a:f7:03:1e:2b:15:78:c7:13:d6:cf:dd:c1:
                    14:ec:b3:69:1d:ec:dd:d5:43:7a:16:44:ba:a4:b4:
                    e6:26:16:c4:0a:dd:4d:43:89
                Exponent: 65537 (0x10001)
    Signature Algorithm: sha1WithRSAEncryption
         bf:75:d3:3f:21:6d:c9:29:59:3b:f3:ec:0d:77:f0:bf:ea:03:
         d3:74:1e:92:9f:62:a1:c9:77:d9:31:0a:a5:2e:0e:d9:e5:a3:
         4e:5a:1b:10:4c:d5:90:e2:fe:18:26:1c:7d:33:6e:ca:8e:47:
         91:0a:74:98:67:42:f2:27:46:72:e3:44:3a:b9:cc:58:4d:ab:
         76:eb:b7:99:a4:8c:39:30:55:bb:b2:76:41:ef:81:c1:79:80:
         90:0c:9a:d6:2f:25:fb:39:fc:57:f9:6a:47:fc:df:91:6f:89:
         25:d5:c6:65:39:17:c2:a4:7b:9f:11:96:52:16:3b:19:41:92:
         04:e0
-----BEGIN CERTIFICATE-----
MIIB8jCCAVugAwIBAwIBATANBgkqhkiG9w0BAQUFADA/MRgwFgYDVQQDEw93d3cu
ZXhhbXBsZS5jb20xCzAJBgNVBAYTAkJFMRYwFAYDVQQKEw1HcmVtd2VsbCBidmJh
MB4XDTcwMDEwMTAwMDAwMFoXDTM4MDExOTAzMTQwN1owPzEYMBYGA1UEAxMPd3d3
LmV4YW1wbGUuY29tMQswCQYDVQQGEwJCRTEWMBQGA1UEChMNR3JlbXdlbGwgYnZi
YTCBnzANBgkqhkiG9w0BAQEFAAOBjQAwgYkCgYEA6TWhMq+xPEBnsHsyw8U7VnnM
xajnCOMaSZV5Wae6LP2cxuWkLdvQzhJ1Dz/gCybHRZYmzfJuSgMuOGwEKQXWh9fp
Cxj/ovvn4GsXK/SPpR+3djfpw29/ejNNuQr3Ax4rFXjHE9bP3cEU7LNpHezd1UN6
FkS6pLTmJhbECt1NQ4kCAwEAATANBgkqhkiG9w0BAQUFAAOBgQC/ddM/IW3JKVk7
8+wNd/C/6gPTdB6Sn2KhyXfZMQqlLg7Z5aNOWhsQTNWQ4v4YJhx9M27KjkeRCnSY
Z0LyJ0Zy40Q6ucxYTat267eZpIw5MFW7snZB74HBeYCQDJrWLyX7OfxX+WpH/N+R
b4kl1cZlORfCpHufEZZSFjsZQZIE4A==
-----END CERTIFICATE-----
