Certificate:
    Data:
        Version: 4 (0x3)
        Serial Number: 1 (0x1)
    Signature Algorithm: sha1WithRSAEncryption
        Issuer: CN=ca-none, C=BE, O=Gremwell bvba
        Validity
            Not Before: Jan  1 00:00:00 1970 GMT
            Not After : Jan 19 03:14:07 2038 GMT
        Subject: CN=www.example.com, C=BE, O=Gremwell bvba
        Subject Public Key Info:
            Public Key Algorithm: rsaEncryption
                Public-Key: (1024 bit)
                Modulus:
                    00:e9:35:a1:32:af:b1:3c:40:67:b0:7b:32:c3:c5:
                    3b:56:79:cc:c5:a8:e7:08:e3:1a:49:95:79:59:a7:
                    ba:2c:fd:9c:c6:e5:a4:2d:db:d0:ce:12:75:0f:3f:
                    e0:0b:26:c7:45:96:26:cd:f2:6e:4a:03:2e:38:6c:
                    04:29:05:d6:87:d7:e9:0b:18:ff:a2:fb:e7:e0:6b:
                    17:2b:f4:8f:a5:1f:b7:76:37:e9:c3:6f:7f:7a:33:
                    4d:b9:0a:f7:03:1e:2b:15:78:c7:13:d6:cf:dd:c1:
                    14:ec:b3:69:1d:ec:dd:d5:43:7a:16:44:ba:a4:b4:
                    e6:26:16:c4:0a:dd:4d:43:89
                Exponent: 65537 (0x10001)
    Signature Algorithm: sha1WithRSAEncryption
         41:40:fa:26:d7:dc:f6:1e:6d:17:eb:7d:d4:89:92:5d:60:e3:
         a4:97:99:3b:d5:91:32:b6:4c:8b:66:37:1f:c6:a7:ca:fe:61:
         78:f0:b0:5b:c9:c3:30:04:d9:62:10:15:5a:54:97:e1:56:16:
         60:1a:94:fe:0c:fb:d7:25:76:50:71:27:33:64:32:e3:f8:b8:
         87:86:c9:9c:1d:55:36:5f:61:80:3c:4e:6e:48:5a:c8:00:3a:
         0a:c7:7d:6d:21:6a:8b:e7:95:62:bf:06:b7:a2:0f:75:7f:80:
         df:c4:81:ae:4c:0f:83:3a:65:4d:da:29:df:5c:e4:e8:bb:e2:
         a4:c6
-----BEGIN CERTIFICATE-----
MIIB6jCCAVOgAwIBAwIBATANBgkqhkiG9w0BAQUFADA3MRAwDgYDVQQDEwdjYS1u
b25lMQswCQYDVQQGEwJCRTEWMBQGA1UEChMNR3JlbXdlbGwgYnZiYTAeFw03MDAx
MDEwMDAwMDBaFw0zODAxMTkwMzE0MDdaMD8xGDAWBgNVBAMTD3d3dy5leGFtcGxl
LmNvbTELMAkGA1UEBhMCQkUxFjAUBgNVBAoTDUdyZW13ZWxsIGJ2YmEwgZ8wDQYJ
KoZIhvcNAQEBBQADgY0AMIGJAoGBAOk1oTKvsTxAZ7B7MsPFO1Z5zMWo5wjjGkmV
eVmnuiz9nMblpC3b0M4SdQ8/4Asmx0WWJs3ybkoDLjhsBCkF1ofX6QsY/6L75+Br
Fyv0j6Uft3Y36cNvf3ozTbkK9wMeKxV4xxPWz93BFOyzaR3s3dVDehZEuqS05iYW
xArdTUOJAgMBAAEwDQYJKoZIhvcNAQEFBQADgYEAQUD6Jtfc9h5tF+t91ImSXWDj
pJeZO9WRMrZMi2Y3H8anyv5hePCwW8nDMATZYhAVWlSX4VYWYBqU/gz71yV2UHEn
M2Qy4/i4h4bJnB1VNl9hgDxObkhayAA6Csd9bSFqi+eVYr8Gt6IPdX+A38SBrkwP
gzplTdop31zk6LvipMY=
-----END CERTIFICATE-----
Certificate:
    Data:
        Version: 4 (0x3)
        Serial Number: 1 (0x1)
    Signature Algorithm: sha1WithRSAEncryption
        Issuer: C=BE, CN=txjsonrpc-test-ca
        Validity
            Not Before: Jan  1 00:00:00 1970 GMT
            Not After : Jan 19 03:14:07 2038 GMT
        Subject: CN=ca-none, C=BE, O=Gremwell bvba
        Subject Public Key Info:
            Public Key Algorithm: rsaEncryption
                Public-Key: (1024 bit)
                Modulus:
                    00:bd:2f:99:1b:a6:cd:41:73:76:89:39:1b:af:74:
                    c5:e7:cb:22:f5:c3:e7:68:43:fe:bd:2e:63:66:57:
                    cb:b7:7c:a3:c1:5a:16:51:15:74:f0:69:66:87:66:
                    e9:30:11:4f:03:ab:4d:88:b8:e4:af:cd:f4:a8:53:
                    ae:47:00:11:fe:64:c3:b3:cd:06:93:b1:c4:9c:8e:
                    66:40:77:42:c3:9a:61:6f:41:d3:e1:54:e7:9d:72:
                    51:f0:be:e5:32:c7:ca:fd:27:1d:16:c3:70:78:2b:
                    18:51:a7:3a:5a:b9:a7:97:72:32:47:13:a8:47:70:
                    2d:d7:06:24:27:34:71:c0:73
                Exponent: 65537 (0x10001)
    Signature Algorithm: sha1WithRSAEncryption
         34:77:2a:61:f2:f0:39:8a:fa:01:50:0d:86:ab:74:ad:0c:35:
         51:6c:e5:b6:05:a5:50:02:d7:b9:1a:1d:db:87:77:57:1b:1a:
         c6:ee:6d:a0:a0:6c:c5:27:d6:fb:cb:05:f1:89:1c:39:b4:ec:
         4c:a9:77:8a:31:35:91:02:ee:14:3e:58:c6:b9:20:ca:87:14:
         c2:4d:5f:1d:b8:1a:2f:af:b6:dd:10:9a:0e:3d:18:fc:85:0e:
         af:63:0b:4d:02:05:65:74:fb:9c:90:32:1c:91:04:15:47:c1:
         f2:6b:9e:66:7c:b7:31:30:8a:08:63:ee:ff:ca:d4:5c:7c:6d:
         5a:8f:06:78:83:c6:6c:f5:f7:65:99:fe:b9:9d:e1:0c:e1:3b:
         ef:6a:f7:91:43:d2:db:94:ea:8d:f8:eb:8e:4a:af:5f:3c:9b:
         5d:79:61:fb:2a:27:5d:32:0a:b4:44:1d:d2:b0:d6:8e:31:af:
         f4:c2:3b:07:c0:ae:a1:e0:7f:ef:d4:f6:f0:f2:1e:43:fa:e9:
         54:51:c0:b2:f8:9f:aa:f3:22:d1:9b:50:8e:23:40:b6:24:86:
         38:93:87:f5:27:0b:bc:9f:1c:a4:f3:da:80:b8:3a:36:20:86:
         7d:38:7b:b9:83:d9:fc:fa:9e:bf:60:6c:e5:e8:97:94:a8:e9:
         2a:ff:42:c8:eb:43:9a:d2:8d:e9:f4:10:02:08:c3:e9:51:e3:
         9b:81:7a:34:0a:fa:6b:c5:f2:aa:15:ca:76:4e:e7:0b:17:42:
         41:09:a3:02:a5:a7:a7:17:08:03:84:f4:ee:59:ac:4f:54:fe:
         ce:e1:8f:b5:98:2d:b8:99:a6:f8:09:73:07:2e:45:50:47:b8:
         e9:9c:f7:cd:1d:d9:e3:c5:81:21:20:e6:3f:93:1b:44:ca:5d:
         ac:a9:f7:87:73:d8:6a:c8:0d:be:5f:0f:0c:62:b4:f3:1b:9d:
         15:62:2e:95:ed:74:ca:d0:d3:0f:87:5d:65:b9:35:2f:a1:f1:
         52:e9:af:37:b5:5a:fc:4c:d2:4b:db:87:b5:5d:dd:56:d6:c4:
         89:45:4a:3b:d7:ec:fb:92:28:a5:2d:dc:d2:52:12:9d:2e:06:
         c9:0b:81:0c:da:0b:ca:a1:4d:f2:93:96:50:4a:7b:93:9b:f7:
         0e:85:89:81:63:22:eb:35:24:b8:e5:0c:c3:1a:02:21:9b:2b:
         7f:a2:55:60:9c:99:bc:44:be:f8:de:07:35:ff:48:9e:a1:7a:
         f3:2a:e4:68:3f:3a:34:94:60:5d:08:95:67:58:a9:94:db:54:
         c3:07:ed:10:67:0d:54:ef:8b:ad:da:23:98:2c:20:92:59:02:
         89:7f:24:be:1d:3c:81:7a
-----BEGIN CERTIFICATE-----
MIIDVTCCAT2gAwIBAwIBATANBgkqhkiG9w0BAQUFADApMQswCQYDVQQGEwJCRTEa
MBgGA1UEAxMRdHhqc29ucnBjLXRlc3QtY2EwHhcNNzAwMTAxMDAwMDAwWhcNMzgw
MTE5MDMxNDA3WjA3MRAwDgYDVQQDEwdjYS1ub25lMQswCQYDVQQGEwJCRTEWMBQG
A1UEChMNR3JlbXdlbGwgYnZiYTCBnzANBgkqhkiG9w0BAQEFAAOBjQAwgYkCgYEA
vS+ZG6bNQXN2iTkbr3TF58si9cPnaEP+vS5jZlfLt3yjwVoWURV08Glmh2bpMBFP
A6tNiLjkr830qFOuRwAR/mTDs80Gk7HEnI5mQHdCw5phb0HT4VTnnXJR8L7lMsfK
/ScdFsNweCsYUac6Wrmnl3IyRxOoR3At1wYkJzRxwHMCAwEAATANBgkqhkiG9w0B
AQUFAAOCAgEANHcqYfLwOYr6AVANhqt0rQw1UWzltgWlUALXuRod24d3Vxsaxu5t
oKBsxSfW+8sF8YkcObTsTKl3ijE1kQLuFD5YxrkgyocUwk1fHbgaL6+23RCaDj0Y
/IUOr2MLTQIFZXT7nJAyHJEEFUfB8mueZny3MTCKCGPu/8rUXHxtWo8GeIPGbPX3
ZZn+uZ3hDOE772r3kUPS25TqjfjrjkqvXzybXXlh+yonXTIKtEQd0rDWjjGv9MI7
B8CuoeB/79T28PIeQ/rpVFHAsvifqvMi0ZtQjiNAtiSGOJOH9ScLvJ8cpPPagLg6
NiCGfTh7uYPZ/Pqev2Bs5eiXlKjpKv9CyOtDmtKN6fQQAgjD6VHjm4F6NAr6a8Xy
qhXKdk7nCxdCQQmjAqWnpxcIA4T07lmsT1T+zuGPtZgtuJmm+AlzBy5FUEe46Zz3
zR3Z48WBISDmP5MbRMpdrKn3h3PYasgNvl8PDGK08xudFWIule10ytDTD4ddZbk1
L6HxUumvN7Va/EzSS9uHtV3dVtbEiUVKO9fs+5IopS3c0lISnS4GyQuBDNoLyqFN
8pOWUEp7k5v3DoWJgWMi6zUkuOUMwxoCIZsrf6JVYJyZvES++N4HNf9InqF68yrk
aD86NJRgXQiVZ1iplNtUwwftEGcNVO+LrdojmCwgklkCiX8kvh08gXo=
-----END CERTIFICATE-----
