Certificate:
    Data:
        Version: 4 (0x3)
        Serial Number: 1 (0x1)
    Signature Algorithm: sha1WithRSAEncryption
        Issuer: C=BE, CN=txjsonrpc-test-ca
        Validity
            Not Before: Jan  1 00:00:00 1970 GMT
            Not After : Jan 19 03:14:07 2038 GMT
        Subject: CN=ca-none, C=BE, O=Gremwell bvba
        Subject Public Key Info:
            Public Key Algorithm: rsaEncryption
                Public-Key: (1024 bit)
                Modulus:
                    00:d5:44:5f:40:15:e0:cf:7d:e3:a3:24:3e:08:4e:
                    3f:98:52:9b:22:4a:76:36:1a:41:38:b3:39:85:7b:
                    92:83:c0:28:23:9c:27:32:9b:63:68:71:de:82:25:
                    36:d6:05:a1:be:6d:fb:ec:26:51:12:7b:85:d0:77:
                    65:e6:bb:e2:c4:72:cd:e9:f4:5a:c4:23:81:15:a0:
                    b9:7b:a5:02:e9:05:1d:25:6c:6d:da:e1:95:41:ba:
                    b9:58:f4:e7:e9:57:94:a6:39:4a:d3:08:63:f5:d2:
                    5e:a9:2f:2f:06:df:80:2d:48:53:b6:10:3a:34:fb:
                    5f:ff:24:72:93:54:bd:f0:e1
                Exponent: 65537 (0x10001)
    Signature Algorithm: sha1WithRSAEncryption
         67:12:32:ee:93:f8:3f:b7:b5:1e:b1:e5:39:dd:7a:47:02:66:
         54:29:de:85:d2:7d:54:84:df:76:23:9a:e1:e9:6e:0c:c8:20:
         73:4f:ab:67:bb:51:4d:3a:3b:e0:bd:bf:8f:f0:3e:4d:05:6b:
         00:23:cd:49:5b:a6:84:2f:46:da:b1:c3:49:f9:e3:06:47:aa:
         a3:6e:c3:c1:36:57:a5:ce:48:58:39:86:85:c9:15:69:1e:84:
         cc:4c:13:6f:00:e6:5b:f9:c9:22:f3:b4:e5:88:d0:79:41:97:
         de:07:fd:63:e9:64:a8:ef:8c:6b:81:fe:5d:6f:26:02:da:58:
         ff:08:73:06:3a:46:61:17:0c:f6:be:31:09:68:0e:46:6e:f0:
         88:a7:88:69:01:97:a5:0c:4d:93:ac:7b:f5:3a:e0:85:02:1e:
         80:a8:75:d0:00:c3:e0:88:d8:49:74:c2:ba:0e:a7:bc:f2:1b:
         91:93:ed:06:a4:8b:81:a2:8c:36:6c:23:71:0c:8f:93:9e:7d:
         59:87:97:f0:18:25:a4:71:c3:b4:1e:97:64:b7:21:80:ab:93:
         db:dc:b9:8e:2a:14:e0:2c:db:3e:cb:c4:94:7d:d5:39:d2:3f:
         30:7a:06:31:66:a9:1d:3e:5a:c8:46:b9:fb:b3:e8:1a:25:37:
         5b:ae:29:4d:cf:9d:d9:1c:81:ac:bf:27:bd:9f:0b:68:5a:de:
         b8:ff:9e:91:99:af:e9:14:33:61:21:a7:74:7a:bc:eb:3b:7a:
         b6:27:72:0c:d3:81:28:c6:48:b4:06:d5:d0:30:7b:87:a5:8c:
         b2:ae:38:7e:e7:7c:65:e6:06:40:1e:62:fb:34:bd:27:e5:63:
         93:9d:10:42:c5:c1:23:74:32:b8:14:e5:6a:02:9b:76:10:53:
         0f:58:ee:0b:11:05:e9:3d:70:51:36:ca:c7:fa:87:d3:07:0d:
         b5:6f:3d:0b:83:92:f8:f0:b4:24:48:42:8b:35:0e:5f:52:f5:
         ef:1e:74:46:43:5c:ba:a4:82:c0:f4:97:3c:58:e3:aa:ff:3a:
         4f:1b:67:e9:6c:c2:d1:4f:5b:1f:a6:11:f9:62:53:15:56:53:
         d6:91:d3:17:aa:6b:a1:27:64:ff:39:17:99:4d:e1:a8:9f:3c:
         ef:bc:94:a6:14:68:75:7a:99:48:ca:37:ed:81:b6:06:10:c7:
         d5:47:4b:f7:e3:9c:ac:71:af:da:28:8d:54:2e:8c:72:cc:cb:
         e1:a5:da:8a:0d:98:d1:32:8b:a9:a1:e3:02:a0:92:dd:9d:ea:
         05:9f:2e:22:dd:a2:40:2d:5e:9d:ad:4d:4f:7d:2b:7d:3d:b4:
         0d:e7:e1:04:aa:05:25:0d
-----BEGIN CERTIFICATE-----
MIIDVTCCAT2gAwIBAwIBATANBgkqhkiG9w0BAQUFADApMQswCQYDVQQGEwJCRTEa
MBgGA1UEAxMRdHhqc29ucnBjLXRlc3QtY2EwHhcNNzAwMTAxMDAwMDAwWhcNMzgw
MTE5MDMxNDA3WjA3MRAwDgYDVQQDEwdjYS1ub25lMQswCQYDVQQGEwJCRTEWMBQG
A1UEChMNR3JlbXdlbGwgYnZiYTCBnzANBgkqhkiG9w0BAQEFAAOBjQAwgYkCgYEA
1URfQBXgz33joyQ+CE4/mFKbIkp2NhpBOLM5hXuSg8AoI5wnMptjaHHegiU21gWh
vm377CZREnuF0Hdl5rvixHLN6fRaxCOBFaC5e6UC6QUdJWxt2uGVQbq5WPTn6VeU
pjlK0whj9dJeqS8vBt+ALUhTthA6NPtf/yRyk1S98OECAwEAATANBgkqhkiG9w0B
AQUFAAOCAgEAZxIy7pP4P7e1HrHlOd16RwJmVCnehdJ9VITfdiOa4eluDMggc0+r
Z7tRTTo74L2/j/A+TQVrACPNSVumhC9G2rHDSfnjBkeqo27DwTZXpc5IWDmGhckV
aR6EzEwTbwDmW/nJIvO05YjQeUGX3gf9Y+lkqO+Ma4H+XW8mAtpY/whzBjpGYRcM
9r4xCWgORm7wiKeIaQGXpQxNk6x79TrghQIegKh10ADD4IjYSXTCug6nvPIbkZPt
BqSLgaKMNmwjcQyPk559WYeX8BglpHHDtB6XZLchgKuT29y5jioU4CzbPsvElH3V
OdI/MHoGMWapHT5ayEa5+7PoGiU3W64pTc+d2RyBrL8nvZ8LaFreuP+ekZmv6RQz
YSGndHq86zt6tidyDNOBKMZItAbV0DB7h6WMsq44fud8ZeYGQB5i+zS9J+Vjk50Q
QsXBI3QyuBTlagKbdhBTD1juCxEF6T1wUTbKx/qH0wcNtW89C4OS+PC0JEhCizUO
X1L17x50RkNcuqSCwPSXPFjjqv86Txtn6WzC0U9bH6YR+WJTFVZT1pHTF6proSdk
/zkXmU3hqJ8877yUphRodXqZSMo37YG2BhDH1UdL9+OcrHGv2iiNVC6McszL4aXa
ig2Y0TKLqaHjAqCS3Z3qBZ8uIt2iQC1ena1NT30rfT20DefhBKoFJQ0=
-----END CERTIFICATE-----
Certificate:
    Data:
        Version: 3 (0x2)
        Serial Number: 10219423159405941259 (0x8dd2af37f9ca920b)
    Signature Algorithm: sha1WithRSAEncryption
        Issuer: C=BE, CN=txjsonrpc-test-ca
        Validity
            Not Before: Jun 23 15:46:37 2012 GMT
            Not After : Jun 21 15:46:37 2022 GMT
        Subject: C=BE, CN=txjsonrpc-test-ca
        Subject Public Key Info:
            Public Key Algorithm: rsaEncryption
                Public-Key: (4096 bit)
                Modulus:
                    00:d1:25:af:77:c5:a8:72:cf:90:b9:39:10:fb:7b:
                    75:2c:a1:da:6a:95:e5:44:0c:d6:25:4b:58:7f:bb:
                    07:82:59:49:58:32:85:24:cc:3e:77:db:e1:a7:4f:
                    c8:b5:cb:ee:45:38:bd:bc:fb:e3:76:3b:88:04:ca:
                    ab:3a:a3:96:3b:5f:93:9c:28:a6:61:97:dc:a2:3f:
                    a0:93:2b:56:6c:cf:d3:4f:6a:9e:05:d3:1c:cd:ef:
                    75:80:1a:98:b7:92:49:14:33:b8:c4:7c:73:8c:7e:
                    83:a5:81:a2:59:8c:8b:a3:51:36:6d:68:ac:f2:f1:
                    ed:6f:49:d9:af:7a:63:c1:43:31:42:b6:c7:cd:b9:
                    78:b7:33:98:70:92:6c:9e:04:7a:7b:f0:6d:38:87:
                    eb:00:13:17:b9:d9:ec:b4:66:bb:51:d3:fd:81:e3:
                    0e:88:71:23:d2:80:2a:61:de:ab:25:02:47:a9:c1:
                    6b:c9:69:ae:da:47:b6:49:74:ac:a6:e1:c1:76:ba:
                    6d:b1:d9:68:6e:1c:37:a8:e2:18:60:37:b6:58:13:
                    6c:c7:92:7c:c6:45:8c:ef:c3:81:73:10:dc:2f:31:
                    e2:b9:05:5a:9e:28:70:5a:3e:1d:b8:68:71:81:c9:
                    e8:fe:1f:c3:a0:13:f8:e4:24:12:ba:91:8e:15:d2:
                    03:f1:8c:b0:aa:e2:34:e4:6b:f8:06:f6:23:8a:92:
                    43:a6:05:dc:e9:c7:a5:a8:06:d7:6e:91:52:72:47:
                    ab:ae:87:fe:b3:0f:04:87:6f:4b:22:29:e9:a9:06:
                    52:58:7d:03:16:d7:d5:31:44:b4:f1:51:44:a7:2a:
                    ba:5e:09:19:ec:4c:a2:e0:58:fe:0d:4e:b7:90:4d:
                    02:ac:2a:ad:99:14:65:3b:0a:3c:73:45:56:b2:0f:
                    10:25:24:51:79:57:1a:34:1a:10:6f:60:e0:fc:81:
                    db:ca:c2:e2:85:1b:4c:72:13:5c:9d:76:cc:d0:21:
                    33:31:56:82:8f:c5:57:b9:44:fd:8b:76:c1:b6:e4:
                    21:8b:35:9a:ee:54:74:9f:72:6b:19:84:d7:a2:3c:
                    a5:6e:11:0a:f1:93:04:2e:dd:7c:4c:7d:62:10:d4:
                    1b:8b:87:f6:ed:bf:12:b1:8b:f0:9a:7a:ee:02:94:
                    e1:3c:46:2b:7f:9c:54:fb:2e:61:c9:1c:ef:fc:de:
                    25:bc:2d:75:1b:1f:49:5e:44:3b:15:93:ad:c4:89:
                    d9:ae:3c:da:54:ef:d9:af:3a:16:cb:94:1b:6a:14:
                    e4:42:f9:75:33:46:6e:fb:40:bc:f8:82:36:cf:60:
                    f5:c2:a2:98:23:a7:2a:ae:c1:aa:22:f8:87:da:b7:
                    9c:a4:cf
                Exponent: 65537 (0x10001)
        X509v3 extensions:
            X509v3 Subject Key Identifier: 
                9D:8F:84:76:94:CD:07:FE:A3:E8:8B:D7:F9:D9:6E:EF:CA:75:51:7B
            X509v3 Authority Key Identifier: 
                keyid:9D:8F:84:76:94:CD:07:FE:A3:E8:8B:D7:F9:D9:6E:EF:CA:75:51:7B
                DirName:/C=BE/CN=txjsonrpc-test-ca
                serial:8D:D2:AF:37:F9:CA:92:0B

            X509v3 Basic Constraints: critical
                CA:TRUE
            Netscape Cert Type: 
                SSL CA, S/MIME CA
            X509v3 Issuer Alternative Name: 
                <EMPTY>

            Netscape Comment: 
                Test CA for txjsonrcp
            X509v3 Subject Alternative Name: 
                <EMPTY>

            X509v3 Key Usage: critical
                Certificate Sign, CRL Sign
    Signature Algorithm: sha1WithRSAEncryption
         06:82:86:81:a9:1b:7e:2d:ef:f5:fc:cc:d2:9d:d6:82:ad:d0:
         6f:7e:3d:b9:5c:b2:0f:3a:64:21:9a:fb:53:b2:93:81:dc:1a:
         24:fc:b8:30:57:a2:c7:71:0d:9c:1a:0b:8a:6c:89:52:8b:8a:
         f5:af:95:3e:b8:08:39:ee:36:50:ac:60:4d:df:2b:49:a2:72:
         f1:3f:12:3c:d9:55:56:a4:9a:77:2b:77:fa:16:b5:76:d9:f4:
         c4:51:6b:b9:fe:2f:a3:52:e8:64:80:49:22:6d:05:42:87:af:
         9d:85:6c:fa:c9:9b:48:39:7b:89:f5:a0:1e:ff:11:d3:9c:78:
         b1:b2:f6:4d:b1:e8:b3:98:23:2c:d4:20:e1:a1:01:3e:26:0a:
         5b:8e:eb:58:45:22:cf:e1:94:ad:84:40:b0:fb:ff:25:5f:31:
         9a:49:0b:36:ad:c6:1a:b0:42:60:40:e2:a2:3c:5a:36:41:89:
         fc:10:c4:60:ea:d4:85:7b:36:84:df:aa:81:cc:69:e7:52:ca:
         c1:46:b1:79:93:51:4f:24:84:42:14:3a:20:a0:6c:27:76:40:
         0f:96:7e:4e:c3:0c:37:b3:e3:73:49:86:58:31:00:1e:e7:0f:
         87:74:b6:4e:6e:1c:7d:87:a4:33:04:c9:76:ec:e5:3a:85:5f:
         a8:d1:ad:21:64:5e:c5:6a:df:b1:02:6e:65:a4:87:72:06:07:
         da:e5:f2:af:2b:a5:eb:18:80:67:83:a5:3c:e6:ed:d1:58:f9:
         90:5c:d6:e9:2f:76:c1:58:13:b8:bd:88:8a:f3:04:48:bb:42:
         8f:7f:c6:db:b4:30:3f:bb:6c:d5:47:e5:ae:8d:4b:da:92:a5:
         db:d3:6e:a8:9b:c2:6b:56:af:34:63:82:e6:78:f8:1f:54:d7:
         41:aa:a3:c9:7c:a6:83:41:bf:6e:33:7c:ae:e6:92:bd:da:27:
         b4:bc:e2:90:4f:33:1b:01:a1:cd:02:13:7a:31:ef:00:d6:9a:
         6e:38:6b:a7:cb:70:98:a8:0f:ff:1c:56:a8:b7:e6:d2:42:5a:
         bb:f4:78:27:71:13:d0:e8:43:eb:bc:2d:4f:e4:ea:4d:4f:76:
         7f:53:38:34:eb:13:e2:3d:c6:14:98:86:1c:ab:2c:0e:b7:68:
         2e:bd:63:a9:6a:8f:d5:22:2d:ab:13:d7:62:54:51:ff:5c:37:
         08:04:27:da:f9:57:77:05:18:73:88:5f:b0:c1:65:50:36:09:
         d6:c7:f5:ae:6e:3f:04:d1:84:3c:21:74:1d:bd:0a:fb:76:d0:
         13:2b:62:bb:24:48:43:89:d0:18:5c:b4:ad:ea:98:af:6d:fc:
         1c:6b:1f:06:64:54:23:88
-----BEGIN CERTIFICATE-----
MIIFwzCCA6ugAwIBAgIJAI3Srzf5ypILMA0GCSqGSIb3DQEBBQUAMCkxCzAJBgNV
BAYTAkJFMRowGAYDVQQDExF0eGpzb25ycGMtdGVzdC1jYTAeFw0xMjA2MjMxNTQ2
MzdaFw0yMjA2MjExNTQ2MzdaMCkxCzAJBgNVBAYTAkJFMRowGAYDVQQDExF0eGpz
b25ycGMtdGVzdC1jYTCCAiIwDQYJKoZIhvcNAQEBBQADggIPADCCAgoCggIBANEl
r3fFqHLPkLk5EPt7dSyh2mqV5UQM1iVLWH+7B4JZSVgyhSTMPnfb4adPyLXL7kU4
vbz743Y7iATKqzqjljtfk5wopmGX3KI/oJMrVmzP009qngXTHM3vdYAamLeSSRQz
uMR8c4x+g6WBolmMi6NRNm1orPLx7W9J2a96Y8FDMUK2x825eLczmHCSbJ4Eenvw
bTiH6wATF7nZ7LRmu1HT/YHjDohxI9KAKmHeqyUCR6nBa8lprtpHtkl0rKbhwXa6
bbHZaG4cN6jiGGA3tlgTbMeSfMZFjO/DgXMQ3C8x4rkFWp4ocFo+HbhocYHJ6P4f
w6AT+OQkErqRjhXSA/GMsKriNORr+Ab2I4qSQ6YF3OnHpagG126RUnJHq66H/rMP
BIdvSyIp6akGUlh9AxbX1TFEtPFRRKcqul4JGexMouBY/g1Ot5BNAqwqrZkUZTsK
PHNFVrIPECUkUXlXGjQaEG9g4PyB28rC4oUbTHITXJ12zNAhMzFWgo/FV7lE/Yt2
wbbkIYs1mu5UdJ9yaxmE16I8pW4RCvGTBC7dfEx9YhDUG4uH9u2/ErGL8Jp67gKU
4TxGK3+cVPsuYckc7/zeJbwtdRsfSV5EOxWTrcSJ2a482lTv2a86FsuUG2oU5EL5
dTNGbvtAvPiCNs9g9cKimCOnKq7BqiL4h9q3nKTPAgMBAAGjge0wgeowHQYDVR0O
BBYEFJ2PhHaUzQf+o+iL1/nZbu/KdVF7MFkGA1UdIwRSMFCAFJ2PhHaUzQf+o+iL
1/nZbu/KdVF7oS2kKzApMQswCQYDVQQGEwJCRTEaMBgGA1UEAxMRdHhqc29ucnBj
LXRlc3QtY2GCCQCN0q83+cqSCzAPBgNVHRMBAf8EBTADAQH/MBEGCWCGSAGG+EIB
AQQEAwIBBjAJBgNVHRIEAjAAMCQGCWCGSAGG+EIBDQQXFhVUZXN0IENBIGZvciB0
eGpzb25yY3AwCQYDVR0RBAIwADAOBgNVHQ8BAf8EBAMCAQYwDQYJKoZIhvcNAQEF
BQADggIBAAaChoGpG34t7/X8zNKd1oKt0G9+Pblcsg86ZCGa+1Oyk4HcGiT8uDBX
osdxDZwaC4psiVKLivWvlT64CDnuNlCsYE3fK0micvE/EjzZVVakmncrd/oWtXbZ
9MRRa7n+L6NS6GSASSJtBUKHr52FbPrJm0g5e4n1oB7/EdOceLGy9k2x6LOYIyzU
IOGhAT4mCluO61hFIs/hlK2EQLD7/yVfMZpJCzatxhqwQmBA4qI8WjZBifwQxGDq
1IV7NoTfqoHMaedSysFGsXmTUU8khEIUOiCgbCd2QA+Wfk7DDDez43NJhlgxAB7n
D4d0tk5uHH2HpDMEyXbs5TqFX6jRrSFkXsVq37ECbmWkh3IGB9rl8q8rpesYgGeD
pTzm7dFY+ZBc1ukvdsFYE7i9iIrzBEi7Qo9/xtu0MD+7bNVH5a6NS9qSpdvTbqib
wmtWrzRjguZ4+B9U10Gqo8l8poNBv24zfK7mkr3aJ7S84pBPMxsBoc0CE3ox7wDW
mm44a6fLcJioD/8cVqi35tJCWrv0eCdxE9DoQ+u8LU/k6k1Pdn9TODTrE+I9xhSY
hhyrLA63aC69Y6lqj9UiLasT12JUUf9cNwgEJ9r5V3cFGHOIX7DBZVA2CdbH9a5u
PwTRhDwhdB29Cvt20BMrYrskSEOJ0BhctK3qmK9t/BxrHwZkVCOI
-----END CERTIFICATE-----
