Certificate:
    Data:
        Version: 3 (0x2)
        Serial Number: 1 (0x1)
    Signature Algorithm: sha1WithRSAEncryption
        Issuer: CN=ca-none, C=BE, O=Gremwell bvba
        Validity
            Not Before: Jun 23 15:47:38 2012 GMT
            Not After : Jun 23 15:47:38 2013 GMT
        Subject: C=BE, CN=txjsonrpc-pyserver
        Subject Public Key Info:
            Public Key Algorithm: rsaEncryption
                Public-Key: (4096 bit)
                Modulus:
                    00:bb:f8:cf:64:88:f8:df:4e:9a:32:ac:54:94:a7:
                    ef:47:2c:43:1c:7e:75:1f:f3:12:6c:63:8c:f7:29:
                    31:3e:fa:5e:b1:46:13:02:39:56:0f:21:56:cd:5d:
                    b8:3c:5a:cb:3b:70:04:1d:11:19:b1:a8:72:ff:cb:
                    18:6c:d6:12:d7:e6:e6:30:10:19:c7:cb:9e:d2:4b:
                    82:06:62:79:ff:d7:5b:3f:93:e5:8e:50:f8:68:0a:
                    4d:b9:d0:08:b6:ca:7e:0e:6d:ba:b6:93:20:a7:a5:
                    86:d1:9e:6a:4a:0f:23:da:3c:9c:de:3f:04:69:ac:
                    1d:e5:60:bf:9c:8a:96:1b:55:e6:5f:02:4d:ef:87:
                    4c:9c:8f:a6:cb:b8:0f:6e:25:cf:d2:11:d7:fa:06:
                    d1:17:7e:86:d6:23:dd:8a:86:b2:ad:6a:d8:45:e5:
                    d2:04:ac:cb:2b:4a:44:e4:22:cc:9a:6d:c0:6e:65:
                    d6:aa:74:fd:21:e7:ac:20:38:56:af:1a:3c:72:a9:
                    06:ef:bf:76:28:b3:06:ef:45:99:b1:a5:a7:68:1a:
                    be:6c:99:23:a0:f4:4d:4d:0e:36:7e:79:ab:8c:9c:
                    67:3f:db:68:61:3a:6e:3a:cb:c1:b9:ac:78:2f:6f:
                    8f:a4:25:30:e7:fa:70:54:62:1b:22:f3:c8:6a:1a:
                    0f:a4:16:c1:16:3a:8e:79:34:d0:75:7f:1f:b1:a2:
                    24:e6:ff:8d:50:cf:88:af:fe:b1:ec:3a:6b:a5:db:
                    e4:b0:e3:31:53:e8:9b:12:72:75:34:45:b8:4a:a3:
                    aa:86:81:4c:0e:d1:e0:d7:de:e2:c1:64:8d:bd:ea:
                    f0:e2:93:77:cf:7e:d5:c7:e9:d6:10:ce:02:b0:83:
                    1e:ad:f6:8d:04:51:f5:ff:1b:d4:de:da:de:f0:6a:
                    bc:70:b7:49:e9:44:3f:11:1a:7b:87:13:31:41:cb:
                    0d:3e:44:cf:33:47:e3:eb:a3:73:e0:a1:65:d3:12:
                    1b:36:ad:64:8a:3f:59:69:fa:24:74:3e:c0:27:d1:
                    ff:33:13:79:d2:06:08:8f:ab:56:2b:76:86:10:d5:
                    90:d8:5c:25:68:26:86:b7:78:64:2e:e6:d2:38:ac:
                    13:a1:7a:4f:fa:33:48:4f:6a:c8:a8:5a:75:d6:96:
                    4c:9d:79:e5:ad:04:2e:2b:70:eb:8c:ca:62:26:c0:
                    f2:26:6b:99:1f:04:8a:4b:3f:27:ac:48:20:cd:fe:
                    7c:1f:ac:0e:10:f5:85:cc:20:de:88:4f:54:b0:7d:
                    8a:4f:de:2a:74:c0:5b:6f:42:39:37:f7:35:4b:12:
                    cf:ff:fb:77:46:0d:f6:cb:79:82:22:31:6a:03:fd:
                    39:28:27
                Exponent: 65537 (0x10001)
        X509v3 extensions:
            X509v3 Basic Constraints: 
                CA:FALSE
            Netscape Cert Type: 
                SSL Server
            Netscape Comment: 
                TinyCA Generated Certificate
            X509v3 Subject Key Identifier: 
                26:8C:A5:F9:A6:4A:FE:4C:E8:0F:04:33:7E:04:26:28:BF:4C:92:F3
            X509v3 Authority Key Identifier: 
                keyid:9D:8F:84:76:94:CD:07:FE:A3:E8:8B:D7:F9:D9:6E:EF:CA:75:51:7B
                DirName:/C=BE/CN=txjsonrpc-test-ca
                serial:8D:D2:AF:37:F9:CA:92:0B

            X509v3 Issuer Alternative Name: 
                <EMPTY>

            X509v3 Subject Alternative Name: 
                <EMPTY>

    Signature Algorithm: sha1WithRSAEncryption
         3a:19:d7:00:4e:a0:f4:da:ff:82:56:22:a8:f8:c9:c4:65:b9:
         1a:b0:81:3b:6c:12:a8:d9:a5:7f:6c:7c:ab:f8:f1:72:3c:a9:
         74:b6:43:3b:d7:4b:1f:18:03:20:69:39:07:86:f0:f9:94:c5:
         85:85:fb:b6:44:93:e2:13:18:80:97:f0:99:88:1e:50:1f:47:
         96:54:b3:23:9f:d0:1e:b8:6e:de:96:4a:07:14:f8:a8:93:59:
         d1:77:f3:63:ad:87:31:0b:2e:6d:43:b3:b1:92:07:41:b1:83:
         4c:2c:b6:3d:38:b8:03:a7:be:0c:16:bc:a6:30:cc:b1:7e:40:
         30:7d
-----BEGIN CERTIFICATE-----
MIIEOjCCA6OgAwIBAgIBATANBgkqhkiG9w0BAQUFADA3MRAwDgYDVQQDEwdjYS1u
b25lMQswCQYDVQQGEwJCRTEWMBQGA1UEChMNR3JlbXdlbGwgYnZiYTAeFw0xMjA2
MjMxNTQ3MzhaFw0xMzA2MjMxNTQ3MzhaMCoxCzAJBgNVBAYTAkJFMRswGQYDVQQD
ExJ0eGpzb25ycGMtcHlzZXJ2ZXIwggIiMA0GCSqGSIb3DQEBAQUAA4ICDwAwggIK
AoICAQC7+M9kiPjfTpoyrFSUp+9HLEMcfnUf8xJsY4z3KTE++l6xRhMCOVYPIVbN
Xbg8Wss7cAQdERmxqHL/yxhs1hLX5uYwEBnHy57SS4IGYnn/11s/k+WOUPhoCk25
0Ai2yn4Obbq2kyCnpYbRnmpKDyPaPJzePwRprB3lYL+cipYbVeZfAk3vh0ycj6bL
uA9uJc/SEdf6BtEXfobWI92KhrKtathF5dIErMsrSkTkIsyabcBuZdaqdP0h56wg
OFavGjxyqQbvv3YoswbvRZmxpadoGr5smSOg9E1NDjZ+eauMnGc/22hhOm46y8G5
rHgvb4+kJTDn+nBUYhsi88hqGg+kFsEWOo55NNB1fx+xoiTm/41Qz4iv/rHsOmul
2+Sw4zFT6JsScnU0RbhKo6qGgUwO0eDX3uLBZI296vDik3fPftXH6dYQzgKwgx6t
9o0EUfX/G9Te2t7warxwt0npRD8RGnuHEzFByw0+RM8zR+Pro3PgoWXTEhs2rWSK
P1lp+iR0PsAn0f8zE3nSBgiPq1YrdoYQ1ZDYXCVoJoa3eGQu5tI4rBOhek/6M0hP
asioWnXWlkydeeWtBC4rcOuMymImwPIma5kfBIpLPyesSCDN/nwfrA4Q9YXMIN6I
T1SwfYpP3ip0wFtvQjk39zVLEs//+3dGDfbLeYIiMWoD/TkoJwIDAQABo4HeMIHb
MAkGA1UdEwQCMAAwEQYJYIZIAYb4QgEBBAQDAgZAMCsGCWCGSAGG+EIBDQQeFhxU
aW55Q0EgR2VuZXJhdGVkIENlcnRpZmljYXRlMB0GA1UdDgQWBBQmjKX5pkr+TOgP
BDN+BCYov0yS8zBZBgNVHSMEUjBQgBSdj4R2lM0H/qPoi9f52W7vynVRe6EtpCsw
KTELMAkGA1UEBhMCQkUxGjAYBgNVBAMTEXR4anNvbnJwYy10ZXN0LWNhggkAjdKv
N/nKkgswCQYDVR0SBAIwADAJBgNVHREEAjAAMA0GCSqGSIb3DQEBBQUAA4GBADoZ
1wBOoPTa/4JWIqj4ycRluRqwgTtsEqjZpX9sfKv48XI8qXS2QzvXSx8YAyBpOQeG
8PmUxYWF+7ZEk+ITGICX8JmIHlAfR5ZUsyOf0B64bt6WSgcU+KiTWdF382OthzEL
Lm1Ds7GSB0Gxg0wstj04uAOnvgwWvKYwzLF+QDB9
-----END CERTIFICATE-----
Certificate:
    Data:
        Version: 4 (0x3)
        Serial Number: 1 (0x1)
    Signature Algorithm: sha1WithRSAEncryption
        Issuer: C=BE, CN=txjsonrpc-test-ca
        Validity
            Not Before: Jan  1 00:00:00 1970 GMT
            Not After : Jan 19 03:14:07 2038 GMT
        Subject: CN=ca-none, C=BE, O=Gremwell bvba
        Subject Public Key Info:
            Public Key Algorithm: rsaEncryption
                Public-Key: (1024 bit)
                Modulus:
                    00:d5:44:5f:40:15:e0:cf:7d:e3:a3:24:3e:08:4e:
                    3f:98:52:9b:22:4a:76:36:1a:41:38:b3:39:85:7b:
                    92:83:c0:28:23:9c:27:32:9b:63:68:71:de:82:25:
                    36:d6:05:a1:be:6d:fb:ec:26:51:12:7b:85:d0:77:
                    65:e6:bb:e2:c4:72:cd:e9:f4:5a:c4:23:81:15:a0:
                    b9:7b:a5:02:e9:05:1d:25:6c:6d:da:e1:95:41:ba:
                    b9:58:f4:e7:e9:57:94:a6:39:4a:d3:08:63:f5:d2:
                    5e:a9:2f:2f:06:df:80:2d:48:53:b6:10:3a:34:fb:
                    5f:ff:24:72:93:54:bd:f0:e1
                Exponent: 65537 (0x10001)
    Signature Algorithm: sha1WithRSAEncryption
         67:12:32:ee:93:f8:3f:b7:b5:1e:b1:e5:39:dd:7a:47:02:66:
         54:29:de:85:d2:7d:54:84:df:76:23:9a:e1:e9:6e:0c:c8:20:
         73:4f:ab:67:bb:51:4d:3a:3b:e0:bd:bf:8f:f0:3e:4d:05:6b:
         00:23:cd:49:5b:a6:84:2f:46:da:b1:c3:49:f9:e3:06:47:aa:
         a3:6e:c3:c1:36:57:a5:ce:48:58:39:86:85:c9:15:69:1e:84:
         cc:4c:13:6f:00:e6:5b:f9:c9:22:f3:b4:e5:88:d0:79:41:97:
         de:07:fd:63:e9:64:a8:ef:8c:6b:81:fe:5d:6f:26:02:da:58:
         ff:08:73:06:3a:46:61:17:0c:f6:be:31:09:68:0e:46:6e:f0:
         88:a7:88:69:01:97:a5:0c:4d:93:ac:7b:f5:3a:e0:85:02:1e:
         80:a8:75:d0:00:c3:e0:88:d8:49:74:c2:ba:0e:a7:bc:f2:1b:
         91:93:ed:06:a4:8b:81:a2:8c:36:6c:23:71:0c:8f:93:9e:7d:
         59:87:97:f0:18:25:a4:71:c3:b4:1e:97:64:b7:21:80:ab:93:
         db:dc:b9:8e:2a:14:e0:2c:db:3e:cb:c4:94:7d:d5:39:d2:3f:
         30:7a:06:31:66:a9:1d:3e:5a:c8:46:b9:fb:b3:e8:1a:25:37:
         5b:ae:29:4d:cf:9d:d9:1c:81:ac:bf:27:bd:9f:0b:68:5a:de:
         b8:ff:9e:91:99:af:e9:14:33:61:21:a7:74:7a:bc:eb:3b:7a:
         b6:27:72:0c:d3:81:28:c6:48:b4:06:d5:d0:30:7b:87:a5:8c:
         b2:ae:38:7e:e7:7c:65:e6:06:40:1e:62:fb:34:bd:27:e5:63:
         93:9d:10:42:c5:c1:23:74:32:b8:14:e5:6a:02:9b:76:10:53:
         0f:58:ee:0b:11:05:e9:3d:70:51:36:ca:c7:fa:87:d3:07:0d:
         b5:6f:3d:0b:83:92:f8:f0:b4:24:48:42:8b:35:0e:5f:52:f5:
         ef:1e:74:46:43:5c:ba:a4:82:c0:f4:97:3c:58:e3:aa:ff:3a:
         4f:1b:67:e9:6c:c2:d1:4f:5b:1f:a6:11:f9:62:53:15:56:53:
         d6:91:d3:17:aa:6b:a1:27:64:ff:39:17:99:4d:e1:a8:9f:3c:
         ef:bc:94:a6:14:68:75:7a:99:48:ca:37:ed:81:b6:06:10:c7:
         d5:47:4b:f7:e3:9c:ac:71:af:da:28:8d:54:2e:8c:72:cc:cb:
         e1:a5:da:8a:0d:98:d1:32:8b:a9:a1:e3:02:a0:92:dd:9d:ea:
         05:9f:2e:22:dd:a2:40:2d:5e:9d:ad:4d:4f:7d:2b:7d:3d:b4:
         0d:e7:e1:04:aa:05:25:0d
-----BEGIN CERTIFICATE-----
MIIDVTCCAT2gAwIBAwIBATANBgkqhkiG9w0BAQUFADApMQswCQYDVQQGEwJCRTEa
MBgGA1UEAxMRdHhqc29ucnBjLXRlc3QtY2EwHhcNNzAwMTAxMDAwMDAwWhcNMzgw
MTE5MDMxNDA3WjA3MRAwDgYDVQQDEwdjYS1ub25lMQswCQYDVQQGEwJCRTEWMBQG
A1UEChMNR3JlbXdlbGwgYnZiYTCBnzANBgkqhkiG9w0BAQEFAAOBjQAwgYkCgYEA
1URfQBXgz33joyQ+CE4/mFKbIkp2NhpBOLM5hXuSg8AoI5wnMptjaHHegiU21gWh
vm377CZREnuF0Hdl5rvixHLN6fRaxCOBFaC5e6UC6QUdJWxt2uGVQbq5WPTn6VeU
pjlK0whj9dJeqS8vBt+ALUhTthA6NPtf/yRyk1S98OECAwEAATANBgkqhkiG9w0B
AQUFAAOCAgEAZxIy7pP4P7e1HrHlOd16RwJmVCnehdJ9VITfdiOa4eluDMggc0+r
Z7tRTTo74L2/j/A+TQVrACPNSVumhC9G2rHDSfnjBkeqo27DwTZXpc5IWDmGhckV
aR6EzEwTbwDmW/nJIvO05YjQeUGX3gf9Y+lkqO+Ma4H+XW8mAtpY/whzBjpGYRcM
9r4xCWgORm7wiKeIaQGXpQxNk6x79TrghQIegKh10ADD4IjYSXTCug6nvPIbkZPt
BqSLgaKMNmwjcQyPk559WYeX8BglpHHDtB6XZLchgKuT29y5jioU4CzbPsvElH3V
OdI/MHoGMWapHT5ayEa5+7PoGiU3W64pTc+d2RyBrL8nvZ8LaFreuP+ekZmv6RQz
YSGndHq86zt6tidyDNOBKMZItAbV0DB7h6WMsq44fud8ZeYGQB5i+zS9J+Vjk50Q
QsXBI3QyuBTlagKbdhBTD1juCxEF6T1wUTbKx/qH0wcNtW89C4OS+PC0JEhCizUO
X1L17x50RkNcuqSCwPSXPFjjqv86Txtn6WzC0U9bH6YR+WJTFVZT1pHTF6proSdk
/zkXmU3hqJ8877yUphRodXqZSMo37YG2BhDH1UdL9+OcrHGv2iiNVC6McszL4aXa
ig2Y0TKLqaHjAqCS3Z3qBZ8uIt2iQC1ena1NT30rfT20DefhBKoFJQ0=
-----END CERTIFICATE-----
