Certificate:
    Data:
        Version: 3 (0x2)
        Serial Number: 1 (0x1)
    Signature Algorithm: sha1WithRSAEncryption
        Issuer: C=BE, CN=txjsonrpc-test-ca
        Validity
            Not Before: Jun 23 15:47:38 2012 GMT
            Not After : Jun 23 15:47:38 2013 GMT
        Subject: C=BE, CN=txjsonrpc-pyserver
        Subject Public Key Info:
            Public Key Algorithm: rsaEncryption
                Public-Key: (4096 bit)
                Modulus:
                    00:bb:f8:cf:64:88:f8:df:4e:9a:32:ac:54:94:a7:
                    ef:47:2c:43:1c:7e:75:1f:f3:12:6c:63:8c:f7:29:
                    31:3e:fa:5e:b1:46:13:02:39:56:0f:21:56:cd:5d:
                    b8:3c:5a:cb:3b:70:04:1d:11:19:b1:a8:72:ff:cb:
                    18:6c:d6:12:d7:e6:e6:30:10:19:c7:cb:9e:d2:4b:
                    82:06:62:79:ff:d7:5b:3f:93:e5:8e:50:f8:68:0a:
                    4d:b9:d0:08:b6:ca:7e:0e:6d:ba:b6:93:20:a7:a5:
                    86:d1:9e:6a:4a:0f:23:da:3c:9c:de:3f:04:69:ac:
                    1d:e5:60:bf:9c:8a:96:1b:55:e6:5f:02:4d:ef:87:
                    4c:9c:8f:a6:cb:b8:0f:6e:25:cf:d2:11:d7:fa:06:
                    d1:17:7e:86:d6:23:dd:8a:86:b2:ad:6a:d8:45:e5:
                    d2:04:ac:cb:2b:4a:44:e4:22:cc:9a:6d:c0:6e:65:
                    d6:aa:74:fd:21:e7:ac:20:38:56:af:1a:3c:72:a9:
                    06:ef:bf:76:28:b3:06:ef:45:99:b1:a5:a7:68:1a:
                    be:6c:99:23:a0:f4:4d:4d:0e:36:7e:79:ab:8c:9c:
                    67:3f:db:68:61:3a:6e:3a:cb:c1:b9:ac:78:2f:6f:
                    8f:a4:25:30:e7:fa:70:54:62:1b:22:f3:c8:6a:1a:
                    0f:a4:16:c1:16:3a:8e:79:34:d0:75:7f:1f:b1:a2:
                    24:e6:ff:8d:50:cf:88:af:fe:b1:ec:3a:6b:a5:db:
                    e4:b0:e3:31:53:e8:9b:12:72:75:34:45:b8:4a:a3:
                    aa:86:81:4c:0e:d1:e0:d7:de:e2:c1:64:8d:bd:ea:
                    f0:e2:93:77:cf:7e:d5:c7:e9:d6:10:ce:02:b0:83:
                    1e:ad:f6:8d:04:51:f5:ff:1b:d4:de:da:de:f0:6a:
                    bc:70:b7:49:e9:44:3f:11:1a:7b:87:13:31:41:cb:
                    0d:3e:44:cf:33:47:e3:eb:a3:73:e0:a1:65:d3:12:
                    1b:36:ad:64:8a:3f:59:69:fa:24:74:3e:c0:27:d1:
                    ff:33:13:79:d2:06:08:8f:ab:56:2b:76:86:10:d5:
                    90:d8:5c:25:68:26:86:b7:78:64:2e:e6:d2:38:ac:
                    13:a1:7a:4f:fa:33:48:4f:6a:c8:a8:5a:75:d6:96:
                    4c:9d:79:e5:ad:04:2e:2b:70:eb:8c:ca:62:26:c0:
                    f2:26:6b:99:1f:04:8a:4b:3f:27:ac:48:20:cd:fe:
                    7c:1f:ac:0e:10:f5:85:cc:20:de:88:4f:54:b0:7d:
                    8a:4f:de:2a:74:c0:5b:6f:42:39:37:f7:35:4b:12:
                    cf:ff:fb:77:46:0d:f6:cb:79:82:22:31:6a:03:fd:
                    39:28:27
                Exponent: 65537 (0x10001)
        X509v3 extensions:
            X509v3 Basic Constraints: 
                CA:FALSE
            Netscape Cert Type: 
                SSL Server
            Netscape Comment: 
                TinyCA Generated Certificate
            X509v3 Subject Key Identifier: 
                26:8C:A5:F9:A6:4A:FE:4C:E8:0F:04:33:7E:04:26:28:BF:4C:92:F3
            X509v3 Authority Key Identifier: 
                keyid:9D:8F:84:76:94:CD:07:FE:A3:E8:8B:D7:F9:D9:6E:EF:CA:75:51:7B
                DirName:/C=BE/CN=txjsonrpc-test-ca
                serial:8D:D2:AF:37:F9:CA:92:0B

            X509v3 Issuer Alternative Name: 
                <EMPTY>

            X509v3 Subject Alternative Name: 
                <EMPTY>

    Signature Algorithm: sha1WithRSAEncryption
         4b:1d:5e:04:f2:1b:b7:51:30:f8:8b:7f:a8:e7:f5:9d:c1:26:
         e0:35:67:5c:42:35:93:b0:07:9d:e4:cb:78:3c:3d:94:0d:29:
         b8:48:2a:67:da:1c:8a:e7:ea:45:62:fa:79:6e:95:dd:7f:65:
         51:17:66:6b:27:a9:02:7a:98:96:9c:16:7e:53:48:6e:37:b7:
         13:fb:3a:d9:13:ee:c2:c4:bf:ba:e4:d7:db:f6:8b:4f:f2:d5:
         28:60:49:0d:93:02:be:42:f8:f9:38:98:a8:c9:d3:64:5d:04:
         05:08:89:d5:47:99:ee:f7:76:65:b7:6e:de:9e:ba:7c:cb:c3:
         fb:bf:76:06:3d:b9:2f:98:c7:c3:80:77:ad:d8:67:1b:c1:82:
         34:08:43:0c:0a:fc:59:60:5f:1e:79:ac:67:fb:da:ac:e7:ee:
         54:3e:b2:1c:08:54:f8:e1:49:f7:00:0d:8d:a0:a4:78:35:f0:
         c0:18:0f:03:c4:ac:30:6f:1d:25:f5:39:4d:ab:31:61:7e:f6:
         99:e2:91:ba:0c:19:ef:77:6e:64:de:79:25:63:6d:a6:13:da:
         94:2f:15:52:24:ea:f0:f5:11:a8:90:a7:c4:38:e6:17:be:4f:
         7d:d9:41:78:74:3c:37:53:09:ce:a8:67:c1:61:d6:8c:de:2d:
         9a:df:79:81:d6:71:e4:8b:c0:36:66:1d:64:8c:bc:ec:0b:e3:
         1b:6b:ad:98:5a:58:6e:a1:78:94:97:d5:ff:c4:4a:38:4e:33:
         a9:fe:99:21:3e:df:c9:d2:c1:af:0c:90:e0:ff:ef:64:53:88:
         59:2d:68:d7:50:f2:27:b1:4d:5f:7d:0d:f0:a6:26:92:0a:35:
         d2:2a:8c:f1:1f:ba:26:25:cc:36:72:55:1f:b1:76:98:5f:60:
         97:54:65:2b:ea:c6:70:21:47:d9:b3:98:25:dd:c2:fe:bc:42:
         a0:4c:bd:43:26:6a:ea:1f:6a:05:cf:95:78:ee:f8:e7:5c:98:
         c9:1a:12:d9:ce:58:3d:25:b0:79:0d:d9:ec:62:1e:cb:f2:31:
         14:38:16:6e:d1:cb:09:96:6a:d7:d2:e5:1d:d3:6f:12:ab:15:
         6a:5d:6d:69:94:41:e2:66:44:0a:6c:5c:08:03:1b:25:e7:b2:
         62:af:50:ae:cf:cb:3c:57:65:ab:d7:59:0f:26:c0:eb:c4:12:
         52:0a:a3:24:49:3c:8c:ea:25:ed:a4:9a:0a:f4:97:73:8a:35:
         1a:2a:a2:0f:69:59:73:39:10:05:ea:04:e4:82:80:6a:d3:83:
         11:97:eb:b4:76:48:7c:de:37:eb:86:18:bb:ac:30:4b:97:4b:
         0b:d5:9f:19:bb:9a:28:77
-----BEGIN CERTIFICATE-----
MIIFrTCCA5WgAwIBAgIBATANBgkqhkiG9w0BAQUFADApMQswCQYDVQQGEwJCRTEa
MBgGA1UEAxMRdHhqc29ucnBjLXRlc3QtY2EwHhcNMTIwNjIzMTU0NzM4WhcNMTMw
NjIzMTU0NzM4WjAqMQswCQYDVQQGEwJCRTEbMBkGA1UEAxMSdHhqc29ucnBjLXB5
c2VydmVyMIICIjANBgkqhkiG9w0BAQEFAAOCAg8AMIICCgKCAgEAu/jPZIj4306a
MqxUlKfvRyxDHH51H/MSbGOM9ykxPvpesUYTAjlWDyFWzV24PFrLO3AEHREZsahy
/8sYbNYS1+bmMBAZx8ue0kuCBmJ5/9dbP5PljlD4aApNudAItsp+Dm26tpMgp6WG
0Z5qSg8j2jyc3j8Eaawd5WC/nIqWG1XmXwJN74dMnI+my7gPbiXP0hHX+gbRF36G
1iPdioayrWrYReXSBKzLK0pE5CLMmm3AbmXWqnT9IeesIDhWrxo8cqkG7792KLMG
70WZsaWnaBq+bJkjoPRNTQ42fnmrjJxnP9toYTpuOsvBuax4L2+PpCUw5/pwVGIb
IvPIahoPpBbBFjqOeTTQdX8fsaIk5v+NUM+Ir/6x7DprpdvksOMxU+ibEnJ1NEW4
SqOqhoFMDtHg197iwWSNverw4pN3z37Vx+nWEM4CsIMerfaNBFH1/xvU3tre8Gq8
cLdJ6UQ/ERp7hxMxQcsNPkTPM0fj66Nz4KFl0xIbNq1kij9ZafokdD7AJ9H/MxN5
0gYIj6tWK3aGENWQ2FwlaCaGt3hkLubSOKwToXpP+jNIT2rIqFp11pZMnXnlrQQu
K3DrjMpiJsDyJmuZHwSKSz8nrEggzf58H6wOEPWFzCDeiE9UsH2KT94qdMBbb0I5
N/c1SxLP//t3Rg32y3mCIjFqA/05KCcCAwEAAaOB3jCB2zAJBgNVHRMEAjAAMBEG
CWCGSAGG+EIBAQQEAwIGQDArBglghkgBhvhCAQ0EHhYcVGlueUNBIEdlbmVyYXRl
ZCBDZXJ0aWZpY2F0ZTAdBgNVHQ4EFgQUJoyl+aZK/kzoDwQzfgQmKL9MkvMwWQYD
VR0jBFIwUIAUnY+EdpTNB/6j6IvX+dlu78p1UXuhLaQrMCkxCzAJBgNVBAYTAkJF
MRowGAYDVQQDExF0eGpzb25ycGMtdGVzdC1jYYIJAI3Srzf5ypILMAkGA1UdEgQC
MAAwCQYDVR0RBAIwADANBgkqhkiG9w0BAQUFAAOCAgEASx1eBPIbt1Ew+It/qOf1
ncEm4DVnXEI1k7AHneTLeDw9lA0puEgqZ9ociufqRWL6eW6V3X9lURdmayepAnqY
lpwWflNIbje3E/s62RPuwsS/uuTX2/aLT/LVKGBJDZMCvkL4+TiYqMnTZF0EBQiJ
1UeZ7vd2Zbdu3p66fMvD+792Bj25L5jHw4B3rdhnG8GCNAhDDAr8WWBfHnmsZ/va
rOfuVD6yHAhU+OFJ9wANjaCkeDXwwBgPA8SsMG8dJfU5TasxYX72meKRugwZ73du
ZN55JWNtphPalC8VUiTq8PURqJCnxDjmF75PfdlBeHQ8N1MJzqhnwWHWjN4tmt95
gdZx5IvANmYdZIy87AvjG2utmFpYbqF4lJfV/8RKOE4zqf6ZIT7fydLBrwyQ4P/v
ZFOIWS1o11DyJ7FNX30N8KYmkgo10iqM8R+6JiXMNnJVH7F2mF9gl1RlK+rGcCFH
2bOYJd3C/rxCoEy9QyZq6h9qBc+VeO7451yYyRoS2c5YPSWweQ3Z7GIey/IxFDgW
btHLCZZq19LlHdNvEqsVal1taZRB4mZECmxcCAMbJeeyYq9Qrs/LPFdlq9dZDybA
68QSUgqjJEk8jOol7aSaCvSXc4o1GiqiD2lZczkQBeoE5IKAatODEZfrtHZIfN43
64YYu6wwS5dLC9WfGbuaKHc=
-----END CERTIFICATE-----
Certificate:
    Data:
        Version: 3 (0x2)
        Serial Number: 10219423159405941259 (0x8dd2af37f9ca920b)
    Signature Algorithm: sha1WithRSAEncryption
        Issuer: C=BE, CN=txjsonrpc-test-ca
        Validity
            Not Before: Jun 23 15:46:37 2012 GMT
            Not After : Jun 21 15:46:37 2022 GMT
        Subject: C=BE, CN=txjsonrpc-test-ca
        Subject Public Key Info:
            Public Key Algorithm: rsaEncryption
                Public-Key: (4096 bit)
                Modulus:
                    00:d1:25:af:77:c5:a8:72:cf:90:b9:39:10:fb:7b:
                    75:2c:a1:da:6a:95:e5:44:0c:d6:25:4b:58:7f:bb:
                    07:82:59:49:58:32:85:24:cc:3e:77:db:e1:a7:4f:
                    c8:b5:cb:ee:45:38:bd:bc:fb:e3:76:3b:88:04:ca:
                    ab:3a:a3:96:3b:5f:93:9c:28:a6:61:97:dc:a2:3f:
                    a0:93:2b:56:6c:cf:d3:4f:6a:9e:05:d3:1c:cd:ef:
                    75:80:1a:98:b7:92:49:14:33:b8:c4:7c:73:8c:7e:
                    83:a5:81:a2:59:8c:8b:a3:51:36:6d:68:ac:f2:f1:
                    ed:6f:49:d9:af:7a:63:c1:43:31:42:b6:c7:cd:b9:
                    78:b7:33:98:70:92:6c:9e:04:7a:7b:f0:6d:38:87:
                    eb:00:13:17:b9:d9:ec:b4:66:bb:51:d3:fd:81:e3:
                    0e:88:71:23:d2:80:2a:61:de:ab:25:02:47:a9:c1:
                    6b:c9:69:ae:da:47:b6:49:74:ac:a6:e1:c1:76:ba:
                    6d:b1:d9:68:6e:1c:37:a8:e2:18:60:37:b6:58:13:
                    6c:c7:92:7c:c6:45:8c:ef:c3:81:73:10:dc:2f:31:
                    e2:b9:05:5a:9e:28:70:5a:3e:1d:b8:68:71:81:c9:
                    e8:fe:1f:c3:a0:13:f8:e4:24:12:ba:91:8e:15:d2:
                    03:f1:8c:b0:aa:e2:34:e4:6b:f8:06:f6:23:8a:92:
                    43:a6:05:dc:e9:c7:a5:a8:06:d7:6e:91:52:72:47:
                    ab:ae:87:fe:b3:0f:04:87:6f:4b:22:29:e9:a9:06:
                    52:58:7d:03:16:d7:d5:31:44:b4:f1:51:44:a7:2a:
                    ba:5e:09:19:ec:4c:a2:e0:58:fe:0d:4e:b7:90:4d:
                    02:ac:2a:ad:99:14:65:3b:0a:3c:73:45:56:b2:0f:
                    10:25:24:51:79:57:1a:34:1a:10:6f:60:e0:fc:81:
                    db:ca:c2:e2:85:1b:4c:72:13:5c:9d:76:cc:d0:21:
                    33:31:56:82:8f:c5:57:b9:44:fd:8b:76:c1:b6:e4:
                    21:8b:35:9a:ee:54:74:9f:72:6b:19:84:d7:a2:3c:
                    a5:6e:11:0a:f1:93:04:2e:dd:7c:4c:7d:62:10:d4:
                    1b:8b:87:f6:ed:bf:12:b1:8b:f0:9a:7a:ee:02:94:
                    e1:3c:46:2b:7f:9c:54:fb:2e:61:c9:1c:ef:fc:de:
                    25:bc:2d:75:1b:1f:49:5e:44:3b:15:93:ad:c4:89:
                    d9:ae:3c:da:54:ef:d9:af:3a:16:cb:94:1b:6a:14:
                    e4:42:f9:75:33:46:6e:fb:40:bc:f8:82:36:cf:60:
                    f5:c2:a2:98:23:a7:2a:ae:c1:aa:22:f8:87:da:b7:
                    9c:a4:cf
                Exponent: 65537 (0x10001)
        X509v3 extensions:
            X509v3 Subject Key Identifier: 
                9D:8F:84:76:94:CD:07:FE:A3:E8:8B:D7:F9:D9:6E:EF:CA:75:51:7B
            X509v3 Authority Key Identifier: 
                keyid:9D:8F:84:76:94:CD:07:FE:A3:E8:8B:D7:F9:D9:6E:EF:CA:75:51:7B
                DirName:/C=BE/CN=txjsonrpc-test-ca
                serial:8D:D2:AF:37:F9:CA:92:0B

            X509v3 Basic Constraints: critical
                CA:TRUE
            Netscape Cert Type: 
                SSL CA, S/MIME CA
            X509v3 Issuer Alternative Name: 
                <EMPTY>

            Netscape Comment: 
                Test CA for txjsonrcp
            X509v3 Subject Alternative Name: 
                <EMPTY>

            X509v3 Key Usage: critical
                Certificate Sign, CRL Sign
    Signature Algorithm: sha1WithRSAEncryption
         06:82:86:81:a9:1b:7e:2d:ef:f5:fc:cc:d2:9d:d6:82:ad:d0:
         6f:7e:3d:b9:5c:b2:0f:3a:64:21:9a:fb:53:b2:93:81:dc:1a:
         24:fc:b8:30:57:a2:c7:71:0d:9c:1a:0b:8a:6c:89:52:8b:8a:
         f5:af:95:3e:b8:08:39:ee:36:50:ac:60:4d:df:2b:49:a2:72:
         f1:3f:12:3c:d9:55:56:a4:9a:77:2b:77:fa:16:b5:76:d9:f4:
         c4:51:6b:b9:fe:2f:a3:52:e8:64:80:49:22:6d:05:42:87:af:
         9d:85:6c:fa:c9:9b:48:39:7b:89:f5:a0:1e:ff:11:d3:9c:78:
         b1:b2:f6:4d:b1:e8:b3:98:23:2c:d4:20:e1:a1:01:3e:26:0a:
         5b:8e:eb:58:45:22:cf:e1:94:ad:84:40:b0:fb:ff:25:5f:31:
         9a:49:0b:36:ad:c6:1a:b0:42:60:40:e2:a2:3c:5a:36:41:89:
         fc:10:c4:60:ea:d4:85:7b:36:84:df:aa:81:cc:69:e7:52:ca:
         c1:46:b1:79:93:51:4f:24:84:42:14:3a:20:a0:6c:27:76:40:
         0f:96:7e:4e:c3:0c:37:b3:e3:73:49:86:58:31:00:1e:e7:0f:
         87:74:b6:4e:6e:1c:7d:87:a4:33:04:c9:76:ec:e5:3a:85:5f:
         a8:d1:ad:21:64:5e:c5:6a:df:b1:02:6e:65:a4:87:72:06:07:
         da:e5:f2:af:2b:a5:eb:18:80:67:83:a5:3c:e6:ed:d1:58:f9:
         90:5c:d6:e9:2f:76:c1:58:13:b8:bd:88:8a:f3:04:48:bb:42:
         8f:7f:c6:db:b4:30:3f:bb:6c:d5:47:e5:ae:8d:4b:da:92:a5:
         db:d3:6e:a8:9b:c2:6b:56:af:34:63:82:e6:78:f8:1f:54:d7:
         41:aa:a3:c9:7c:a6:83:41:bf:6e:33:7c:ae:e6:92:bd:da:27:
         b4:bc:e2:90:4f:33:1b:01:a1:cd:02:13:7a:31:ef:00:d6:9a:
         6e:38:6b:a7:cb:70:98:a8:0f:ff:1c:56:a8:b7:e6:d2:42:5a:
         bb:f4:78:27:71:13:d0:e8:43:eb:bc:2d:4f:e4:ea:4d:4f:76:
         7f:53:38:34:eb:13:e2:3d:c6:14:98:86:1c:ab:2c:0e:b7:68:
         2e:bd:63:a9:6a:8f:d5:22:2d:ab:13:d7:62:54:51:ff:5c:37:
         08:04:27:da:f9:57:77:05:18:73:88:5f:b0:c1:65:50:36:09:
         d6:c7:f5:ae:6e:3f:04:d1:84:3c:21:74:1d:bd:0a:fb:76:d0:
         13:2b:62:bb:24:48:43:89:d0:18:5c:b4:ad:ea:98:af:6d:fc:
         1c:6b:1f:06:64:54:23:88
-----BEGIN CERTIFICATE-----
MIIFwzCCA6ugAwIBAgIJAI3Srzf5ypILMA0GCSqGSIb3DQEBBQUAMCkxCzAJBgNV
BAYTAkJFMRowGAYDVQQDExF0eGpzb25ycGMtdGVzdC1jYTAeFw0xMjA2MjMxNTQ2
MzdaFw0yMjA2MjExNTQ2MzdaMCkxCzAJBgNVBAYTAkJFMRowGAYDVQQDExF0eGpz
b25ycGMtdGVzdC1jYTCCAiIwDQYJKoZIhvcNAQEBBQADggIPADCCAgoCggIBANEl
r3fFqHLPkLk5EPt7dSyh2mqV5UQM1iVLWH+7B4JZSVgyhSTMPnfb4adPyLXL7kU4
vbz743Y7iATKqzqjljtfk5wopmGX3KI/oJMrVmzP009qngXTHM3vdYAamLeSSRQz
uMR8c4x+g6WBolmMi6NRNm1orPLx7W9J2a96Y8FDMUK2x825eLczmHCSbJ4Eenvw
bTiH6wATF7nZ7LRmu1HT/YHjDohxI9KAKmHeqyUCR6nBa8lprtpHtkl0rKbhwXa6
bbHZaG4cN6jiGGA3tlgTbMeSfMZFjO/DgXMQ3C8x4rkFWp4ocFo+HbhocYHJ6P4f
w6AT+OQkErqRjhXSA/GMsKriNORr+Ab2I4qSQ6YF3OnHpagG126RUnJHq66H/rMP
BIdvSyIp6akGUlh9AxbX1TFEtPFRRKcqul4JGexMouBY/g1Ot5BNAqwqrZkUZTsK
PHNFVrIPECUkUXlXGjQaEG9g4PyB28rC4oUbTHITXJ12zNAhMzFWgo/FV7lE/Yt2
wbbkIYs1mu5UdJ9yaxmE16I8pW4RCvGTBC7dfEx9YhDUG4uH9u2/ErGL8Jp67gKU
4TxGK3+cVPsuYckc7/zeJbwtdRsfSV5EOxWTrcSJ2a482lTv2a86FsuUG2oU5EL5
dTNGbvtAvPiCNs9g9cKimCOnKq7BqiL4h9q3nKTPAgMBAAGjge0wgeowHQYDVR0O
BBYEFJ2PhHaUzQf+o+iL1/nZbu/KdVF7MFkGA1UdIwRSMFCAFJ2PhHaUzQf+o+iL
1/nZbu/KdVF7oS2kKzApMQswCQYDVQQGEwJCRTEaMBgGA1UEAxMRdHhqc29ucnBj
LXRlc3QtY2GCCQCN0q83+cqSCzAPBgNVHRMBAf8EBTADAQH/MBEGCWCGSAGG+EIB
AQQEAwIBBjAJBgNVHRIEAjAAMCQGCWCGSAGG+EIBDQQXFhVUZXN0IENBIGZvciB0
eGpzb25yY3AwCQYDVR0RBAIwADAOBgNVHQ8BAf8EBAMCAQYwDQYJKoZIhvcNAQEF
BQADggIBAAaChoGpG34t7/X8zNKd1oKt0G9+Pblcsg86ZCGa+1Oyk4HcGiT8uDBX
osdxDZwaC4psiVKLivWvlT64CDnuNlCsYE3fK0micvE/EjzZVVakmncrd/oWtXbZ
9MRRa7n+L6NS6GSASSJtBUKHr52FbPrJm0g5e4n1oB7/EdOceLGy9k2x6LOYIyzU
IOGhAT4mCluO61hFIs/hlK2EQLD7/yVfMZpJCzatxhqwQmBA4qI8WjZBifwQxGDq
1IV7NoTfqoHMaedSysFGsXmTUU8khEIUOiCgbCd2QA+Wfk7DDDez43NJhlgxAB7n
D4d0tk5uHH2HpDMEyXbs5TqFX6jRrSFkXsVq37ECbmWkh3IGB9rl8q8rpesYgGeD
pTzm7dFY+ZBc1ukvdsFYE7i9iIrzBEi7Qo9/xtu0MD+7bNVH5a6NS9qSpdvTbqib
wmtWrzRjguZ4+B9U10Gqo8l8poNBv24zfK7mkr3aJ7S84pBPMxsBoc0CE3ox7wDW
mm44a6fLcJioD/8cVqi35tJCWrv0eCdxE9DoQ+u8LU/k6k1Pdn9TODTrE+I9xhSY
hhyrLA63aC69Y6lqj9UiLasT12JUUf9cNwgEJ9r5V3cFGHOIX7DBZVA2CdbH9a5u
PwTRhDwhdB29Cvt20BMrYrskSEOJ0BhctK3qmK9t/BxrHwZkVCOI
-----END CERTIFICATE-----
