Certificate:
    Data:
        Version: 4 (0x3)
        Serial Number: 1 (0x1)
    Signature Algorithm: sha1WithRSAEncryption
        Issuer: C=BE, CN=txjsonrpc-test-ca
        Validity
            Not Before: Jan  1 00:00:00 1970 GMT
            Not After : Jan 19 03:14:07 2038 GMT
        Subject: CN=www.example.com, C=BE, O=Gremwell bvba
        Subject Public Key Info:
            Public Key Algorithm: rsaEncryption
                Public-Key: (1024 bit)
                Modulus:
                    00:fc:c7:11:63:4a:f6:b8:a2:9d:f7:c9:77:f2:17:
                    17:15:6b:ed:6d:19:54:95:cf:1e:4d:a8:87:35:13:
                    40:10:89:40:82:8b:1b:76:e2:11:ef:08:71:0e:de:
                    48:d3:a5:6d:6b:a7:65:b4:87:7b:58:f2:f4:51:af:
                    41:04:a6:9c:78:23:c3:ec:33:74:db:85:01:77:ec:
                    86:91:0e:e6:f9:4f:e6:59:54:57:34:d7:ed:06:f4:
                    f3:7a:82:76:3b:08:82:25:7e:4f:38:1e:62:6c:24:
                    a1:eb:53:56:b2:c4:a2:2a:03:ef:81:92:fb:4c:71:
                    b9:ca:d8:5c:51:7e:f2:6e:e1
                Exponent: 65537 (0x10001)
    Signature Algorithm: sha1WithRSAEncryption
         b0:b2:64:af:be:f5:1c:0b:e3:13:6f:72:64:4c:70:f6:6e:1f:
         47:0f:db:45:3b:44:f6:2c:6c:cb:62:84:5d:d5:1d:2f:d7:2a:
         c4:07:55:76:5c:80:20:4c:3b:ea:06:3f:3c:5e:b7:c5:08:fc:
         a4:8e:1e:b1:6e:f8:80:7b:b2:b7:4f:81:71:81:ad:86:57:da:
         ba:88:e1:4b:a9:c4:85:2d:73:05:2b:3b:ff:f2:74:9b:d6:9e:
         a0:79:85:9c:ae:6a:6a:d1:01:b2:7e:1e:8d:bd:9c:3a:6b:de:
         91:5f:4b:ad:7d:78:24:c9:f3:09:a6:9d:51:91:53:59:9a:91:
         f3:82:6c:dd:06:14:59:79:65:c6:ed:e2:d7:72:23:25:63:4a:
         bd:31:e0:3b:16:74:69:4d:80:5b:f1:da:ca:25:06:ea:f6:45:
         83:0c:60:c5:7c:a0:ec:d4:f3:1b:05:27:c6:ac:1c:0b:68:56:
         e2:be:3e:74:4d:65:25:3c:a8:44:5b:e7:fe:ca:6f:36:13:ff:
         ae:79:c7:dc:c8:40:6a:4a:48:5f:00:3f:b8:76:37:44:0c:01:
         ec:92:2f:e8:aa:14:31:96:fa:8c:9f:fb:ab:be:10:bf:65:6e:
         d4:72:0d:0c:5f:0f:52:52:7c:dd:8c:fe:2a:72:76:0b:30:65:
         b0:fa:78:c6:ac:ae:c2:1f:69:13:75:ea:b1:c1:6c:3e:b7:be:
         52:17:90:79:72:d2:81:38:c5:e7:da:41:4a:6b:e6:72:0c:e5:
         07:d0:68:47:32:0f:f9:17:60:63:fc:2c:e6:59:a2:f1:8b:75:
         c9:22:8d:d9:99:d6:8a:b5:15:18:71:ef:8b:4c:07:72:38:42:
         7d:24:91:54:a6:00:39:bd:14:f8:2d:71:b9:b0:e9:f1:1a:7d:
         d8:37:d7:c2:01:d8:0d:e0:9d:bf:c6:9f:9f:8f:ec:c0:39:b2:
         06:be:c8:e0:76:b1:b7:1c:02:52:9b:9e:b9:3d:13:ca:62:96:
         7f:93:4c:29:25:8b:61:c2:03:05:0f:15:eb:b8:c7:72:65:77:
         cc:61:3c:b5:8b:3e:a0:e3:6b:e5:2e:16:f8:cd:4c:7d:6a:9b:
         bf:47:10:89:d1:2e:9b:70:3b:c7:68:8d:81:44:41:49:ac:d6:
         5b:f3:00:7c:18:b0:5c:d5:06:8a:2f:3d:b5:11:e3:4f:94:0f:
         06:d8:0a:9d:b0:79:2d:66:5a:b1:13:c5:a3:02:82:5b:ab:8e:
         4f:7a:c9:47:18:40:91:ad:e1:95:f2:b8:40:fd:8f:67:a5:d5:
         f6:42:2b:a2:e6:91:97:b9:10:7a:59:00:c7:fe:05:b1:9f:20:
         b0:2e:74:2c:07:79:bb:dd
-----BEGIN CERTIFICATE-----
MIIDXTCCAUWgAwIBAwIBATANBgkqhkiG9w0BAQUFADApMQswCQYDVQQGEwJCRTEa
MBgGA1UEAxMRdHhqc29ucnBjLXRlc3QtY2EwHhcNNzAwMTAxMDAwMDAwWhcNMzgw
MTE5MDMxNDA3WjA/MRgwFgYDVQQDEw93d3cuZXhhbXBsZS5jb20xCzAJBgNVBAYT
AkJFMRYwFAYDVQQKEw1HcmVtd2VsbCBidmJhMIGfMA0GCSqGSIb3DQEBAQUAA4GN
ADCBiQKBgQD8xxFjSva4op33yXfyFxcVa+1tGVSVzx5NqIc1E0AQiUCCixt24hHv
CHEO3kjTpW1rp2W0h3tY8vRRr0EEppx4I8PsM3TbhQF37IaRDub5T+ZZVFc01+0G
9PN6gnY7CIIlfk84HmJsJKHrU1ayxKIqA++BkvtMcbnK2FxRfvJu4QIDAQABMA0G
CSqGSIb3DQEBBQUAA4ICAQCwsmSvvvUcC+MTb3JkTHD2bh9HD9tFO0T2LGzLYoRd
1R0v1yrEB1V2XIAgTDvqBj88XrfFCPykjh6xbviAe7K3T4Fxga2GV9q6iOFLqcSF
LXMFKzv/8nSb1p6geYWcrmpq0QGyfh6NvZw6a96RX0utfXgkyfMJpp1RkVNZmpHz
gmzdBhRZeWXG7eLXciMlY0q9MeA7FnRpTYBb8drKJQbq9kWDDGDFfKDs1PMbBSfG
rBwLaFbivj50TWUlPKhEW+f+ym82E/+uecfcyEBqSkhfAD+4djdEDAHski/oqhQx
lvqMn/urvhC/ZW7Ucg0MXw9SUnzdjP4qcnYLMGWw+njGrK7CH2kTdeqxwWw+t75S
F5B5ctKBOMXn2kFKa+ZyDOUH0GhHMg/5F2Bj/CzmWaLxi3XJIo3ZmdaKtRUYce+L
TAdyOEJ9JJFUpgA5vRT4LXG5sOnxGn3YN9fCAdgN4J2/xp+fj+zAObIGvsjgdrG3
HAJSm565PRPKYpZ/k0wpJYthwgMFDxXruMdyZXfMYTy1iz6g42vlLhb4zUx9apu/
RxCJ0S6bcDvHaI2BREFJrNZb8wB8GLBc1QaKLz21EeNPlA8G2AqdsHktZlqxE8Wj
AoJbq45PeslHGECRreGV8rhA/Y9npdX2Qiui5pGXuRB6WQDH/gWxnyCwLnQsB3m7
3Q==
-----END CERTIFICATE-----
Certificate:
    Data:
        Version: 3 (0x2)
        Serial Number: 10219423159405941259 (0x8dd2af37f9ca920b)
    Signature Algorithm: sha1WithRSAEncryption
        Issuer: C=BE, CN=txjsonrpc-test-ca
        Validity
            Not Before: Jun 23 15:46:37 2012 GMT
            Not After : Jun 21 15:46:37 2022 GMT
        Subject: C=BE, CN=txjsonrpc-test-ca
        Subject Public Key Info:
            Public Key Algorithm: rsaEncryption
                Public-Key: (4096 bit)
                Modulus:
                    00:d1:25:af:77:c5:a8:72:cf:90:b9:39:10:fb:7b:
                    75:2c:a1:da:6a:95:e5:44:0c:d6:25:4b:58:7f:bb:
                    07:82:59:49:58:32:85:24:cc:3e:77:db:e1:a7:4f:
                    c8:b5:cb:ee:45:38:bd:bc:fb:e3:76:3b:88:04:ca:
                    ab:3a:a3:96:3b:5f:93:9c:28:a6:61:97:dc:a2:3f:
                    a0:93:2b:56:6c:cf:d3:4f:6a:9e:05:d3:1c:cd:ef:
                    75:80:1a:98:b7:92:49:14:33:b8:c4:7c:73:8c:7e:
                    83:a5:81:a2:59:8c:8b:a3:51:36:6d:68:ac:f2:f1:
                    ed:6f:49:d9:af:7a:63:c1:43:31:42:b6:c7:cd:b9:
                    78:b7:33:98:70:92:6c:9e:04:7a:7b:f0:6d:38:87:
                    eb:00:13:17:b9:d9:ec:b4:66:bb:51:d3:fd:81:e3:
                    0e:88:71:23:d2:80:2a:61:de:ab:25:02:47:a9:c1:
                    6b:c9:69:ae:da:47:b6:49:74:ac:a6:e1:c1:76:ba:
                    6d:b1:d9:68:6e:1c:37:a8:e2:18:60:37:b6:58:13:
                    6c:c7:92:7c:c6:45:8c:ef:c3:81:73:10:dc:2f:31:
                    e2:b9:05:5a:9e:28:70:5a:3e:1d:b8:68:71:81:c9:
                    e8:fe:1f:c3:a0:13:f8:e4:24:12:ba:91:8e:15:d2:
                    03:f1:8c:b0:aa:e2:34:e4:6b:f8:06:f6:23:8a:92:
                    43:a6:05:dc:e9:c7:a5:a8:06:d7:6e:91:52:72:47:
                    ab:ae:87:fe:b3:0f:04:87:6f:4b:22:29:e9:a9:06:
                    52:58:7d:03:16:d7:d5:31:44:b4:f1:51:44:a7:2a:
                    ba:5e:09:19:ec:4c:a2:e0:58:fe:0d:4e:b7:90:4d:
                    02:ac:2a:ad:99:14:65:3b:0a:3c:73:45:56:b2:0f:
                    10:25:24:51:79:57:1a:34:1a:10:6f:60:e0:fc:81:
                    db:ca:c2:e2:85:1b:4c:72:13:5c:9d:76:cc:d0:21:
                    33:31:56:82:8f:c5:57:b9:44:fd:8b:76:c1:b6:e4:
                    21:8b:35:9a:ee:54:74:9f:72:6b:19:84:d7:a2:3c:
                    a5:6e:11:0a:f1:93:04:2e:dd:7c:4c:7d:62:10:d4:
                    1b:8b:87:f6:ed:bf:12:b1:8b:f0:9a:7a:ee:02:94:
                    e1:3c:46:2b:7f:9c:54:fb:2e:61:c9:1c:ef:fc:de:
                    25:bc:2d:75:1b:1f:49:5e:44:3b:15:93:ad:c4:89:
                    d9:ae:3c:da:54:ef:d9:af:3a:16:cb:94:1b:6a:14:
                    e4:42:f9:75:33:46:6e:fb:40:bc:f8:82:36:cf:60:
                    f5:c2:a2:98:23:a7:2a:ae:c1:aa:22:f8:87:da:b7:
                    9c:a4:cf
                Exponent: 65537 (0x10001)
        X509v3 extensions:
            X509v3 Subject Key Identifier: 
                9D:8F:84:76:94:CD:07:FE:A3:E8:8B:D7:F9:D9:6E:EF:CA:75:51:7B
            X509v3 Authority Key Identifier: 
                keyid:9D:8F:84:76:94:CD:07:FE:A3:E8:8B:D7:F9:D9:6E:EF:CA:75:51:7B
                DirName:/C=BE/CN=txjsonrpc-test-ca
                serial:8D:D2:AF:37:F9:CA:92:0B

            X509v3 Basic Constraints: critical
                CA:TRUE
            Netscape Cert Type: 
                SSL CA, S/MIME CA
            X509v3 Issuer Alternative Name: 
                <EMPTY>

            Netscape Comment: 
                Test CA for txjsonrcp
            X509v3 Subject Alternative Name: 
                <EMPTY>

            X509v3 Key Usage: critical
                Certificate Sign, CRL Sign
    Signature Algorithm: sha1WithRSAEncryption
         06:82:86:81:a9:1b:7e:2d:ef:f5:fc:cc:d2:9d:d6:82:ad:d0:
         6f:7e:3d:b9:5c:b2:0f:3a:64:21:9a:fb:53:b2:93:81:dc:1a:
         24:fc:b8:30:57:a2:c7:71:0d:9c:1a:0b:8a:6c:89:52:8b:8a:
         f5:af:95:3e:b8:08:39:ee:36:50:ac:60:4d:df:2b:49:a2:72:
         f1:3f:12:3c:d9:55:56:a4:9a:77:2b:77:fa:16:b5:76:d9:f4:
         c4:51:6b:b9:fe:2f:a3:52:e8:64:80:49:22:6d:05:42:87:af:
         9d:85:6c:fa:c9:9b:48:39:7b:89:f5:a0:1e:ff:11:d3:9c:78:
         b1:b2:f6:4d:b1:e8:b3:98:23:2c:d4:20:e1:a1:01:3e:26:0a:
         5b:8e:eb:58:45:22:cf:e1:94:ad:84:40:b0:fb:ff:25:5f:31:
         9a:49:0b:36:ad:c6:1a:b0:42:60:40:e2:a2:3c:5a:36:41:89:
         fc:10:c4:60:ea:d4:85:7b:36:84:df:aa:81:cc:69:e7:52:ca:
         c1:46:b1:79:93:51:4f:24:84:42:14:3a:20:a0:6c:27:76:40:
         0f:96:7e:4e:c3:0c:37:b3:e3:73:49:86:58:31:00:1e:e7:0f:
         87:74:b6:4e:6e:1c:7d:87:a4:33:04:c9:76:ec:e5:3a:85:5f:
         a8:d1:ad:21:64:5e:c5:6a:df:b1:02:6e:65:a4:87:72:06:07:
         da:e5:f2:af:2b:a5:eb:18:80:67:83:a5:3c:e6:ed:d1:58:f9:
         90:5c:d6:e9:2f:76:c1:58:13:b8:bd:88:8a:f3:04:48:bb:42:
         8f:7f:c6:db:b4:30:3f:bb:6c:d5:47:e5:ae:8d:4b:da:92:a5:
         db:d3:6e:a8:9b:c2:6b:56:af:34:63:82:e6:78:f8:1f:54:d7:
         41:aa:a3:c9:7c:a6:83:41:bf:6e:33:7c:ae:e6:92:bd:da:27:
         b4:bc:e2:90:4f:33:1b:01:a1:cd:02:13:7a:31:ef:00:d6:9a:
         6e:38:6b:a7:cb:70:98:a8:0f:ff:1c:56:a8:b7:e6:d2:42:5a:
         bb:f4:78:27:71:13:d0:e8:43:eb:bc:2d:4f:e4:ea:4d:4f:76:
         7f:53:38:34:eb:13:e2:3d:c6:14:98:86:1c:ab:2c:0e:b7:68:
         2e:bd:63:a9:6a:8f:d5:22:2d:ab:13:d7:62:54:51:ff:5c:37:
         08:04:27:da:f9:57:77:05:18:73:88:5f:b0:c1:65:50:36:09:
         d6:c7:f5:ae:6e:3f:04:d1:84:3c:21:74:1d:bd:0a:fb:76:d0:
         13:2b:62:bb:24:48:43:89:d0:18:5c:b4:ad:ea:98:af:6d:fc:
         1c:6b:1f:06:64:54:23:88
-----BEGIN CERTIFICATE-----
MIIFwzCCA6ugAwIBAgIJAI3Srzf5ypILMA0GCSqGSIb3DQEBBQUAMCkxCzAJBgNV
BAYTAkJFMRowGAYDVQQDExF0eGpzb25ycGMtdGVzdC1jYTAeFw0xMjA2MjMxNTQ2
MzdaFw0yMjA2MjExNTQ2MzdaMCkxCzAJBgNVBAYTAkJFMRowGAYDVQQDExF0eGpz
b25ycGMtdGVzdC1jYTCCAiIwDQYJKoZIhvcNAQEBBQADggIPADCCAgoCggIBANEl
r3fFqHLPkLk5EPt7dSyh2mqV5UQM1iVLWH+7B4JZSVgyhSTMPnfb4adPyLXL7kU4
vbz743Y7iATKqzqjljtfk5wopmGX3KI/oJMrVmzP009qngXTHM3vdYAamLeSSRQz
uMR8c4x+g6WBolmMi6NRNm1orPLx7W9J2a96Y8FDMUK2x825eLczmHCSbJ4Eenvw
bTiH6wATF7nZ7LRmu1HT/YHjDohxI9KAKmHeqyUCR6nBa8lprtpHtkl0rKbhwXa6
bbHZaG4cN6jiGGA3tlgTbMeSfMZFjO/DgXMQ3C8x4rkFWp4ocFo+HbhocYHJ6P4f
w6AT+OQkErqRjhXSA/GMsKriNORr+Ab2I4qSQ6YF3OnHpagG126RUnJHq66H/rMP
BIdvSyIp6akGUlh9AxbX1TFEtPFRRKcqul4JGexMouBY/g1Ot5BNAqwqrZkUZTsK
PHNFVrIPECUkUXlXGjQaEG9g4PyB28rC4oUbTHITXJ12zNAhMzFWgo/FV7lE/Yt2
wbbkIYs1mu5UdJ9yaxmE16I8pW4RCvGTBC7dfEx9YhDUG4uH9u2/ErGL8Jp67gKU
4TxGK3+cVPsuYckc7/zeJbwtdRsfSV5EOxWTrcSJ2a482lTv2a86FsuUG2oU5EL5
dTNGbvtAvPiCNs9g9cKimCOnKq7BqiL4h9q3nKTPAgMBAAGjge0wgeowHQYDVR0O
BBYEFJ2PhHaUzQf+o+iL1/nZbu/KdVF7MFkGA1UdIwRSMFCAFJ2PhHaUzQf+o+iL
1/nZbu/KdVF7oS2kKzApMQswCQYDVQQGEwJCRTEaMBgGA1UEAxMRdHhqc29ucnBj
LXRlc3QtY2GCCQCN0q83+cqSCzAPBgNVHRMBAf8EBTADAQH/MBEGCWCGSAGG+EIB
AQQEAwIBBjAJBgNVHRIEAjAAMCQGCWCGSAGG+EIBDQQXFhVUZXN0IENBIGZvciB0
eGpzb25yY3AwCQYDVR0RBAIwADAOBgNVHQ8BAf8EBAMCAQYwDQYJKoZIhvcNAQEF
BQADggIBAAaChoGpG34t7/X8zNKd1oKt0G9+Pblcsg86ZCGa+1Oyk4HcGiT8uDBX
osdxDZwaC4psiVKLivWvlT64CDnuNlCsYE3fK0micvE/EjzZVVakmncrd/oWtXbZ
9MRRa7n+L6NS6GSASSJtBUKHr52FbPrJm0g5e4n1oB7/EdOceLGy9k2x6LOYIyzU
IOGhAT4mCluO61hFIs/hlK2EQLD7/yVfMZpJCzatxhqwQmBA4qI8WjZBifwQxGDq
1IV7NoTfqoHMaedSysFGsXmTUU8khEIUOiCgbCd2QA+Wfk7DDDez43NJhlgxAB7n
D4d0tk5uHH2HpDMEyXbs5TqFX6jRrSFkXsVq37ECbmWkh3IGB9rl8q8rpesYgGeD
pTzm7dFY+ZBc1ukvdsFYE7i9iIrzBEi7Qo9/xtu0MD+7bNVH5a6NS9qSpdvTbqib
wmtWrzRjguZ4+B9U10Gqo8l8poNBv24zfK7mkr3aJ7S84pBPMxsBoc0CE3ox7wDW
mm44a6fLcJioD/8cVqi35tJCWrv0eCdxE9DoQ+u8LU/k6k1Pdn9TODTrE+I9xhSY
hhyrLA63aC69Y6lqj9UiLasT12JUUf9cNwgEJ9r5V3cFGHOIX7DBZVA2CdbH9a5u
PwTRhDwhdB29Cvt20BMrYrskSEOJ0BhctK3qmK9t/BxrHwZkVCOI
-----END CERTIFICATE-----
