Certificate:
    Data:
        Version: 4 (0x3)
        Serial Number: 1 (0x1)
    Signature Algorithm: sha1WithRSAEncryption
        Issuer: CN=ca-none, C=BE, O=Gremwell bvba
        Validity
            Not Before: Jan  1 00:00:00 1970 GMT
            Not After : Jan 19 03:14:07 2038 GMT
        Subject: CN=www.example.com, C=BE, O=Gremwell bvba
        Subject Public Key Info:
            Public Key Algorithm: rsaEncryption
                Public-Key: (1024 bit)
                Modulus:
                    00:fc:c7:11:63:4a:f6:b8:a2:9d:f7:c9:77:f2:17:
                    17:15:6b:ed:6d:19:54:95:cf:1e:4d:a8:87:35:13:
                    40:10:89:40:82:8b:1b:76:e2:11:ef:08:71:0e:de:
                    48:d3:a5:6d:6b:a7:65:b4:87:7b:58:f2:f4:51:af:
                    41:04:a6:9c:78:23:c3:ec:33:74:db:85:01:77:ec:
                    86:91:0e:e6:f9:4f:e6:59:54:57:34:d7:ed:06:f4:
                    f3:7a:82:76:3b:08:82:25:7e:4f:38:1e:62:6c:24:
                    a1:eb:53:56:b2:c4:a2:2a:03:ef:81:92:fb:4c:71:
                    b9:ca:d8:5c:51:7e:f2:6e:e1
                Exponent: 65537 (0x10001)
    Signature Algorithm: sha1WithRSAEncryption
         16:61:8f:b7:7a:9e:b3:db:e7:c7:9a:f6:d3:14:26:2d:72:f5:
         11:22:a1:30:d8:65:61:e3:db:8e:f7:6e:50:87:0a:0d:46:01:
         dc:c3:0b:db:65:e6:3c:4d:dc:50:ec:25:85:60:c1:3d:01:bd:
         8c:2d:16:64:8c:43:28:82:fb:4a:ee:eb:b0:3c:44:c3:e8:5f:
         cd:a5:a3:5e:78:1d:33:c1:1f:5f:10:2d:bf:b7:ad:8d:fc:e8:
         8a:67:e2:ce:dc:87:be:54:d4:39:32:26:9b:47:78:40:32:51:
         da:e4:64:22:7f:3f:fa:78:46:bd:b8:20:54:49:03:d8:ff:78:
         b3:5c
-----BEGIN CERTIFICATE-----
MIIB6jCCAVOgAwIBAwIBATANBgkqhkiG9w0BAQUFADA3MRAwDgYDVQQDEwdjYS1u
b25lMQswCQYDVQQGEwJCRTEWMBQGA1UEChMNR3JlbXdlbGwgYnZiYTAeFw03MDAx
MDEwMDAwMDBaFw0zODAxMTkwMzE0MDdaMD8xGDAWBgNVBAMTD3d3dy5leGFtcGxl
LmNvbTELMAkGA1UEBhMCQkUxFjAUBgNVBAoTDUdyZW13ZWxsIGJ2YmEwgZ8wDQYJ
KoZIhvcNAQEBBQADgY0AMIGJAoGBAPzHEWNK9riinffJd/IXFxVr7W0ZVJXPHk2o
hzUTQBCJQIKLG3biEe8IcQ7eSNOlbWunZbSHe1jy9FGvQQSmnHgjw+wzdNuFAXfs
hpEO5vlP5llUVzTX7Qb083qCdjsIgiV+TzgeYmwkoetTVrLEoioD74GS+0xxucrY
XFF+8m7hAgMBAAEwDQYJKoZIhvcNAQEFBQADgYEAFmGPt3qes9vnx5r20xQmLXL1
ESKhMNhlYePbjvduUIcKDUYB3MML22XmPE3cUOwlhWDBPQG9jC0WZIxDKIL7Su7r
sDxEw+hfzaWjXngdM8EfXxAtv7etjfzoimfiztyHvlTUOTImm0d4QDJR2uRkIn8/
+nhGvbggVEkD2P94s1w=
-----END CERTIFICATE-----
Certificate:
    Data:
        Version: 4 (0x3)
        Serial Number: 1 (0x1)
    Signature Algorithm: sha1WithRSAEncryption
        Issuer: C=BE, CN=txjsonrpc-test-ca
        Validity
            Not Before: Jan  1 00:00:00 1970 GMT
            Not After : Jan 19 03:14:07 2038 GMT
        Subject: CN=ca-none, C=BE, O=Gremwell bvba
        Subject Public Key Info:
            Public Key Algorithm: rsaEncryption
                Public-Key: (1024 bit)
                Modulus:
                    00:d3:67:15:9a:a6:f8:cb:f9:b1:25:9b:96:a9:5a:
                    28:c1:af:0f:46:eb:3a:25:78:76:01:c0:87:79:41:
                    4d:4c:dc:0a:8c:a4:cf:32:93:be:29:73:e7:09:4c:
                    e5:fc:cc:24:a7:35:fb:32:07:9c:5d:2f:63:15:23:
                    63:93:86:6e:28:aa:90:a4:4f:49:7a:52:c3:3e:ba:
                    4c:eb:e4:4d:b4:e0:99:73:61:e0:65:1d:12:47:bf:
                    03:20:80:66:0b:87:cf:8c:11:bc:84:75:f4:ef:55:
                    f5:51:a1:31:63:e9:10:60:e5:49:2c:9f:8c:88:2e:
                    4f:b3:d3:31:fe:ed:e4:64:d7
                Exponent: 65537 (0x10001)
    Signature Algorithm: sha1WithRSAEncryption
         08:0b:cf:85:e6:bf:d6:51:19:94:32:27:55:f4:8e:9e:62:26:
         d4:3e:3f:b2:f3:dc:9f:a7:0e:88:6a:0e:c7:06:f3:8f:77:df:
         b2:38:aa:d8:7b:89:ca:dd:02:a5:83:50:75:3c:d1:83:48:d1:
         ca:fa:24:17:3f:41:1b:59:be:c4:ae:1b:bf:9c:09:e5:ed:4b:
         5a:3f:65:dd:46:85:fd:8c:1e:f1:24:a3:06:60:d6:48:eb:d6:
         4f:52:c1:dc:20:9d:ba:4f:5d:f2:3f:21:d3:92:1a:4a:e1:80:
         ec:ea:82:0d:a9:d6:fd:53:f0:86:eb:5f:6a:c1:46:f4:4b:a0:
         22:1b:6c:7f:ca:d2:2c:9b:6b:68:63:63:66:b6:8f:d8:ae:07:
         5d:1b:32:cb:48:b4:6b:35:df:1e:ae:78:29:f2:c0:95:b7:9b:
         c7:c0:4c:26:7c:9e:37:5a:92:68:5a:10:c1:28:6b:64:5f:a4:
         8c:63:3d:2f:c5:c5:60:05:b6:fa:7e:d4:81:9f:b7:4f:e9:c5:
         fb:54:79:a2:a5:3b:c7:77:87:76:49:49:a4:09:c9:d4:86:5e:
         0a:de:e2:e7:b2:0b:7d:e0:08:59:b2:e6:32:7a:55:bc:1c:cf:
         2e:07:73:e6:f9:0e:b3:56:94:8f:af:44:01:be:8f:ba:36:ec:
         b6:3a:ac:6b:82:ac:8c:de:a2:7c:22:2d:71:ab:25:11:da:b1:
         47:78:33:e9:15:f7:5b:90:95:8e:e3:88:87:e4:77:9d:56:f2:
         4c:09:a2:c3:69:49:e0:d9:af:29:f5:a1:ad:05:7d:ba:6d:d3:
         09:ae:b2:66:5b:27:15:22:58:39:98:0b:54:bc:6c:70:95:8a:
         76:e6:d8:c7:c0:9b:8f:9a:0b:a8:c7:96:e5:bf:44:7a:2e:7d:
         00:ff:90:12:3f:53:fd:85:3a:d5:01:b9:fa:33:eb:1c:36:02:
         80:e1:f8:67:b7:df:9c:e9:17:76:ab:73:5f:58:7b:17:8e:ae:
         ed:2b:53:c3:3f:25:1d:32:61:bc:90:4e:dd:08:6e:06:42:1d:
         b9:c7:12:c2:9d:56:25:32:06:ff:7c:41:2f:dc:43:f7:c4:5e:
         64:df:9f:45:64:a0:fb:67:da:b8:4c:06:63:77:1d:70:13:01:
         4f:1e:9f:56:9c:db:71:fc:0a:d7:d7:51:2d:48:c0:03:3f:33:
         28:6a:f7:34:83:7b:fe:16:d6:14:d0:d2:1a:03:b6:b3:67:a1:
         b8:ff:72:2d:08:7f:58:9b:e4:8e:b7:ad:d3:80:32:53:5a:c8:
         b1:86:66:a1:83:ea:b6:a6:1c:e9:ae:ef:03:22:27:a6:a4:a5:
         20:13:c7:62:ac:50:eb:73
-----BEGIN CERTIFICATE-----
MIIDVTCCAT2gAwIBAwIBATANBgkqhkiG9w0BAQUFADApMQswCQYDVQQGEwJCRTEa
MBgGA1UEAxMRdHhqc29ucnBjLXRlc3QtY2EwHhcNNzAwMTAxMDAwMDAwWhcNMzgw
MTE5MDMxNDA3WjA3MRAwDgYDVQQDEwdjYS1ub25lMQswCQYDVQQGEwJCRTEWMBQG
A1UEChMNR3JlbXdlbGwgYnZiYTCBnzANBgkqhkiG9w0BAQEFAAOBjQAwgYkCgYEA
02cVmqb4y/mxJZuWqVoowa8PRus6JXh2AcCHeUFNTNwKjKTPMpO+KXPnCUzl/Mwk
pzX7MgecXS9jFSNjk4ZuKKqQpE9JelLDPrpM6+RNtOCZc2HgZR0SR78DIIBmC4fP
jBG8hHX071X1UaExY+kQYOVJLJ+MiC5Ps9Mx/u3kZNcCAwEAATANBgkqhkiG9w0B
AQUFAAOCAgEACAvPhea/1lEZlDInVfSOnmIm1D4/svPcn6cOiGoOxwbzj3ffsjiq
2HuJyt0CpYNQdTzRg0jRyvokFz9BG1m+xK4bv5wJ5e1LWj9l3UaF/Ywe8SSjBmDW
SOvWT1LB3CCduk9d8j8h05IaSuGA7OqCDanW/VPwhutfasFG9EugIhtsf8rSLJtr
aGNjZraP2K4HXRsyy0i0azXfHq54KfLAlbebx8BMJnyeN1qSaFoQwShrZF+kjGM9
L8XFYAW2+n7UgZ+3T+nF+1R5oqU7x3eHdklJpAnJ1IZeCt7i57ILfeAIWbLmMnpV
vBzPLgdz5vkOs1aUj69EAb6Pujbstjqsa4KsjN6ifCItcaslEdqxR3gz6RX3W5CV
juOIh+R3nVbyTAmiw2lJ4NmvKfWhrQV9um3TCa6yZlsnFSJYOZgLVLxscJWKdubY
x8Cbj5oLqMeW5b9Eei59AP+QEj9T/YU61QG5+jPrHDYCgOH4Z7ffnOkXdqtzX1h7
F46u7StTwz8lHTJhvJBO3QhuBkIduccSwp1WJTIG/3xBL9xD98ReZN+fRWSg+2fa
uEwGY3cdcBMBTx6fVpzbcfwK19dRLUjAAz8zKGr3NIN7/hbWFNDSGgO2s2ehuP9y
LQh/WJvkjret04AyU1rIsYZmoYPqtqYc6a7vAyInpqSlIBPHYqxQ63M=
-----END CERTIFICATE-----
