Certificate:
    Data:
        Version: 3 (0x2)
        Serial Number: 1 (0x1)
    Signature Algorithm: sha1WithRSAEncryption
        Issuer: CN=ca-false, C=BE, O=Gremwell bvba
        Validity
            Not Before: Jun 23 15:47:38 2012 GMT
            Not After : Jun 23 15:47:38 2013 GMT
        Subject: C=BE, CN=txjsonrpc-pyserver
        Subject Public Key Info:
            Public Key Algorithm: rsaEncryption
                Public-Key: (4096 bit)
                Modulus:
                    00:a8:5b:98:9c:6a:2c:15:63:ad:34:3c:7e:59:22:
                    ea:74:1c:17:65:3d:d0:d3:ce:99:41:8e:85:9f:06:
                    92:85:95:df:bc:26:52:69:d7:21:dd:f4:89:59:4b:
                    6c:1e:4e:42:c8:b3:b8:c9:81:54:75:c1:d4:8e:ca:
                    5b:96:3b:32:a8:86:81:93:1b:ab:09:bf:1d:0a:8d:
                    0a:c6:a2:23:54:47:55:a7:80:71:af:e2:8e:85:d4:
                    f3:46:6d:d1:74:cd:cf:ae:db:8a:6b:b7:df:a7:21:
                    b2:11:8c:7f:11:dd:da:ae:1e:24:9c:c7:12:c9:df:
                    da:15:79:9a:ff:26:b7:e1:47:5c:0f:92:56:b1:ff:
                    0f:48:45:b8:1f:41:5d:70:fd:39:7c:31:54:3e:ed:
                    1a:c4:18:c3:da:66:5b:ba:bc:61:c6:68:b3:4e:31:
                    26:79:f4:c7:7c:26:34:92:ed:f3:3b:a4:20:1f:2a:
                    2c:bc:ba:13:6b:85:fc:8b:cd:05:4d:86:a5:be:a6:
                    fc:d5:6b:cd:df:3e:91:4f:3e:f5:22:f5:b1:68:f6:
                    53:ff:3b:27:aa:32:3e:90:a6:e8:4d:99:1e:f2:23:
                    d0:ef:5e:5d:13:e1:26:02:5c:00:e0:39:3b:01:e2:
                    bf:b4:d5:c2:cf:16:e9:31:d5:bc:50:f0:ee:78:a7:
                    52:2b:99:12:be:b3:8f:cf:a6:d4:7e:dd:5c:f4:e7:
                    bf:ba:dc:55:6a:af:c4:71:20:bb:5d:82:d5:bc:ec:
                    8c:42:7c:f9:01:da:43:d6:66:9a:c3:9a:ef:19:e7:
                    65:cf:03:fa:bd:49:f3:f7:47:a2:3c:de:53:8d:34:
                    0e:df:ce:18:0f:24:cf:a8:39:b9:4f:96:40:03:29:
                    3f:8b:63:3b:f3:63:7d:f4:fd:92:ca:74:88:63:79:
                    7f:63:39:e4:e3:f2:43:6a:a7:cc:1e:e3:fe:50:c4:
                    bd:ee:ff:95:5d:dd:09:71:b3:95:5c:3e:2a:14:c0:
                    11:cf:f7:11:aa:b1:03:b8:45:29:8b:ac:a8:bf:e3:
                    b4:cf:72:9e:81:86:97:ce:aa:66:f3:90:c5:a1:0e:
                    1e:af:10:8a:df:cb:0c:a1:43:13:1c:fe:f5:60:58:
                    53:05:72:99:80:ed:98:81:30:dd:24:af:e0:47:d2:
                    4c:3e:c1:11:df:da:b1:0d:dd:b1:a7:47:59:7d:bb:
                    c9:18:c8:83:ee:25:1a:33:8e:2e:b2:00:3c:a4:da:
                    ff:96:e7:ad:bb:c7:06:2d:9d:43:57:b4:b7:c4:b6:
                    fb:a0:f3:5b:32:b6:d6:29:19:ee:77:2e:a3:0b:d3:
                    fe:7e:12:9a:ad:7e:84:f5:3d:2f:75:37:c9:a2:dd:
                    bb:20:2b
                Exponent: 65537 (0x10001)
        X509v3 extensions:
            X509v3 Basic Constraints: 
                CA:FALSE
            Netscape Cert Type: 
                SSL Server
            Netscape Comment: 
                TinyCA Generated Certificate
            X509v3 Subject Key Identifier: 
                26:8C:A5:F9:A6:4A:FE:4C:E8:0F:04:33:7E:04:26:28:BF:4C:92:F3
            X509v3 Authority Key Identifier: 
                keyid:9D:8F:84:76:94:CD:07:FE:A3:E8:8B:D7:F9:D9:6E:EF:CA:75:51:7B
                DirName:/C=BE/CN=txjsonrpc-test-ca
                serial:8D:D2:AF:37:F9:CA:92:0B

            X509v3 Issuer Alternative Name: 
                <EMPTY>

            X509v3 Subject Alternative Name: 
                <EMPTY>

    Signature Algorithm: sha1WithRSAEncryption
         81:88:ad:6b:4c:93:0f:ca:6c:73:45:1b:35:96:a1:fa:2d:ba:
         70:e6:b7:56:77:88:8f:ca:06:df:6e:50:41:38:ec:7e:19:e2:
         36:35:c1:a4:1e:ad:a6:5c:89:8e:d3:0f:06:72:3d:b1:a8:e8:
         8e:75:99:96:55:24:d0:c4:b2:6a:3f:a9:fc:85:b6:0d:1e:45:
         5e:71:63:c4:ab:20:34:3d:d4:39:d1:eb:b8:f1:55:5e:7c:f5:
         3b:c1:49:65:52:9c:3c:86:80:37:5b:14:47:da:0b:e3:0b:08:
         24:33:37:d5:08:cb:ff:72:4a:85:d9:d2:4c:ad:57:8a:16:46:
         54:e2
-----BEGIN CERTIFICATE-----
MIIEOzCCA6SgAwIBAgIBATANBgkqhkiG9w0BAQUFADA4MREwDwYDVQQDEwhjYS1m
YWxzZTELMAkGA1UEBhMCQkUxFjAUBgNVBAoTDUdyZW13ZWxsIGJ2YmEwHhcNMTIw
NjIzMTU0NzM4WhcNMTMwNjIzMTU0NzM4WjAqMQswCQYDVQQGEwJCRTEbMBkGA1UE
AxMSdHhqc29ucnBjLXB5c2VydmVyMIICIjANBgkqhkiG9w0BAQEFAAOCAg8AMIIC
CgKCAgEAqFuYnGosFWOtNDx+WSLqdBwXZT3Q086ZQY6FnwaShZXfvCZSadch3fSJ
WUtsHk5CyLO4yYFUdcHUjspbljsyqIaBkxurCb8dCo0KxqIjVEdVp4Bxr+KOhdTz
Rm3RdM3PrtuKa7ffpyGyEYx/Ed3arh4knMcSyd/aFXma/ya34UdcD5JWsf8PSEW4
H0FdcP05fDFUPu0axBjD2mZburxhxmizTjEmefTHfCY0ku3zO6QgHyosvLoTa4X8
i80FTYalvqb81WvN3z6RTz71IvWxaPZT/zsnqjI+kKboTZke8iPQ715dE+EmAlwA
4Dk7AeK/tNXCzxbpMdW8UPDueKdSK5kSvrOPz6bUft1c9Oe/utxVaq/EcSC7XYLV
vOyMQnz5AdpD1maaw5rvGedlzwP6vUnz90eiPN5TjTQO384YDyTPqDm5T5ZAAyk/
i2M782N99P2SynSIY3l/Yznk4/JDaqfMHuP+UMS97v+VXd0JcbOVXD4qFMARz/cR
qrEDuEUpi6yov+O0z3KegYaXzqpm85DFoQ4erxCK38sMoUMTHP71YFhTBXKZgO2Y
gTDdJK/gR9JMPsER39qxDd2xp0dZfbvJGMiD7iUaM44usgA8pNr/luetu8cGLZ1D
V7S3xLb7oPNbMrbWKRnudy6jC9P+fhKarX6E9T0vdTfJot27ICsCAwEAAaOB3jCB
2zAJBgNVHRMEAjAAMBEGCWCGSAGG+EIBAQQEAwIGQDArBglghkgBhvhCAQ0EHhYc
VGlueUNBIEdlbmVyYXRlZCBDZXJ0aWZpY2F0ZTAdBgNVHQ4EFgQUJoyl+aZK/kzo
DwQzfgQmKL9MkvMwWQYDVR0jBFIwUIAUnY+EdpTNB/6j6IvX+dlu78p1UXuhLaQr
MCkxCzAJBgNVBAYTAkJFMRowGAYDVQQDExF0eGpzb25ycGMtdGVzdC1jYYIJAI3S
rzf5ypILMAkGA1UdEgQCMAAwCQYDVR0RBAIwADANBgkqhkiG9w0BAQUFAAOBgQCB
iK1rTJMPymxzRRs1lqH6Lbpw5rdWd4iPygbfblBBOOx+GeI2NcGkHq2mXImO0w8G
cj2xqOiOdZmWVSTQxLJqP6n8hbYNHkVecWPEqyA0PdQ50eu48VVefPU7wUllUpw8
hoA3WxRH2gvjCwgkMzfVCMv/ckqF2dJMrVeKFkZU4g==
-----END CERTIFICATE-----
Certificate:
    Data:
        Version: 4 (0x3)
        Serial Number: 1 (0x1)
    Signature Algorithm: sha1WithRSAEncryption
        Issuer: C=BE, CN=txjsonrpc-test-ca
        Validity
            Not Before: Jan  1 00:00:00 1970 GMT
            Not After : Jan 19 03:14:07 2038 GMT
        Subject: CN=ca-false, C=BE, O=Gremwell bvba
        Subject Public Key Info:
            Public Key Algorithm: rsaEncryption
                Public-Key: (1024 bit)
                Modulus:
                    00:bf:62:38:a5:05:25:ff:fa:61:7f:71:ad:39:0b:
                    c4:52:b2:9f:af:14:55:19:81:6d:3c:6d:5e:23:b5:
                    11:ea:c5:99:f0:44:58:af:15:ea:a1:8b:e5:a8:7b:
                    ec:7c:37:7e:9e:88:9c:da:da:28:6b:5f:ae:d2:3d:
                    44:54:3d:57:21:9f:71:32:2c:d6:ad:66:59:34:2c:
                    32:8f:f0:86:dd:13:58:07:7a:18:8f:96:36:8b:25:
                    86:ee:a0:2e:d5:ad:13:c0:a0:ee:9c:4e:33:b5:9d:
                    37:fb:d1:40:39:bc:b5:2c:d8:29:79:bc:a6:34:52:
                    57:34:b9:33:f3:d9:70:86:99
                Exponent: 65537 (0x10001)
        X509v3 extensions:
            X509v3 Basic Constraints: critical
                CA:FALSE
    Signature Algorithm: sha1WithRSAEncryption
         3a:7f:eb:2f:3f:a6:b9:e1:3e:e5:68:06:6e:69:33:48:6d:60:
         83:a6:aa:06:d5:42:28:58:3f:a4:e4:80:42:e5:99:c9:b8:38:
         fc:0b:2a:bb:07:19:cf:e5:41:20:e4:94:98:33:e2:06:b1:53:
         dd:4c:56:eb:ea:99:20:15:cd:6c:c9:85:72:31:f8:6d:b5:a2:
         fd:3c:cf:ce:48:be:57:1c:0d:95:2c:6c:35:b1:fd:f8:ce:a1:
         8e:ad:85:69:9a:78:f1:58:b5:eb:d7:5a:2a:ee:be:16:3b:7b:
         49:9a:bf:1e:2b:28:f8:b2:26:4a:fe:61:1a:2c:4b:e6:b1:6f:
         22:98:59:77:a4:c2:26:b2:ec:64:ee:85:65:b3:42:00:4e:f7:
         b2:06:07:96:84:86:d5:2e:32:00:29:31:19:f1:a1:b8:66:e2:
         39:00:d6:fb:40:67:a5:53:4a:74:5d:23:4f:91:ce:73:43:80:
         82:f3:59:1d:e2:cc:44:29:05:5b:6b:fa:6f:92:c6:46:a7:53:
         27:7c:cd:c9:f7:36:80:74:c1:d2:a3:80:d1:01:ae:21:93:36:
         fb:80:82:ed:48:07:d7:0d:79:f8:6f:6d:41:b7:a9:fe:a6:e4:
         1f:81:4c:2e:e4:95:58:31:6e:72:50:0a:da:e3:e6:28:36:a5:
         08:ca:36:62:b0:75:fc:a5:d1:a4:ed:92:b6:9c:c9:65:2d:c1:
         c1:f9:16:80:44:40:42:81:ed:a0:a3:30:d7:e5:98:0f:ab:55:
         32:a6:f5:37:81:34:80:20:c1:d9:04:95:ca:a4:43:4c:2a:ac:
         50:78:b0:a6:1f:21:a4:f2:45:4d:05:94:c4:b4:fc:73:5a:aa:
         a1:48:97:4e:bc:6e:97:03:86:12:50:05:28:8b:05:89:58:bc:
         3c:e6:53:60:fa:6c:a5:99:54:c2:39:71:63:27:bc:17:03:61:
         ea:47:f9:20:aa:b8:71:8f:bd:af:a8:af:30:da:0d:09:fc:77:
         c4:0e:36:43:e1:10:57:f2:95:b4:da:2c:62:d9:6c:95:55:c9:
         65:22:a4:1e:48:eb:64:4b:34:c7:16:96:7a:25:3f:1c:ab:45:
         e0:4c:00:71:08:ad:19:7c:b8:df:53:6a:84:27:f8:e9:e1:75:
         64:d3:50:88:9a:58:74:d8:5b:f9:2b:b4:99:b7:5d:c0:05:63:
         60:19:fe:b7:e6:86:f0:6c:dc:c0:cd:dc:5a:28:28:30:a2:dd:
         a5:9b:bc:c1:22:b4:9c:c0:90:36:02:f1:fc:50:0a:90:4e:8a:
         51:f4:57:f6:04:5d:b9:b8:41:23:00:16:9f:fb:b8:b7:23:19:
         fa:82:a0:43:4c:a7:6a:de
-----BEGIN CERTIFICATE-----
MIIDaDCCAVCgAwIBAwIBATANBgkqhkiG9w0BAQUFADApMQswCQYDVQQGEwJCRTEa
MBgGA1UEAxMRdHhqc29ucnBjLXRlc3QtY2EwHhcNNzAwMTAxMDAwMDAwWhcNMzgw
MTE5MDMxNDA3WjA4MREwDwYDVQQDEwhjYS1mYWxzZTELMAkGA1UEBhMCQkUxFjAU
BgNVBAoTDUdyZW13ZWxsIGJ2YmEwgZ8wDQYJKoZIhvcNAQEBBQADgY0AMIGJAoGB
AL9iOKUFJf/6YX9xrTkLxFKyn68UVRmBbTxtXiO1EerFmfBEWK8V6qGL5ah77Hw3
fp6InNraKGtfrtI9RFQ9VyGfcTIs1q1mWTQsMo/wht0TWAd6GI+WNoslhu6gLtWt
E8Cg7pxOM7WdN/vRQDm8tSzYKXm8pjRSVzS5M/PZcIaZAgMBAAGjEDAOMAwGA1Ud
EwEB/wQCMAAwDQYJKoZIhvcNAQEFBQADggIBADp/6y8/prnhPuVoBm5pM0htYIOm
qgbVQihYP6TkgELlmcm4OPwLKrsHGc/lQSDklJgz4gaxU91MVuvqmSAVzWzJhXIx
+G21ov08z85IvlccDZUsbDWx/fjOoY6thWmaePFYtevXWiruvhY7e0mavx4rKPiy
Jkr+YRosS+axbyKYWXekwiay7GTuhWWzQgBO97IGB5aEhtUuMgApMRnxobhm4jkA
1vtAZ6VTSnRdI0+RznNDgILzWR3izEQpBVtr+m+SxkanUyd8zcn3NoB0wdKjgNEB
riGTNvuAgu1IB9cNefhvbUG3qf6m5B+BTC7klVgxbnJQCtrj5ig2pQjKNmKwdfyl
0aTtkracyWUtwcH5FoBEQEKB7aCjMNflmA+rVTKm9TeBNIAgwdkElcqkQ0wqrFB4
sKYfIaTyRU0FlMS0/HNaqqFIl068bpcDhhJQBSiLBYlYvDzmU2D6bKWZVMI5cWMn
vBcDYepH+SCquHGPva+orzDaDQn8d8QONkPhEFfylbTaLGLZbJVVyWUipB5I62RL
NMcWlnolPxyrReBMAHEIrRl8uN9TaoQn+OnhdWTTUIiaWHTYW/krtJm3XcAFY2AZ
/rfmhvBs3MDN3FooKDCi3aWbvMEitJzAkDYC8fxQCpBOilH0V/YEXbm4QSMAFp/7
uLcjGfqCoENMp2re
-----END CERTIFICATE-----
