Certificate:
    Data:
        Version: 4 (0x3)
        Serial Number: 1 (0x1)
    Signature Algorithm: sha1WithRSAEncryption
        Issuer: C=BE, CN=txjsonrpc-test-ca
        Validity
            Not Before: Jan  1 00:00:00 1970 GMT
            Not After : Jan 19 03:14:07 2038 GMT
        Subject: CN=ca-none, C=BE, O=Gremwell bvba
        Subject Public Key Info:
            Public Key Algorithm: rsaEncryption
                Public-Key: (1024 bit)
                Modulus:
                    00:d3:67:15:9a:a6:f8:cb:f9:b1:25:9b:96:a9:5a:
                    28:c1:af:0f:46:eb:3a:25:78:76:01:c0:87:79:41:
                    4d:4c:dc:0a:8c:a4:cf:32:93:be:29:73:e7:09:4c:
                    e5:fc:cc:24:a7:35:fb:32:07:9c:5d:2f:63:15:23:
                    63:93:86:6e:28:aa:90:a4:4f:49:7a:52:c3:3e:ba:
                    4c:eb:e4:4d:b4:e0:99:73:61:e0:65:1d:12:47:bf:
                    03:20:80:66:0b:87:cf:8c:11:bc:84:75:f4:ef:55:
                    f5:51:a1:31:63:e9:10:60:e5:49:2c:9f:8c:88:2e:
                    4f:b3:d3:31:fe:ed:e4:64:d7
                Exponent: 65537 (0x10001)
    Signature Algorithm: sha1WithRSAEncryption
         08:0b:cf:85:e6:bf:d6:51:19:94:32:27:55:f4:8e:9e:62:26:
         d4:3e:3f:b2:f3:dc:9f:a7:0e:88:6a:0e:c7:06:f3:8f:77:df:
         b2:38:aa:d8:7b:89:ca:dd:02:a5:83:50:75:3c:d1:83:48:d1:
         ca:fa:24:17:3f:41:1b:59:be:c4:ae:1b:bf:9c:09:e5:ed:4b:
         5a:3f:65:dd:46:85:fd:8c:1e:f1:24:a3:06:60:d6:48:eb:d6:
         4f:52:c1:dc:20:9d:ba:4f:5d:f2:3f:21:d3:92:1a:4a:e1:80:
         ec:ea:82:0d:a9:d6:fd:53:f0:86:eb:5f:6a:c1:46:f4:4b:a0:
         22:1b:6c:7f:ca:d2:2c:9b:6b:68:63:63:66:b6:8f:d8:ae:07:
         5d:1b:32:cb:48:b4:6b:35:df:1e:ae:78:29:f2:c0:95:b7:9b:
         c7:c0:4c:26:7c:9e:37:5a:92:68:5a:10:c1:28:6b:64:5f:a4:
         8c:63:3d:2f:c5:c5:60:05:b6:fa:7e:d4:81:9f:b7:4f:e9:c5:
         fb:54:79:a2:a5:3b:c7:77:87:76:49:49:a4:09:c9:d4:86:5e:
         0a:de:e2:e7:b2:0b:7d:e0:08:59:b2:e6:32:7a:55:bc:1c:cf:
         2e:07:73:e6:f9:0e:b3:56:94:8f:af:44:01:be:8f:ba:36:ec:
         b6:3a:ac:6b:82:ac:8c:de:a2:7c:22:2d:71:ab:25:11:da:b1:
         47:78:33:e9:15:f7:5b:90:95:8e:e3:88:87:e4:77:9d:56:f2:
         4c:09:a2:c3:69:49:e0:d9:af:29:f5:a1:ad:05:7d:ba:6d:d3:
         09:ae:b2:66:5b:27:15:22:58:39:98:0b:54:bc:6c:70:95:8a:
         76:e6:d8:c7:c0:9b:8f:9a:0b:a8:c7:96:e5:bf:44:7a:2e:7d:
         00:ff:90:12:3f:53:fd:85:3a:d5:01:b9:fa:33:eb:1c:36:02:
         80:e1:f8:67:b7:df:9c:e9:17:76:ab:73:5f:58:7b:17:8e:ae:
         ed:2b:53:c3:3f:25:1d:32:61:bc:90:4e:dd:08:6e:06:42:1d:
         b9:c7:12:c2:9d:56:25:32:06:ff:7c:41:2f:dc:43:f7:c4:5e:
         64:df:9f:45:64:a0:fb:67:da:b8:4c:06:63:77:1d:70:13:01:
         4f:1e:9f:56:9c:db:71:fc:0a:d7:d7:51:2d:48:c0:03:3f:33:
         28:6a:f7:34:83:7b:fe:16:d6:14:d0:d2:1a:03:b6:b3:67:a1:
         b8:ff:72:2d:08:7f:58:9b:e4:8e:b7:ad:d3:80:32:53:5a:c8:
         b1:86:66:a1:83:ea:b6:a6:1c:e9:ae:ef:03:22:27:a6:a4:a5:
         20:13:c7:62:ac:50:eb:73
-----BEGIN CERTIFICATE-----
MIIDVTCCAT2gAwIBAwIBATANBgkqhkiG9w0BAQUFADApMQswCQYDVQQGEwJCRTEa
MBgGA1UEAxMRdHhqc29ucnBjLXRlc3QtY2EwHhcNNzAwMTAxMDAwMDAwWhcNMzgw
MTE5MDMxNDA3WjA3MRAwDgYDVQQDEwdjYS1ub25lMQswCQYDVQQGEwJCRTEWMBQG
A1UEChMNR3JlbXdlbGwgYnZiYTCBnzANBgkqhkiG9w0BAQEFAAOBjQAwgYkCgYEA
02cVmqb4y/mxJZuWqVoowa8PRus6JXh2AcCHeUFNTNwKjKTPMpO+KXPnCUzl/Mwk
pzX7MgecXS9jFSNjk4ZuKKqQpE9JelLDPrpM6+RNtOCZc2HgZR0SR78DIIBmC4fP
jBG8hHX071X1UaExY+kQYOVJLJ+MiC5Ps9Mx/u3kZNcCAwEAATANBgkqhkiG9w0B
AQUFAAOCAgEACAvPhea/1lEZlDInVfSOnmIm1D4/svPcn6cOiGoOxwbzj3ffsjiq
2HuJyt0CpYNQdTzRg0jRyvokFz9BG1m+xK4bv5wJ5e1LWj9l3UaF/Ywe8SSjBmDW
SOvWT1LB3CCduk9d8j8h05IaSuGA7OqCDanW/VPwhutfasFG9EugIhtsf8rSLJtr
aGNjZraP2K4HXRsyy0i0azXfHq54KfLAlbebx8BMJnyeN1qSaFoQwShrZF+kjGM9
L8XFYAW2+n7UgZ+3T+nF+1R5oqU7x3eHdklJpAnJ1IZeCt7i57ILfeAIWbLmMnpV
vBzPLgdz5vkOs1aUj69EAb6Pujbstjqsa4KsjN6ifCItcaslEdqxR3gz6RX3W5CV
juOIh+R3nVbyTAmiw2lJ4NmvKfWhrQV9um3TCa6yZlsnFSJYOZgLVLxscJWKdubY
x8Cbj5oLqMeW5b9Eei59AP+QEj9T/YU61QG5+jPrHDYCgOH4Z7ffnOkXdqtzX1h7
F46u7StTwz8lHTJhvJBO3QhuBkIduccSwp1WJTIG/3xBL9xD98ReZN+fRWSg+2fa
uEwGY3cdcBMBTx6fVpzbcfwK19dRLUjAAz8zKGr3NIN7/hbWFNDSGgO2s2ehuP9y
LQh/WJvkjret04AyU1rIsYZmoYPqtqYc6a7vAyInpqSlIBPHYqxQ63M=
-----END CERTIFICATE-----
Certificate:
    Data:
        Version: 3 (0x2)
        Serial Number: 10219423159405941259 (0x8dd2af37f9ca920b)
    Signature Algorithm: sha1WithRSAEncryption
        Issuer: C=BE, CN=txjsonrpc-test-ca
        Validity
            Not Before: Jun 23 15:46:37 2012 GMT
            Not After : Jun 21 15:46:37 2022 GMT
        Subject: C=BE, CN=txjsonrpc-test-ca
        Subject Public Key Info:
            Public Key Algorithm: rsaEncryption
                Public-Key: (4096 bit)
                Modulus:
                    00:d1:25:af:77:c5:a8:72:cf:90:b9:39:10:fb:7b:
                    75:2c:a1:da:6a:95:e5:44:0c:d6:25:4b:58:7f:bb:
                    07:82:59:49:58:32:85:24:cc:3e:77:db:e1:a7:4f:
                    c8:b5:cb:ee:45:38:bd:bc:fb:e3:76:3b:88:04:ca:
                    ab:3a:a3:96:3b:5f:93:9c:28:a6:61:97:dc:a2:3f:
                    a0:93:2b:56:6c:cf:d3:4f:6a:9e:05:d3:1c:cd:ef:
                    75:80:1a:98:b7:92:49:14:33:b8:c4:7c:73:8c:7e:
                    83:a5:81:a2:59:8c:8b:a3:51:36:6d:68:ac:f2:f1:
                    ed:6f:49:d9:af:7a:63:c1:43:31:42:b6:c7:cd:b9:
                    78:b7:33:98:70:92:6c:9e:04:7a:7b:f0:6d:38:87:
                    eb:00:13:17:b9:d9:ec:b4:66:bb:51:d3:fd:81:e3:
                    0e:88:71:23:d2:80:2a:61:de:ab:25:02:47:a9:c1:
                    6b:c9:69:ae:da:47:b6:49:74:ac:a6:e1:c1:76:ba:
                    6d:b1:d9:68:6e:1c:37:a8:e2:18:60:37:b6:58:13:
                    6c:c7:92:7c:c6:45:8c:ef:c3:81:73:10:dc:2f:31:
                    e2:b9:05:5a:9e:28:70:5a:3e:1d:b8:68:71:81:c9:
                    e8:fe:1f:c3:a0:13:f8:e4:24:12:ba:91:8e:15:d2:
                    03:f1:8c:b0:aa:e2:34:e4:6b:f8:06:f6:23:8a:92:
                    43:a6:05:dc:e9:c7:a5:a8:06:d7:6e:91:52:72:47:
                    ab:ae:87:fe:b3:0f:04:87:6f:4b:22:29:e9:a9:06:
                    52:58:7d:03:16:d7:d5:31:44:b4:f1:51:44:a7:2a:
                    ba:5e:09:19:ec:4c:a2:e0:58:fe:0d:4e:b7:90:4d:
                    02:ac:2a:ad:99:14:65:3b:0a:3c:73:45:56:b2:0f:
                    10:25:24:51:79:57:1a:34:1a:10:6f:60:e0:fc:81:
                    db:ca:c2:e2:85:1b:4c:72:13:5c:9d:76:cc:d0:21:
                    33:31:56:82:8f:c5:57:b9:44:fd:8b:76:c1:b6:e4:
                    21:8b:35:9a:ee:54:74:9f:72:6b:19:84:d7:a2:3c:
                    a5:6e:11:0a:f1:93:04:2e:dd:7c:4c:7d:62:10:d4:
                    1b:8b:87:f6:ed:bf:12:b1:8b:f0:9a:7a:ee:02:94:
                    e1:3c:46:2b:7f:9c:54:fb:2e:61:c9:1c:ef:fc:de:
                    25:bc:2d:75:1b:1f:49:5e:44:3b:15:93:ad:c4:89:
                    d9:ae:3c:da:54:ef:d9:af:3a:16:cb:94:1b:6a:14:
                    e4:42:f9:75:33:46:6e:fb:40:bc:f8:82:36:cf:60:
                    f5:c2:a2:98:23:a7:2a:ae:c1:aa:22:f8:87:da:b7:
                    9c:a4:cf
                Exponent: 65537 (0x10001)
        X509v3 extensions:
            X509v3 Subject Key Identifier: 
                9D:8F:84:76:94:CD:07:FE:A3:E8:8B:D7:F9:D9:6E:EF:CA:75:51:7B
            X509v3 Authority Key Identifier: 
                keyid:9D:8F:84:76:94:CD:07:FE:A3:E8:8B:D7:F9:D9:6E:EF:CA:75:51:7B
                DirName:/C=BE/CN=txjsonrpc-test-ca
                serial:8D:D2:AF:37:F9:CA:92:0B

            X509v3 Basic Constraints: critical
                CA:TRUE
            Netscape Cert Type: 
                SSL CA, S/MIME CA
            X509v3 Issuer Alternative Name: 
                <EMPTY>

            Netscape Comment: 
                Test CA for txjsonrcp
            X509v3 Subject Alternative Name: 
                <EMPTY>

            X509v3 Key Usage: critical
                Certificate Sign, CRL Sign
    Signature Algorithm: sha1WithRSAEncryption
         06:82:86:81:a9:1b:7e:2d:ef:f5:fc:cc:d2:9d:d6:82:ad:d0:
         6f:7e:3d:b9:5c:b2:0f:3a:64:21:9a:fb:53:b2:93:81:dc:1a:
         24:fc:b8:30:57:a2:c7:71:0d:9c:1a:0b:8a:6c:89:52:8b:8a:
         f5:af:95:3e:b8:08:39:ee:36:50:ac:60:4d:df:2b:49:a2:72:
         f1:3f:12:3c:d9:55:56:a4:9a:77:2b:77:fa:16:b5:76:d9:f4:
         c4:51:6b:b9:fe:2f:a3:52:e8:64:80:49:22:6d:05:42:87:af:
         9d:85:6c:fa:c9:9b:48:39:7b:89:f5:a0:1e:ff:11:d3:9c:78:
         b1:b2:f6:4d:b1:e8:b3:98:23:2c:d4:20:e1:a1:01:3e:26:0a:
         5b:8e:eb:58:45:22:cf:e1:94:ad:84:40:b0:fb:ff:25:5f:31:
         9a:49:0b:36:ad:c6:1a:b0:42:60:40:e2:a2:3c:5a:36:41:89:
         fc:10:c4:60:ea:d4:85:7b:36:84:df:aa:81:cc:69:e7:52:ca:
         c1:46:b1:79:93:51:4f:24:84:42:14:3a:20:a0:6c:27:76:40:
         0f:96:7e:4e:c3:0c:37:b3:e3:73:49:86:58:31:00:1e:e7:0f:
         87:74:b6:4e:6e:1c:7d:87:a4:33:04:c9:76:ec:e5:3a:85:5f:
         a8:d1:ad:21:64:5e:c5:6a:df:b1:02:6e:65:a4:87:72:06:07:
         da:e5:f2:af:2b:a5:eb:18:80:67:83:a5:3c:e6:ed:d1:58:f9:
         90:5c:d6:e9:2f:76:c1:58:13:b8:bd:88:8a:f3:04:48:bb:42:
         8f:7f:c6:db:b4:30:3f:bb:6c:d5:47:e5:ae:8d:4b:da:92:a5:
         db:d3:6e:a8:9b:c2:6b:56:af:34:63:82:e6:78:f8:1f:54:d7:
         41:aa:a3:c9:7c:a6:83:41:bf:6e:33:7c:ae:e6:92:bd:da:27:
         b4:bc:e2:90:4f:33:1b:01:a1:cd:02:13:7a:31:ef:00:d6:9a:
         6e:38:6b:a7:cb:70:98:a8:0f:ff:1c:56:a8:b7:e6:d2:42:5a:
         bb:f4:78:27:71:13:d0:e8:43:eb:bc:2d:4f:e4:ea:4d:4f:76:
         7f:53:38:34:eb:13:e2:3d:c6:14:98:86:1c:ab:2c:0e:b7:68:
         2e:bd:63:a9:6a:8f:d5:22:2d:ab:13:d7:62:54:51:ff:5c:37:
         08:04:27:da:f9:57:77:05:18:73:88:5f:b0:c1:65:50:36:09:
         d6:c7:f5:ae:6e:3f:04:d1:84:3c:21:74:1d:bd:0a:fb:76:d0:
         13:2b:62:bb:24:48:43:89:d0:18:5c:b4:ad:ea:98:af:6d:fc:
         1c:6b:1f:06:64:54:23:88
-----BEGIN CERTIFICATE-----
MIIFwzCCA6ugAwIBAgIJAI3Srzf5ypILMA0GCSqGSIb3DQEBBQUAMCkxCzAJBgNV
BAYTAkJFMRowGAYDVQQDExF0eGpzb25ycGMtdGVzdC1jYTAeFw0xMjA2MjMxNTQ2
MzdaFw0yMjA2MjExNTQ2MzdaMCkxCzAJBgNVBAYTAkJFMRowGAYDVQQDExF0eGpz
b25ycGMtdGVzdC1jYTCCAiIwDQYJKoZIhvcNAQEBBQADggIPADCCAgoCggIBANEl
r3fFqHLPkLk5EPt7dSyh2mqV5UQM1iVLWH+7B4JZSVgyhSTMPnfb4adPyLXL7kU4
vbz743Y7iATKqzqjljtfk5wopmGX3KI/oJMrVmzP009qngXTHM3vdYAamLeSSRQz
uMR8c4x+g6WBolmMi6NRNm1orPLx7W9J2a96Y8FDMUK2x825eLczmHCSbJ4Eenvw
bTiH6wATF7nZ7LRmu1HT/YHjDohxI9KAKmHeqyUCR6nBa8lprtpHtkl0rKbhwXa6
bbHZaG4cN6jiGGA3tlgTbMeSfMZFjO/DgXMQ3C8x4rkFWp4ocFo+HbhocYHJ6P4f
w6AT+OQkErqRjhXSA/GMsKriNORr+Ab2I4qSQ6YF3OnHpagG126RUnJHq66H/rMP
BIdvSyIp6akGUlh9AxbX1TFEtPFRRKcqul4JGexMouBY/g1Ot5BNAqwqrZkUZTsK
PHNFVrIPECUkUXlXGjQaEG9g4PyB28rC4oUbTHITXJ12zNAhMzFWgo/FV7lE/Yt2
wbbkIYs1mu5UdJ9yaxmE16I8pW4RCvGTBC7dfEx9YhDUG4uH9u2/ErGL8Jp67gKU
4TxGK3+cVPsuYckc7/zeJbwtdRsfSV5EOxWTrcSJ2a482lTv2a86FsuUG2oU5EL5
dTNGbvtAvPiCNs9g9cKimCOnKq7BqiL4h9q3nKTPAgMBAAGjge0wgeowHQYDVR0O
BBYEFJ2PhHaUzQf+o+iL1/nZbu/KdVF7MFkGA1UdIwRSMFCAFJ2PhHaUzQf+o+iL
1/nZbu/KdVF7oS2kKzApMQswCQYDVQQGEwJCRTEaMBgGA1UEAxMRdHhqc29ucnBj
LXRlc3QtY2GCCQCN0q83+cqSCzAPBgNVHRMBAf8EBTADAQH/MBEGCWCGSAGG+EIB
AQQEAwIBBjAJBgNVHRIEAjAAMCQGCWCGSAGG+EIBDQQXFhVUZXN0IENBIGZvciB0
eGpzb25yY3AwCQYDVR0RBAIwADAOBgNVHQ8BAf8EBAMCAQYwDQYJKoZIhvcNAQEF
BQADggIBAAaChoGpG34t7/X8zNKd1oKt0G9+Pblcsg86ZCGa+1Oyk4HcGiT8uDBX
osdxDZwaC4psiVKLivWvlT64CDnuNlCsYE3fK0micvE/EjzZVVakmncrd/oWtXbZ
9MRRa7n+L6NS6GSASSJtBUKHr52FbPrJm0g5e4n1oB7/EdOceLGy9k2x6LOYIyzU
IOGhAT4mCluO61hFIs/hlK2EQLD7/yVfMZpJCzatxhqwQmBA4qI8WjZBifwQxGDq
1IV7NoTfqoHMaedSysFGsXmTUU8khEIUOiCgbCd2QA+Wfk7DDDez43NJhlgxAB7n
D4d0tk5uHH2HpDMEyXbs5TqFX6jRrSFkXsVq37ECbmWkh3IGB9rl8q8rpesYgGeD
pTzm7dFY+ZBc1ukvdsFYE7i9iIrzBEi7Qo9/xtu0MD+7bNVH5a6NS9qSpdvTbqib
wmtWrzRjguZ4+B9U10Gqo8l8poNBv24zfK7mkr3aJ7S84pBPMxsBoc0CE3ox7wDW
mm44a6fLcJioD/8cVqi35tJCWrv0eCdxE9DoQ+u8LU/k6k1Pdn9TODTrE+I9xhSY
hhyrLA63aC69Y6lqj9UiLasT12JUUf9cNwgEJ9r5V3cFGHOIX7DBZVA2CdbH9a5u
PwTRhDwhdB29Cvt20BMrYrskSEOJ0BhctK3qmK9t/BxrHwZkVCOI
-----END CERTIFICATE-----
