Certificate:
    Data:
        Version: 3 (0x2)
        Serial Number: 1 (0x1)
    Signature Algorithm: sha1WithRSAEncryption
        Issuer: CN=ca-true, C=BE, O=Gremwell bvba
        Validity
            Not Before: Jun 23 15:47:38 2012 GMT
            Not After : Jun 23 15:47:38 2013 GMT
        Subject: C=BE, CN=txjsonrpc-pyserver
        Subject Public Key Info:
            Public Key Algorithm: rsaEncryption
                Public-Key: (4096 bit)
                Modulus:
                    00:a8:5b:98:9c:6a:2c:15:63:ad:34:3c:7e:59:22:
                    ea:74:1c:17:65:3d:d0:d3:ce:99:41:8e:85:9f:06:
                    92:85:95:df:bc:26:52:69:d7:21:dd:f4:89:59:4b:
                    6c:1e:4e:42:c8:b3:b8:c9:81:54:75:c1:d4:8e:ca:
                    5b:96:3b:32:a8:86:81:93:1b:ab:09:bf:1d:0a:8d:
                    0a:c6:a2:23:54:47:55:a7:80:71:af:e2:8e:85:d4:
                    f3:46:6d:d1:74:cd:cf:ae:db:8a:6b:b7:df:a7:21:
                    b2:11:8c:7f:11:dd:da:ae:1e:24:9c:c7:12:c9:df:
                    da:15:79:9a:ff:26:b7:e1:47:5c:0f:92:56:b1:ff:
                    0f:48:45:b8:1f:41:5d:70:fd:39:7c:31:54:3e:ed:
                    1a:c4:18:c3:da:66:5b:ba:bc:61:c6:68:b3:4e:31:
                    26:79:f4:c7:7c:26:34:92:ed:f3:3b:a4:20:1f:2a:
                    2c:bc:ba:13:6b:85:fc:8b:cd:05:4d:86:a5:be:a6:
                    fc:d5:6b:cd:df:3e:91:4f:3e:f5:22:f5:b1:68:f6:
                    53:ff:3b:27:aa:32:3e:90:a6:e8:4d:99:1e:f2:23:
                    d0:ef:5e:5d:13:e1:26:02:5c:00:e0:39:3b:01:e2:
                    bf:b4:d5:c2:cf:16:e9:31:d5:bc:50:f0:ee:78:a7:
                    52:2b:99:12:be:b3:8f:cf:a6:d4:7e:dd:5c:f4:e7:
                    bf:ba:dc:55:6a:af:c4:71:20:bb:5d:82:d5:bc:ec:
                    8c:42:7c:f9:01:da:43:d6:66:9a:c3:9a:ef:19:e7:
                    65:cf:03:fa:bd:49:f3:f7:47:a2:3c:de:53:8d:34:
                    0e:df:ce:18:0f:24:cf:a8:39:b9:4f:96:40:03:29:
                    3f:8b:63:3b:f3:63:7d:f4:fd:92:ca:74:88:63:79:
                    7f:63:39:e4:e3:f2:43:6a:a7:cc:1e:e3:fe:50:c4:
                    bd:ee:ff:95:5d:dd:09:71:b3:95:5c:3e:2a:14:c0:
                    11:cf:f7:11:aa:b1:03:b8:45:29:8b:ac:a8:bf:e3:
                    b4:cf:72:9e:81:86:97:ce:aa:66:f3:90:c5:a1:0e:
                    1e:af:10:8a:df:cb:0c:a1:43:13:1c:fe:f5:60:58:
                    53:05:72:99:80:ed:98:81:30:dd:24:af:e0:47:d2:
                    4c:3e:c1:11:df:da:b1:0d:dd:b1:a7:47:59:7d:bb:
                    c9:18:c8:83:ee:25:1a:33:8e:2e:b2:00:3c:a4:da:
                    ff:96:e7:ad:bb:c7:06:2d:9d:43:57:b4:b7:c4:b6:
                    fb:a0:f3:5b:32:b6:d6:29:19:ee:77:2e:a3:0b:d3:
                    fe:7e:12:9a:ad:7e:84:f5:3d:2f:75:37:c9:a2:dd:
                    bb:20:2b
                Exponent: 65537 (0x10001)
        X509v3 extensions:
            X509v3 Basic Constraints: 
                CA:FALSE
            Netscape Cert Type: 
                SSL Server
            Netscape Comment: 
                TinyCA Generated Certificate
            X509v3 Subject Key Identifier: 
                26:8C:A5:F9:A6:4A:FE:4C:E8:0F:04:33:7E:04:26:28:BF:4C:92:F3
            X509v3 Authority Key Identifier: 
                keyid:9D:8F:84:76:94:CD:07:FE:A3:E8:8B:D7:F9:D9:6E:EF:CA:75:51:7B
                DirName:/C=BE/CN=txjsonrpc-test-ca
                serial:8D:D2:AF:37:F9:CA:92:0B

            X509v3 Issuer Alternative Name: 
                <EMPTY>

            X509v3 Subject Alternative Name: 
                <EMPTY>

    Signature Algorithm: sha1WithRSAEncryption
         9b:ea:f9:6a:a8:0f:0b:79:81:b2:4d:f5:85:8d:6b:87:f1:01:
         fe:15:d2:2c:6d:c4:96:fa:0b:8b:64:fc:86:20:b6:9d:27:68:
         4c:db:dd:0d:d5:d7:82:de:b7:fc:9e:df:da:dd:a0:c8:03:ab:
         76:20:12:c8:88:f1:45:12:55:1e:ef:3e:09:0c:48:fa:ad:6e:
         09:75:e7:07:d6:4b:ac:66:e7:34:8f:40:20:81:a8:18:16:78:
         1c:b6:a4:c9:c5:15:49:5d:47:fe:b6:0f:7f:98:e7:d4:90:2b:
         2d:9f:78:44:86:8b:b8:22:0a:db:81:39:40:ff:42:7f:bc:b6:
         76:e4
-----BEGIN CERTIFICATE-----
MIIEOjCCA6OgAwIBAgIBATANBgkqhkiG9w0BAQUFADA3MRAwDgYDVQQDEwdjYS10
cnVlMQswCQYDVQQGEwJCRTEWMBQGA1UEChMNR3JlbXdlbGwgYnZiYTAeFw0xMjA2
MjMxNTQ3MzhaFw0xMzA2MjMxNTQ3MzhaMCoxCzAJBgNVBAYTAkJFMRswGQYDVQQD
ExJ0eGpzb25ycGMtcHlzZXJ2ZXIwggIiMA0GCSqGSIb3DQEBAQUAA4ICDwAwggIK
AoICAQCoW5icaiwVY600PH5ZIup0HBdlPdDTzplBjoWfBpKFld+8JlJp1yHd9IlZ
S2weTkLIs7jJgVR1wdSOyluWOzKohoGTG6sJvx0KjQrGoiNUR1WngHGv4o6F1PNG
bdF0zc+u24prt9+nIbIRjH8R3dquHiScxxLJ39oVeZr/JrfhR1wPklax/w9IRbgf
QV1w/Tl8MVQ+7RrEGMPaZlu6vGHGaLNOMSZ59Md8JjSS7fM7pCAfKiy8uhNrhfyL
zQVNhqW+pvzVa83fPpFPPvUi9bFo9lP/OyeqMj6QpuhNmR7yI9DvXl0T4SYCXADg
OTsB4r+01cLPFukx1bxQ8O54p1IrmRK+s4/PptR+3Vz057+63FVqr8RxILtdgtW8
7IxCfPkB2kPWZprDmu8Z52XPA/q9SfP3R6I83lONNA7fzhgPJM+oOblPlkADKT+L
YzvzY330/ZLKdIhjeX9jOeTj8kNqp8we4/5QxL3u/5Vd3Qlxs5VcPioUwBHP9xGq
sQO4RSmLrKi/47TPcp6BhpfOqmbzkMWhDh6vEIrfywyhQxMc/vVgWFMFcpmA7ZiB
MN0kr+BH0kw+wRHf2rEN3bGnR1l9u8kYyIPuJRozji6yADyk2v+W5627xwYtnUNX
tLfEtvug81syttYpGe53LqML0/5+EpqtfoT1PS91N8mi3bsgKwIDAQABo4HeMIHb
MAkGA1UdEwQCMAAwEQYJYIZIAYb4QgEBBAQDAgZAMCsGCWCGSAGG+EIBDQQeFhxU
aW55Q0EgR2VuZXJhdGVkIENlcnRpZmljYXRlMB0GA1UdDgQWBBQmjKX5pkr+TOgP
BDN+BCYov0yS8zBZBgNVHSMEUjBQgBSdj4R2lM0H/qPoi9f52W7vynVRe6EtpCsw
KTELMAkGA1UEBhMCQkUxGjAYBgNVBAMTEXR4anNvbnJwYy10ZXN0LWNhggkAjdKv
N/nKkgswCQYDVR0SBAIwADAJBgNVHREEAjAAMA0GCSqGSIb3DQEBBQUAA4GBAJvq
+WqoDwt5gbJN9YWNa4fxAf4V0ixtxJb6C4tk/IYgtp0naEzb3Q3V14Let/ye39rd
oMgDq3YgEsiI8UUSVR7vPgkMSPqtbgl15wfWS6xm5zSPQCCBqBgWeBy2pMnFFUld
R/62D3+Y59SQKy2feESGi7giCtuBOUD/Qn+8tnbk
-----END CERTIFICATE-----
Certificate:
    Data:
        Version: 4 (0x3)
        Serial Number: 1 (0x1)
    Signature Algorithm: sha1WithRSAEncryption
        Issuer: C=BE, CN=txjsonrpc-test-ca
        Validity
            Not Before: Jan  1 00:00:00 1970 GMT
            Not After : Jan 19 03:14:07 2038 GMT
        Subject: CN=ca-true, C=BE, O=Gremwell bvba
        Subject Public Key Info:
            Public Key Algorithm: rsaEncryption
                Public-Key: (1024 bit)
                Modulus:
                    00:ca:52:e1:5a:fd:42:f9:2d:40:56:08:d2:35:ba:
                    59:8e:18:f8:05:50:42:c5:ce:16:36:a3:36:cf:75:
                    64:99:09:ba:91:a0:1a:63:0a:4f:fb:78:e5:9c:ea:
                    c9:a0:6d:62:ae:ff:3b:3f:ad:8c:da:96:da:f5:55:
                    6c:fa:26:7d:83:41:c2:73:09:c8:d1:b4:39:5d:3b:
                    7d:da:c5:52:7f:69:24:c8:97:e9:c0:37:f4:5c:53:
                    24:a1:41:1d:fc:25:08:32:e0:cb:e9:9a:58:a9:0f:
                    c1:b3:f0:9f:e0:03:a1:b7:db:5b:cf:b7:e6:02:59:
                    64:a0:ba:3f:dc:73:fb:a7:4d
                Exponent: 65537 (0x10001)
        X509v3 extensions:
            X509v3 Basic Constraints: critical
                CA:TRUE
    Signature Algorithm: sha1WithRSAEncryption
         61:91:c1:e2:94:92:78:29:68:7d:03:1a:55:9f:24:c6:e5:62:
         be:d7:d8:40:ea:06:ff:0f:b9:ea:17:10:3e:88:2b:c9:d6:78:
         b9:6f:c8:85:05:47:a2:91:95:c0:38:20:bf:d6:95:7d:95:03:
         29:37:21:c2:cc:4a:e2:13:c1:88:e6:b5:e7:83:b1:c6:60:82:
         51:ea:69:6d:21:27:ea:a8:5e:29:11:cb:f6:1d:c4:69:4b:54:
         ac:0f:a2:89:dd:3a:ec:8e:a4:f2:6e:73:0c:8b:26:2e:11:67:
         85:0e:9b:81:86:72:4d:25:57:66:db:72:1b:9c:13:a9:69:7e:
         74:85:73:69:aa:17:69:a8:9b:29:b7:4a:ca:5b:1b:02:3b:31:
         0a:aa:20:49:85:9d:05:7b:13:8b:a2:d8:32:96:ed:51:c9:a0:
         1b:cb:8a:cf:ce:ae:67:08:13:48:0a:ec:e9:38:22:1a:f1:ba:
         c3:ec:3e:14:51:0a:8c:07:2a:d7:51:f9:c0:0f:fa:b6:63:8f:
         db:61:c1:f5:1a:7c:55:73:52:cc:7a:47:dd:5b:7c:38:00:74:
         89:66:95:86:ca:91:40:4a:8e:62:22:5c:3c:52:d2:79:69:3e:
         a7:ff:f2:43:0f:78:64:d9:7a:20:f7:44:e3:54:e3:a4:8b:f9:
         85:8a:18:56:13:a0:8b:59:27:35:db:55:fc:33:95:68:6d:73:
         16:bb:14:ea:7c:3d:09:68:94:5d:e6:e5:2e:21:09:fd:3f:8a:
         08:8d:01:7a:12:5f:32:e7:ce:66:ed:95:20:7c:56:a0:21:e1:
         8f:d9:3a:2e:d8:be:09:a8:15:17:0c:5b:d0:d1:66:06:ce:d4:
         b7:b0:86:f3:55:a0:8f:d8:e9:4c:20:98:a9:0b:a2:95:82:5a:
         e7:01:5e:4d:d7:74:bb:c0:eb:85:42:da:3e:88:13:3d:b0:a2:
         af:e0:4f:4f:51:42:0a:10:74:59:ec:56:02:51:87:f5:a5:22:
         53:45:36:66:a2:e6:80:f7:1f:36:35:05:93:02:f8:34:22:32:
         8b:f4:92:14:fa:44:41:bc:9a:a9:94:36:75:59:7e:cc:77:6b:
         8b:48:28:ce:12:dd:5b:5e:14:09:9e:c6:aa:fc:60:ee:20:81:
         e7:5c:ef:2c:03:a3:28:19:5e:7b:34:53:3b:ca:53:ea:ed:63:
         4d:7e:6c:00:7c:fb:8a:f7:08:6d:c1:93:9c:0f:cd:c0:cc:6a:
         1e:1d:d6:23:81:0a:d4:83:15:15:86:f3:e5:1c:13:18:d8:49:
         b3:3c:72:b0:e1:c6:1f:46:cd:e5:41:d0:02:82:68:10:47:5c:
         6b:e7:22:9e:2c:6e:e3:e6
-----BEGIN CERTIFICATE-----
MIIDajCCAVKgAwIBAwIBATANBgkqhkiG9w0BAQUFADApMQswCQYDVQQGEwJCRTEa
MBgGA1UEAxMRdHhqc29ucnBjLXRlc3QtY2EwHhcNNzAwMTAxMDAwMDAwWhcNMzgw
MTE5MDMxNDA3WjA3MRAwDgYDVQQDEwdjYS10cnVlMQswCQYDVQQGEwJCRTEWMBQG
A1UEChMNR3JlbXdlbGwgYnZiYTCBnzANBgkqhkiG9w0BAQEFAAOBjQAwgYkCgYEA
ylLhWv1C+S1AVgjSNbpZjhj4BVBCxc4WNqM2z3VkmQm6kaAaYwpP+3jlnOrJoG1i
rv87P62M2pba9VVs+iZ9g0HCcwnI0bQ5XTt92sVSf2kkyJfpwDf0XFMkoUEd/CUI
MuDL6ZpYqQ/Bs/Cf4AOht9tbz7fmAllkoLo/3HP7p00CAwEAAaMTMBEwDwYDVR0T
AQH/BAUwAwEB/zANBgkqhkiG9w0BAQUFAAOCAgEAYZHB4pSSeClofQMaVZ8kxuVi
vtfYQOoG/w+56hcQPogrydZ4uW/IhQVHopGVwDggv9aVfZUDKTchwsxK4hPBiOa1
54OxxmCCUeppbSEn6qheKRHL9h3EaUtUrA+iid067I6k8m5zDIsmLhFnhQ6bgYZy
TSVXZttyG5wTqWl+dIVzaaoXaaibKbdKylsbAjsxCqogSYWdBXsTi6LYMpbtUcmg
G8uKz86uZwgTSArs6TgiGvG6w+w+FFEKjAcq11H5wA/6tmOP22HB9Rp8VXNSzHpH
3Vt8OAB0iWaVhsqRQEqOYiJcPFLSeWk+p//yQw94ZNl6IPdE41TjpIv5hYoYVhOg
i1knNdtV/DOVaG1zFrsU6nw9CWiUXeblLiEJ/T+KCI0BehJfMufOZu2VIHxWoCHh
j9k6Lti+CagVFwxb0NFmBs7Ut7CG81Wgj9jpTCCYqQuilYJa5wFeTdd0u8DrhULa
PogTPbCir+BPT1FCChB0WexWAlGH9aUiU0U2ZqLmgPcfNjUFkwL4NCIyi/SSFPpE
QbyaqZQ2dVl+zHdri0gozhLdW14UCZ7Gqvxg7iCB51zvLAOjKBleezRTO8pT6u1j
TX5sAHz7ivcIbcGTnA/NwMxqHh3WI4EK1IMVFYbz5RwTGNhJszxysOHGH0bN5UHQ
AoJoEEdca+cinixu4+Y=
-----END CERTIFICATE-----
