Certificate:
    Data:
        Version: 4 (0x3)
        Serial Number: 1 (0x1)
    Signature Algorithm: sha1WithRSAEncryption
        Issuer: CN=ca-false, C=BE, O=Gremwell bvba
        Validity
            Not Before: Jan  1 00:00:00 1970 GMT
            Not After : Jan 19 03:14:07 2038 GMT
        Subject: CN=www.example.com, C=BE, O=Gremwell bvba
        Subject Public Key Info:
            Public Key Algorithm: rsaEncryption
                Public-Key: (1024 bit)
                Modulus:
                    00:fc:c7:11:63:4a:f6:b8:a2:9d:f7:c9:77:f2:17:
                    17:15:6b:ed:6d:19:54:95:cf:1e:4d:a8:87:35:13:
                    40:10:89:40:82:8b:1b:76:e2:11:ef:08:71:0e:de:
                    48:d3:a5:6d:6b:a7:65:b4:87:7b:58:f2:f4:51:af:
                    41:04:a6:9c:78:23:c3:ec:33:74:db:85:01:77:ec:
                    86:91:0e:e6:f9:4f:e6:59:54:57:34:d7:ed:06:f4:
                    f3:7a:82:76:3b:08:82:25:7e:4f:38:1e:62:6c:24:
                    a1:eb:53:56:b2:c4:a2:2a:03:ef:81:92:fb:4c:71:
                    b9:ca:d8:5c:51:7e:f2:6e:e1
                Exponent: 65537 (0x10001)
    Signature Algorithm: sha1WithRSAEncryption
         3a:0c:42:30:6b:99:2b:ca:4a:71:4c:28:98:48:2e:40:4f:00:
         25:78:74:65:b6:60:5c:15:23:db:d2:a5:f8:97:7a:36:b8:9c:
         fe:7e:67:f5:65:07:8c:a1:2b:3c:f7:a1:c2:85:21:17:45:8a:
         9c:2d:5f:e5:16:ca:16:fb:5a:4c:1f:7a:30:15:85:88:32:5f:
         a0:1e:00:40:30:c0:27:20:2a:ba:3f:3d:3c:1d:e1:1e:74:97:
         47:7d:45:ed:69:9a:5e:11:b3:bf:23:2f:7d:48:24:2c:8d:7b:
         4c:69:53:91:f2:27:67:79:a6:4a:48:96:cb:22:71:34:c7:79:
         3f:51
-----BEGIN CERTIFICATE-----
MIIB6zCCAVSgAwIBAwIBATANBgkqhkiG9w0BAQUFADA4MREwDwYDVQQDEwhjYS1m
YWxzZTELMAkGA1UEBhMCQkUxFjAUBgNVBAoTDUdyZW13ZWxsIGJ2YmEwHhcNNzAw
MTAxMDAwMDAwWhcNMzgwMTE5MDMxNDA3WjA/MRgwFgYDVQQDEw93d3cuZXhhbXBs
ZS5jb20xCzAJBgNVBAYTAkJFMRYwFAYDVQQKEw1HcmVtd2VsbCBidmJhMIGfMA0G
CSqGSIb3DQEBAQUAA4GNADCBiQKBgQD8xxFjSva4op33yXfyFxcVa+1tGVSVzx5N
qIc1E0AQiUCCixt24hHvCHEO3kjTpW1rp2W0h3tY8vRRr0EEppx4I8PsM3TbhQF3
7IaRDub5T+ZZVFc01+0G9PN6gnY7CIIlfk84HmJsJKHrU1ayxKIqA++BkvtMcbnK
2FxRfvJu4QIDAQABMA0GCSqGSIb3DQEBBQUAA4GBADoMQjBrmSvKSnFMKJhILkBP
ACV4dGW2YFwVI9vSpfiXeja4nP5+Z/VlB4yhKzz3ocKFIRdFipwtX+UWyhb7Wkwf
ejAVhYgyX6AeAEAwwCcgKro/PTwd4R50l0d9Re1pml4Rs78jL31IJCyNe0xpU5Hy
J2d5pkpIlssicTTHeT9R
-----END CERTIFICATE-----
Certificate:
    Data:
        Version: 4 (0x3)
        Serial Number: 1 (0x1)
    Signature Algorithm: sha1WithRSAEncryption
        Issuer: C=BE, CN=txjsonrpc-test-ca
        Validity
            Not Before: Jan  1 00:00:00 1970 GMT
            Not After : Jan 19 03:14:07 2038 GMT
        Subject: CN=ca-false, C=BE, O=Gremwell bvba
        Subject Public Key Info:
            Public Key Algorithm: rsaEncryption
                Public-Key: (1024 bit)
                Modulus:
                    00:d9:b2:86:08:ba:02:05:84:44:9f:69:2c:9c:72:
                    33:fa:1f:73:02:d0:2b:2c:c8:35:3d:2e:d6:66:14:
                    84:c6:98:40:6d:8d:7f:85:01:0d:e3:64:0f:0a:31:
                    34:33:6b:c9:df:22:45:bc:f0:2d:38:88:5a:84:fb:
                    38:74:b4:09:ff:ed:a5:a9:4e:50:26:b4:fe:cd:39:
                    9f:4c:46:ca:c1:d9:2a:be:85:1c:79:14:64:c4:8e:
                    72:1b:4d:2e:f3:7c:6a:97:e4:69:cd:a0:82:79:78:
                    3c:7f:02:b7:53:44:56:6f:d3:02:8b:f1:a8:8d:af:
                    47:97:1a:23:ee:e7:3f:66:cb
                Exponent: 65537 (0x10001)
        X509v3 extensions:
            X509v3 Basic Constraints: critical
                CA:FALSE
    Signature Algorithm: sha1WithRSAEncryption
         c7:8e:45:83:06:69:b6:c0:9b:e2:f6:c5:57:89:02:c4:9c:1a:
         b0:d0:b4:48:09:e0:08:37:88:76:2f:ef:bc:f2:ad:98:b3:c7:
         cc:59:cb:3e:f3:e3:66:53:66:dc:9d:34:04:4b:b1:dc:aa:8e:
         55:f6:c0:59:f1:f4:15:3f:a8:1b:5c:7f:63:37:45:c3:0b:2b:
         cf:88:6e:47:86:76:2f:04:c3:50:7e:25:11:b9:51:a6:38:ad:
         1d:9a:78:8f:2c:2c:1e:bd:f0:56:7c:cb:b8:a4:de:92:32:ee:
         53:58:91:d9:17:9b:37:a8:f6:8c:48:af:ce:5e:ff:0b:ff:dd:
         1e:88:3d:5d:67:f3:1a:12:fa:a0:f5:91:db:19:ad:26:86:49:
         1c:11:a5:56:21:7d:33:2c:4a:2a:a1:36:b9:17:86:c8:fe:18:
         cf:f3:a1:94:a8:53:87:c0:dc:c7:8a:2f:00:ce:71:63:19:95:
         07:f6:15:94:ef:82:70:37:ce:49:72:79:2c:3c:05:38:d3:43:
         60:e8:bd:9c:c1:3b:9a:e0:f2:34:32:6b:06:54:af:0d:bb:a6:
         24:5c:e9:49:5c:c6:cb:46:da:22:d5:94:6c:b9:b9:0d:44:95:
         13:7a:58:a9:e2:82:04:6a:c5:d5:26:a9:4d:b0:43:43:19:5e:
         4e:35:b7:fa:42:de:e2:61:f0:ee:d8:ed:18:64:60:ad:45:81:
         03:b0:b6:c2:15:b2:fd:1f:64:50:d3:a0:ad:d6:a5:b4:af:44:
         f2:4b:a7:00:22:bb:67:8d:28:37:91:4a:3a:63:b7:09:8c:45:
         e2:f9:29:10:60:2f:7e:ce:ea:34:d8:c1:45:79:71:af:f3:8f:
         35:2c:96:9c:19:88:ae:b5:c3:4d:1f:a3:e4:21:4d:02:74:84:
         02:71:e0:70:fd:97:7e:a2:1e:2b:d8:73:67:22:55:2a:e8:6b:
         6e:b2:64:29:c9:ad:ae:8b:bf:9a:32:58:de:b7:73:c8:ca:eb:
         e6:18:cb:54:88:01:99:96:5d:c1:13:b3:b3:68:b7:64:24:85:
         11:04:af:80:af:ca:86:36:42:40:22:de:9d:43:c3:94:ba:ef:
         9c:be:01:3e:26:23:91:f9:81:5c:0e:e1:9d:48:cc:7b:9a:7f:
         7e:1b:94:67:45:90:98:a4:68:8b:8b:75:ae:f0:c2:21:b7:85:
         06:2e:94:c8:2a:28:7e:6e:99:1a:07:d4:48:38:75:67:d1:7f:
         60:95:fd:6f:b8:d7:11:a7:74:f1:b7:b2:1a:54:fb:3a:16:98:
         35:9c:d5:5e:4d:ef:d3:d5:e7:af:f5:5b:12:9f:a5:35:51:1d:
         fd:7b:2a:23:f4:68:85:3d
-----BEGIN CERTIFICATE-----
MIIDaDCCAVCgAwIBAwIBATANBgkqhkiG9w0BAQUFADApMQswCQYDVQQGEwJCRTEa
MBgGA1UEAxMRdHhqc29ucnBjLXRlc3QtY2EwHhcNNzAwMTAxMDAwMDAwWhcNMzgw
MTE5MDMxNDA3WjA4MREwDwYDVQQDEwhjYS1mYWxzZTELMAkGA1UEBhMCQkUxFjAU
BgNVBAoTDUdyZW13ZWxsIGJ2YmEwgZ8wDQYJKoZIhvcNAQEBBQADgY0AMIGJAoGB
ANmyhgi6AgWERJ9pLJxyM/ofcwLQKyzINT0u1mYUhMaYQG2Nf4UBDeNkDwoxNDNr
yd8iRbzwLTiIWoT7OHS0Cf/tpalOUCa0/s05n0xGysHZKr6FHHkUZMSOchtNLvN8
apfkac2ggnl4PH8Ct1NEVm/TAovxqI2vR5caI+7nP2bLAgMBAAGjEDAOMAwGA1Ud
EwEB/wQCMAAwDQYJKoZIhvcNAQEFBQADggIBAMeORYMGabbAm+L2xVeJAsScGrDQ
tEgJ4Ag3iHYv77zyrZizx8xZyz7z42ZTZtydNARLsdyqjlX2wFnx9BU/qBtcf2M3
RcMLK8+IbkeGdi8Ew1B+JRG5UaY4rR2aeI8sLB698FZ8y7ik3pIy7lNYkdkXmzeo
9oxIr85e/wv/3R6IPV1n8xoS+qD1kdsZrSaGSRwRpVYhfTMsSiqhNrkXhsj+GM/z
oZSoU4fA3MeKLwDOcWMZlQf2FZTvgnA3zklyeSw8BTjTQ2DovZzBO5rg8jQyawZU
rw27piRc6UlcxstG2iLVlGy5uQ1ElRN6WKniggRqxdUmqU2wQ0MZXk41t/pC3uJh
8O7Y7RhkYK1FgQOwtsIVsv0fZFDToK3WpbSvRPJLpwAiu2eNKDeRSjpjtwmMReL5
KRBgL37O6jTYwUV5ca/zjzUslpwZiK61w00fo+QhTQJ0hAJx4HD9l36iHivYc2ci
VSroa26yZCnJra6Lv5oyWN63c8jK6+YYy1SIAZmWXcETs7Not2QkhREEr4CvyoY2
QkAi3p1Dw5S675y+AT4mI5H5gVwO4Z1IzHuaf34blGdFkJikaIuLda7wwiG3hQYu
lMgqKH5umRoH1Eg4dWfRf2CV/W+41xGndPG3shpU+zoWmDWc1V5N79PV56/1WxKf
pTVRHf17KiP0aIU9
-----END CERTIFICATE-----
