Certificate:
    Data:
        Version: 3 (0x2)
        Serial Number: 1 (0x1)
    Signature Algorithm: sha1WithRSAEncryption
        Issuer: C=BE, CN=txjsonrpc-pyserver
        Validity
            Not Before: Jun 23 15:47:38 2012 GMT
            Not After : Jun 23 15:47:38 2013 GMT
        Subject: C=BE, CN=txjsonrpc-pyserver
        Subject Public Key Info:
            Public Key Algorithm: rsaEncryption
                Public-Key: (4096 bit)
                Modulus:
                    00:a8:5b:98:9c:6a:2c:15:63:ad:34:3c:7e:59:22:
                    ea:74:1c:17:65:3d:d0:d3:ce:99:41:8e:85:9f:06:
                    92:85:95:df:bc:26:52:69:d7:21:dd:f4:89:59:4b:
                    6c:1e:4e:42:c8:b3:b8:c9:81:54:75:c1:d4:8e:ca:
                    5b:96:3b:32:a8:86:81:93:1b:ab:09:bf:1d:0a:8d:
                    0a:c6:a2:23:54:47:55:a7:80:71:af:e2:8e:85:d4:
                    f3:46:6d:d1:74:cd:cf:ae:db:8a:6b:b7:df:a7:21:
                    b2:11:8c:7f:11:dd:da:ae:1e:24:9c:c7:12:c9:df:
                    da:15:79:9a:ff:26:b7:e1:47:5c:0f:92:56:b1:ff:
                    0f:48:45:b8:1f:41:5d:70:fd:39:7c:31:54:3e:ed:
                    1a:c4:18:c3:da:66:5b:ba:bc:61:c6:68:b3:4e:31:
                    26:79:f4:c7:7c:26:34:92:ed:f3:3b:a4:20:1f:2a:
                    2c:bc:ba:13:6b:85:fc:8b:cd:05:4d:86:a5:be:a6:
                    fc:d5:6b:cd:df:3e:91:4f:3e:f5:22:f5:b1:68:f6:
                    53:ff:3b:27:aa:32:3e:90:a6:e8:4d:99:1e:f2:23:
                    d0:ef:5e:5d:13:e1:26:02:5c:00:e0:39:3b:01:e2:
                    bf:b4:d5:c2:cf:16:e9:31:d5:bc:50:f0:ee:78:a7:
                    52:2b:99:12:be:b3:8f:cf:a6:d4:7e:dd:5c:f4:e7:
                    bf:ba:dc:55:6a:af:c4:71:20:bb:5d:82:d5:bc:ec:
                    8c:42:7c:f9:01:da:43:d6:66:9a:c3:9a:ef:19:e7:
                    65:cf:03:fa:bd:49:f3:f7:47:a2:3c:de:53:8d:34:
                    0e:df:ce:18:0f:24:cf:a8:39:b9:4f:96:40:03:29:
                    3f:8b:63:3b:f3:63:7d:f4:fd:92:ca:74:88:63:79:
                    7f:63:39:e4:e3:f2:43:6a:a7:cc:1e:e3:fe:50:c4:
                    bd:ee:ff:95:5d:dd:09:71:b3:95:5c:3e:2a:14:c0:
                    11:cf:f7:11:aa:b1:03:b8:45:29:8b:ac:a8:bf:e3:
                    b4:cf:72:9e:81:86:97:ce:aa:66:f3:90:c5:a1:0e:
                    1e:af:10:8a:df:cb:0c:a1:43:13:1c:fe:f5:60:58:
                    53:05:72:99:80:ed:98:81:30:dd:24:af:e0:47:d2:
                    4c:3e:c1:11:df:da:b1:0d:dd:b1:a7:47:59:7d:bb:
                    c9:18:c8:83:ee:25:1a:33:8e:2e:b2:00:3c:a4:da:
                    ff:96:e7:ad:bb:c7:06:2d:9d:43:57:b4:b7:c4:b6:
                    fb:a0:f3:5b:32:b6:d6:29:19:ee:77:2e:a3:0b:d3:
                    fe:7e:12:9a:ad:7e:84:f5:3d:2f:75:37:c9:a2:dd:
                    bb:20:2b
                Exponent: 65537 (0x10001)
        X509v3 extensions:
            X509v3 Basic Constraints: 
                CA:FALSE
            Netscape Cert Type: 
                SSL Server
            Netscape Comment: 
                TinyCA Generated Certificate
            X509v3 Subject Key Identifier: 
                26:8C:A5:F9:A6:4A:FE:4C:E8:0F:04:33:7E:04:26:28:BF:4C:92:F3
            X509v3 Authority Key Identifier: 
                keyid:9D:8F:84:76:94:CD:07:FE:A3:E8:8B:D7:F9:D9:6E:EF:CA:75:51:7B
                DirName:/C=BE/CN=txjsonrpc-test-ca
                serial:8D:D2:AF:37:F9:CA:92:0B

            X509v3 Issuer Alternative Name: 
                <EMPTY>

            X509v3 Subject Alternative Name: 
                <EMPTY>

    Signature Algorithm: sha1WithRSAEncryption
         5e:71:9a:e5:57:8f:32:b7:2d:24:c5:25:2d:c7:11:30:51:58:
         f4:16:01:2d:49:7e:63:9c:20:09:3b:af:dd:da:64:d5:6f:4a:
         99:aa:e0:1f:e4:4b:57:ce:03:82:c0:3b:6b:ad:5e:d4:67:7e:
         69:e0:fa:68:6c:95:42:5a:3d:8d:65:08:0f:44:ac:22:bd:a5:
         c6:8d:94:3c:a5:2a:c8:f3:36:4c:e5:0d:e9:11:9d:2a:21:41:
         6d:e5:9f:72:2e:3f:96:f9:92:40:ab:98:d6:a3:c2:4c:a0:1b:
         2d:19:aa:2f:1b:db:08:13:bf:51:e7:95:88:47:6c:c7:93:01:
         10:dd:b1:f4:ac:e3:ef:cc:03:cb:fd:df:85:dc:30:f5:7b:3f:
         12:6b:dc:b7:e4:dd:58:ea:71:22:84:93:69:a1:0d:ab:d6:76:
         62:43:95:d5:21:bd:9d:de:e0:77:e1:4e:97:a9:16:dd:d9:98:
         c5:18:22:11:4d:5c:6f:62:ea:d4:41:b0:d3:45:38:14:df:3c:
         b5:ab:e3:98:b1:ca:bb:c5:fd:3e:b1:72:9d:78:4e:bb:ac:d5:
         a4:0f:e7:a9:d5:46:7c:6b:aa:ce:70:54:11:b7:c2:78:38:97:
         37:f2:ed:07:d3:3c:96:f9:9c:20:b5:aa:35:be:dd:2e:f0:f7:
         ef:b6:e7:7e:66:3d:fd:b4:09:14:34:2c:64:48:64:67:bb:85:
         ba:05:fd:2c:11:f8:5b:7f:de:6e:15:b9:f7:20:14:e0:90:e3:
         ff:0b:d3:ba:94:9e:8f:d6:83:1b:30:74:1c:7b:20:7a:b1:26:
         11:6a:d6:9d:97:e6:02:14:52:99:8c:86:20:6e:64:e0:40:b5:
         f4:7b:7c:19:a4:fe:0f:ce:75:7a:63:79:e4:02:4e:27:c4:30:
         7a:c7:ab:a3:1a:44:b0:e1:2d:6b:c1:f8:10:c4:7a:17:e7:20:
         a4:8f:e2:a0:31:64:00:a6:5f:14:8c:2b:2d:ab:20:9f:af:44:
         cb:f6:33:f3:74:69:3c:26:bb:42:e1:f4:70:6b:0a:7c:6b:fa:
         d7:1c:e5:be:c2:26:a8:6f:89:10:9e:dd:81:a3:06:6f:06:21:
         06:80:51:53:85:6f:2d:35:b6:61:cc:3a:30:61:46:ae:f9:1a:
         8f:0b:00:05:35:2d:15:77:dc:70:6d:2d:a3:e9:6c:fa:64:65:
         c2:72:93:5a:38:6f:59:48:20:3a:f2:7a:dc:bb:22:9d:21:1a:
         20:79:d5:d9:df:b8:b3:ec:28:5f:68:0d:37:42:c4:fc:61:f2:
         8b:ee:30:c0:34:84:5f:f8:06:b6:e7:8e:9e:88:94:2d:50:92:
         eb:8f:1b:f2:50:bb:a6:2d
-----BEGIN CERTIFICATE-----
MIIFrjCCA5agAwIBAgIBATANBgkqhkiG9w0BAQUFADAqMQswCQYDVQQGEwJCRTEb
MBkGA1UEAxMSdHhqc29ucnBjLXB5c2VydmVyMB4XDTEyMDYyMzE1NDczOFoXDTEz
MDYyMzE1NDczOFowKjELMAkGA1UEBhMCQkUxGzAZBgNVBAMTEnR4anNvbnJwYy1w
eXNlcnZlcjCCAiIwDQYJKoZIhvcNAQEBBQADggIPADCCAgoCggIBAKhbmJxqLBVj
rTQ8flki6nQcF2U90NPOmUGOhZ8GkoWV37wmUmnXId30iVlLbB5OQsizuMmBVHXB
1I7KW5Y7MqiGgZMbqwm/HQqNCsaiI1RHVaeAca/ijoXU80Zt0XTNz67bimu336ch
shGMfxHd2q4eJJzHEsnf2hV5mv8mt+FHXA+SVrH/D0hFuB9BXXD9OXwxVD7tGsQY
w9pmW7q8YcZos04xJnn0x3wmNJLt8zukIB8qLLy6E2uF/IvNBU2Gpb6m/NVrzd8+
kU8+9SL1sWj2U/87J6oyPpCm6E2ZHvIj0O9eXRPhJgJcAOA5OwHiv7TVws8W6THV
vFDw7ninUiuZEr6zj8+m1H7dXPTnv7rcVWqvxHEgu12C1bzsjEJ8+QHaQ9ZmmsOa
7xnnZc8D+r1J8/dHojzeU400Dt/OGA8kz6g5uU+WQAMpP4tjO/NjffT9ksp0iGN5
f2M55OPyQ2qnzB7j/lDEve7/lV3dCXGzlVw+KhTAEc/3EaqxA7hFKYusqL/jtM9y
noGGl86qZvOQxaEOHq8Qit/LDKFDExz+9WBYUwVymYDtmIEw3SSv4EfSTD7BEd/a
sQ3dsadHWX27yRjIg+4lGjOOLrIAPKTa/5bnrbvHBi2dQ1e0t8S2+6DzWzK21ikZ
7ncuowvT/n4Smq1+hPU9L3U3yaLduyArAgMBAAGjgd4wgdswCQYDVR0TBAIwADAR
BglghkgBhvhCAQEEBAMCBkAwKwYJYIZIAYb4QgENBB4WHFRpbnlDQSBHZW5lcmF0
ZWQgQ2VydGlmaWNhdGUwHQYDVR0OBBYEFCaMpfmmSv5M6A8EM34EJii/TJLzMFkG
A1UdIwRSMFCAFJ2PhHaUzQf+o+iL1/nZbu/KdVF7oS2kKzApMQswCQYDVQQGEwJC
RTEaMBgGA1UEAxMRdHhqc29ucnBjLXRlc3QtY2GCCQCN0q83+cqSCzAJBgNVHRIE
AjAAMAkGA1UdEQQCMAAwDQYJKoZIhvcNAQEFBQADggIBAF5xmuVXjzK3LSTFJS3H
ETBRWPQWAS1JfmOcIAk7r93aZNVvSpmq4B/kS1fOA4LAO2utXtRnfmng+mhslUJa
PY1lCA9ErCK9pcaNlDylKsjzNkzlDekRnSohQW3ln3IuP5b5kkCrmNajwkygGy0Z
qi8b2wgTv1HnlYhHbMeTARDdsfSs4+/MA8v934XcMPV7PxJr3Lfk3VjqcSKEk2mh
DavWdmJDldUhvZ3e4HfhTpepFt3ZmMUYIhFNXG9i6tRBsNNFOBTfPLWr45ixyrvF
/T6xcp14Trus1aQP56nVRnxrqs5wVBG3wng4lzfy7QfTPJb5nCC1qjW+3S7w9++2
535mPf20CRQ0LGRIZGe7hboF/SwR+Ft/3m4VufcgFOCQ4/8L07qUno/WgxswdBx7
IHqxJhFq1p2X5gIUUpmMhiBuZOBAtfR7fBmk/g/OdXpjeeQCTifEMHrHq6MaRLDh
LWvB+BDEehfnIKSP4qAxZACmXxSMKy2rIJ+vRMv2M/N0aTwmu0Lh9HBrCnxr+tcc
5b7CJqhviRCe3YGjBm8GIQaAUVOFby01tmHMOjBhRq75Go8LAAU1LRV33HBtLaPp
bPpkZcJyk1o4b1lIIDryety7Ip0hGiB51dnfuLPsKF9oDTdCxPxh8ovuMMA0hF/4
Brbnjp6IlC1QkuuPG/JQu6Yt
-----END CERTIFICATE-----
