Certificate:
    Data:
        Version: 4 (0x3)
        Serial Number: 1 (0x1)
    Signature Algorithm: sha1WithRSAEncryption
        Issuer: CN=www.example.com, C=BE, O=Gremwell bvba
        Validity
            Not Before: Jan  1 00:00:00 1970 GMT
            Not After : Jan 19 03:14:07 2038 GMT
        Subject: CN=www.example.com, C=BE, O=Gremwell bvba
        Subject Public Key Info:
            Public Key Algorithm: rsaEncryption
                Public-Key: (1024 bit)
                Modulus:
                    00:fc:c7:11:63:4a:f6:b8:a2:9d:f7:c9:77:f2:17:
                    17:15:6b:ed:6d:19:54:95:cf:1e:4d:a8:87:35:13:
                    40:10:89:40:82:8b:1b:76:e2:11:ef:08:71:0e:de:
                    48:d3:a5:6d:6b:a7:65:b4:87:7b:58:f2:f4:51:af:
                    41:04:a6:9c:78:23:c3:ec:33:74:db:85:01:77:ec:
                    86:91:0e:e6:f9:4f:e6:59:54:57:34:d7:ed:06:f4:
                    f3:7a:82:76:3b:08:82:25:7e:4f:38:1e:62:6c:24:
                    a1:eb:53:56:b2:c4:a2:2a:03:ef:81:92:fb:4c:71:
                    b9:ca:d8:5c:51:7e:f2:6e:e1
                Exponent: 65537 (0x10001)
    Signature Algorithm: sha1WithRSAEncryption
         ab:a3:67:25:78:ae:c3:7b:05:80:77:4c:ef:c4:3a:a1:59:17:
         ec:27:85:19:fc:ec:1a:c4:d1:11:de:20:51:b5:6f:f2:7a:0a:
         f0:a9:59:90:e3:a6:ca:53:20:0a:48:1d:7c:e4:03:83:22:60:
         8b:90:ae:95:32:1d:11:df:99:df:cd:55:11:9a:39:c8:53:3f:
         bd:07:bf:c9:5e:54:bd:2c:3c:21:43:a1:45:cb:c2:61:40:a5:
         8c:fd:16:8e:44:25:23:4b:b3:e0:cb:64:de:12:2c:a9:c8:89:
         7f:4f:2d:77:16:ce:d9:84:e2:f0:20:64:06:53:5c:42:29:ac:
         ac:da
-----BEGIN CERTIFICATE-----
MIIB8jCCAVugAwIBAwIBATANBgkqhkiG9w0BAQUFADA/MRgwFgYDVQQDEw93d3cu
ZXhhbXBsZS5jb20xCzAJBgNVBAYTAkJFMRYwFAYDVQQKEw1HcmVtd2VsbCBidmJh
MB4XDTcwMDEwMTAwMDAwMFoXDTM4MDExOTAzMTQwN1owPzEYMBYGA1UEAxMPd3d3
LmV4YW1wbGUuY29tMQswCQYDVQQGEwJCRTEWMBQGA1UEChMNR3JlbXdlbGwgYnZi
YTCBnzANBgkqhkiG9w0BAQEFAAOBjQAwgYkCgYEA/McRY0r2uKKd98l38hcXFWvt
bRlUlc8eTaiHNRNAEIlAgosbduIR7whxDt5I06Vta6dltId7WPL0Ua9BBKaceCPD
7DN024UBd+yGkQ7m+U/mWVRXNNftBvTzeoJ2OwiCJX5POB5ibCSh61NWssSiKgPv
gZL7THG5ythcUX7ybuECAwEAATANBgkqhkiG9w0BAQUFAAOBgQCro2cleK7DewWA
d0zvxDqhWRfsJ4UZ/OwaxNER3iBRtW/yegrwqVmQ46bKUyAKSB185AODImCLkK6V
Mh0R35nfzVURmjnIUz+9B7/JXlS9LDwhQ6FFy8JhQKWM/RaORCUjS7Pgy2TeEiyp
yIl/Ty13Fs7ZhOLwIGQGU1xCKays2g==
-----END CERTIFICATE-----
