Certificate:
    Data:
        Version: 4 (0x3)
        Serial Number: 1 (0x1)
    Signature Algorithm: sha1WithRSAEncryption
        Issuer: C=BE, CN=txjsonrpc-test-ca
        Validity
            Not Before: Jan  1 00:00:00 1970 GMT
            Not After : Jan 19 03:14:07 2038 GMT
        Subject: CN=ca-none, C=BE, O=Gremwell bvba
        Subject Public Key Info:
            Public Key Algorithm: rsaEncryption
                Public-Key: (1024 bit)
                Modulus:
                    00:a0:e8:4b:28:b9:8f:d3:94:0f:cb:c9:d3:b3:7c:
                    06:dd:38:6f:79:86:1b:40:70:72:a1:8e:45:3b:b7:
                    dc:cd:aa:83:bc:ee:14:32:33:d0:e4:9b:f1:1d:c8:
                    8f:0d:81:5b:a1:4f:ad:1f:31:63:a3:6b:f2:c4:71:
                    1e:97:69:e1:b1:9d:a9:a1:35:0c:bd:48:c6:ad:e1:
                    71:3a:12:97:3e:9a:ff:be:00:ca:d9:d9:be:dd:5f:
                    1f:a0:de:63:f4:9b:d6:66:10:3c:c8:78:57:fc:dc:
                    dd:b7:42:9c:91:48:d4:17:b8:46:de:da:ce:48:0c:
                    27:62:54:49:1d:41:92:c2:0b
                Exponent: 65537 (0x10001)
    Signature Algorithm: sha1WithRSAEncryption
         28:3b:b8:1e:b2:56:2b:a3:56:b4:72:65:ec:7d:e2:86:7d:36:
         ab:ed:98:c2:36:8f:72:13:c7:bb:fb:cb:29:85:0e:e5:8d:18:
         c1:38:57:7b:06:b7:14:88:30:1a:d6:81:f3:c2:11:36:84:d6:
         31:76:cc:80:f0:8d:32:89:dc:e8:da:c9:28:14:d2:11:a9:eb:
         0a:6f:c6:82:60:0d:77:b1:35:6e:50:4c:b0:34:00:de:22:ec:
         e1:fd:d9:a7:9e:4a:d6:5f:d5:5c:42:69:67:72:e2:fb:13:fb:
         4a:1a:17:1f:18:92:ed:c5:4c:8b:2e:d5:84:0d:2c:a0:e3:fe:
         e7:92:0c:ae:9a:f3:ed:d3:7e:0f:2b:a5:ac:23:94:fd:0f:b0:
         d5:a4:65:a7:6f:58:a3:b1:48:a0:32:04:c3:c2:fb:9a:80:68:
         4d:33:8e:02:43:e3:3a:6c:e0:f7:15:d3:5b:74:ed:21:fe:71:
         86:7d:09:cb:77:35:39:22:59:f0:29:a5:f4:e7:e9:a2:3a:9c:
         41:4f:fe:ee:b6:df:33:59:b5:41:cd:ad:25:ee:24:60:11:68:
         03:41:03:6c:bc:c2:aa:1f:05:84:2c:e9:a6:44:29:c2:bf:f6:
         ea:44:af:1e:54:83:83:49:1a:52:fe:7d:37:f1:40:1b:f7:70:
         f7:82:de:b8:ab:38:8c:44:56:34:da:32:7e:f6:37:54:b2:fc:
         b3:98:0b:f0:4b:d3:e4:91:15:54:d6:dc:a4:1d:a8:99:11:c5:
         c5:80:17:19:3f:07:02:23:d1:31:f6:2d:44:38:74:df:72:c9:
         46:5a:37:bf:22:c4:b7:57:ee:d3:33:aa:8d:39:b9:d9:96:b6:
         61:f9:2e:e0:c9:c2:8e:5a:41:1a:8d:da:07:51:2a:89:f2:ae:
         22:dd:6c:d3:bb:b9:e6:8b:bc:1c:bd:2c:70:41:00:1e:7f:b7:
         5a:94:65:82:d1:ef:90:2d:dd:7f:b4:5f:0a:fd:48:53:e9:25:
         8f:a3:b4:af:12:98:dc:e0:e0:65:7a:d6:84:a1:f7:51:26:11:
         dd:67:69:23:02:99:67:c9:c3:3c:db:68:44:47:1d:25:0f:f4:
         e2:9b:6f:fc:59:11:6b:8e:a6:e5:bf:37:ad:89:98:8e:5f:e5:
         49:5d:2b:92:ec:dd:ce:1e:e5:d9:b6:20:38:73:5a:c6:14:78:
         79:fe:57:0a:09:39:da:c3:29:c8:ff:d6:c3:76:25:5a:b6:ea:
         31:06:59:da:82:dc:1c:3f:4a:40:1a:0d:71:34:50:48:97:93:
         31:00:2b:fd:93:b6:f7:04:76:80:b5:86:ea:50:22:36:64:e4:
         5e:19:37:ea:1f:82:16:07
-----BEGIN CERTIFICATE-----
MIIDVTCCAT2gAwIBAwIBATANBgkqhkiG9w0BAQUFADApMQswCQYDVQQGEwJCRTEa
MBgGA1UEAxMRdHhqc29ucnBjLXRlc3QtY2EwHhcNNzAwMTAxMDAwMDAwWhcNMzgw
MTE5MDMxNDA3WjA3MRAwDgYDVQQDEwdjYS1ub25lMQswCQYDVQQGEwJCRTEWMBQG
A1UEChMNR3JlbXdlbGwgYnZiYTCBnzANBgkqhkiG9w0BAQEFAAOBjQAwgYkCgYEA
oOhLKLmP05QPy8nTs3wG3ThveYYbQHByoY5FO7fczaqDvO4UMjPQ5JvxHciPDYFb
oU+tHzFjo2vyxHEel2nhsZ2poTUMvUjGreFxOhKXPpr/vgDK2dm+3V8foN5j9JvW
ZhA8yHhX/Nzdt0KckUjUF7hG3trOSAwnYlRJHUGSwgsCAwEAATANBgkqhkiG9w0B
AQUFAAOCAgEAKDu4HrJWK6NWtHJl7H3ihn02q+2YwjaPchPHu/vLKYUO5Y0YwThX
ewa3FIgwGtaB88IRNoTWMXbMgPCNMonc6NrJKBTSEanrCm/GgmANd7E1blBMsDQA
3iLs4f3Zp55K1l/VXEJpZ3Li+xP7ShoXHxiS7cVMiy7VhA0soOP+55IMrprz7dN+
DyulrCOU/Q+w1aRlp29Yo7FIoDIEw8L7moBoTTOOAkPjOmzg9xXTW3TtIf5xhn0J
y3c1OSJZ8Cml9OfpojqcQU/+7rbfM1m1Qc2tJe4kYBFoA0EDbLzCqh8FhCzppkQp
wr/26kSvHlSDg0kaUv59N/FAG/dw94LeuKs4jERWNNoyfvY3VLL8s5gL8EvT5JEV
VNbcpB2omRHFxYAXGT8HAiPRMfYtRDh033LJRlo3vyLEt1fu0zOqjTm52Za2Yfku
4MnCjlpBGo3aB1EqifKuIt1s07u55ou8HL0scEEAHn+3WpRlgtHvkC3df7RfCv1I
U+klj6O0rxKY3ODgZXrWhKH3USYR3WdpIwKZZ8nDPNtoREcdJQ/04ptv/FkRa46m
5b83rYmYjl/lSV0rkuzdzh7l2bYgOHNaxhR4ef5XCgk52sMpyP/Ww3YlWrbqMQZZ
2oLcHD9KQBoNcTRQSJeTMQAr/ZO29wR2gLWG6lAiNmTkXhk36h+CFgc=
-----END CERTIFICATE-----
Certificate:
    Data:
        Version: 3 (0x2)
        Serial Number: 10219423159405941259 (0x8dd2af37f9ca920b)
    Signature Algorithm: sha1WithRSAEncryption
        Issuer: C=BE, CN=txjsonrpc-test-ca
        Validity
            Not Before: Jun 23 15:46:37 2012 GMT
            Not After : Jun 21 15:46:37 2022 GMT
        Subject: C=BE, CN=txjsonrpc-test-ca
        Subject Public Key Info:
            Public Key Algorithm: rsaEncryption
                Public-Key: (4096 bit)
                Modulus:
                    00:d1:25:af:77:c5:a8:72:cf:90:b9:39:10:fb:7b:
                    75:2c:a1:da:6a:95:e5:44:0c:d6:25:4b:58:7f:bb:
                    07:82:59:49:58:32:85:24:cc:3e:77:db:e1:a7:4f:
                    c8:b5:cb:ee:45:38:bd:bc:fb:e3:76:3b:88:04:ca:
                    ab:3a:a3:96:3b:5f:93:9c:28:a6:61:97:dc:a2:3f:
                    a0:93:2b:56:6c:cf:d3:4f:6a:9e:05:d3:1c:cd:ef:
                    75:80:1a:98:b7:92:49:14:33:b8:c4:7c:73:8c:7e:
                    83:a5:81:a2:59:8c:8b:a3:51:36:6d:68:ac:f2:f1:
                    ed:6f:49:d9:af:7a:63:c1:43:31:42:b6:c7:cd:b9:
                    78:b7:33:98:70:92:6c:9e:04:7a:7b:f0:6d:38:87:
                    eb:00:13:17:b9:d9:ec:b4:66:bb:51:d3:fd:81:e3:
                    0e:88:71:23:d2:80:2a:61:de:ab:25:02:47:a9:c1:
                    6b:c9:69:ae:da:47:b6:49:74:ac:a6:e1:c1:76:ba:
                    6d:b1:d9:68:6e:1c:37:a8:e2:18:60:37:b6:58:13:
                    6c:c7:92:7c:c6:45:8c:ef:c3:81:73:10:dc:2f:31:
                    e2:b9:05:5a:9e:28:70:5a:3e:1d:b8:68:71:81:c9:
                    e8:fe:1f:c3:a0:13:f8:e4:24:12:ba:91:8e:15:d2:
                    03:f1:8c:b0:aa:e2:34:e4:6b:f8:06:f6:23:8a:92:
                    43:a6:05:dc:e9:c7:a5:a8:06:d7:6e:91:52:72:47:
                    ab:ae:87:fe:b3:0f:04:87:6f:4b:22:29:e9:a9:06:
                    52:58:7d:03:16:d7:d5:31:44:b4:f1:51:44:a7:2a:
                    ba:5e:09:19:ec:4c:a2:e0:58:fe:0d:4e:b7:90:4d:
                    02:ac:2a:ad:99:14:65:3b:0a:3c:73:45:56:b2:0f:
                    10:25:24:51:79:57:1a:34:1a:10:6f:60:e0:fc:81:
                    db:ca:c2:e2:85:1b:4c:72:13:5c:9d:76:cc:d0:21:
                    33:31:56:82:8f:c5:57:b9:44:fd:8b:76:c1:b6:e4:
                    21:8b:35:9a:ee:54:74:9f:72:6b:19:84:d7:a2:3c:
                    a5:6e:11:0a:f1:93:04:2e:dd:7c:4c:7d:62:10:d4:
                    1b:8b:87:f6:ed:bf:12:b1:8b:f0:9a:7a:ee:02:94:
                    e1:3c:46:2b:7f:9c:54:fb:2e:61:c9:1c:ef:fc:de:
                    25:bc:2d:75:1b:1f:49:5e:44:3b:15:93:ad:c4:89:
                    d9:ae:3c:da:54:ef:d9:af:3a:16:cb:94:1b:6a:14:
                    e4:42:f9:75:33:46:6e:fb:40:bc:f8:82:36:cf:60:
                    f5:c2:a2:98:23:a7:2a:ae:c1:aa:22:f8:87:da:b7:
                    9c:a4:cf
                Exponent: 65537 (0x10001)
        X509v3 extensions:
            X509v3 Subject Key Identifier: 
                9D:8F:84:76:94:CD:07:FE:A3:E8:8B:D7:F9:D9:6E:EF:CA:75:51:7B
            X509v3 Authority Key Identifier: 
                keyid:9D:8F:84:76:94:CD:07:FE:A3:E8:8B:D7:F9:D9:6E:EF:CA:75:51:7B
                DirName:/C=BE/CN=txjsonrpc-test-ca
                serial:8D:D2:AF:37:F9:CA:92:0B

            X509v3 Basic Constraints: critical
                CA:TRUE
            Netscape Cert Type: 
                SSL CA, S/MIME CA
            X509v3 Issuer Alternative Name: 
                <EMPTY>

            Netscape Comment: 
                Test CA for txjsonrcp
            X509v3 Subject Alternative Name: 
                <EMPTY>

            X509v3 Key Usage: critical
                Certificate Sign, CRL Sign
    Signature Algorithm: sha1WithRSAEncryption
         06:82:86:81:a9:1b:7e:2d:ef:f5:fc:cc:d2:9d:d6:82:ad:d0:
         6f:7e:3d:b9:5c:b2:0f:3a:64:21:9a:fb:53:b2:93:81:dc:1a:
         24:fc:b8:30:57:a2:c7:71:0d:9c:1a:0b:8a:6c:89:52:8b:8a:
         f5:af:95:3e:b8:08:39:ee:36:50:ac:60:4d:df:2b:49:a2:72:
         f1:3f:12:3c:d9:55:56:a4:9a:77:2b:77:fa:16:b5:76:d9:f4:
         c4:51:6b:b9:fe:2f:a3:52:e8:64:80:49:22:6d:05:42:87:af:
         9d:85:6c:fa:c9:9b:48:39:7b:89:f5:a0:1e:ff:11:d3:9c:78:
         b1:b2:f6:4d:b1:e8:b3:98:23:2c:d4:20:e1:a1:01:3e:26:0a:
         5b:8e:eb:58:45:22:cf:e1:94:ad:84:40:b0:fb:ff:25:5f:31:
         9a:49:0b:36:ad:c6:1a:b0:42:60:40:e2:a2:3c:5a:36:41:89:
         fc:10:c4:60:ea:d4:85:7b:36:84:df:aa:81:cc:69:e7:52:ca:
         c1:46:b1:79:93:51:4f:24:84:42:14:3a:20:a0:6c:27:76:40:
         0f:96:7e:4e:c3:0c:37:b3:e3:73:49:86:58:31:00:1e:e7:0f:
         87:74:b6:4e:6e:1c:7d:87:a4:33:04:c9:76:ec:e5:3a:85:5f:
         a8:d1:ad:21:64:5e:c5:6a:df:b1:02:6e:65:a4:87:72:06:07:
         da:e5:f2:af:2b:a5:eb:18:80:67:83:a5:3c:e6:ed:d1:58:f9:
         90:5c:d6:e9:2f:76:c1:58:13:b8:bd:88:8a:f3:04:48:bb:42:
         8f:7f:c6:db:b4:30:3f:bb:6c:d5:47:e5:ae:8d:4b:da:92:a5:
         db:d3:6e:a8:9b:c2:6b:56:af:34:63:82:e6:78:f8:1f:54:d7:
         41:aa:a3:c9:7c:a6:83:41:bf:6e:33:7c:ae:e6:92:bd:da:27:
         b4:bc:e2:90:4f:33:1b:01:a1:cd:02:13:7a:31:ef:00:d6:9a:
         6e:38:6b:a7:cb:70:98:a8:0f:ff:1c:56:a8:b7:e6:d2:42:5a:
         bb:f4:78:27:71:13:d0:e8:43:eb:bc:2d:4f:e4:ea:4d:4f:76:
         7f:53:38:34:eb:13:e2:3d:c6:14:98:86:1c:ab:2c:0e:b7:68:
         2e:bd:63:a9:6a:8f:d5:22:2d:ab:13:d7:62:54:51:ff:5c:37:
         08:04:27:da:f9:57:77:05:18:73:88:5f:b0:c1:65:50:36:09:
         d6:c7:f5:ae:6e:3f:04:d1:84:3c:21:74:1d:bd:0a:fb:76:d0:
         13:2b:62:bb:24:48:43:89:d0:18:5c:b4:ad:ea:98:af:6d:fc:
         1c:6b:1f:06:64:54:23:88
-----BEGIN CERTIFICATE-----
MIIFwzCCA6ugAwIBAgIJAI3Srzf5ypILMA0GCSqGSIb3DQEBBQUAMCkxCzAJBgNV
BAYTAkJFMRowGAYDVQQDExF0eGpzb25ycGMtdGVzdC1jYTAeFw0xMjA2MjMxNTQ2
MzdaFw0yMjA2MjExNTQ2MzdaMCkxCzAJBgNVBAYTAkJFMRowGAYDVQQDExF0eGpz
b25ycGMtdGVzdC1jYTCCAiIwDQYJKoZIhvcNAQEBBQADggIPADCCAgoCggIBANEl
r3fFqHLPkLk5EPt7dSyh2mqV5UQM1iVLWH+7B4JZSVgyhSTMPnfb4adPyLXL7kU4
vbz743Y7iATKqzqjljtfk5wopmGX3KI/oJMrVmzP009qngXTHM3vdYAamLeSSRQz
uMR8c4x+g6WBolmMi6NRNm1orPLx7W9J2a96Y8FDMUK2x825eLczmHCSbJ4Eenvw
bTiH6wATF7nZ7LRmu1HT/YHjDohxI9KAKmHeqyUCR6nBa8lprtpHtkl0rKbhwXa6
bbHZaG4cN6jiGGA3tlgTbMeSfMZFjO/DgXMQ3C8x4rkFWp4ocFo+HbhocYHJ6P4f
w6AT+OQkErqRjhXSA/GMsKriNORr+Ab2I4qSQ6YF3OnHpagG126RUnJHq66H/rMP
BIdvSyIp6akGUlh9AxbX1TFEtPFRRKcqul4JGexMouBY/g1Ot5BNAqwqrZkUZTsK
PHNFVrIPECUkUXlXGjQaEG9g4PyB28rC4oUbTHITXJ12zNAhMzFWgo/FV7lE/Yt2
wbbkIYs1mu5UdJ9yaxmE16I8pW4RCvGTBC7dfEx9YhDUG4uH9u2/ErGL8Jp67gKU
4TxGK3+cVPsuYckc7/zeJbwtdRsfSV5EOxWTrcSJ2a482lTv2a86FsuUG2oU5EL5
dTNGbvtAvPiCNs9g9cKimCOnKq7BqiL4h9q3nKTPAgMBAAGjge0wgeowHQYDVR0O
BBYEFJ2PhHaUzQf+o+iL1/nZbu/KdVF7MFkGA1UdIwRSMFCAFJ2PhHaUzQf+o+iL
1/nZbu/KdVF7oS2kKzApMQswCQYDVQQGEwJCRTEaMBgGA1UEAxMRdHhqc29ucnBj
LXRlc3QtY2GCCQCN0q83+cqSCzAPBgNVHRMBAf8EBTADAQH/MBEGCWCGSAGG+EIB
AQQEAwIBBjAJBgNVHRIEAjAAMCQGCWCGSAGG+EIBDQQXFhVUZXN0IENBIGZvciB0
eGpzb25yY3AwCQYDVR0RBAIwADAOBgNVHQ8BAf8EBAMCAQYwDQYJKoZIhvcNAQEF
BQADggIBAAaChoGpG34t7/X8zNKd1oKt0G9+Pblcsg86ZCGa+1Oyk4HcGiT8uDBX
osdxDZwaC4psiVKLivWvlT64CDnuNlCsYE3fK0micvE/EjzZVVakmncrd/oWtXbZ
9MRRa7n+L6NS6GSASSJtBUKHr52FbPrJm0g5e4n1oB7/EdOceLGy9k2x6LOYIyzU
IOGhAT4mCluO61hFIs/hlK2EQLD7/yVfMZpJCzatxhqwQmBA4qI8WjZBifwQxGDq
1IV7NoTfqoHMaedSysFGsXmTUU8khEIUOiCgbCd2QA+Wfk7DDDez43NJhlgxAB7n
D4d0tk5uHH2HpDMEyXbs5TqFX6jRrSFkXsVq37ECbmWkh3IGB9rl8q8rpesYgGeD
pTzm7dFY+ZBc1ukvdsFYE7i9iIrzBEi7Qo9/xtu0MD+7bNVH5a6NS9qSpdvTbqib
wmtWrzRjguZ4+B9U10Gqo8l8poNBv24zfK7mkr3aJ7S84pBPMxsBoc0CE3ox7wDW
mm44a6fLcJioD/8cVqi35tJCWrv0eCdxE9DoQ+u8LU/k6k1Pdn9TODTrE+I9xhSY
hhyrLA63aC69Y6lqj9UiLasT12JUUf9cNwgEJ9r5V3cFGHOIX7DBZVA2CdbH9a5u
PwTRhDwhdB29Cvt20BMrYrskSEOJ0BhctK3qmK9t/BxrHwZkVCOI
-----END CERTIFICATE-----
