Certificate:
    Data:
        Version: 3 (0x2)
        Serial Number: 1 (0x1)
    Signature Algorithm: sha1WithRSAEncryption
        Issuer: C=BE, CN=txjsonrpc-test-ca
        Validity
            Not Before: Jun 23 15:47:38 2012 GMT
            Not After : Jun 23 15:47:38 2013 GMT
        Subject: C=BE, CN=txjsonrpc-pyserver
        Subject Public Key Info:
            Public Key Algorithm: rsaEncryption
                Public-Key: (4096 bit)
                Modulus:
                    00:a8:5b:98:9c:6a:2c:15:63:ad:34:3c:7e:59:22:
                    ea:74:1c:17:65:3d:d0:d3:ce:99:41:8e:85:9f:06:
                    92:85:95:df:bc:26:52:69:d7:21:dd:f4:89:59:4b:
                    6c:1e:4e:42:c8:b3:b8:c9:81:54:75:c1:d4:8e:ca:
                    5b:96:3b:32:a8:86:81:93:1b:ab:09:bf:1d:0a:8d:
                    0a:c6:a2:23:54:47:55:a7:80:71:af:e2:8e:85:d4:
                    f3:46:6d:d1:74:cd:cf:ae:db:8a:6b:b7:df:a7:21:
                    b2:11:8c:7f:11:dd:da:ae:1e:24:9c:c7:12:c9:df:
                    da:15:79:9a:ff:26:b7:e1:47:5c:0f:92:56:b1:ff:
                    0f:48:45:b8:1f:41:5d:70:fd:39:7c:31:54:3e:ed:
                    1a:c4:18:c3:da:66:5b:ba:bc:61:c6:68:b3:4e:31:
                    26:79:f4:c7:7c:26:34:92:ed:f3:3b:a4:20:1f:2a:
                    2c:bc:ba:13:6b:85:fc:8b:cd:05:4d:86:a5:be:a6:
                    fc:d5:6b:cd:df:3e:91:4f:3e:f5:22:f5:b1:68:f6:
                    53:ff:3b:27:aa:32:3e:90:a6:e8:4d:99:1e:f2:23:
                    d0:ef:5e:5d:13:e1:26:02:5c:00:e0:39:3b:01:e2:
                    bf:b4:d5:c2:cf:16:e9:31:d5:bc:50:f0:ee:78:a7:
                    52:2b:99:12:be:b3:8f:cf:a6:d4:7e:dd:5c:f4:e7:
                    bf:ba:dc:55:6a:af:c4:71:20:bb:5d:82:d5:bc:ec:
                    8c:42:7c:f9:01:da:43:d6:66:9a:c3:9a:ef:19:e7:
                    65:cf:03:fa:bd:49:f3:f7:47:a2:3c:de:53:8d:34:
                    0e:df:ce:18:0f:24:cf:a8:39:b9:4f:96:40:03:29:
                    3f:8b:63:3b:f3:63:7d:f4:fd:92:ca:74:88:63:79:
                    7f:63:39:e4:e3:f2:43:6a:a7:cc:1e:e3:fe:50:c4:
                    bd:ee:ff:95:5d:dd:09:71:b3:95:5c:3e:2a:14:c0:
                    11:cf:f7:11:aa:b1:03:b8:45:29:8b:ac:a8:bf:e3:
                    b4:cf:72:9e:81:86:97:ce:aa:66:f3:90:c5:a1:0e:
                    1e:af:10:8a:df:cb:0c:a1:43:13:1c:fe:f5:60:58:
                    53:05:72:99:80:ed:98:81:30:dd:24:af:e0:47:d2:
                    4c:3e:c1:11:df:da:b1:0d:dd:b1:a7:47:59:7d:bb:
                    c9:18:c8:83:ee:25:1a:33:8e:2e:b2:00:3c:a4:da:
                    ff:96:e7:ad:bb:c7:06:2d:9d:43:57:b4:b7:c4:b6:
                    fb:a0:f3:5b:32:b6:d6:29:19:ee:77:2e:a3:0b:d3:
                    fe:7e:12:9a:ad:7e:84:f5:3d:2f:75:37:c9:a2:dd:
                    bb:20:2b
                Exponent: 65537 (0x10001)
        X509v3 extensions:
            X509v3 Basic Constraints: 
                CA:FALSE
            Netscape Cert Type: 
                SSL Server
            Netscape Comment: 
                TinyCA Generated Certificate
            X509v3 Subject Key Identifier: 
                26:8C:A5:F9:A6:4A:FE:4C:E8:0F:04:33:7E:04:26:28:BF:4C:92:F3
            X509v3 Authority Key Identifier: 
                keyid:9D:8F:84:76:94:CD:07:FE:A3:E8:8B:D7:F9:D9:6E:EF:CA:75:51:7B
                DirName:/C=BE/CN=txjsonrpc-test-ca
                serial:8D:D2:AF:37:F9:CA:92:0B

            X509v3 Issuer Alternative Name: 
                <EMPTY>

            X509v3 Subject Alternative Name: 
                <EMPTY>

    Signature Algorithm: sha1WithRSAEncryption
         a1:13:20:87:e9:7f:34:fd:91:54:30:83:aa:ad:e8:cf:e7:46:
         58:09:ca:7c:e8:6f:52:6a:ff:a6:d9:84:3b:f5:3b:e4:c8:d7:
         41:ed:b1:39:a7:39:c3:6e:5f:50:9a:b5:69:61:7a:d6:fe:53:
         73:bc:5e:07:6a:e1:e1:64:a2:08:3c:19:59:40:0c:32:69:36:
         d6:48:ea:ae:f5:ac:3d:1f:fd:9e:93:f9:d1:07:8f:c8:11:e2:
         04:5d:77:39:38:99:3f:2d:4b:aa:de:28:36:59:09:1a:2d:bf:
         af:eb:95:e8:d6:06:ce:ca:62:7b:e6:cc:89:17:3a:1d:76:11:
         f2:5a:33:04:8f:e8:06:c7:f6:2a:b6:49:4e:16:46:0a:bd:3f:
         77:4b:72:4f:4a:45:71:ec:93:ad:24:d8:68:fb:c5:0f:78:5d:
         ca:dd:b3:48:6a:ec:4d:22:7f:b8:8a:0b:6c:82:0c:82:cc:3e:
         8f:bf:c8:e5:88:bc:61:fa:91:de:bb:d8:61:c8:0f:03:7f:ac:
         55:b3:bc:c6:69:d7:9b:d2:54:73:1e:6b:b3:78:0d:32:91:85:
         bb:58:04:8d:09:20:3a:7f:ee:4d:89:46:b7:63:d5:72:76:d2:
         cc:39:b7:12:ef:09:83:16:db:ad:27:2d:93:bf:51:09:60:f0:
         b7:08:0f:ca:44:32:69:c9:5d:71:38:c7:7a:da:fe:1c:78:b7:
         74:b5:33:2c:c7:a9:83:6e:1c:77:5f:15:e5:e6:65:69:1c:b3:
         63:2b:4d:dd:d4:15:ac:9b:40:02:b6:ee:85:86:72:bc:64:8a:
         55:b6:63:e0:96:5a:da:ff:3b:d0:05:ef:c5:bb:ff:c8:4b:44:
         3b:19:16:57:af:67:ea:80:f6:8c:9d:c4:a6:7e:9d:72:11:9e:
         f8:aa:15:c4:e6:e9:42:30:2f:36:c9:a6:d8:a4:c3:db:bd:1b:
         36:e4:f1:49:64:fa:d0:89:8c:39:9f:77:cb:3f:bf:8a:0c:55:
         0d:ef:c9:43:c4:71:4d:04:58:c7:ad:cd:18:0f:28:5b:df:3e:
         27:fd:76:c5:68:b8:5a:80:bd:d6:84:29:e1:9d:d9:47:e1:24:
         27:84:90:f3:91:cd:14:50:26:0c:bc:09:58:02:64:5e:63:b2:
         42:13:00:8f:af:9b:7c:32:1a:c4:b0:68:c8:1c:9b:e4:d8:f7:
         09:ac:4a:f8:c8:87:90:a6:e7:2c:21:a3:ea:0c:5d:12:0d:5b:
         6d:20:34:0d:11:49:e9:ef:49:6a:a7:e4:fe:37:11:ee:36:17:
         04:a9:7e:e4:78:a6:bc:ce:47:9e:14:df:ac:fc:10:ca:d4:c5:
         4c:01:3a:42:97:43:ce:2e
-----BEGIN CERTIFICATE-----
MIIFrTCCA5WgAwIBAgIBATANBgkqhkiG9w0BAQUFADApMQswCQYDVQQGEwJCRTEa
MBgGA1UEAxMRdHhqc29ucnBjLXRlc3QtY2EwHhcNMTIwNjIzMTU0NzM4WhcNMTMw
NjIzMTU0NzM4WjAqMQswCQYDVQQGEwJCRTEbMBkGA1UEAxMSdHhqc29ucnBjLXB5
c2VydmVyMIICIjANBgkqhkiG9w0BAQEFAAOCAg8AMIICCgKCAgEAqFuYnGosFWOt
NDx+WSLqdBwXZT3Q086ZQY6FnwaShZXfvCZSadch3fSJWUtsHk5CyLO4yYFUdcHU
jspbljsyqIaBkxurCb8dCo0KxqIjVEdVp4Bxr+KOhdTzRm3RdM3PrtuKa7ffpyGy
EYx/Ed3arh4knMcSyd/aFXma/ya34UdcD5JWsf8PSEW4H0FdcP05fDFUPu0axBjD
2mZburxhxmizTjEmefTHfCY0ku3zO6QgHyosvLoTa4X8i80FTYalvqb81WvN3z6R
Tz71IvWxaPZT/zsnqjI+kKboTZke8iPQ715dE+EmAlwA4Dk7AeK/tNXCzxbpMdW8
UPDueKdSK5kSvrOPz6bUft1c9Oe/utxVaq/EcSC7XYLVvOyMQnz5AdpD1maaw5rv
GedlzwP6vUnz90eiPN5TjTQO384YDyTPqDm5T5ZAAyk/i2M782N99P2SynSIY3l/
Yznk4/JDaqfMHuP+UMS97v+VXd0JcbOVXD4qFMARz/cRqrEDuEUpi6yov+O0z3Ke
gYaXzqpm85DFoQ4erxCK38sMoUMTHP71YFhTBXKZgO2YgTDdJK/gR9JMPsER39qx
Dd2xp0dZfbvJGMiD7iUaM44usgA8pNr/luetu8cGLZ1DV7S3xLb7oPNbMrbWKRnu
dy6jC9P+fhKarX6E9T0vdTfJot27ICsCAwEAAaOB3jCB2zAJBgNVHRMEAjAAMBEG
CWCGSAGG+EIBAQQEAwIGQDArBglghkgBhvhCAQ0EHhYcVGlueUNBIEdlbmVyYXRl
ZCBDZXJ0aWZpY2F0ZTAdBgNVHQ4EFgQUJoyl+aZK/kzoDwQzfgQmKL9MkvMwWQYD
VR0jBFIwUIAUnY+EdpTNB/6j6IvX+dlu78p1UXuhLaQrMCkxCzAJBgNVBAYTAkJF
MRowGAYDVQQDExF0eGpzb25ycGMtdGVzdC1jYYIJAI3Srzf5ypILMAkGA1UdEgQC
MAAwCQYDVR0RBAIwADANBgkqhkiG9w0BAQUFAAOCAgEAoRMgh+l/NP2RVDCDqq3o
z+dGWAnKfOhvUmr/ptmEO/U75MjXQe2xOac5w25fUJq1aWF61v5Tc7xeB2rh4WSi
CDwZWUAMMmk21kjqrvWsPR/9npP50QePyBHiBF13OTiZPy1Lqt4oNlkJGi2/r+uV
6NYGzspie+bMiRc6HXYR8lozBI/oBsf2KrZJThZGCr0/d0tyT0pFceyTrSTYaPvF
D3hdyt2zSGrsTSJ/uIoLbIIMgsw+j7/I5Yi8YfqR3rvYYcgPA3+sVbO8xmnXm9JU
cx5rs3gNMpGFu1gEjQkgOn/uTYlGt2PVcnbSzDm3Eu8JgxbbrSctk79RCWDwtwgP
ykQyacldcTjHetr+HHi3dLUzLMepg24cd18V5eZlaRyzYytN3dQVrJtAArbuhYZy
vGSKVbZj4JZa2v870AXvxbv/yEtEOxkWV69n6oD2jJ3Epn6dchGe+KoVxObpQjAv
Nsmm2KTD270bNuTxSWT60ImMOZ93yz+/igxVDe/JQ8RxTQRYx63NGA8oW98+J/12
xWi4WoC91oQp4Z3ZR+EkJ4SQ85HNFFAmDLwJWAJkXmOyQhMAj6+bfDIaxLBoyByb
5Nj3CaxK+MiHkKbnLCGj6gxdEg1bbSA0DRFJ6e9Jaqfk/jcR7jYXBKl+5HimvM5H
nhTfrPwQytTFTAE6QpdDzi4=
-----END CERTIFICATE-----
Certificate:
    Data:
        Version: 3 (0x2)
        Serial Number: 10219423159405941259 (0x8dd2af37f9ca920b)
    Signature Algorithm: sha1WithRSAEncryption
        Issuer: C=BE, CN=txjsonrpc-test-ca
        Validity
            Not Before: Jun 23 15:46:37 2012 GMT
            Not After : Jun 21 15:46:37 2022 GMT
        Subject: C=BE, CN=txjsonrpc-test-ca
        Subject Public Key Info:
            Public Key Algorithm: rsaEncryption
                Public-Key: (4096 bit)
                Modulus:
                    00:d1:25:af:77:c5:a8:72:cf:90:b9:39:10:fb:7b:
                    75:2c:a1:da:6a:95:e5:44:0c:d6:25:4b:58:7f:bb:
                    07:82:59:49:58:32:85:24:cc:3e:77:db:e1:a7:4f:
                    c8:b5:cb:ee:45:38:bd:bc:fb:e3:76:3b:88:04:ca:
                    ab:3a:a3:96:3b:5f:93:9c:28:a6:61:97:dc:a2:3f:
                    a0:93:2b:56:6c:cf:d3:4f:6a:9e:05:d3:1c:cd:ef:
                    75:80:1a:98:b7:92:49:14:33:b8:c4:7c:73:8c:7e:
                    83:a5:81:a2:59:8c:8b:a3:51:36:6d:68:ac:f2:f1:
                    ed:6f:49:d9:af:7a:63:c1:43:31:42:b6:c7:cd:b9:
                    78:b7:33:98:70:92:6c:9e:04:7a:7b:f0:6d:38:87:
                    eb:00:13:17:b9:d9:ec:b4:66:bb:51:d3:fd:81:e3:
                    0e:88:71:23:d2:80:2a:61:de:ab:25:02:47:a9:c1:
                    6b:c9:69:ae:da:47:b6:49:74:ac:a6:e1:c1:76:ba:
                    6d:b1:d9:68:6e:1c:37:a8:e2:18:60:37:b6:58:13:
                    6c:c7:92:7c:c6:45:8c:ef:c3:81:73:10:dc:2f:31:
                    e2:b9:05:5a:9e:28:70:5a:3e:1d:b8:68:71:81:c9:
                    e8:fe:1f:c3:a0:13:f8:e4:24:12:ba:91:8e:15:d2:
                    03:f1:8c:b0:aa:e2:34:e4:6b:f8:06:f6:23:8a:92:
                    43:a6:05:dc:e9:c7:a5:a8:06:d7:6e:91:52:72:47:
                    ab:ae:87:fe:b3:0f:04:87:6f:4b:22:29:e9:a9:06:
                    52:58:7d:03:16:d7:d5:31:44:b4:f1:51:44:a7:2a:
                    ba:5e:09:19:ec:4c:a2:e0:58:fe:0d:4e:b7:90:4d:
                    02:ac:2a:ad:99:14:65:3b:0a:3c:73:45:56:b2:0f:
                    10:25:24:51:79:57:1a:34:1a:10:6f:60:e0:fc:81:
                    db:ca:c2:e2:85:1b:4c:72:13:5c:9d:76:cc:d0:21:
                    33:31:56:82:8f:c5:57:b9:44:fd:8b:76:c1:b6:e4:
                    21:8b:35:9a:ee:54:74:9f:72:6b:19:84:d7:a2:3c:
                    a5:6e:11:0a:f1:93:04:2e:dd:7c:4c:7d:62:10:d4:
                    1b:8b:87:f6:ed:bf:12:b1:8b:f0:9a:7a:ee:02:94:
                    e1:3c:46:2b:7f:9c:54:fb:2e:61:c9:1c:ef:fc:de:
                    25:bc:2d:75:1b:1f:49:5e:44:3b:15:93:ad:c4:89:
                    d9:ae:3c:da:54:ef:d9:af:3a:16:cb:94:1b:6a:14:
                    e4:42:f9:75:33:46:6e:fb:40:bc:f8:82:36:cf:60:
                    f5:c2:a2:98:23:a7:2a:ae:c1:aa:22:f8:87:da:b7:
                    9c:a4:cf
                Exponent: 65537 (0x10001)
        X509v3 extensions:
            X509v3 Subject Key Identifier: 
                9D:8F:84:76:94:CD:07:FE:A3:E8:8B:D7:F9:D9:6E:EF:CA:75:51:7B
            X509v3 Authority Key Identifier: 
                keyid:9D:8F:84:76:94:CD:07:FE:A3:E8:8B:D7:F9:D9:6E:EF:CA:75:51:7B
                DirName:/C=BE/CN=txjsonrpc-test-ca
                serial:8D:D2:AF:37:F9:CA:92:0B

            X509v3 Basic Constraints: critical
                CA:TRUE
            Netscape Cert Type: 
                SSL CA, S/MIME CA
            X509v3 Issuer Alternative Name: 
                <EMPTY>

            Netscape Comment: 
                Test CA for txjsonrcp
            X509v3 Subject Alternative Name: 
                <EMPTY>

            X509v3 Key Usage: critical
                Certificate Sign, CRL Sign
    Signature Algorithm: sha1WithRSAEncryption
         06:82:86:81:a9:1b:7e:2d:ef:f5:fc:cc:d2:9d:d6:82:ad:d0:
         6f:7e:3d:b9:5c:b2:0f:3a:64:21:9a:fb:53:b2:93:81:dc:1a:
         24:fc:b8:30:57:a2:c7:71:0d:9c:1a:0b:8a:6c:89:52:8b:8a:
         f5:af:95:3e:b8:08:39:ee:36:50:ac:60:4d:df:2b:49:a2:72:
         f1:3f:12:3c:d9:55:56:a4:9a:77:2b:77:fa:16:b5:76:d9:f4:
         c4:51:6b:b9:fe:2f:a3:52:e8:64:80:49:22:6d:05:42:87:af:
         9d:85:6c:fa:c9:9b:48:39:7b:89:f5:a0:1e:ff:11:d3:9c:78:
         b1:b2:f6:4d:b1:e8:b3:98:23:2c:d4:20:e1:a1:01:3e:26:0a:
         5b:8e:eb:58:45:22:cf:e1:94:ad:84:40:b0:fb:ff:25:5f:31:
         9a:49:0b:36:ad:c6:1a:b0:42:60:40:e2:a2:3c:5a:36:41:89:
         fc:10:c4:60:ea:d4:85:7b:36:84:df:aa:81:cc:69:e7:52:ca:
         c1:46:b1:79:93:51:4f:24:84:42:14:3a:20:a0:6c:27:76:40:
         0f:96:7e:4e:c3:0c:37:b3:e3:73:49:86:58:31:00:1e:e7:0f:
         87:74:b6:4e:6e:1c:7d:87:a4:33:04:c9:76:ec:e5:3a:85:5f:
         a8:d1:ad:21:64:5e:c5:6a:df:b1:02:6e:65:a4:87:72:06:07:
         da:e5:f2:af:2b:a5:eb:18:80:67:83:a5:3c:e6:ed:d1:58:f9:
         90:5c:d6:e9:2f:76:c1:58:13:b8:bd:88:8a:f3:04:48:bb:42:
         8f:7f:c6:db:b4:30:3f:bb:6c:d5:47:e5:ae:8d:4b:da:92:a5:
         db:d3:6e:a8:9b:c2:6b:56:af:34:63:82:e6:78:f8:1f:54:d7:
         41:aa:a3:c9:7c:a6:83:41:bf:6e:33:7c:ae:e6:92:bd:da:27:
         b4:bc:e2:90:4f:33:1b:01:a1:cd:02:13:7a:31:ef:00:d6:9a:
         6e:38:6b:a7:cb:70:98:a8:0f:ff:1c:56:a8:b7:e6:d2:42:5a:
         bb:f4:78:27:71:13:d0:e8:43:eb:bc:2d:4f:e4:ea:4d:4f:76:
         7f:53:38:34:eb:13:e2:3d:c6:14:98:86:1c:ab:2c:0e:b7:68:
         2e:bd:63:a9:6a:8f:d5:22:2d:ab:13:d7:62:54:51:ff:5c:37:
         08:04:27:da:f9:57:77:05:18:73:88:5f:b0:c1:65:50:36:09:
         d6:c7:f5:ae:6e:3f:04:d1:84:3c:21:74:1d:bd:0a:fb:76:d0:
         13:2b:62:bb:24:48:43:89:d0:18:5c:b4:ad:ea:98:af:6d:fc:
         1c:6b:1f:06:64:54:23:88
-----BEGIN CERTIFICATE-----
MIIFwzCCA6ugAwIBAgIJAI3Srzf5ypILMA0GCSqGSIb3DQEBBQUAMCkxCzAJBgNV
BAYTAkJFMRowGAYDVQQDExF0eGpzb25ycGMtdGVzdC1jYTAeFw0xMjA2MjMxNTQ2
MzdaFw0yMjA2MjExNTQ2MzdaMCkxCzAJBgNVBAYTAkJFMRowGAYDVQQDExF0eGpz
b25ycGMtdGVzdC1jYTCCAiIwDQYJKoZIhvcNAQEBBQADggIPADCCAgoCggIBANEl
r3fFqHLPkLk5EPt7dSyh2mqV5UQM1iVLWH+7B4JZSVgyhSTMPnfb4adPyLXL7kU4
vbz743Y7iATKqzqjljtfk5wopmGX3KI/oJMrVmzP009qngXTHM3vdYAamLeSSRQz
uMR8c4x+g6WBolmMi6NRNm1orPLx7W9J2a96Y8FDMUK2x825eLczmHCSbJ4Eenvw
bTiH6wATF7nZ7LRmu1HT/YHjDohxI9KAKmHeqyUCR6nBa8lprtpHtkl0rKbhwXa6
bbHZaG4cN6jiGGA3tlgTbMeSfMZFjO/DgXMQ3C8x4rkFWp4ocFo+HbhocYHJ6P4f
w6AT+OQkErqRjhXSA/GMsKriNORr+Ab2I4qSQ6YF3OnHpagG126RUnJHq66H/rMP
BIdvSyIp6akGUlh9AxbX1TFEtPFRRKcqul4JGexMouBY/g1Ot5BNAqwqrZkUZTsK
PHNFVrIPECUkUXlXGjQaEG9g4PyB28rC4oUbTHITXJ12zNAhMzFWgo/FV7lE/Yt2
wbbkIYs1mu5UdJ9yaxmE16I8pW4RCvGTBC7dfEx9YhDUG4uH9u2/ErGL8Jp67gKU
4TxGK3+cVPsuYckc7/zeJbwtdRsfSV5EOxWTrcSJ2a482lTv2a86FsuUG2oU5EL5
dTNGbvtAvPiCNs9g9cKimCOnKq7BqiL4h9q3nKTPAgMBAAGjge0wgeowHQYDVR0O
BBYEFJ2PhHaUzQf+o+iL1/nZbu/KdVF7MFkGA1UdIwRSMFCAFJ2PhHaUzQf+o+iL
1/nZbu/KdVF7oS2kKzApMQswCQYDVQQGEwJCRTEaMBgGA1UEAxMRdHhqc29ucnBj
LXRlc3QtY2GCCQCN0q83+cqSCzAPBgNVHRMBAf8EBTADAQH/MBEGCWCGSAGG+EIB
AQQEAwIBBjAJBgNVHRIEAjAAMCQGCWCGSAGG+EIBDQQXFhVUZXN0IENBIGZvciB0
eGpzb25yY3AwCQYDVR0RBAIwADAOBgNVHQ8BAf8EBAMCAQYwDQYJKoZIhvcNAQEF
BQADggIBAAaChoGpG34t7/X8zNKd1oKt0G9+Pblcsg86ZCGa+1Oyk4HcGiT8uDBX
osdxDZwaC4psiVKLivWvlT64CDnuNlCsYE3fK0micvE/EjzZVVakmncrd/oWtXbZ
9MRRa7n+L6NS6GSASSJtBUKHr52FbPrJm0g5e4n1oB7/EdOceLGy9k2x6LOYIyzU
IOGhAT4mCluO61hFIs/hlK2EQLD7/yVfMZpJCzatxhqwQmBA4qI8WjZBifwQxGDq
1IV7NoTfqoHMaedSysFGsXmTUU8khEIUOiCgbCd2QA+Wfk7DDDez43NJhlgxAB7n
D4d0tk5uHH2HpDMEyXbs5TqFX6jRrSFkXsVq37ECbmWkh3IGB9rl8q8rpesYgGeD
pTzm7dFY+ZBc1ukvdsFYE7i9iIrzBEi7Qo9/xtu0MD+7bNVH5a6NS9qSpdvTbqib
wmtWrzRjguZ4+B9U10Gqo8l8poNBv24zfK7mkr3aJ7S84pBPMxsBoc0CE3ox7wDW
mm44a6fLcJioD/8cVqi35tJCWrv0eCdxE9DoQ+u8LU/k6k1Pdn9TODTrE+I9xhSY
hhyrLA63aC69Y6lqj9UiLasT12JUUf9cNwgEJ9r5V3cFGHOIX7DBZVA2CdbH9a5u
PwTRhDwhdB29Cvt20BMrYrskSEOJ0BhctK3qmK9t/BxrHwZkVCOI
-----END CERTIFICATE-----
