Certificate:
    Data:
        Version: 4 (0x3)
        Serial Number: 1 (0x1)
    Signature Algorithm: sha1WithRSAEncryption
        Issuer: CN=ca-true, C=BE, O=Gremwell bvba
        Validity
            Not Before: Jan  1 00:00:00 1970 GMT
            Not After : Jan 19 03:14:07 2038 GMT
        Subject: CN=www.example.com, C=BE, O=Gremwell bvba
        Subject Public Key Info:
            Public Key Algorithm: rsaEncryption
                Public-Key: (1024 bit)
                Modulus:
                    00:fc:c7:11:63:4a:f6:b8:a2:9d:f7:c9:77:f2:17:
                    17:15:6b:ed:6d:19:54:95:cf:1e:4d:a8:87:35:13:
                    40:10:89:40:82:8b:1b:76:e2:11:ef:08:71:0e:de:
                    48:d3:a5:6d:6b:a7:65:b4:87:7b:58:f2:f4:51:af:
                    41:04:a6:9c:78:23:c3:ec:33:74:db:85:01:77:ec:
                    86:91:0e:e6:f9:4f:e6:59:54:57:34:d7:ed:06:f4:
                    f3:7a:82:76:3b:08:82:25:7e:4f:38:1e:62:6c:24:
                    a1:eb:53:56:b2:c4:a2:2a:03:ef:81:92:fb:4c:71:
                    b9:ca:d8:5c:51:7e:f2:6e:e1
                Exponent: 65537 (0x10001)
    Signature Algorithm: sha1WithRSAEncryption
         91:07:58:30:fa:bf:7c:44:54:71:e1:79:05:48:ae:69:e0:11:
         51:19:1e:57:30:2c:b7:db:68:c4:95:65:ff:9b:dd:71:cb:dd:
         57:da:ab:b8:e0:9c:3d:f4:24:c8:c5:a7:8f:a8:d9:62:21:69:
         bb:bc:92:6a:1f:1e:7a:e0:c2:74:a2:a9:23:9d:4c:12:f8:0a:
         6d:2b:de:eb:b8:20:10:1a:97:5b:09:07:2f:e0:51:9d:b4:4d:
         f4:5b:f3:e7:27:c0:bd:61:bb:68:d9:96:48:b7:c7:7c:fc:48:
         86:b4:0b:38:b0:d4:91:5b:2a:a8:1a:6a:0c:cc:a1:af:82:da:
         0b:21
-----BEGIN CERTIFICATE-----
MIIB6jCCAVOgAwIBAwIBATANBgkqhkiG9w0BAQUFADA3MRAwDgYDVQQDEwdjYS10
cnVlMQswCQYDVQQGEwJCRTEWMBQGA1UEChMNR3JlbXdlbGwgYnZiYTAeFw03MDAx
MDEwMDAwMDBaFw0zODAxMTkwMzE0MDdaMD8xGDAWBgNVBAMTD3d3dy5leGFtcGxl
LmNvbTELMAkGA1UEBhMCQkUxFjAUBgNVBAoTDUdyZW13ZWxsIGJ2YmEwgZ8wDQYJ
KoZIhvcNAQEBBQADgY0AMIGJAoGBAPzHEWNK9riinffJd/IXFxVr7W0ZVJXPHk2o
hzUTQBCJQIKLG3biEe8IcQ7eSNOlbWunZbSHe1jy9FGvQQSmnHgjw+wzdNuFAXfs
hpEO5vlP5llUVzTX7Qb083qCdjsIgiV+TzgeYmwkoetTVrLEoioD74GS+0xxucrY
XFF+8m7hAgMBAAEwDQYJKoZIhvcNAQEFBQADgYEAkQdYMPq/fERUceF5BUiuaeAR
URkeVzAst9toxJVl/5vdccvdV9qruOCcPfQkyMWnj6jZYiFpu7ySah8eeuDCdKKp
I51MEvgKbSve67ggEBqXWwkHL+BRnbRN9Fvz5yfAvWG7aNmWSLfHfPxIhrQLOLDU
kVsqqBpqDMyhr4LaCyE=
-----END CERTIFICATE-----
Certificate:
    Data:
        Version: 4 (0x3)
        Serial Number: 1 (0x1)
    Signature Algorithm: sha1WithRSAEncryption
        Issuer: C=BE, CN=txjsonrpc-test-ca
        Validity
            Not Before: Jan  1 00:00:00 1970 GMT
            Not After : Jan 19 03:14:07 2038 GMT
        Subject: CN=ca-true, C=BE, O=Gremwell bvba
        Subject Public Key Info:
            Public Key Algorithm: rsaEncryption
                Public-Key: (1024 bit)
                Modulus:
                    00:b7:64:25:81:ef:e4:27:2d:48:be:92:ee:77:35:
                    f9:b1:a9:f5:d4:0c:d9:75:8a:27:8c:94:63:eb:67:
                    be:ce:14:91:81:8e:57:00:b0:df:20:6d:20:47:0a:
                    8d:bc:db:a4:ad:0e:52:e9:b0:af:e4:f9:86:5c:76:
                    ea:eb:69:fd:22:99:05:d2:39:90:0f:36:1a:02:f4:
                    1b:57:f8:aa:f2:2e:ec:e2:2f:c3:9a:ec:b6:fa:5e:
                    a9:59:e5:e0:e9:61:19:f1:19:2f:47:ca:ab:d2:2c:
                    69:0a:e8:7a:6c:99:71:1f:a0:fe:dd:05:74:cb:cd:
                    70:93:80:08:be:e3:bf:dd:75
                Exponent: 65537 (0x10001)
        X509v3 extensions:
            X509v3 Basic Constraints: critical
                CA:TRUE
    Signature Algorithm: sha1WithRSAEncryption
         7f:1c:86:8d:b9:47:c7:c1:e3:00:3e:26:4c:04:ad:86:87:2a:
         aa:d6:f0:2c:bc:b8:90:5f:3a:fd:df:7e:aa:99:68:cc:3b:ed:
         21:50:ce:f3:51:10:64:08:de:f3:8b:42:85:22:67:c8:1f:d7:
         62:ba:99:4a:17:bf:24:68:b5:a2:cf:de:2c:3f:cf:51:fe:9b:
         9c:ca:c5:bb:99:6e:d1:6d:d4:ea:69:27:83:f7:b8:e2:2f:18:
         a7:88:72:5e:68:98:c7:57:02:13:de:1e:a2:d0:a9:06:a6:cc:
         7b:af:e6:e3:14:db:89:20:ec:b2:51:af:a6:02:b4:0a:0d:ae:
         33:f9:26:51:f7:e8:1c:e5:9a:6a:23:1b:d0:5f:e9:1b:0e:18:
         e1:f0:67:9b:ca:1a:06:2a:a9:f2:d4:53:7f:4b:5c:fa:52:45:
         c3:ca:bf:72:c2:1e:c4:11:bb:ea:76:0d:a9:e7:75:c9:4b:59:
         4b:ee:5c:ab:ac:7c:ff:e7:5e:ce:ff:f7:35:9f:fb:17:fa:d9:
         b5:75:5c:78:05:e6:12:f6:c4:20:9e:96:01:30:b0:4e:0f:d4:
         46:a8:61:9f:62:34:b0:c6:08:00:8a:5c:63:f9:5b:0a:29:d4:
         bd:4c:c3:64:cb:d4:d4:8b:7f:e9:c5:30:15:e7:9d:6c:5f:ef:
         bc:ba:d8:42:bf:b4:7d:65:a8:9f:1f:ec:5d:e7:b9:3e:aa:50:
         e7:a9:0c:4b:eb:44:0d:21:06:00:1f:f2:c6:08:b1:df:e5:ee:
         f3:75:62:db:0b:91:7d:be:cf:0f:61:13:6a:94:09:cc:97:37:
         dd:b1:99:1d:bb:c4:26:87:66:2a:d1:26:d0:38:58:d7:be:67:
         c1:54:ca:1c:94:d9:17:7d:52:5d:1a:44:2d:86:f4:48:9c:16:
         12:7d:df:79:41:aa:30:f5:38:41:d9:00:6a:2c:33:c7:9c:91:
         02:08:e5:06:98:58:3a:17:1a:b7:34:56:71:9b:9e:a8:29:d5:
         99:f2:81:8e:fb:0b:b8:1c:ad:44:fe:b5:5e:c6:7e:af:b3:51:
         d2:33:40:cf:de:d8:76:d7:ae:f6:27:85:ba:d8:66:2b:7e:fd:
         27:92:a3:09:90:cc:2a:b6:25:fa:59:b1:39:0c:dd:00:05:05:
         c5:2c:80:34:10:a7:b5:4f:b9:38:bf:df:1c:45:05:4d:75:df:
         4d:41:15:01:07:1d:ad:15:e4:b6:5d:3b:9f:d3:be:5f:60:4a:
         43:3c:fc:c8:be:a9:a6:1c:98:d8:75:bc:6e:a5:2e:f4:b6:22:
         a0:23:63:e4:88:b8:9c:ff:39:c4:6c:64:25:fc:c9:ae:97:7b:
         6e:db:58:89:c2:37:5d:6c
-----BEGIN CERTIFICATE-----
MIIDajCCAVKgAwIBAwIBATANBgkqhkiG9w0BAQUFADApMQswCQYDVQQGEwJCRTEa
MBgGA1UEAxMRdHhqc29ucnBjLXRlc3QtY2EwHhcNNzAwMTAxMDAwMDAwWhcNMzgw
MTE5MDMxNDA3WjA3MRAwDgYDVQQDEwdjYS10cnVlMQswCQYDVQQGEwJCRTEWMBQG
A1UEChMNR3JlbXdlbGwgYnZiYTCBnzANBgkqhkiG9w0BAQEFAAOBjQAwgYkCgYEA
t2Qlge/kJy1IvpLudzX5san11AzZdYonjJRj62e+zhSRgY5XALDfIG0gRwqNvNuk
rQ5S6bCv5PmGXHbq62n9IpkF0jmQDzYaAvQbV/iq8i7s4i/Dmuy2+l6pWeXg6WEZ
8RkvR8qr0ixpCuh6bJlxH6D+3QV0y81wk4AIvuO/3XUCAwEAAaMTMBEwDwYDVR0T
AQH/BAUwAwEB/zANBgkqhkiG9w0BAQUFAAOCAgEAfxyGjblHx8HjAD4mTASthocq
qtbwLLy4kF86/d9+qplozDvtIVDO81EQZAje84tChSJnyB/XYrqZShe/JGi1os/e
LD/PUf6bnMrFu5lu0W3U6mkng/e44i8Yp4hyXmiYx1cCE94eotCpBqbMe6/m4xTb
iSDsslGvpgK0Cg2uM/kmUffoHOWaaiMb0F/pGw4Y4fBnm8oaBiqp8tRTf0tc+lJF
w8q/csIexBG76nYNqed1yUtZS+5cq6x8/+dezv/3NZ/7F/rZtXVceAXmEvbEIJ6W
ATCwTg/URqhhn2I0sMYIAIpcY/lbCinUvUzDZMvU1It/6cUwFeedbF/vvLrYQr+0
fWWonx/sXee5PqpQ56kMS+tEDSEGAB/yxgix3+Xu83Vi2wuRfb7PD2ETapQJzJc3
3bGZHbvEJodmKtEm0DhY175nwVTKHJTZF31SXRpELYb0SJwWEn3feUGqMPU4QdkA
aiwzx5yRAgjlBphYOhcatzRWcZueqCnVmfKBjvsLuBytRP61XsZ+r7NR0jNAz97Y
dteu9ieFuthmK379J5KjCZDMKrYl+lmxOQzdAAUFxSyANBCntU+5OL/fHEUFTXXf
TUEVAQcdrRXktl07n9O+X2BKQzz8yL6pphyY2HW8bqUu9LYioCNj5Ii4nP85xGxk
JfzJrpd7bttYicI3XWw=
-----END CERTIFICATE-----
