Certificate:
    Data:
        Version: 3 (0x2)
        Serial Number: 1 (0x1)
    Signature Algorithm: sha1WithRSAEncryption
        Issuer: CN=ca-none, C=BE, O=Gremwell bvba
        Validity
            Not Before: Jun 23 15:47:38 2012 GMT
            Not After : Jun 23 15:47:38 2013 GMT
        Subject: C=BE, CN=txjsonrpc-pyserver
        Subject Public Key Info:
            Public Key Algorithm: rsaEncryption
                Public-Key: (4096 bit)
                Modulus:
                    00:a8:5b:98:9c:6a:2c:15:63:ad:34:3c:7e:59:22:
                    ea:74:1c:17:65:3d:d0:d3:ce:99:41:8e:85:9f:06:
                    92:85:95:df:bc:26:52:69:d7:21:dd:f4:89:59:4b:
                    6c:1e:4e:42:c8:b3:b8:c9:81:54:75:c1:d4:8e:ca:
                    5b:96:3b:32:a8:86:81:93:1b:ab:09:bf:1d:0a:8d:
                    0a:c6:a2:23:54:47:55:a7:80:71:af:e2:8e:85:d4:
                    f3:46:6d:d1:74:cd:cf:ae:db:8a:6b:b7:df:a7:21:
                    b2:11:8c:7f:11:dd:da:ae:1e:24:9c:c7:12:c9:df:
                    da:15:79:9a:ff:26:b7:e1:47:5c:0f:92:56:b1:ff:
                    0f:48:45:b8:1f:41:5d:70:fd:39:7c:31:54:3e:ed:
                    1a:c4:18:c3:da:66:5b:ba:bc:61:c6:68:b3:4e:31:
                    26:79:f4:c7:7c:26:34:92:ed:f3:3b:a4:20:1f:2a:
                    2c:bc:ba:13:6b:85:fc:8b:cd:05:4d:86:a5:be:a6:
                    fc:d5:6b:cd:df:3e:91:4f:3e:f5:22:f5:b1:68:f6:
                    53:ff:3b:27:aa:32:3e:90:a6:e8:4d:99:1e:f2:23:
                    d0:ef:5e:5d:13:e1:26:02:5c:00:e0:39:3b:01:e2:
                    bf:b4:d5:c2:cf:16:e9:31:d5:bc:50:f0:ee:78:a7:
                    52:2b:99:12:be:b3:8f:cf:a6:d4:7e:dd:5c:f4:e7:
                    bf:ba:dc:55:6a:af:c4:71:20:bb:5d:82:d5:bc:ec:
                    8c:42:7c:f9:01:da:43:d6:66:9a:c3:9a:ef:19:e7:
                    65:cf:03:fa:bd:49:f3:f7:47:a2:3c:de:53:8d:34:
                    0e:df:ce:18:0f:24:cf:a8:39:b9:4f:96:40:03:29:
                    3f:8b:63:3b:f3:63:7d:f4:fd:92:ca:74:88:63:79:
                    7f:63:39:e4:e3:f2:43:6a:a7:cc:1e:e3:fe:50:c4:
                    bd:ee:ff:95:5d:dd:09:71:b3:95:5c:3e:2a:14:c0:
                    11:cf:f7:11:aa:b1:03:b8:45:29:8b:ac:a8:bf:e3:
                    b4:cf:72:9e:81:86:97:ce:aa:66:f3:90:c5:a1:0e:
                    1e:af:10:8a:df:cb:0c:a1:43:13:1c:fe:f5:60:58:
                    53:05:72:99:80:ed:98:81:30:dd:24:af:e0:47:d2:
                    4c:3e:c1:11:df:da:b1:0d:dd:b1:a7:47:59:7d:bb:
                    c9:18:c8:83:ee:25:1a:33:8e:2e:b2:00:3c:a4:da:
                    ff:96:e7:ad:bb:c7:06:2d:9d:43:57:b4:b7:c4:b6:
                    fb:a0:f3:5b:32:b6:d6:29:19:ee:77:2e:a3:0b:d3:
                    fe:7e:12:9a:ad:7e:84:f5:3d:2f:75:37:c9:a2:dd:
                    bb:20:2b
                Exponent: 65537 (0x10001)
        X509v3 extensions:
            X509v3 Basic Constraints: 
                CA:FALSE
            Netscape Cert Type: 
                SSL Server
            Netscape Comment: 
                TinyCA Generated Certificate
            X509v3 Subject Key Identifier: 
                26:8C:A5:F9:A6:4A:FE:4C:E8:0F:04:33:7E:04:26:28:BF:4C:92:F3
            X509v3 Authority Key Identifier: 
                keyid:9D:8F:84:76:94:CD:07:FE:A3:E8:8B:D7:F9:D9:6E:EF:CA:75:51:7B
                DirName:/C=BE/CN=txjsonrpc-test-ca
                serial:8D:D2:AF:37:F9:CA:92:0B

            X509v3 Issuer Alternative Name: 
                <EMPTY>

            X509v3 Subject Alternative Name: 
                <EMPTY>

    Signature Algorithm: sha1WithRSAEncryption
         03:0d:e2:39:f4:7c:4e:3a:78:6e:b1:1e:95:fb:6d:9c:a9:c4:
         26:5c:0c:0a:a5:78:cc:be:4e:1e:2c:c8:aa:d2:3b:b8:b5:d9:
         a0:52:b4:b0:62:ad:d8:d6:c9:e7:e3:98:7e:10:ee:15:f0:b8:
         87:77:2b:f9:d6:bc:7b:c2:2f:49:3a:fc:2e:31:d0:78:4b:de:
         30:40:6b:be:db:01:f5:20:7a:0d:b8:76:ea:1d:d1:49:8a:b7:
         f2:78:21:79:fe:8a:b7:1c:bf:ab:79:8f:04:5b:c8:ba:8c:2d:
         e1:ae:e9:cc:c6:6c:1f:62:6c:cf:78:63:e7:e5:8a:d5:7c:d0:
         3a:94
-----BEGIN CERTIFICATE-----
MIIEOjCCA6OgAwIBAgIBATANBgkqhkiG9w0BAQUFADA3MRAwDgYDVQQDEwdjYS1u
b25lMQswCQYDVQQGEwJCRTEWMBQGA1UEChMNR3JlbXdlbGwgYnZiYTAeFw0xMjA2
MjMxNTQ3MzhaFw0xMzA2MjMxNTQ3MzhaMCoxCzAJBgNVBAYTAkJFMRswGQYDVQQD
ExJ0eGpzb25ycGMtcHlzZXJ2ZXIwggIiMA0GCSqGSIb3DQEBAQUAA4ICDwAwggIK
AoICAQCoW5icaiwVY600PH5ZIup0HBdlPdDTzplBjoWfBpKFld+8JlJp1yHd9IlZ
S2weTkLIs7jJgVR1wdSOyluWOzKohoGTG6sJvx0KjQrGoiNUR1WngHGv4o6F1PNG
bdF0zc+u24prt9+nIbIRjH8R3dquHiScxxLJ39oVeZr/JrfhR1wPklax/w9IRbgf
QV1w/Tl8MVQ+7RrEGMPaZlu6vGHGaLNOMSZ59Md8JjSS7fM7pCAfKiy8uhNrhfyL
zQVNhqW+pvzVa83fPpFPPvUi9bFo9lP/OyeqMj6QpuhNmR7yI9DvXl0T4SYCXADg
OTsB4r+01cLPFukx1bxQ8O54p1IrmRK+s4/PptR+3Vz057+63FVqr8RxILtdgtW8
7IxCfPkB2kPWZprDmu8Z52XPA/q9SfP3R6I83lONNA7fzhgPJM+oOblPlkADKT+L
YzvzY330/ZLKdIhjeX9jOeTj8kNqp8we4/5QxL3u/5Vd3Qlxs5VcPioUwBHP9xGq
sQO4RSmLrKi/47TPcp6BhpfOqmbzkMWhDh6vEIrfywyhQxMc/vVgWFMFcpmA7ZiB
MN0kr+BH0kw+wRHf2rEN3bGnR1l9u8kYyIPuJRozji6yADyk2v+W5627xwYtnUNX
tLfEtvug81syttYpGe53LqML0/5+EpqtfoT1PS91N8mi3bsgKwIDAQABo4HeMIHb
MAkGA1UdEwQCMAAwEQYJYIZIAYb4QgEBBAQDAgZAMCsGCWCGSAGG+EIBDQQeFhxU
aW55Q0EgR2VuZXJhdGVkIENlcnRpZmljYXRlMB0GA1UdDgQWBBQmjKX5pkr+TOgP
BDN+BCYov0yS8zBZBgNVHSMEUjBQgBSdj4R2lM0H/qPoi9f52W7vynVRe6EtpCsw
KTELMAkGA1UEBhMCQkUxGjAYBgNVBAMTEXR4anNvbnJwYy10ZXN0LWNhggkAjdKv
N/nKkgswCQYDVR0SBAIwADAJBgNVHREEAjAAMA0GCSqGSIb3DQEBBQUAA4GBAAMN
4jn0fE46eG6xHpX7bZypxCZcDAqleMy+Th4syKrSO7i12aBStLBirdjWyefjmH4Q
7hXwuId3K/nWvHvCL0k6/C4x0HhL3jBAa77bAfUgeg24duod0UmKt/J4IXn+ircc
v6t5jwRbyLqMLeGu6czGbB9ibM94Y+flitV80DqU
-----END CERTIFICATE-----
Certificate:
    Data:
        Version: 4 (0x3)
        Serial Number: 1 (0x1)
    Signature Algorithm: sha1WithRSAEncryption
        Issuer: C=BE, CN=txjsonrpc-test-ca
        Validity
            Not Before: Jan  1 00:00:00 1970 GMT
            Not After : Jan 19 03:14:07 2038 GMT
        Subject: CN=ca-none, C=BE, O=Gremwell bvba
        Subject Public Key Info:
            Public Key Algorithm: rsaEncryption
                Public-Key: (1024 bit)
                Modulus:
                    00:a0:e8:4b:28:b9:8f:d3:94:0f:cb:c9:d3:b3:7c:
                    06:dd:38:6f:79:86:1b:40:70:72:a1:8e:45:3b:b7:
                    dc:cd:aa:83:bc:ee:14:32:33:d0:e4:9b:f1:1d:c8:
                    8f:0d:81:5b:a1:4f:ad:1f:31:63:a3:6b:f2:c4:71:
                    1e:97:69:e1:b1:9d:a9:a1:35:0c:bd:48:c6:ad:e1:
                    71:3a:12:97:3e:9a:ff:be:00:ca:d9:d9:be:dd:5f:
                    1f:a0:de:63:f4:9b:d6:66:10:3c:c8:78:57:fc:dc:
                    dd:b7:42:9c:91:48:d4:17:b8:46:de:da:ce:48:0c:
                    27:62:54:49:1d:41:92:c2:0b
                Exponent: 65537 (0x10001)
    Signature Algorithm: sha1WithRSAEncryption
         28:3b:b8:1e:b2:56:2b:a3:56:b4:72:65:ec:7d:e2:86:7d:36:
         ab:ed:98:c2:36:8f:72:13:c7:bb:fb:cb:29:85:0e:e5:8d:18:
         c1:38:57:7b:06:b7:14:88:30:1a:d6:81:f3:c2:11:36:84:d6:
         31:76:cc:80:f0:8d:32:89:dc:e8:da:c9:28:14:d2:11:a9:eb:
         0a:6f:c6:82:60:0d:77:b1:35:6e:50:4c:b0:34:00:de:22:ec:
         e1:fd:d9:a7:9e:4a:d6:5f:d5:5c:42:69:67:72:e2:fb:13:fb:
         4a:1a:17:1f:18:92:ed:c5:4c:8b:2e:d5:84:0d:2c:a0:e3:fe:
         e7:92:0c:ae:9a:f3:ed:d3:7e:0f:2b:a5:ac:23:94:fd:0f:b0:
         d5:a4:65:a7:6f:58:a3:b1:48:a0:32:04:c3:c2:fb:9a:80:68:
         4d:33:8e:02:43:e3:3a:6c:e0:f7:15:d3:5b:74:ed:21:fe:71:
         86:7d:09:cb:77:35:39:22:59:f0:29:a5:f4:e7:e9:a2:3a:9c:
         41:4f:fe:ee:b6:df:33:59:b5:41:cd:ad:25:ee:24:60:11:68:
         03:41:03:6c:bc:c2:aa:1f:05:84:2c:e9:a6:44:29:c2:bf:f6:
         ea:44:af:1e:54:83:83:49:1a:52:fe:7d:37:f1:40:1b:f7:70:
         f7:82:de:b8:ab:38:8c:44:56:34:da:32:7e:f6:37:54:b2:fc:
         b3:98:0b:f0:4b:d3:e4:91:15:54:d6:dc:a4:1d:a8:99:11:c5:
         c5:80:17:19:3f:07:02:23:d1:31:f6:2d:44:38:74:df:72:c9:
         46:5a:37:bf:22:c4:b7:57:ee:d3:33:aa:8d:39:b9:d9:96:b6:
         61:f9:2e:e0:c9:c2:8e:5a:41:1a:8d:da:07:51:2a:89:f2:ae:
         22:dd:6c:d3:bb:b9:e6:8b:bc:1c:bd:2c:70:41:00:1e:7f:b7:
         5a:94:65:82:d1:ef:90:2d:dd:7f:b4:5f:0a:fd:48:53:e9:25:
         8f:a3:b4:af:12:98:dc:e0:e0:65:7a:d6:84:a1:f7:51:26:11:
         dd:67:69:23:02:99:67:c9:c3:3c:db:68:44:47:1d:25:0f:f4:
         e2:9b:6f:fc:59:11:6b:8e:a6:e5:bf:37:ad:89:98:8e:5f:e5:
         49:5d:2b:92:ec:dd:ce:1e:e5:d9:b6:20:38:73:5a:c6:14:78:
         79:fe:57:0a:09:39:da:c3:29:c8:ff:d6:c3:76:25:5a:b6:ea:
         31:06:59:da:82:dc:1c:3f:4a:40:1a:0d:71:34:50:48:97:93:
         31:00:2b:fd:93:b6:f7:04:76:80:b5:86:ea:50:22:36:64:e4:
         5e:19:37:ea:1f:82:16:07
-----BEGIN CERTIFICATE-----
MIIDVTCCAT2gAwIBAwIBATANBgkqhkiG9w0BAQUFADApMQswCQYDVQQGEwJCRTEa
MBgGA1UEAxMRdHhqc29ucnBjLXRlc3QtY2EwHhcNNzAwMTAxMDAwMDAwWhcNMzgw
MTE5MDMxNDA3WjA3MRAwDgYDVQQDEwdjYS1ub25lMQswCQYDVQQGEwJCRTEWMBQG
A1UEChMNR3JlbXdlbGwgYnZiYTCBnzANBgkqhkiG9w0BAQEFAAOBjQAwgYkCgYEA
oOhLKLmP05QPy8nTs3wG3ThveYYbQHByoY5FO7fczaqDvO4UMjPQ5JvxHciPDYFb
oU+tHzFjo2vyxHEel2nhsZ2poTUMvUjGreFxOhKXPpr/vgDK2dm+3V8foN5j9JvW
ZhA8yHhX/Nzdt0KckUjUF7hG3trOSAwnYlRJHUGSwgsCAwEAATANBgkqhkiG9w0B
AQUFAAOCAgEAKDu4HrJWK6NWtHJl7H3ihn02q+2YwjaPchPHu/vLKYUO5Y0YwThX
ewa3FIgwGtaB88IRNoTWMXbMgPCNMonc6NrJKBTSEanrCm/GgmANd7E1blBMsDQA
3iLs4f3Zp55K1l/VXEJpZ3Li+xP7ShoXHxiS7cVMiy7VhA0soOP+55IMrprz7dN+
DyulrCOU/Q+w1aRlp29Yo7FIoDIEw8L7moBoTTOOAkPjOmzg9xXTW3TtIf5xhn0J
y3c1OSJZ8Cml9OfpojqcQU/+7rbfM1m1Qc2tJe4kYBFoA0EDbLzCqh8FhCzppkQp
wr/26kSvHlSDg0kaUv59N/FAG/dw94LeuKs4jERWNNoyfvY3VLL8s5gL8EvT5JEV
VNbcpB2omRHFxYAXGT8HAiPRMfYtRDh033LJRlo3vyLEt1fu0zOqjTm52Za2Yfku
4MnCjlpBGo3aB1EqifKuIt1s07u55ou8HL0scEEAHn+3WpRlgtHvkC3df7RfCv1I
U+klj6O0rxKY3ODgZXrWhKH3USYR3WdpIwKZZ8nDPNtoREcdJQ/04ptv/FkRa46m
5b83rYmYjl/lSV0rkuzdzh7l2bYgOHNaxhR4ef5XCgk52sMpyP/Ww3YlWrbqMQZZ
2oLcHD9KQBoNcTRQSJeTMQAr/ZO29wR2gLWG6lAiNmTkXhk36h+CFgc=
-----END CERTIFICATE-----
