Certificate:
    Data:
        Version: 4 (0x3)
        Serial Number: 1 (0x1)
    Signature Algorithm: sha1WithRSAEncryption
        Issuer: C=BE, CN=txjsonrpc-test-ca
        Validity
            Not Before: Jan  1 00:00:00 1970 GMT
            Not After : Jan 19 03:14:07 2038 GMT
        Subject: CN=ca-none, C=BE, O=Gremwell bvba
        Subject Public Key Info:
            Public Key Algorithm: rsaEncryption
                Public-Key: (1024 bit)
                Modulus:
                    00:ac:f4:19:a7:27:0d:cc:e7:c1:9b:31:27:b5:b8:
                    c7:eb:10:c0:db:6b:dc:d7:6a:68:93:16:3d:f0:41:
                    cb:dd:71:6d:f4:8b:39:2c:bd:27:f6:fb:7b:23:97:
                    b7:5b:c7:ac:96:c0:5f:aa:26:d1:64:27:50:f4:48:
                    98:1a:c8:b3:e9:0e:19:ee:68:0d:89:96:3e:02:43:
                    a6:eb:52:b5:cb:d5:3c:8f:0b:fc:fe:84:03:38:b4:
                    e6:ef:af:88:92:be:91:43:77:1e:95:30:b2:bb:47:
                    71:82:58:3f:9d:2a:f8:be:91:a1:d7:b7:f1:92:1a:
                    c9:49:20:22:a5:61:0e:c9:47
                Exponent: 65537 (0x10001)
    Signature Algorithm: sha1WithRSAEncryption
         8b:98:9b:5b:87:20:9e:ef:75:a9:a7:bf:35:8f:9d:a6:6a:8d:
         64:82:1b:bd:52:62:69:31:34:7e:93:09:da:75:67:d6:85:51:
         7c:aa:7f:7d:2c:2c:54:ec:e3:78:95:4e:5a:67:98:da:69:35:
         43:69:14:6c:f1:0c:7a:cb:83:9d:d3:17:5b:88:a0:29:ff:75:
         fe:b1:0e:15:49:f8:2c:24:f6:57:d6:22:04:ce:80:37:d8:49:
         8c:09:63:1f:db:b3:7a:10:e8:1b:b8:18:e6:10:87:b7:62:71:
         87:54:a1:4b:f3:d2:0e:03:85:d1:88:8a:59:db:9a:bb:dc:e7:
         d7:92:fa:7e:ce:6a:be:f2:3a:ca:f5:d0:8f:19:32:92:5c:d8:
         cd:a2:53:a0:66:d5:ca:c0:9f:98:db:dd:e1:9b:48:01:d6:99:
         2a:c8:c5:d0:6b:af:1b:46:1f:c0:70:81:a9:1b:f5:4f:5e:f8:
         fb:97:cf:46:1c:6a:6a:02:93:67:89:49:a5:07:9f:f6:8e:10:
         69:7f:cb:3e:14:b3:5e:69:cb:6b:e0:a3:b2:e8:a8:7e:8d:71:
         13:fb:1a:e1:d7:21:84:e2:ba:cc:2c:ec:2f:6f:48:72:69:c8:
         f7:c6:c4:0d:26:a2:42:90:02:98:77:d7:65:14:86:c8:18:3a:
         27:e1:bb:d9:e9:4e:b6:e1:bb:da:9f:04:d8:77:72:28:0f:06:
         d6:9f:85:d2:9f:3a:71:4e:3d:41:26:8e:bb:9c:99:c0:93:55:
         3b:36:b3:35:bd:98:13:8f:c5:5f:1f:0d:dc:d0:6a:d0:03:63:
         6c:28:65:4b:a3:77:e2:f4:e5:a3:ef:bf:6d:85:ea:ce:d6:d7:
         1e:2b:a0:ff:bf:b6:86:f7:ea:8b:09:92:bd:c2:ec:38:dd:ec:
         5a:84:3e:19:4c:c3:cd:6e:1a:b5:b5:e2:b5:e4:ab:97:53:19:
         dd:93:66:7c:15:d8:f4:6b:7c:c3:31:37:7e:46:53:14:a4:c0:
         4d:1c:85:87:5b:08:7f:3a:9c:16:6e:3c:e9:dc:c2:b5:d6:88:
         f0:af:eb:3b:73:e1:6d:82:16:77:89:5d:e0:49:ce:a8:9e:bc:
         08:5d:9e:86:a8:c7:a1:50:30:16:73:76:37:79:59:29:3f:c1:
         77:5e:d7:87:db:60:34:b0:7a:59:3b:76:b0:79:9a:e6:f7:24:
         54:f0:e4:40:a0:e4:b5:ab:4c:da:0e:9e:b5:79:0d:0a:76:fd:
         e5:1e:6e:bf:6e:76:f9:85:fb:c7:f1:d3:b8:55:bf:32:4c:05:
         d6:61:52:03:94:62:fb:17:b3:1a:7d:eb:60:00:62:eb:fd:a1:
         f9:b2:a2:da:48:74:df:f7
-----BEGIN CERTIFICATE-----
MIIDVTCCAT2gAwIBAwIBATANBgkqhkiG9w0BAQUFADApMQswCQYDVQQGEwJCRTEa
MBgGA1UEAxMRdHhqc29ucnBjLXRlc3QtY2EwHhcNNzAwMTAxMDAwMDAwWhcNMzgw
MTE5MDMxNDA3WjA3MRAwDgYDVQQDEwdjYS1ub25lMQswCQYDVQQGEwJCRTEWMBQG
A1UEChMNR3JlbXdlbGwgYnZiYTCBnzANBgkqhkiG9w0BAQEFAAOBjQAwgYkCgYEA
rPQZpycNzOfBmzEntbjH6xDA22vc12pokxY98EHL3XFt9Is5LL0n9vt7I5e3W8es
lsBfqibRZCdQ9EiYGsiz6Q4Z7mgNiZY+AkOm61K1y9U8jwv8/oQDOLTm76+Ikr6R
Q3celTCyu0dxglg/nSr4vpGh17fxkhrJSSAipWEOyUcCAwEAATANBgkqhkiG9w0B
AQUFAAOCAgEAi5ibW4cgnu91qae/NY+dpmqNZIIbvVJiaTE0fpMJ2nVn1oVRfKp/
fSwsVOzjeJVOWmeY2mk1Q2kUbPEMesuDndMXW4igKf91/rEOFUn4LCT2V9YiBM6A
N9hJjAljH9uzehDoG7gY5hCHt2Jxh1ShS/PSDgOF0YiKWduau9zn15L6fs5qvvI6
yvXQjxkyklzYzaJToGbVysCfmNvd4ZtIAdaZKsjF0GuvG0YfwHCBqRv1T174+5fP
RhxqagKTZ4lJpQef9o4QaX/LPhSzXmnLa+Cjsuiofo1xE/sa4dchhOK6zCzsL29I
cmnI98bEDSaiQpACmHfXZRSGyBg6J+G72elOtuG72p8E2HdyKA8G1p+F0p86cU49
QSaOu5yZwJNVOzazNb2YE4/FXx8N3NBq0ANjbChlS6N34vTlo++/bYXqztbXHiug
/7+2hvfqiwmSvcLsON3sWoQ+GUzDzW4atbXiteSrl1MZ3ZNmfBXY9Gt8wzE3fkZT
FKTATRyFh1sIfzqcFm486dzCtdaI8K/rO3PhbYIWd4ld4EnOqJ68CF2ehqjHoVAw
FnN2N3lZKT/Bd17Xh9tgNLB6WTt2sHma5vckVPDkQKDktatM2g6etXkNCnb95R5u
v252+YX7x/HTuFW/MkwF1mFSA5Ri+xezGn3rYABi6/2h+bKi2kh03/c=
-----END CERTIFICATE-----
Certificate:
    Data:
        Version: 3 (0x2)
        Serial Number: 10219423159405941259 (0x8dd2af37f9ca920b)
    Signature Algorithm: sha1WithRSAEncryption
        Issuer: C=BE, CN=txjsonrpc-test-ca
        Validity
            Not Before: Jun 23 15:46:37 2012 GMT
            Not After : Jun 21 15:46:37 2022 GMT
        Subject: C=BE, CN=txjsonrpc-test-ca
        Subject Public Key Info:
            Public Key Algorithm: rsaEncryption
                Public-Key: (4096 bit)
                Modulus:
                    00:d1:25:af:77:c5:a8:72:cf:90:b9:39:10:fb:7b:
                    75:2c:a1:da:6a:95:e5:44:0c:d6:25:4b:58:7f:bb:
                    07:82:59:49:58:32:85:24:cc:3e:77:db:e1:a7:4f:
                    c8:b5:cb:ee:45:38:bd:bc:fb:e3:76:3b:88:04:ca:
                    ab:3a:a3:96:3b:5f:93:9c:28:a6:61:97:dc:a2:3f:
                    a0:93:2b:56:6c:cf:d3:4f:6a:9e:05:d3:1c:cd:ef:
                    75:80:1a:98:b7:92:49:14:33:b8:c4:7c:73:8c:7e:
                    83:a5:81:a2:59:8c:8b:a3:51:36:6d:68:ac:f2:f1:
                    ed:6f:49:d9:af:7a:63:c1:43:31:42:b6:c7:cd:b9:
                    78:b7:33:98:70:92:6c:9e:04:7a:7b:f0:6d:38:87:
                    eb:00:13:17:b9:d9:ec:b4:66:bb:51:d3:fd:81:e3:
                    0e:88:71:23:d2:80:2a:61:de:ab:25:02:47:a9:c1:
                    6b:c9:69:ae:da:47:b6:49:74:ac:a6:e1:c1:76:ba:
                    6d:b1:d9:68:6e:1c:37:a8:e2:18:60:37:b6:58:13:
                    6c:c7:92:7c:c6:45:8c:ef:c3:81:73:10:dc:2f:31:
                    e2:b9:05:5a:9e:28:70:5a:3e:1d:b8:68:71:81:c9:
                    e8:fe:1f:c3:a0:13:f8:e4:24:12:ba:91:8e:15:d2:
                    03:f1:8c:b0:aa:e2:34:e4:6b:f8:06:f6:23:8a:92:
                    43:a6:05:dc:e9:c7:a5:a8:06:d7:6e:91:52:72:47:
                    ab:ae:87:fe:b3:0f:04:87:6f:4b:22:29:e9:a9:06:
                    52:58:7d:03:16:d7:d5:31:44:b4:f1:51:44:a7:2a:
                    ba:5e:09:19:ec:4c:a2:e0:58:fe:0d:4e:b7:90:4d:
                    02:ac:2a:ad:99:14:65:3b:0a:3c:73:45:56:b2:0f:
                    10:25:24:51:79:57:1a:34:1a:10:6f:60:e0:fc:81:
                    db:ca:c2:e2:85:1b:4c:72:13:5c:9d:76:cc:d0:21:
                    33:31:56:82:8f:c5:57:b9:44:fd:8b:76:c1:b6:e4:
                    21:8b:35:9a:ee:54:74:9f:72:6b:19:84:d7:a2:3c:
                    a5:6e:11:0a:f1:93:04:2e:dd:7c:4c:7d:62:10:d4:
                    1b:8b:87:f6:ed:bf:12:b1:8b:f0:9a:7a:ee:02:94:
                    e1:3c:46:2b:7f:9c:54:fb:2e:61:c9:1c:ef:fc:de:
                    25:bc:2d:75:1b:1f:49:5e:44:3b:15:93:ad:c4:89:
                    d9:ae:3c:da:54:ef:d9:af:3a:16:cb:94:1b:6a:14:
                    e4:42:f9:75:33:46:6e:fb:40:bc:f8:82:36:cf:60:
                    f5:c2:a2:98:23:a7:2a:ae:c1:aa:22:f8:87:da:b7:
                    9c:a4:cf
                Exponent: 65537 (0x10001)
        X509v3 extensions:
            X509v3 Subject Key Identifier: 
                9D:8F:84:76:94:CD:07:FE:A3:E8:8B:D7:F9:D9:6E:EF:CA:75:51:7B
            X509v3 Authority Key Identifier: 
                keyid:9D:8F:84:76:94:CD:07:FE:A3:E8:8B:D7:F9:D9:6E:EF:CA:75:51:7B
                DirName:/C=BE/CN=txjsonrpc-test-ca
                serial:8D:D2:AF:37:F9:CA:92:0B

            X509v3 Basic Constraints: critical
                CA:TRUE
            Netscape Cert Type: 
                SSL CA, S/MIME CA
            X509v3 Issuer Alternative Name: 
                <EMPTY>

            Netscape Comment: 
                Test CA for txjsonrcp
            X509v3 Subject Alternative Name: 
                <EMPTY>

            X509v3 Key Usage: critical
                Certificate Sign, CRL Sign
    Signature Algorithm: sha1WithRSAEncryption
         06:82:86:81:a9:1b:7e:2d:ef:f5:fc:cc:d2:9d:d6:82:ad:d0:
         6f:7e:3d:b9:5c:b2:0f:3a:64:21:9a:fb:53:b2:93:81:dc:1a:
         24:fc:b8:30:57:a2:c7:71:0d:9c:1a:0b:8a:6c:89:52:8b:8a:
         f5:af:95:3e:b8:08:39:ee:36:50:ac:60:4d:df:2b:49:a2:72:
         f1:3f:12:3c:d9:55:56:a4:9a:77:2b:77:fa:16:b5:76:d9:f4:
         c4:51:6b:b9:fe:2f:a3:52:e8:64:80:49:22:6d:05:42:87:af:
         9d:85:6c:fa:c9:9b:48:39:7b:89:f5:a0:1e:ff:11:d3:9c:78:
         b1:b2:f6:4d:b1:e8:b3:98:23:2c:d4:20:e1:a1:01:3e:26:0a:
         5b:8e:eb:58:45:22:cf:e1:94:ad:84:40:b0:fb:ff:25:5f:31:
         9a:49:0b:36:ad:c6:1a:b0:42:60:40:e2:a2:3c:5a:36:41:89:
         fc:10:c4:60:ea:d4:85:7b:36:84:df:aa:81:cc:69:e7:52:ca:
         c1:46:b1:79:93:51:4f:24:84:42:14:3a:20:a0:6c:27:76:40:
         0f:96:7e:4e:c3:0c:37:b3:e3:73:49:86:58:31:00:1e:e7:0f:
         87:74:b6:4e:6e:1c:7d:87:a4:33:04:c9:76:ec:e5:3a:85:5f:
         a8:d1:ad:21:64:5e:c5:6a:df:b1:02:6e:65:a4:87:72:06:07:
         da:e5:f2:af:2b:a5:eb:18:80:67:83:a5:3c:e6:ed:d1:58:f9:
         90:5c:d6:e9:2f:76:c1:58:13:b8:bd:88:8a:f3:04:48:bb:42:
         8f:7f:c6:db:b4:30:3f:bb:6c:d5:47:e5:ae:8d:4b:da:92:a5:
         db:d3:6e:a8:9b:c2:6b:56:af:34:63:82:e6:78:f8:1f:54:d7:
         41:aa:a3:c9:7c:a6:83:41:bf:6e:33:7c:ae:e6:92:bd:da:27:
         b4:bc:e2:90:4f:33:1b:01:a1:cd:02:13:7a:31:ef:00:d6:9a:
         6e:38:6b:a7:cb:70:98:a8:0f:ff:1c:56:a8:b7:e6:d2:42:5a:
         bb:f4:78:27:71:13:d0:e8:43:eb:bc:2d:4f:e4:ea:4d:4f:76:
         7f:53:38:34:eb:13:e2:3d:c6:14:98:86:1c:ab:2c:0e:b7:68:
         2e:bd:63:a9:6a:8f:d5:22:2d:ab:13:d7:62:54:51:ff:5c:37:
         08:04:27:da:f9:57:77:05:18:73:88:5f:b0:c1:65:50:36:09:
         d6:c7:f5:ae:6e:3f:04:d1:84:3c:21:74:1d:bd:0a:fb:76:d0:
         13:2b:62:bb:24:48:43:89:d0:18:5c:b4:ad:ea:98:af:6d:fc:
         1c:6b:1f:06:64:54:23:88
-----BEGIN CERTIFICATE-----
MIIFwzCCA6ugAwIBAgIJAI3Srzf5ypILMA0GCSqGSIb3DQEBBQUAMCkxCzAJBgNV
BAYTAkJFMRowGAYDVQQDExF0eGpzb25ycGMtdGVzdC1jYTAeFw0xMjA2MjMxNTQ2
MzdaFw0yMjA2MjExNTQ2MzdaMCkxCzAJBgNVBAYTAkJFMRowGAYDVQQDExF0eGpz
b25ycGMtdGVzdC1jYTCCAiIwDQYJKoZIhvcNAQEBBQADggIPADCCAgoCggIBANEl
r3fFqHLPkLk5EPt7dSyh2mqV5UQM1iVLWH+7B4JZSVgyhSTMPnfb4adPyLXL7kU4
vbz743Y7iATKqzqjljtfk5wopmGX3KI/oJMrVmzP009qngXTHM3vdYAamLeSSRQz
uMR8c4x+g6WBolmMi6NRNm1orPLx7W9J2a96Y8FDMUK2x825eLczmHCSbJ4Eenvw
bTiH6wATF7nZ7LRmu1HT/YHjDohxI9KAKmHeqyUCR6nBa8lprtpHtkl0rKbhwXa6
bbHZaG4cN6jiGGA3tlgTbMeSfMZFjO/DgXMQ3C8x4rkFWp4ocFo+HbhocYHJ6P4f
w6AT+OQkErqRjhXSA/GMsKriNORr+Ab2I4qSQ6YF3OnHpagG126RUnJHq66H/rMP
BIdvSyIp6akGUlh9AxbX1TFEtPFRRKcqul4JGexMouBY/g1Ot5BNAqwqrZkUZTsK
PHNFVrIPECUkUXlXGjQaEG9g4PyB28rC4oUbTHITXJ12zNAhMzFWgo/FV7lE/Yt2
wbbkIYs1mu5UdJ9yaxmE16I8pW4RCvGTBC7dfEx9YhDUG4uH9u2/ErGL8Jp67gKU
4TxGK3+cVPsuYckc7/zeJbwtdRsfSV5EOxWTrcSJ2a482lTv2a86FsuUG2oU5EL5
dTNGbvtAvPiCNs9g9cKimCOnKq7BqiL4h9q3nKTPAgMBAAGjge0wgeowHQYDVR0O
BBYEFJ2PhHaUzQf+o+iL1/nZbu/KdVF7MFkGA1UdIwRSMFCAFJ2PhHaUzQf+o+iL
1/nZbu/KdVF7oS2kKzApMQswCQYDVQQGEwJCRTEaMBgGA1UEAxMRdHhqc29ucnBj
LXRlc3QtY2GCCQCN0q83+cqSCzAPBgNVHRMBAf8EBTADAQH/MBEGCWCGSAGG+EIB
AQQEAwIBBjAJBgNVHRIEAjAAMCQGCWCGSAGG+EIBDQQXFhVUZXN0IENBIGZvciB0
eGpzb25yY3AwCQYDVR0RBAIwADAOBgNVHQ8BAf8EBAMCAQYwDQYJKoZIhvcNAQEF
BQADggIBAAaChoGpG34t7/X8zNKd1oKt0G9+Pblcsg86ZCGa+1Oyk4HcGiT8uDBX
osdxDZwaC4psiVKLivWvlT64CDnuNlCsYE3fK0micvE/EjzZVVakmncrd/oWtXbZ
9MRRa7n+L6NS6GSASSJtBUKHr52FbPrJm0g5e4n1oB7/EdOceLGy9k2x6LOYIyzU
IOGhAT4mCluO61hFIs/hlK2EQLD7/yVfMZpJCzatxhqwQmBA4qI8WjZBifwQxGDq
1IV7NoTfqoHMaedSysFGsXmTUU8khEIUOiCgbCd2QA+Wfk7DDDez43NJhlgxAB7n
D4d0tk5uHH2HpDMEyXbs5TqFX6jRrSFkXsVq37ECbmWkh3IGB9rl8q8rpesYgGeD
pTzm7dFY+ZBc1ukvdsFYE7i9iIrzBEi7Qo9/xtu0MD+7bNVH5a6NS9qSpdvTbqib
wmtWrzRjguZ4+B9U10Gqo8l8poNBv24zfK7mkr3aJ7S84pBPMxsBoc0CE3ox7wDW
mm44a6fLcJioD/8cVqi35tJCWrv0eCdxE9DoQ+u8LU/k6k1Pdn9TODTrE+I9xhSY
hhyrLA63aC69Y6lqj9UiLasT12JUUf9cNwgEJ9r5V3cFGHOIX7DBZVA2CdbH9a5u
PwTRhDwhdB29Cvt20BMrYrskSEOJ0BhctK3qmK9t/BxrHwZkVCOI
-----END CERTIFICATE-----
