Certificate:
    Data:
        Version: 3 (0x2)
        Serial Number: 1 (0x1)
    Signature Algorithm: sha1WithRSAEncryption
        Issuer: CN=ca-false, C=BE, O=Gremwell bvba
        Validity
            Not Before: Jun 23 15:47:38 2012 GMT
            Not After : Jun 23 15:47:38 2013 GMT
        Subject: C=BE, CN=txjsonrpc-pyserver
        Subject Public Key Info:
            Public Key Algorithm: rsaEncryption
                Public-Key: (4096 bit)
                Modulus:
                    00:cd:de:38:a9:6c:06:ec:b8:66:a0:23:6d:39:17:
                    91:14:80:b8:ca:0b:2a:73:e3:f8:b4:8d:f0:32:d7:
                    40:2f:3f:f7:5e:3c:df:dc:91:cf:0a:ce:39:92:cd:
                    c8:01:2c:8d:d0:87:dd:6f:15:ec:42:ef:03:00:3c:
                    97:62:87:f0:d0:a9:3f:20:8e:6e:2f:b8:d3:7a:32:
                    26:d5:66:9b:b0:cf:44:33:ff:cc:be:69:1d:5e:21:
                    49:5a:92:f2:d5:f5:fd:29:a6:0b:9a:7a:92:93:c1:
                    cc:28:da:64:cd:43:c4:c8:f9:f3:e7:a9:ba:09:0a:
                    cd:d4:73:51:5a:c1:43:ee:b0:54:e7:a8:ef:a7:01:
                    f2:f4:35:b1:75:49:41:f7:1f:7a:70:09:a7:e5:4b:
                    43:de:bd:3d:84:b6:b7:e4:6a:95:31:14:95:f6:39:
                    61:00:07:82:6b:af:9e:e8:1c:69:18:9b:21:f1:a7:
                    4d:fe:8e:19:59:11:2f:c7:37:dd:a4:0b:5f:70:9d:
                    e5:cf:12:ab:c7:e2:76:6d:53:27:10:bf:88:d2:f0:
                    e7:bd:31:7a:ba:e1:f2:c2:4c:20:97:b1:a0:47:4d:
                    52:23:80:f5:24:57:01:21:cc:78:55:1c:98:bf:09:
                    61:90:2b:f6:9e:ae:2f:e2:92:ac:05:c1:c6:17:ef:
                    6a:76:a2:23:5c:15:ec:aa:f7:97:d1:04:6b:f9:fe:
                    34:11:aa:2b:45:c9:5e:70:b2:45:59:7f:c3:c5:8f:
                    0c:6e:a5:ef:fe:f5:de:68:d7:11:da:47:15:e0:bd:
                    4b:ce:ce:33:77:62:0f:df:d4:20:9c:14:ba:5e:2f:
                    9d:cf:ac:12:79:7c:06:a8:04:bd:1e:56:bc:a8:5e:
                    d8:5a:a7:aa:f7:c3:64:62:21:8d:54:db:72:01:1e:
                    38:2c:ea:48:32:1e:3a:68:fd:40:cf:d5:44:8c:e2:
                    63:ec:9d:72:24:96:54:17:d1:62:86:67:92:a0:26:
                    bf:4b:77:38:50:63:97:69:88:0e:b3:18:a5:7d:1b:
                    9a:b9:27:5b:14:b1:77:d6:2b:c3:f9:8f:64:34:57:
                    53:af:58:79:96:ab:54:7b:f9:7b:ac:b6:d0:9a:f2:
                    2a:fc:54:32:0e:8d:c4:88:f1:66:97:b1:12:0c:eb:
                    fd:29:13:41:6e:34:a8:84:f8:45:02:3f:5a:c0:59:
                    2c:49:e5:2d:e9:b1:ce:42:7d:79:d7:95:ab:d7:aa:
                    92:97:32:01:b4:d1:26:49:54:37:33:ed:9f:02:44:
                    0e:60:c0:82:51:0b:2a:b1:5e:f3:8e:d4:46:f9:53:
                    7c:33:83:89:4b:a2:f3:39:36:e6:ab:68:50:4b:9c:
                    64:d0:1f
                Exponent: 65537 (0x10001)
        X509v3 extensions:
            X509v3 Basic Constraints: 
                CA:FALSE
            Netscape Cert Type: 
                SSL Server
            Netscape Comment: 
                TinyCA Generated Certificate
            X509v3 Subject Key Identifier: 
                26:8C:A5:F9:A6:4A:FE:4C:E8:0F:04:33:7E:04:26:28:BF:4C:92:F3
            X509v3 Authority Key Identifier: 
                keyid:9D:8F:84:76:94:CD:07:FE:A3:E8:8B:D7:F9:D9:6E:EF:CA:75:51:7B
                DirName:/C=BE/CN=txjsonrpc-test-ca
                serial:8D:D2:AF:37:F9:CA:92:0B

            X509v3 Issuer Alternative Name: 
                <EMPTY>

            X509v3 Subject Alternative Name: 
                <EMPTY>

    Signature Algorithm: sha1WithRSAEncryption
         15:dc:9c:4f:49:92:58:aa:2a:5b:f1:6f:6c:02:d6:87:68:23:
         3d:45:77:a1:8b:b3:ee:41:48:57:07:11:81:55:67:77:1a:3c:
         30:1b:76:9b:fe:f3:d4:41:fb:92:11:56:9e:7c:ee:f6:cf:19:
         3f:8f:d8:9c:e3:5b:0c:43:a0:00:05:ce:1d:b9:12:25:b4:ad:
         a7:ee:02:52:fc:e3:4d:2c:4a:ca:1e:24:9c:be:78:9f:58:7e:
         01:46:bd:59:28:4b:42:ef:b0:a6:18:87:65:ff:c0:12:c1:32:
         05:7a:3c:ba:d3:63:b0:21:36:84:91:ac:dd:d3:12:55:a5:e1:
         7e:b4
-----BEGIN CERTIFICATE-----
MIIEOzCCA6SgAwIBAgIBATANBgkqhkiG9w0BAQUFADA4MREwDwYDVQQDEwhjYS1m
YWxzZTELMAkGA1UEBhMCQkUxFjAUBgNVBAoTDUdyZW13ZWxsIGJ2YmEwHhcNMTIw
NjIzMTU0NzM4WhcNMTMwNjIzMTU0NzM4WjAqMQswCQYDVQQGEwJCRTEbMBkGA1UE
AxMSdHhqc29ucnBjLXB5c2VydmVyMIICIjANBgkqhkiG9w0BAQEFAAOCAg8AMIIC
CgKCAgEAzd44qWwG7LhmoCNtOReRFIC4ygsqc+P4tI3wMtdALz/3Xjzf3JHPCs45
ks3IASyN0IfdbxXsQu8DADyXYofw0Kk/II5uL7jTejIm1WabsM9EM//MvmkdXiFJ
WpLy1fX9KaYLmnqSk8HMKNpkzUPEyPnz56m6CQrN1HNRWsFD7rBU56jvpwHy9DWx
dUlB9x96cAmn5UtD3r09hLa35GqVMRSV9jlhAAeCa6+e6BxpGJsh8adN/o4ZWREv
xzfdpAtfcJ3lzxKrx+J2bVMnEL+I0vDnvTF6uuHywkwgl7GgR01SI4D1JFcBIcx4
VRyYvwlhkCv2nq4v4pKsBcHGF+9qdqIjXBXsqveX0QRr+f40EaorRclecLJFWX/D
xY8MbqXv/vXeaNcR2kcV4L1Lzs4zd2IP39QgnBS6Xi+dz6wSeXwGqAS9Hla8qF7Y
Wqeq98NkYiGNVNtyAR44LOpIMh46aP1Az9VEjOJj7J1yJJZUF9FihmeSoCa/S3c4
UGOXaYgOsxilfRuauSdbFLF31ivD+Y9kNFdTr1h5lqtUe/l7rLbQmvIq/FQyDo3E
iPFml7ESDOv9KRNBbjSohPhFAj9awFksSeUt6bHOQn1515Wr16qSlzIBtNEmSVQ3
M+2fAkQOYMCCUQsqsV7zjtRG+VN8M4OJS6LzOTbmq2hQS5xk0B8CAwEAAaOB3jCB
2zAJBgNVHRMEAjAAMBEGCWCGSAGG+EIBAQQEAwIGQDArBglghkgBhvhCAQ0EHhYc
VGlueUNBIEdlbmVyYXRlZCBDZXJ0aWZpY2F0ZTAdBgNVHQ4EFgQUJoyl+aZK/kzo
DwQzfgQmKL9MkvMwWQYDVR0jBFIwUIAUnY+EdpTNB/6j6IvX+dlu78p1UXuhLaQr
MCkxCzAJBgNVBAYTAkJFMRowGAYDVQQDExF0eGpzb25ycGMtdGVzdC1jYYIJAI3S
rzf5ypILMAkGA1UdEgQCMAAwCQYDVR0RBAIwADANBgkqhkiG9w0BAQUFAAOBgQAV
3JxPSZJYqipb8W9sAtaHaCM9RXehi7PuQUhXBxGBVWd3GjwwG3ab/vPUQfuSEVae
fO72zxk/j9ic41sMQ6AABc4duRIltK2n7gJS/ONNLErKHiScvnifWH4BRr1ZKEtC
77CmGIdl/8ASwTIFejy602OwITaEkazd0xJVpeF+tA==
-----END CERTIFICATE-----
Certificate:
    Data:
        Version: 4 (0x3)
        Serial Number: 1 (0x1)
    Signature Algorithm: sha1WithRSAEncryption
        Issuer: C=BE, CN=txjsonrpc-test-ca
        Validity
            Not Before: Jan  1 00:00:00 1970 GMT
            Not After : Jan 19 03:14:07 2038 GMT
        Subject: CN=ca-false, C=BE, O=Gremwell bvba
        Subject Public Key Info:
            Public Key Algorithm: rsaEncryption
                Public-Key: (1024 bit)
                Modulus:
                    00:c1:dc:ff:ed:51:99:84:93:a4:8a:2d:00:5a:89:
                    46:59:16:73:a5:eb:b6:0b:c8:f3:12:88:d1:73:89:
                    b9:74:00:1b:7c:7d:7f:69:82:00:a1:6a:84:ca:e4:
                    bc:96:47:a3:58:68:a0:7f:83:dd:1a:2b:b4:60:89:
                    52:58:00:20:e7:8e:7b:84:2c:54:69:7b:b3:8c:d0:
                    dd:f2:0a:6a:18:8a:cc:03:54:87:0d:54:7f:05:3c:
                    17:83:2f:44:40:b7:61:37:59:59:be:3c:8f:55:28:
                    b3:bd:6a:f8:ef:f0:a7:51:88:12:e9:dc:ce:62:e4:
                    f7:1d:7d:7c:ea:a1:ed:68:6b
                Exponent: 65537 (0x10001)
        X509v3 extensions:
            X509v3 Basic Constraints: critical
                CA:FALSE
    Signature Algorithm: sha1WithRSAEncryption
         2e:74:68:18:02:21:8e:f1:42:8a:6a:74:4a:c4:9a:74:71:7c:
         d0:5a:44:81:35:5a:30:10:00:2d:c9:51:87:6e:65:7a:a8:af:
         99:d2:57:41:b9:5e:03:79:e8:b7:3b:c6:b9:0a:f6:cd:b9:e2:
         87:45:b7:25:e8:23:b1:9d:d3:95:8c:5b:3b:05:94:ce:92:8d:
         58:35:40:6c:9f:72:93:41:a6:07:17:d6:d7:7d:8b:ee:51:55:
         35:17:c0:f3:77:22:ce:ba:e5:2a:b0:61:1b:d1:e5:fb:07:b5:
         0c:2c:c8:72:58:d0:a0:d6:5a:3a:9e:24:0d:d7:33:51:29:4b:
         1f:5d:d1:34:06:36:7c:a9:d4:d4:a6:8a:3c:c5:78:36:d7:07:
         2c:61:10:3a:8e:01:a1:ae:e9:ba:4a:1c:92:3c:4e:c3:5c:22:
         a6:95:67:ed:82:99:3e:4a:80:4a:00:16:eb:a5:8b:ed:d0:d8:
         15:33:c0:0b:9b:db:85:06:ff:15:7f:72:ed:16:4e:b3:12:a7:
         e2:e9:7e:6b:07:67:c7:62:06:9e:46:a5:27:36:26:c8:23:c5:
         f7:35:a5:fe:ac:e3:01:d8:72:b4:a7:7f:ca:24:12:06:83:e9:
         1a:2c:20:18:5c:d3:6a:76:e2:83:11:9c:41:13:51:fc:2e:f5:
         1c:8e:f5:2c:f3:d3:ee:92:ea:fb:b9:9b:ad:56:f0:14:93:28:
         4d:49:9c:5f:b6:f7:01:ff:c9:c9:5e:db:a8:e8:17:36:4b:9d:
         4b:a5:8d:5c:85:4d:c0:5f:c6:09:23:d4:f6:d0:8b:15:e7:93:
         f1:82:77:1c:8c:31:05:01:c4:1e:f2:1b:16:2c:72:07:72:72:
         cc:07:c1:65:62:43:43:85:c8:18:16:da:d6:ea:ff:16:d7:70:
         6f:96:5c:77:56:ae:52:63:e8:05:e3:93:b4:20:84:31:15:d8:
         83:c4:15:eb:df:74:49:5b:8a:e3:43:6c:a0:9c:5a:a3:6e:05:
         7c:21:e3:f0:7f:2b:30:c9:b2:a8:13:dc:76:e2:49:98:3b:ef:
         d5:99:bf:67:c6:af:01:60:79:b7:f1:da:3b:0b:92:c8:a4:e6:
         0e:23:4a:2c:6b:9f:f3:78:29:a6:45:bf:57:98:e4:57:f9:1e:
         78:64:37:7d:20:f2:ca:fb:0a:5a:19:a6:55:f8:e1:97:af:32:
         08:83:7f:71:04:69:6a:5a:d2:29:c6:80:fd:4a:e2:05:a7:2d:
         16:c6:9a:b8:8c:65:ab:7d:a8:62:c3:ce:a9:2d:3d:91:a9:fe:
         a4:84:4c:96:7c:39:2d:3f:89:e1:9f:7e:f2:db:30:da:b1:ad:
         0b:26:62:8a:0c:c3:67:fe
-----BEGIN CERTIFICATE-----
MIIDaDCCAVCgAwIBAwIBATANBgkqhkiG9w0BAQUFADApMQswCQYDVQQGEwJCRTEa
MBgGA1UEAxMRdHhqc29ucnBjLXRlc3QtY2EwHhcNNzAwMTAxMDAwMDAwWhcNMzgw
MTE5MDMxNDA3WjA4MREwDwYDVQQDEwhjYS1mYWxzZTELMAkGA1UEBhMCQkUxFjAU
BgNVBAoTDUdyZW13ZWxsIGJ2YmEwgZ8wDQYJKoZIhvcNAQEBBQADgY0AMIGJAoGB
AMHc/+1RmYSTpIotAFqJRlkWc6XrtgvI8xKI0XOJuXQAG3x9f2mCAKFqhMrkvJZH
o1hooH+D3RortGCJUlgAIOeOe4QsVGl7s4zQ3fIKahiKzANUhw1UfwU8F4MvREC3
YTdZWb48j1Uos71q+O/wp1GIEunczmLk9x19fOqh7WhrAgMBAAGjEDAOMAwGA1Ud
EwEB/wQCMAAwDQYJKoZIhvcNAQEFBQADggIBAC50aBgCIY7xQopqdErEmnRxfNBa
RIE1WjAQAC3JUYduZXqor5nSV0G5XgN56Lc7xrkK9s254odFtyXoI7Gd05WMWzsF
lM6SjVg1QGyfcpNBpgcX1td9i+5RVTUXwPN3Is665SqwYRvR5fsHtQwsyHJY0KDW
WjqeJA3XM1EpSx9d0TQGNnyp1NSmijzFeDbXByxhEDqOAaGu6bpKHJI8TsNcIqaV
Z+2CmT5KgEoAFuuli+3Q2BUzwAub24UG/xV/cu0WTrMSp+LpfmsHZ8diBp5GpSc2
Jsgjxfc1pf6s4wHYcrSnf8okEgaD6RosIBhc02p24oMRnEETUfwu9RyO9Szz0+6S
6vu5m61W8BSTKE1JnF+29wH/ycle26joFzZLnUuljVyFTcBfxgkj1PbQixXnk/GC
dxyMMQUBxB7yGxYscgdycswHwWViQ0OFyBgW2tbq/xbXcG+WXHdWrlJj6AXjk7Qg
hDEV2IPEFevfdElbiuNDbKCcWqNuBXwh4/B/KzDJsqgT3HbiSZg779WZv2fGrwFg
ebfx2jsLksik5g4jSixrn/N4KaZFv1eY5Ff5HnhkN30g8sr7CloZplX44ZevMgiD
f3EEaWpa0inGgP1K4gWnLRbGmriMZat9qGLDzqktPZGp/qSETJZ8OS0/ieGffvLb
MNqxrQsmYooMw2f+
-----END CERTIFICATE-----
