Certificate:
    Data:
        Version: 4 (0x3)
        Serial Number: 1 (0x1)
    Signature Algorithm: sha1WithRSAEncryption
        Issuer: C=BE, CN=txjsonrpc-test-ca
        Validity
            Not Before: Jan  1 00:00:00 1970 GMT
            Not After : Jan 19 03:14:07 2038 GMT
        Subject: CN=ca-none, C=BE, O=Gremwell bvba
        Subject Public Key Info:
            Public Key Algorithm: rsaEncryption
                Public-Key: (1024 bit)
                Modulus:
                    00:af:19:54:c3:e3:3a:91:99:6d:be:af:bd:a0:95:
                    ea:34:1f:a4:83:85:24:b0:1a:1e:67:2b:d3:5f:e9:
                    97:4d:fa:ec:69:12:e2:ba:3b:0b:e5:88:ba:42:ec:
                    43:97:1c:f4:37:f8:6b:ac:47:55:32:3d:b0:2b:e4:
                    d6:f1:96:34:b9:eb:a0:95:46:a0:fd:3a:81:83:39:
                    8f:3a:6c:5a:72:d7:ee:2b:91:31:00:59:b4:9e:92:
                    a1:1a:54:e2:81:6d:9b:98:66:67:0d:eb:55:93:aa:
                    38:4c:0e:94:47:63:d9:d2:0e:47:4a:db:71:5c:38:
                    98:4d:ea:6a:17:44:6b:f0:21
                Exponent: 65537 (0x10001)
    Signature Algorithm: sha1WithRSAEncryption
         ad:07:a6:77:80:dd:eb:e0:62:12:7d:58:87:7d:89:68:2d:9f:
         94:d5:6e:86:cf:7a:8a:c7:71:b8:a5:9a:70:25:8f:aa:b9:77:
         a1:b8:2c:a8:9c:c0:fc:ca:4e:74:34:39:1d:6c:90:5e:aa:9b:
         ca:4b:80:da:38:89:87:df:ce:85:45:0a:8e:59:8a:93:57:3d:
         01:5b:79:c9:9c:7e:e1:ec:28:03:5d:c5:77:35:3c:bf:dc:c1:
         7a:16:c0:a1:4f:87:cf:87:a8:aa:74:b0:02:de:0f:c0:05:04:
         38:48:5a:36:16:ab:d0:ee:15:37:c2:0d:ed:fc:cf:b6:47:0d:
         ac:21:9e:8f:03:d6:eb:5e:58:e0:9d:6c:63:6a:bb:15:55:59:
         7d:20:da:f4:3b:30:24:4b:cc:75:61:b9:8e:de:e8:29:eb:05:
         af:97:d0:af:61:18:59:bb:25:de:45:85:3e:1f:a4:c9:25:65:
         18:46:c4:62:9e:29:c6:35:52:50:f9:09:2c:26:a9:00:74:21:
         50:32:13:32:ba:a2:b4:76:57:0a:7b:98:26:8c:41:96:fc:53:
         3a:d6:34:03:e9:01:27:f4:bb:f1:d9:3e:62:0a:06:09:72:c8:
         61:84:62:eb:b0:f3:56:8f:cb:49:72:4a:72:cf:ef:5c:8b:08:
         5a:b8:ed:e6:b8:2c:51:56:ed:6a:cd:c2:47:8f:7d:91:62:a5:
         1b:2c:b6:4f:ca:5b:bf:64:fd:2b:7d:5b:af:ba:7f:f4:d2:7b:
         37:24:bb:c8:4f:81:91:d3:14:be:0c:0f:70:5f:93:c8:96:b5:
         ff:4a:a8:6a:4e:00:42:cb:76:7b:fe:36:ca:ae:bb:04:37:ac:
         67:91:bd:7f:03:87:25:88:f2:06:f3:91:67:3e:48:54:50:08:
         69:46:eb:ff:96:50:21:2b:90:cd:0c:91:a9:df:b4:93:3f:60:
         61:83:55:9b:87:d9:4b:0f:0a:db:ea:5d:34:f6:4f:c4:3f:3f:
         69:01:99:76:1a:99:a5:c5:48:80:e7:e2:40:0d:3e:27:2e:7f:
         45:c9:c3:2f:6a:8b:19:27:5c:21:41:80:4e:8a:d9:44:bb:a7:
         da:a9:8b:bb:37:f9:64:c5:a0:bc:60:d7:2a:30:38:05:3e:84:
         52:bf:91:d1:6a:5e:8a:b3:2e:91:8e:b3:77:a0:70:76:3a:3d:
         8b:55:28:aa:4a:c2:1e:6e:b4:86:5b:e5:23:d3:28:b4:28:e9:
         ee:f3:8c:ac:db:31:cd:7c:ad:47:bb:06:39:dc:70:d3:0a:da:
         98:27:ca:83:12:f2:49:19:46:02:1a:9f:87:04:70:d3:9b:2c:
         22:db:36:56:7f:d2:d2:fd
-----BEGIN CERTIFICATE-----
MIIDVTCCAT2gAwIBAwIBATANBgkqhkiG9w0BAQUFADApMQswCQYDVQQGEwJCRTEa
MBgGA1UEAxMRdHhqc29ucnBjLXRlc3QtY2EwHhcNNzAwMTAxMDAwMDAwWhcNMzgw
MTE5MDMxNDA3WjA3MRAwDgYDVQQDEwdjYS1ub25lMQswCQYDVQQGEwJCRTEWMBQG
A1UEChMNR3JlbXdlbGwgYnZiYTCBnzANBgkqhkiG9w0BAQEFAAOBjQAwgYkCgYEA
rxlUw+M6kZltvq+9oJXqNB+kg4UksBoeZyvTX+mXTfrsaRLiujsL5Yi6QuxDlxz0
N/hrrEdVMj2wK+TW8ZY0ueuglUag/TqBgzmPOmxactfuK5ExAFm0npKhGlTigW2b
mGZnDetVk6o4TA6UR2PZ0g5HSttxXDiYTepqF0Rr8CECAwEAATANBgkqhkiG9w0B
AQUFAAOCAgEArQemd4Dd6+BiEn1Yh32JaC2flNVuhs96isdxuKWacCWPqrl3obgs
qJzA/MpOdDQ5HWyQXqqbykuA2jiJh9/OhUUKjlmKk1c9AVt5yZx+4ewoA13FdzU8
v9zBehbAoU+Hz4eoqnSwAt4PwAUEOEhaNhar0O4VN8IN7fzPtkcNrCGejwPW615Y
4J1sY2q7FVVZfSDa9DswJEvMdWG5jt7oKesFr5fQr2EYWbsl3kWFPh+kySVlGEbE
Yp4pxjVSUPkJLCapAHQhUDITMrqitHZXCnuYJoxBlvxTOtY0A+kBJ/S78dk+YgoG
CXLIYYRi67DzVo/LSXJKcs/vXIsIWrjt5rgsUVbtas3CR499kWKlGyy2T8pbv2T9
K31br7p/9NJ7NyS7yE+BkdMUvgwPcF+TyJa1/0qoak4AQst2e/42yq67BDesZ5G9
fwOHJYjyBvORZz5IVFAIaUbr/5ZQISuQzQyRqd+0kz9gYYNVm4fZSw8K2+pdNPZP
xD8/aQGZdhqZpcVIgOfiQA0+Jy5/RcnDL2qLGSdcIUGATorZRLun2qmLuzf5ZMWg
vGDXKjA4BT6EUr+R0WpeirMukY6zd6Bwdjo9i1UoqkrCHm60hlvlI9MotCjp7vOM
rNsxzXytR7sGOdxw0wramCfKgxLySRlGAhqfhwRw05ssIts2Vn/S0v0=
-----END CERTIFICATE-----
Certificate:
    Data:
        Version: 3 (0x2)
        Serial Number: 10219423159405941259 (0x8dd2af37f9ca920b)
    Signature Algorithm: sha1WithRSAEncryption
        Issuer: C=BE, CN=txjsonrpc-test-ca
        Validity
            Not Before: Jun 23 15:46:37 2012 GMT
            Not After : Jun 21 15:46:37 2022 GMT
        Subject: C=BE, CN=txjsonrpc-test-ca
        Subject Public Key Info:
            Public Key Algorithm: rsaEncryption
                Public-Key: (4096 bit)
                Modulus:
                    00:d1:25:af:77:c5:a8:72:cf:90:b9:39:10:fb:7b:
                    75:2c:a1:da:6a:95:e5:44:0c:d6:25:4b:58:7f:bb:
                    07:82:59:49:58:32:85:24:cc:3e:77:db:e1:a7:4f:
                    c8:b5:cb:ee:45:38:bd:bc:fb:e3:76:3b:88:04:ca:
                    ab:3a:a3:96:3b:5f:93:9c:28:a6:61:97:dc:a2:3f:
                    a0:93:2b:56:6c:cf:d3:4f:6a:9e:05:d3:1c:cd:ef:
                    75:80:1a:98:b7:92:49:14:33:b8:c4:7c:73:8c:7e:
                    83:a5:81:a2:59:8c:8b:a3:51:36:6d:68:ac:f2:f1:
                    ed:6f:49:d9:af:7a:63:c1:43:31:42:b6:c7:cd:b9:
                    78:b7:33:98:70:92:6c:9e:04:7a:7b:f0:6d:38:87:
                    eb:00:13:17:b9:d9:ec:b4:66:bb:51:d3:fd:81:e3:
                    0e:88:71:23:d2:80:2a:61:de:ab:25:02:47:a9:c1:
                    6b:c9:69:ae:da:47:b6:49:74:ac:a6:e1:c1:76:ba:
                    6d:b1:d9:68:6e:1c:37:a8:e2:18:60:37:b6:58:13:
                    6c:c7:92:7c:c6:45:8c:ef:c3:81:73:10:dc:2f:31:
                    e2:b9:05:5a:9e:28:70:5a:3e:1d:b8:68:71:81:c9:
                    e8:fe:1f:c3:a0:13:f8:e4:24:12:ba:91:8e:15:d2:
                    03:f1:8c:b0:aa:e2:34:e4:6b:f8:06:f6:23:8a:92:
                    43:a6:05:dc:e9:c7:a5:a8:06:d7:6e:91:52:72:47:
                    ab:ae:87:fe:b3:0f:04:87:6f:4b:22:29:e9:a9:06:
                    52:58:7d:03:16:d7:d5:31:44:b4:f1:51:44:a7:2a:
                    ba:5e:09:19:ec:4c:a2:e0:58:fe:0d:4e:b7:90:4d:
                    02:ac:2a:ad:99:14:65:3b:0a:3c:73:45:56:b2:0f:
                    10:25:24:51:79:57:1a:34:1a:10:6f:60:e0:fc:81:
                    db:ca:c2:e2:85:1b:4c:72:13:5c:9d:76:cc:d0:21:
                    33:31:56:82:8f:c5:57:b9:44:fd:8b:76:c1:b6:e4:
                    21:8b:35:9a:ee:54:74:9f:72:6b:19:84:d7:a2:3c:
                    a5:6e:11:0a:f1:93:04:2e:dd:7c:4c:7d:62:10:d4:
                    1b:8b:87:f6:ed:bf:12:b1:8b:f0:9a:7a:ee:02:94:
                    e1:3c:46:2b:7f:9c:54:fb:2e:61:c9:1c:ef:fc:de:
                    25:bc:2d:75:1b:1f:49:5e:44:3b:15:93:ad:c4:89:
                    d9:ae:3c:da:54:ef:d9:af:3a:16:cb:94:1b:6a:14:
                    e4:42:f9:75:33:46:6e:fb:40:bc:f8:82:36:cf:60:
                    f5:c2:a2:98:23:a7:2a:ae:c1:aa:22:f8:87:da:b7:
                    9c:a4:cf
                Exponent: 65537 (0x10001)
        X509v3 extensions:
            X509v3 Subject Key Identifier: 
                9D:8F:84:76:94:CD:07:FE:A3:E8:8B:D7:F9:D9:6E:EF:CA:75:51:7B
            X509v3 Authority Key Identifier: 
                keyid:9D:8F:84:76:94:CD:07:FE:A3:E8:8B:D7:F9:D9:6E:EF:CA:75:51:7B
                DirName:/C=BE/CN=txjsonrpc-test-ca
                serial:8D:D2:AF:37:F9:CA:92:0B

            X509v3 Basic Constraints: critical
                CA:TRUE
            Netscape Cert Type: 
                SSL CA, S/MIME CA
            X509v3 Issuer Alternative Name: 
                <EMPTY>

            Netscape Comment: 
                Test CA for txjsonrcp
            X509v3 Subject Alternative Name: 
                <EMPTY>

            X509v3 Key Usage: critical
                Certificate Sign, CRL Sign
    Signature Algorithm: sha1WithRSAEncryption
         06:82:86:81:a9:1b:7e:2d:ef:f5:fc:cc:d2:9d:d6:82:ad:d0:
         6f:7e:3d:b9:5c:b2:0f:3a:64:21:9a:fb:53:b2:93:81:dc:1a:
         24:fc:b8:30:57:a2:c7:71:0d:9c:1a:0b:8a:6c:89:52:8b:8a:
         f5:af:95:3e:b8:08:39:ee:36:50:ac:60:4d:df:2b:49:a2:72:
         f1:3f:12:3c:d9:55:56:a4:9a:77:2b:77:fa:16:b5:76:d9:f4:
         c4:51:6b:b9:fe:2f:a3:52:e8:64:80:49:22:6d:05:42:87:af:
         9d:85:6c:fa:c9:9b:48:39:7b:89:f5:a0:1e:ff:11:d3:9c:78:
         b1:b2:f6:4d:b1:e8:b3:98:23:2c:d4:20:e1:a1:01:3e:26:0a:
         5b:8e:eb:58:45:22:cf:e1:94:ad:84:40:b0:fb:ff:25:5f:31:
         9a:49:0b:36:ad:c6:1a:b0:42:60:40:e2:a2:3c:5a:36:41:89:
         fc:10:c4:60:ea:d4:85:7b:36:84:df:aa:81:cc:69:e7:52:ca:
         c1:46:b1:79:93:51:4f:24:84:42:14:3a:20:a0:6c:27:76:40:
         0f:96:7e:4e:c3:0c:37:b3:e3:73:49:86:58:31:00:1e:e7:0f:
         87:74:b6:4e:6e:1c:7d:87:a4:33:04:c9:76:ec:e5:3a:85:5f:
         a8:d1:ad:21:64:5e:c5:6a:df:b1:02:6e:65:a4:87:72:06:07:
         da:e5:f2:af:2b:a5:eb:18:80:67:83:a5:3c:e6:ed:d1:58:f9:
         90:5c:d6:e9:2f:76:c1:58:13:b8:bd:88:8a:f3:04:48:bb:42:
         8f:7f:c6:db:b4:30:3f:bb:6c:d5:47:e5:ae:8d:4b:da:92:a5:
         db:d3:6e:a8:9b:c2:6b:56:af:34:63:82:e6:78:f8:1f:54:d7:
         41:aa:a3:c9:7c:a6:83:41:bf:6e:33:7c:ae:e6:92:bd:da:27:
         b4:bc:e2:90:4f:33:1b:01:a1:cd:02:13:7a:31:ef:00:d6:9a:
         6e:38:6b:a7:cb:70:98:a8:0f:ff:1c:56:a8:b7:e6:d2:42:5a:
         bb:f4:78:27:71:13:d0:e8:43:eb:bc:2d:4f:e4:ea:4d:4f:76:
         7f:53:38:34:eb:13:e2:3d:c6:14:98:86:1c:ab:2c:0e:b7:68:
         2e:bd:63:a9:6a:8f:d5:22:2d:ab:13:d7:62:54:51:ff:5c:37:
         08:04:27:da:f9:57:77:05:18:73:88:5f:b0:c1:65:50:36:09:
         d6:c7:f5:ae:6e:3f:04:d1:84:3c:21:74:1d:bd:0a:fb:76:d0:
         13:2b:62:bb:24:48:43:89:d0:18:5c:b4:ad:ea:98:af:6d:fc:
         1c:6b:1f:06:64:54:23:88
-----BEGIN CERTIFICATE-----
MIIFwzCCA6ugAwIBAgIJAI3Srzf5ypILMA0GCSqGSIb3DQEBBQUAMCkxCzAJBgNV
BAYTAkJFMRowGAYDVQQDExF0eGpzb25ycGMtdGVzdC1jYTAeFw0xMjA2MjMxNTQ2
MzdaFw0yMjA2MjExNTQ2MzdaMCkxCzAJBgNVBAYTAkJFMRowGAYDVQQDExF0eGpz
b25ycGMtdGVzdC1jYTCCAiIwDQYJKoZIhvcNAQEBBQADggIPADCCAgoCggIBANEl
r3fFqHLPkLk5EPt7dSyh2mqV5UQM1iVLWH+7B4JZSVgyhSTMPnfb4adPyLXL7kU4
vbz743Y7iATKqzqjljtfk5wopmGX3KI/oJMrVmzP009qngXTHM3vdYAamLeSSRQz
uMR8c4x+g6WBolmMi6NRNm1orPLx7W9J2a96Y8FDMUK2x825eLczmHCSbJ4Eenvw
bTiH6wATF7nZ7LRmu1HT/YHjDohxI9KAKmHeqyUCR6nBa8lprtpHtkl0rKbhwXa6
bbHZaG4cN6jiGGA3tlgTbMeSfMZFjO/DgXMQ3C8x4rkFWp4ocFo+HbhocYHJ6P4f
w6AT+OQkErqRjhXSA/GMsKriNORr+Ab2I4qSQ6YF3OnHpagG126RUnJHq66H/rMP
BIdvSyIp6akGUlh9AxbX1TFEtPFRRKcqul4JGexMouBY/g1Ot5BNAqwqrZkUZTsK
PHNFVrIPECUkUXlXGjQaEG9g4PyB28rC4oUbTHITXJ12zNAhMzFWgo/FV7lE/Yt2
wbbkIYs1mu5UdJ9yaxmE16I8pW4RCvGTBC7dfEx9YhDUG4uH9u2/ErGL8Jp67gKU
4TxGK3+cVPsuYckc7/zeJbwtdRsfSV5EOxWTrcSJ2a482lTv2a86FsuUG2oU5EL5
dTNGbvtAvPiCNs9g9cKimCOnKq7BqiL4h9q3nKTPAgMBAAGjge0wgeowHQYDVR0O
BBYEFJ2PhHaUzQf+o+iL1/nZbu/KdVF7MFkGA1UdIwRSMFCAFJ2PhHaUzQf+o+iL
1/nZbu/KdVF7oS2kKzApMQswCQYDVQQGEwJCRTEaMBgGA1UEAxMRdHhqc29ucnBj
LXRlc3QtY2GCCQCN0q83+cqSCzAPBgNVHRMBAf8EBTADAQH/MBEGCWCGSAGG+EIB
AQQEAwIBBjAJBgNVHRIEAjAAMCQGCWCGSAGG+EIBDQQXFhVUZXN0IENBIGZvciB0
eGpzb25yY3AwCQYDVR0RBAIwADAOBgNVHQ8BAf8EBAMCAQYwDQYJKoZIhvcNAQEF
BQADggIBAAaChoGpG34t7/X8zNKd1oKt0G9+Pblcsg86ZCGa+1Oyk4HcGiT8uDBX
osdxDZwaC4psiVKLivWvlT64CDnuNlCsYE3fK0micvE/EjzZVVakmncrd/oWtXbZ
9MRRa7n+L6NS6GSASSJtBUKHr52FbPrJm0g5e4n1oB7/EdOceLGy9k2x6LOYIyzU
IOGhAT4mCluO61hFIs/hlK2EQLD7/yVfMZpJCzatxhqwQmBA4qI8WjZBifwQxGDq
1IV7NoTfqoHMaedSysFGsXmTUU8khEIUOiCgbCd2QA+Wfk7DDDez43NJhlgxAB7n
D4d0tk5uHH2HpDMEyXbs5TqFX6jRrSFkXsVq37ECbmWkh3IGB9rl8q8rpesYgGeD
pTzm7dFY+ZBc1ukvdsFYE7i9iIrzBEi7Qo9/xtu0MD+7bNVH5a6NS9qSpdvTbqib
wmtWrzRjguZ4+B9U10Gqo8l8poNBv24zfK7mkr3aJ7S84pBPMxsBoc0CE3ox7wDW
mm44a6fLcJioD/8cVqi35tJCWrv0eCdxE9DoQ+u8LU/k6k1Pdn9TODTrE+I9xhSY
hhyrLA63aC69Y6lqj9UiLasT12JUUf9cNwgEJ9r5V3cFGHOIX7DBZVA2CdbH9a5u
PwTRhDwhdB29Cvt20BMrYrskSEOJ0BhctK3qmK9t/BxrHwZkVCOI
-----END CERTIFICATE-----
