Certificate:
    Data:
        Version: 4 (0x3)
        Serial Number: 1 (0x1)
    Signature Algorithm: sha1WithRSAEncryption
        Issuer: C=BE, CN=txjsonrpc-test-ca
        Validity
            Not Before: Jan  1 00:00:00 1970 GMT
            Not After : Jan 19 03:14:07 2038 GMT
        Subject: CN=www.example.com, C=BE, O=Gremwell bvba
        Subject Public Key Info:
            Public Key Algorithm: rsaEncryption
                Public-Key: (1024 bit)
                Modulus:
                    00:c3:80:51:bc:17:0b:f0:9a:d8:65:35:1b:ab:c5:
                    dc:59:b8:9a:ca:99:8b:4e:91:d0:7c:25:aa:85:bc:
                    dd:db:e2:a0:83:a0:2f:be:e5:57:86:16:ca:73:07:
                    cd:55:42:bd:4e:1a:18:c5:6c:f9:6d:0b:a0:20:a2:
                    52:f4:2a:66:5d:c3:b6:d4:52:d8:31:be:a2:21:e8:
                    09:b6:7e:4c:22:e6:d1:7a:82:c4:e0:3e:d1:a0:9d:
                    28:85:a4:fc:86:e0:35:dc:92:66:10:4e:34:60:b9:
                    83:4e:46:7c:a3:e6:26:53:9a:c4:01:11:9a:6d:5f:
                    60:7d:38:d3:4b:7a:4d:da:e5
                Exponent: 65537 (0x10001)
    Signature Algorithm: sha1WithRSAEncryption
         2e:0f:c7:1c:2b:1b:8c:62:1e:20:64:5b:ec:a0:61:6c:71:1b:
         18:10:fa:8b:ea:3e:fd:f5:96:02:73:4e:32:da:9c:17:71:d8:
         1d:cc:d6:19:53:7e:ee:67:67:50:54:90:94:a4:53:94:a1:28:
         7a:26:ec:d7:93:0b:fc:74:a7:da:7b:e8:62:85:8d:9b:ac:5e:
         42:84:0f:32:9a:dc:28:68:f3:67:cc:24:fa:cd:36:09:b0:5d:
         5c:7f:c1:60:99:ab:42:73:5d:df:cc:8a:b7:15:d4:1c:42:a0:
         77:e9:24:1e:41:2c:d1:c2:c3:59:dd:cd:16:cd:db:7c:a7:0c:
         72:14:ea:b0:ae:b6:ce:32:b7:59:f2:2e:43:98:14:ec:59:b9:
         5c:a8:60:5d:00:3e:f8:f9:81:19:50:17:7c:43:fd:21:48:72:
         24:13:a8:bc:da:c9:dc:59:57:9b:60:e3:19:38:21:79:df:3e:
         b9:4b:d3:bd:e4:4e:92:13:07:fb:17:31:86:87:6d:45:c2:bc:
         44:6e:49:24:4d:ff:30:ef:0b:10:91:a9:cc:14:32:4a:01:bf:
         05:61:31:d4:38:52:92:3e:4c:7d:fc:4d:84:d7:77:fb:f3:cc:
         d8:fe:6b:ae:9c:6f:b3:f5:ff:ac:ca:d7:e9:7a:25:23:77:57:
         ee:77:35:07:f8:cb:1e:47:df:4c:20:1e:ca:dc:d9:77:cb:79:
         19:f1:a1:c4:2b:4a:aa:7a:c6:d9:6a:ef:63:78:5f:f6:93:ed:
         d3:3a:a2:b9:a8:75:fd:7e:66:c3:11:00:fb:53:a1:a5:c5:3b:
         b9:78:66:19:8d:8d:44:d3:f1:21:da:b3:90:24:7f:c8:8d:4f:
         68:1f:77:11:12:09:91:3d:19:9d:9a:f0:cd:66:dc:01:0d:76:
         c1:f3:9c:1b:8f:c1:76:e8:73:0a:1f:6b:f3:ad:e3:e2:66:01:
         d9:64:34:fc:b6:ca:b6:bb:ef:be:2d:6c:e8:5f:c4:9c:fc:8f:
         90:5d:b2:33:0e:83:07:1c:9b:92:1b:29:f2:2f:3d:50:75:31:
         48:4c:ff:59:fb:80:a0:b1:07:68:6f:f4:52:1a:a7:40:5f:67:
         92:c2:9b:94:a0:7d:07:86:aa:45:7f:b8:0f:8d:9f:ed:77:b4:
         a6:d2:c3:4b:de:be:5d:00:b5:c1:c2:14:d9:7c:50:bb:5e:34:
         5c:fc:67:dd:f2:c3:21:41:30:48:5f:ff:4f:24:de:67:26:92:
         f9:f1:9d:43:25:72:7c:f4:cd:23:03:be:3a:22:cc:da:ec:0a:
         c9:36:52:6b:2d:66:36:3d:13:c4:d1:42:43:7e:18:4d:07:48:
         e4:fa:b3:a1:f9:07:79:af
-----BEGIN CERTIFICATE-----
MIIDXTCCAUWgAwIBAwIBATANBgkqhkiG9w0BAQUFADApMQswCQYDVQQGEwJCRTEa
MBgGA1UEAxMRdHhqc29ucnBjLXRlc3QtY2EwHhcNNzAwMTAxMDAwMDAwWhcNMzgw
MTE5MDMxNDA3WjA/MRgwFgYDVQQDEw93d3cuZXhhbXBsZS5jb20xCzAJBgNVBAYT
AkJFMRYwFAYDVQQKEw1HcmVtd2VsbCBidmJhMIGfMA0GCSqGSIb3DQEBAQUAA4GN
ADCBiQKBgQDDgFG8FwvwmthlNRurxdxZuJrKmYtOkdB8JaqFvN3b4qCDoC++5VeG
FspzB81VQr1OGhjFbPltC6AgolL0KmZdw7bUUtgxvqIh6Am2fkwi5tF6gsTgPtGg
nSiFpPyG4DXckmYQTjRguYNORnyj5iZTmsQBEZptX2B9ONNLek3a5QIDAQABMA0G
CSqGSIb3DQEBBQUAA4ICAQAuD8ccKxuMYh4gZFvsoGFscRsYEPqL6j799ZYCc04y
2pwXcdgdzNYZU37uZ2dQVJCUpFOUoSh6JuzXkwv8dKfae+hihY2brF5ChA8ymtwo
aPNnzCT6zTYJsF1cf8FgmatCc13fzIq3FdQcQqB36SQeQSzRwsNZ3c0Wzdt8pwxy
FOqwrrbOMrdZ8i5DmBTsWblcqGBdAD74+YEZUBd8Q/0hSHIkE6i82sncWVebYOMZ
OCF53z65S9O95E6SEwf7FzGGh21FwrxEbkkkTf8w7wsQkanMFDJKAb8FYTHUOFKS
Pkx9/E2E13f788zY/muunG+z9f+sytfpeiUjd1fudzUH+MseR99MIB7K3Nl3y3kZ
8aHEK0qqesbZau9jeF/2k+3TOqK5qHX9fmbDEQD7U6GlxTu5eGYZjY1E0/Eh2rOQ
JH/IjU9oH3cREgmRPRmdmvDNZtwBDXbB85wbj8F26HMKH2vzrePiZgHZZDT8tsq2
u+++LWzoX8Sc/I+QXbIzDoMHHJuSGynyLz1QdTFITP9Z+4CgsQdob/RSGqdAX2eS
wpuUoH0HhqpFf7gPjZ/td7Sm0sNL3r5dALXBwhTZfFC7XjRc/Gfd8sMhQTBIX/9P
JN5nJpL58Z1DJXJ89M0jA746Isza7ArJNlJrLWY2PRPE0UJDfhhNB0jk+rOh+Qd5
rw==
-----END CERTIFICATE-----
Certificate:
    Data:
        Version: 3 (0x2)
        Serial Number: 10219423159405941259 (0x8dd2af37f9ca920b)
    Signature Algorithm: sha1WithRSAEncryption
        Issuer: C=BE, CN=txjsonrpc-test-ca
        Validity
            Not Before: Jun 23 15:46:37 2012 GMT
            Not After : Jun 21 15:46:37 2022 GMT
        Subject: C=BE, CN=txjsonrpc-test-ca
        Subject Public Key Info:
            Public Key Algorithm: rsaEncryption
                Public-Key: (4096 bit)
                Modulus:
                    00:d1:25:af:77:c5:a8:72:cf:90:b9:39:10:fb:7b:
                    75:2c:a1:da:6a:95:e5:44:0c:d6:25:4b:58:7f:bb:
                    07:82:59:49:58:32:85:24:cc:3e:77:db:e1:a7:4f:
                    c8:b5:cb:ee:45:38:bd:bc:fb:e3:76:3b:88:04:ca:
                    ab:3a:a3:96:3b:5f:93:9c:28:a6:61:97:dc:a2:3f:
                    a0:93:2b:56:6c:cf:d3:4f:6a:9e:05:d3:1c:cd:ef:
                    75:80:1a:98:b7:92:49:14:33:b8:c4:7c:73:8c:7e:
                    83:a5:81:a2:59:8c:8b:a3:51:36:6d:68:ac:f2:f1:
                    ed:6f:49:d9:af:7a:63:c1:43:31:42:b6:c7:cd:b9:
                    78:b7:33:98:70:92:6c:9e:04:7a:7b:f0:6d:38:87:
                    eb:00:13:17:b9:d9:ec:b4:66:bb:51:d3:fd:81:e3:
                    0e:88:71:23:d2:80:2a:61:de:ab:25:02:47:a9:c1:
                    6b:c9:69:ae:da:47:b6:49:74:ac:a6:e1:c1:76:ba:
                    6d:b1:d9:68:6e:1c:37:a8:e2:18:60:37:b6:58:13:
                    6c:c7:92:7c:c6:45:8c:ef:c3:81:73:10:dc:2f:31:
                    e2:b9:05:5a:9e:28:70:5a:3e:1d:b8:68:71:81:c9:
                    e8:fe:1f:c3:a0:13:f8:e4:24:12:ba:91:8e:15:d2:
                    03:f1:8c:b0:aa:e2:34:e4:6b:f8:06:f6:23:8a:92:
                    43:a6:05:dc:e9:c7:a5:a8:06:d7:6e:91:52:72:47:
                    ab:ae:87:fe:b3:0f:04:87:6f:4b:22:29:e9:a9:06:
                    52:58:7d:03:16:d7:d5:31:44:b4:f1:51:44:a7:2a:
                    ba:5e:09:19:ec:4c:a2:e0:58:fe:0d:4e:b7:90:4d:
                    02:ac:2a:ad:99:14:65:3b:0a:3c:73:45:56:b2:0f:
                    10:25:24:51:79:57:1a:34:1a:10:6f:60:e0:fc:81:
                    db:ca:c2:e2:85:1b:4c:72:13:5c:9d:76:cc:d0:21:
                    33:31:56:82:8f:c5:57:b9:44:fd:8b:76:c1:b6:e4:
                    21:8b:35:9a:ee:54:74:9f:72:6b:19:84:d7:a2:3c:
                    a5:6e:11:0a:f1:93:04:2e:dd:7c:4c:7d:62:10:d4:
                    1b:8b:87:f6:ed:bf:12:b1:8b:f0:9a:7a:ee:02:94:
                    e1:3c:46:2b:7f:9c:54:fb:2e:61:c9:1c:ef:fc:de:
                    25:bc:2d:75:1b:1f:49:5e:44:3b:15:93:ad:c4:89:
                    d9:ae:3c:da:54:ef:d9:af:3a:16:cb:94:1b:6a:14:
                    e4:42:f9:75:33:46:6e:fb:40:bc:f8:82:36:cf:60:
                    f5:c2:a2:98:23:a7:2a:ae:c1:aa:22:f8:87:da:b7:
                    9c:a4:cf
                Exponent: 65537 (0x10001)
        X509v3 extensions:
            X509v3 Subject Key Identifier: 
                9D:8F:84:76:94:CD:07:FE:A3:E8:8B:D7:F9:D9:6E:EF:CA:75:51:7B
            X509v3 Authority Key Identifier: 
                keyid:9D:8F:84:76:94:CD:07:FE:A3:E8:8B:D7:F9:D9:6E:EF:CA:75:51:7B
                DirName:/C=BE/CN=txjsonrpc-test-ca
                serial:8D:D2:AF:37:F9:CA:92:0B

            X509v3 Basic Constraints: critical
                CA:TRUE
            Netscape Cert Type: 
                SSL CA, S/MIME CA
            X509v3 Issuer Alternative Name: 
                <EMPTY>

            Netscape Comment: 
                Test CA for txjsonrcp
            X509v3 Subject Alternative Name: 
                <EMPTY>

            X509v3 Key Usage: critical
                Certificate Sign, CRL Sign
    Signature Algorithm: sha1WithRSAEncryption
         06:82:86:81:a9:1b:7e:2d:ef:f5:fc:cc:d2:9d:d6:82:ad:d0:
         6f:7e:3d:b9:5c:b2:0f:3a:64:21:9a:fb:53:b2:93:81:dc:1a:
         24:fc:b8:30:57:a2:c7:71:0d:9c:1a:0b:8a:6c:89:52:8b:8a:
         f5:af:95:3e:b8:08:39:ee:36:50:ac:60:4d:df:2b:49:a2:72:
         f1:3f:12:3c:d9:55:56:a4:9a:77:2b:77:fa:16:b5:76:d9:f4:
         c4:51:6b:b9:fe:2f:a3:52:e8:64:80:49:22:6d:05:42:87:af:
         9d:85:6c:fa:c9:9b:48:39:7b:89:f5:a0:1e:ff:11:d3:9c:78:
         b1:b2:f6:4d:b1:e8:b3:98:23:2c:d4:20:e1:a1:01:3e:26:0a:
         5b:8e:eb:58:45:22:cf:e1:94:ad:84:40:b0:fb:ff:25:5f:31:
         9a:49:0b:36:ad:c6:1a:b0:42:60:40:e2:a2:3c:5a:36:41:89:
         fc:10:c4:60:ea:d4:85:7b:36:84:df:aa:81:cc:69:e7:52:ca:
         c1:46:b1:79:93:51:4f:24:84:42:14:3a:20:a0:6c:27:76:40:
         0f:96:7e:4e:c3:0c:37:b3:e3:73:49:86:58:31:00:1e:e7:0f:
         87:74:b6:4e:6e:1c:7d:87:a4:33:04:c9:76:ec:e5:3a:85:5f:
         a8:d1:ad:21:64:5e:c5:6a:df:b1:02:6e:65:a4:87:72:06:07:
         da:e5:f2:af:2b:a5:eb:18:80:67:83:a5:3c:e6:ed:d1:58:f9:
         90:5c:d6:e9:2f:76:c1:58:13:b8:bd:88:8a:f3:04:48:bb:42:
         8f:7f:c6:db:b4:30:3f:bb:6c:d5:47:e5:ae:8d:4b:da:92:a5:
         db:d3:6e:a8:9b:c2:6b:56:af:34:63:82:e6:78:f8:1f:54:d7:
         41:aa:a3:c9:7c:a6:83:41:bf:6e:33:7c:ae:e6:92:bd:da:27:
         b4:bc:e2:90:4f:33:1b:01:a1:cd:02:13:7a:31:ef:00:d6:9a:
         6e:38:6b:a7:cb:70:98:a8:0f:ff:1c:56:a8:b7:e6:d2:42:5a:
         bb:f4:78:27:71:13:d0:e8:43:eb:bc:2d:4f:e4:ea:4d:4f:76:
         7f:53:38:34:eb:13:e2:3d:c6:14:98:86:1c:ab:2c:0e:b7:68:
         2e:bd:63:a9:6a:8f:d5:22:2d:ab:13:d7:62:54:51:ff:5c:37:
         08:04:27:da:f9:57:77:05:18:73:88:5f:b0:c1:65:50:36:09:
         d6:c7:f5:ae:6e:3f:04:d1:84:3c:21:74:1d:bd:0a:fb:76:d0:
         13:2b:62:bb:24:48:43:89:d0:18:5c:b4:ad:ea:98:af:6d:fc:
         1c:6b:1f:06:64:54:23:88
-----BEGIN CERTIFICATE-----
MIIFwzCCA6ugAwIBAgIJAI3Srzf5ypILMA0GCSqGSIb3DQEBBQUAMCkxCzAJBgNV
BAYTAkJFMRowGAYDVQQDExF0eGpzb25ycGMtdGVzdC1jYTAeFw0xMjA2MjMxNTQ2
MzdaFw0yMjA2MjExNTQ2MzdaMCkxCzAJBgNVBAYTAkJFMRowGAYDVQQDExF0eGpz
b25ycGMtdGVzdC1jYTCCAiIwDQYJKoZIhvcNAQEBBQADggIPADCCAgoCggIBANEl
r3fFqHLPkLk5EPt7dSyh2mqV5UQM1iVLWH+7B4JZSVgyhSTMPnfb4adPyLXL7kU4
vbz743Y7iATKqzqjljtfk5wopmGX3KI/oJMrVmzP009qngXTHM3vdYAamLeSSRQz
uMR8c4x+g6WBolmMi6NRNm1orPLx7W9J2a96Y8FDMUK2x825eLczmHCSbJ4Eenvw
bTiH6wATF7nZ7LRmu1HT/YHjDohxI9KAKmHeqyUCR6nBa8lprtpHtkl0rKbhwXa6
bbHZaG4cN6jiGGA3tlgTbMeSfMZFjO/DgXMQ3C8x4rkFWp4ocFo+HbhocYHJ6P4f
w6AT+OQkErqRjhXSA/GMsKriNORr+Ab2I4qSQ6YF3OnHpagG126RUnJHq66H/rMP
BIdvSyIp6akGUlh9AxbX1TFEtPFRRKcqul4JGexMouBY/g1Ot5BNAqwqrZkUZTsK
PHNFVrIPECUkUXlXGjQaEG9g4PyB28rC4oUbTHITXJ12zNAhMzFWgo/FV7lE/Yt2
wbbkIYs1mu5UdJ9yaxmE16I8pW4RCvGTBC7dfEx9YhDUG4uH9u2/ErGL8Jp67gKU
4TxGK3+cVPsuYckc7/zeJbwtdRsfSV5EOxWTrcSJ2a482lTv2a86FsuUG2oU5EL5
dTNGbvtAvPiCNs9g9cKimCOnKq7BqiL4h9q3nKTPAgMBAAGjge0wgeowHQYDVR0O
BBYEFJ2PhHaUzQf+o+iL1/nZbu/KdVF7MFkGA1UdIwRSMFCAFJ2PhHaUzQf+o+iL
1/nZbu/KdVF7oS2kKzApMQswCQYDVQQGEwJCRTEaMBgGA1UEAxMRdHhqc29ucnBj
LXRlc3QtY2GCCQCN0q83+cqSCzAPBgNVHRMBAf8EBTADAQH/MBEGCWCGSAGG+EIB
AQQEAwIBBjAJBgNVHRIEAjAAMCQGCWCGSAGG+EIBDQQXFhVUZXN0IENBIGZvciB0
eGpzb25yY3AwCQYDVR0RBAIwADAOBgNVHQ8BAf8EBAMCAQYwDQYJKoZIhvcNAQEF
BQADggIBAAaChoGpG34t7/X8zNKd1oKt0G9+Pblcsg86ZCGa+1Oyk4HcGiT8uDBX
osdxDZwaC4psiVKLivWvlT64CDnuNlCsYE3fK0micvE/EjzZVVakmncrd/oWtXbZ
9MRRa7n+L6NS6GSASSJtBUKHr52FbPrJm0g5e4n1oB7/EdOceLGy9k2x6LOYIyzU
IOGhAT4mCluO61hFIs/hlK2EQLD7/yVfMZpJCzatxhqwQmBA4qI8WjZBifwQxGDq
1IV7NoTfqoHMaedSysFGsXmTUU8khEIUOiCgbCd2QA+Wfk7DDDez43NJhlgxAB7n
D4d0tk5uHH2HpDMEyXbs5TqFX6jRrSFkXsVq37ECbmWkh3IGB9rl8q8rpesYgGeD
pTzm7dFY+ZBc1ukvdsFYE7i9iIrzBEi7Qo9/xtu0MD+7bNVH5a6NS9qSpdvTbqib
wmtWrzRjguZ4+B9U10Gqo8l8poNBv24zfK7mkr3aJ7S84pBPMxsBoc0CE3ox7wDW
mm44a6fLcJioD/8cVqi35tJCWrv0eCdxE9DoQ+u8LU/k6k1Pdn9TODTrE+I9xhSY
hhyrLA63aC69Y6lqj9UiLasT12JUUf9cNwgEJ9r5V3cFGHOIX7DBZVA2CdbH9a5u
PwTRhDwhdB29Cvt20BMrYrskSEOJ0BhctK3qmK9t/BxrHwZkVCOI
-----END CERTIFICATE-----
