Certificate:
    Data:
        Version: 4 (0x3)
        Serial Number: 1 (0x1)
    Signature Algorithm: sha1WithRSAEncryption
        Issuer: CN=ca-none, C=BE, O=Gremwell bvba
        Validity
            Not Before: Jan  1 00:00:00 1970 GMT
            Not After : Jan 19 03:14:07 2038 GMT
        Subject: CN=www.example.com, C=BE, O=Gremwell bvba
        Subject Public Key Info:
            Public Key Algorithm: rsaEncryption
                Public-Key: (1024 bit)
                Modulus:
                    00:c3:80:51:bc:17:0b:f0:9a:d8:65:35:1b:ab:c5:
                    dc:59:b8:9a:ca:99:8b:4e:91:d0:7c:25:aa:85:bc:
                    dd:db:e2:a0:83:a0:2f:be:e5:57:86:16:ca:73:07:
                    cd:55:42:bd:4e:1a:18:c5:6c:f9:6d:0b:a0:20:a2:
                    52:f4:2a:66:5d:c3:b6:d4:52:d8:31:be:a2:21:e8:
                    09:b6:7e:4c:22:e6:d1:7a:82:c4:e0:3e:d1:a0:9d:
                    28:85:a4:fc:86:e0:35:dc:92:66:10:4e:34:60:b9:
                    83:4e:46:7c:a3:e6:26:53:9a:c4:01:11:9a:6d:5f:
                    60:7d:38:d3:4b:7a:4d:da:e5
                Exponent: 65537 (0x10001)
    Signature Algorithm: sha1WithRSAEncryption
         3d:a3:5e:ec:2b:be:92:0b:0a:77:c5:36:50:4c:56:2a:d7:eb:
         20:3b:66:fe:9d:37:17:54:7f:9e:15:50:0d:09:1a:bc:de:3e:
         fa:10:62:a3:aa:c9:ff:4d:d6:eb:0c:b8:b3:37:3b:23:fa:0c:
         ea:c7:78:27:97:29:87:79:a6:8c:89:67:7b:db:2d:73:90:2c:
         a1:95:ff:cd:29:bf:9e:0a:bc:c8:3c:8a:87:96:13:02:fc:29:
         c4:bd:21:8f:99:7b:3e:7d:b9:ca:99:2b:e2:31:1a:2a:c9:0c:
         04:f0:da:01:3c:e1:90:b6:48:fa:14:ff:2c:1c:f4:d0:bb:fd:
         d5:50
-----BEGIN CERTIFICATE-----
MIIB6jCCAVOgAwIBAwIBATANBgkqhkiG9w0BAQUFADA3MRAwDgYDVQQDEwdjYS1u
b25lMQswCQYDVQQGEwJCRTEWMBQGA1UEChMNR3JlbXdlbGwgYnZiYTAeFw03MDAx
MDEwMDAwMDBaFw0zODAxMTkwMzE0MDdaMD8xGDAWBgNVBAMTD3d3dy5leGFtcGxl
LmNvbTELMAkGA1UEBhMCQkUxFjAUBgNVBAoTDUdyZW13ZWxsIGJ2YmEwgZ8wDQYJ
KoZIhvcNAQEBBQADgY0AMIGJAoGBAMOAUbwXC/Ca2GU1G6vF3Fm4msqZi06R0Hwl
qoW83dvioIOgL77lV4YWynMHzVVCvU4aGMVs+W0LoCCiUvQqZl3DttRS2DG+oiHo
CbZ+TCLm0XqCxOA+0aCdKIWk/IbgNdySZhBONGC5g05GfKPmJlOaxAERmm1fYH04
00t6TdrlAgMBAAEwDQYJKoZIhvcNAQEFBQADgYEAPaNe7Cu+kgsKd8U2UExWKtfr
IDtm/p03F1R/nhVQDQkavN4++hBio6rJ/03W6wy4szc7I/oM6sd4J5cph3mmjIln
e9stc5AsoZX/zSm/ngq8yDyKh5YTAvwpxL0hj5l7Pn25ypkr4jEaKskMBPDaATzh
kLZI+hT/LBz00Lv91VA=
-----END CERTIFICATE-----
Certificate:
    Data:
        Version: 4 (0x3)
        Serial Number: 1 (0x1)
    Signature Algorithm: sha1WithRSAEncryption
        Issuer: C=BE, CN=txjsonrpc-test-ca
        Validity
            Not Before: Jan  1 00:00:00 1970 GMT
            Not After : Jan 19 03:14:07 2038 GMT
        Subject: CN=ca-none, C=BE, O=Gremwell bvba
        Subject Public Key Info:
            Public Key Algorithm: rsaEncryption
                Public-Key: (1024 bit)
                Modulus:
                    00:af:19:54:c3:e3:3a:91:99:6d:be:af:bd:a0:95:
                    ea:34:1f:a4:83:85:24:b0:1a:1e:67:2b:d3:5f:e9:
                    97:4d:fa:ec:69:12:e2:ba:3b:0b:e5:88:ba:42:ec:
                    43:97:1c:f4:37:f8:6b:ac:47:55:32:3d:b0:2b:e4:
                    d6:f1:96:34:b9:eb:a0:95:46:a0:fd:3a:81:83:39:
                    8f:3a:6c:5a:72:d7:ee:2b:91:31:00:59:b4:9e:92:
                    a1:1a:54:e2:81:6d:9b:98:66:67:0d:eb:55:93:aa:
                    38:4c:0e:94:47:63:d9:d2:0e:47:4a:db:71:5c:38:
                    98:4d:ea:6a:17:44:6b:f0:21
                Exponent: 65537 (0x10001)
    Signature Algorithm: sha1WithRSAEncryption
         ad:07:a6:77:80:dd:eb:e0:62:12:7d:58:87:7d:89:68:2d:9f:
         94:d5:6e:86:cf:7a:8a:c7:71:b8:a5:9a:70:25:8f:aa:b9:77:
         a1:b8:2c:a8:9c:c0:fc:ca:4e:74:34:39:1d:6c:90:5e:aa:9b:
         ca:4b:80:da:38:89:87:df:ce:85:45:0a:8e:59:8a:93:57:3d:
         01:5b:79:c9:9c:7e:e1:ec:28:03:5d:c5:77:35:3c:bf:dc:c1:
         7a:16:c0:a1:4f:87:cf:87:a8:aa:74:b0:02:de:0f:c0:05:04:
         38:48:5a:36:16:ab:d0:ee:15:37:c2:0d:ed:fc:cf:b6:47:0d:
         ac:21:9e:8f:03:d6:eb:5e:58:e0:9d:6c:63:6a:bb:15:55:59:
         7d:20:da:f4:3b:30:24:4b:cc:75:61:b9:8e:de:e8:29:eb:05:
         af:97:d0:af:61:18:59:bb:25:de:45:85:3e:1f:a4:c9:25:65:
         18:46:c4:62:9e:29:c6:35:52:50:f9:09:2c:26:a9:00:74:21:
         50:32:13:32:ba:a2:b4:76:57:0a:7b:98:26:8c:41:96:fc:53:
         3a:d6:34:03:e9:01:27:f4:bb:f1:d9:3e:62:0a:06:09:72:c8:
         61:84:62:eb:b0:f3:56:8f:cb:49:72:4a:72:cf:ef:5c:8b:08:
         5a:b8:ed:e6:b8:2c:51:56:ed:6a:cd:c2:47:8f:7d:91:62:a5:
         1b:2c:b6:4f:ca:5b:bf:64:fd:2b:7d:5b:af:ba:7f:f4:d2:7b:
         37:24:bb:c8:4f:81:91:d3:14:be:0c:0f:70:5f:93:c8:96:b5:
         ff:4a:a8:6a:4e:00:42:cb:76:7b:fe:36:ca:ae:bb:04:37:ac:
         67:91:bd:7f:03:87:25:88:f2:06:f3:91:67:3e:48:54:50:08:
         69:46:eb:ff:96:50:21:2b:90:cd:0c:91:a9:df:b4:93:3f:60:
         61:83:55:9b:87:d9:4b:0f:0a:db:ea:5d:34:f6:4f:c4:3f:3f:
         69:01:99:76:1a:99:a5:c5:48:80:e7:e2:40:0d:3e:27:2e:7f:
         45:c9:c3:2f:6a:8b:19:27:5c:21:41:80:4e:8a:d9:44:bb:a7:
         da:a9:8b:bb:37:f9:64:c5:a0:bc:60:d7:2a:30:38:05:3e:84:
         52:bf:91:d1:6a:5e:8a:b3:2e:91:8e:b3:77:a0:70:76:3a:3d:
         8b:55:28:aa:4a:c2:1e:6e:b4:86:5b:e5:23:d3:28:b4:28:e9:
         ee:f3:8c:ac:db:31:cd:7c:ad:47:bb:06:39:dc:70:d3:0a:da:
         98:27:ca:83:12:f2:49:19:46:02:1a:9f:87:04:70:d3:9b:2c:
         22:db:36:56:7f:d2:d2:fd
-----BEGIN CERTIFICATE-----
MIIDVTCCAT2gAwIBAwIBATANBgkqhkiG9w0BAQUFADApMQswCQYDVQQGEwJCRTEa
MBgGA1UEAxMRdHhqc29ucnBjLXRlc3QtY2EwHhcNNzAwMTAxMDAwMDAwWhcNMzgw
MTE5MDMxNDA3WjA3MRAwDgYDVQQDEwdjYS1ub25lMQswCQYDVQQGEwJCRTEWMBQG
A1UEChMNR3JlbXdlbGwgYnZiYTCBnzANBgkqhkiG9w0BAQEFAAOBjQAwgYkCgYEA
rxlUw+M6kZltvq+9oJXqNB+kg4UksBoeZyvTX+mXTfrsaRLiujsL5Yi6QuxDlxz0
N/hrrEdVMj2wK+TW8ZY0ueuglUag/TqBgzmPOmxactfuK5ExAFm0npKhGlTigW2b
mGZnDetVk6o4TA6UR2PZ0g5HSttxXDiYTepqF0Rr8CECAwEAATANBgkqhkiG9w0B
AQUFAAOCAgEArQemd4Dd6+BiEn1Yh32JaC2flNVuhs96isdxuKWacCWPqrl3obgs
qJzA/MpOdDQ5HWyQXqqbykuA2jiJh9/OhUUKjlmKk1c9AVt5yZx+4ewoA13FdzU8
v9zBehbAoU+Hz4eoqnSwAt4PwAUEOEhaNhar0O4VN8IN7fzPtkcNrCGejwPW615Y
4J1sY2q7FVVZfSDa9DswJEvMdWG5jt7oKesFr5fQr2EYWbsl3kWFPh+kySVlGEbE
Yp4pxjVSUPkJLCapAHQhUDITMrqitHZXCnuYJoxBlvxTOtY0A+kBJ/S78dk+YgoG
CXLIYYRi67DzVo/LSXJKcs/vXIsIWrjt5rgsUVbtas3CR499kWKlGyy2T8pbv2T9
K31br7p/9NJ7NyS7yE+BkdMUvgwPcF+TyJa1/0qoak4AQst2e/42yq67BDesZ5G9
fwOHJYjyBvORZz5IVFAIaUbr/5ZQISuQzQyRqd+0kz9gYYNVm4fZSw8K2+pdNPZP
xD8/aQGZdhqZpcVIgOfiQA0+Jy5/RcnDL2qLGSdcIUGATorZRLun2qmLuzf5ZMWg
vGDXKjA4BT6EUr+R0WpeirMukY6zd6Bwdjo9i1UoqkrCHm60hlvlI9MotCjp7vOM
rNsxzXytR7sGOdxw0wramCfKgxLySRlGAhqfhwRw05ssIts2Vn/S0v0=
-----END CERTIFICATE-----
