Certificate:
    Data:
        Version: 3 (0x2)
        Serial Number: 1 (0x1)
    Signature Algorithm: sha1WithRSAEncryption
        Issuer: C=BE, CN=txjsonrpc-pyserver
        Validity
            Not Before: Jun 23 15:47:38 2012 GMT
            Not After : Jun 23 15:47:38 2013 GMT
        Subject: C=BE, CN=txjsonrpc-pyserver
        Subject Public Key Info:
            Public Key Algorithm: rsaEncryption
                Public-Key: (4096 bit)
                Modulus:
                    00:cd:de:38:a9:6c:06:ec:b8:66:a0:23:6d:39:17:
                    91:14:80:b8:ca:0b:2a:73:e3:f8:b4:8d:f0:32:d7:
                    40:2f:3f:f7:5e:3c:df:dc:91:cf:0a:ce:39:92:cd:
                    c8:01:2c:8d:d0:87:dd:6f:15:ec:42:ef:03:00:3c:
                    97:62:87:f0:d0:a9:3f:20:8e:6e:2f:b8:d3:7a:32:
                    26:d5:66:9b:b0:cf:44:33:ff:cc:be:69:1d:5e:21:
                    49:5a:92:f2:d5:f5:fd:29:a6:0b:9a:7a:92:93:c1:
                    cc:28:da:64:cd:43:c4:c8:f9:f3:e7:a9:ba:09:0a:
                    cd:d4:73:51:5a:c1:43:ee:b0:54:e7:a8:ef:a7:01:
                    f2:f4:35:b1:75:49:41:f7:1f:7a:70:09:a7:e5:4b:
                    43:de:bd:3d:84:b6:b7:e4:6a:95:31:14:95:f6:39:
                    61:00:07:82:6b:af:9e:e8:1c:69:18:9b:21:f1:a7:
                    4d:fe:8e:19:59:11:2f:c7:37:dd:a4:0b:5f:70:9d:
                    e5:cf:12:ab:c7:e2:76:6d:53:27:10:bf:88:d2:f0:
                    e7:bd:31:7a:ba:e1:f2:c2:4c:20:97:b1:a0:47:4d:
                    52:23:80:f5:24:57:01:21:cc:78:55:1c:98:bf:09:
                    61:90:2b:f6:9e:ae:2f:e2:92:ac:05:c1:c6:17:ef:
                    6a:76:a2:23:5c:15:ec:aa:f7:97:d1:04:6b:f9:fe:
                    34:11:aa:2b:45:c9:5e:70:b2:45:59:7f:c3:c5:8f:
                    0c:6e:a5:ef:fe:f5:de:68:d7:11:da:47:15:e0:bd:
                    4b:ce:ce:33:77:62:0f:df:d4:20:9c:14:ba:5e:2f:
                    9d:cf:ac:12:79:7c:06:a8:04:bd:1e:56:bc:a8:5e:
                    d8:5a:a7:aa:f7:c3:64:62:21:8d:54:db:72:01:1e:
                    38:2c:ea:48:32:1e:3a:68:fd:40:cf:d5:44:8c:e2:
                    63:ec:9d:72:24:96:54:17:d1:62:86:67:92:a0:26:
                    bf:4b:77:38:50:63:97:69:88:0e:b3:18:a5:7d:1b:
                    9a:b9:27:5b:14:b1:77:d6:2b:c3:f9:8f:64:34:57:
                    53:af:58:79:96:ab:54:7b:f9:7b:ac:b6:d0:9a:f2:
                    2a:fc:54:32:0e:8d:c4:88:f1:66:97:b1:12:0c:eb:
                    fd:29:13:41:6e:34:a8:84:f8:45:02:3f:5a:c0:59:
                    2c:49:e5:2d:e9:b1:ce:42:7d:79:d7:95:ab:d7:aa:
                    92:97:32:01:b4:d1:26:49:54:37:33:ed:9f:02:44:
                    0e:60:c0:82:51:0b:2a:b1:5e:f3:8e:d4:46:f9:53:
                    7c:33:83:89:4b:a2:f3:39:36:e6:ab:68:50:4b:9c:
                    64:d0:1f
                Exponent: 65537 (0x10001)
        X509v3 extensions:
            X509v3 Basic Constraints: 
                CA:FALSE
            Netscape Cert Type: 
                SSL Server
            Netscape Comment: 
                TinyCA Generated Certificate
            X509v3 Subject Key Identifier: 
                26:8C:A5:F9:A6:4A:FE:4C:E8:0F:04:33:7E:04:26:28:BF:4C:92:F3
            X509v3 Authority Key Identifier: 
                keyid:9D:8F:84:76:94:CD:07:FE:A3:E8:8B:D7:F9:D9:6E:EF:CA:75:51:7B
                DirName:/C=BE/CN=txjsonrpc-test-ca
                serial:8D:D2:AF:37:F9:CA:92:0B

            X509v3 Issuer Alternative Name: 
                <EMPTY>

            X509v3 Subject Alternative Name: 
                <EMPTY>

    Signature Algorithm: sha1WithRSAEncryption
         9a:6d:f5:de:94:26:74:34:2b:a0:71:73:30:97:9b:6b:3a:ff:
         50:61:3b:71:a1:8c:3a:88:e6:59:ce:8a:a8:41:43:d3:88:0a:
         22:73:3f:19:5c:b2:ae:3f:67:2c:23:39:f2:e5:38:0f:b8:fd:
         f0:85:83:86:84:ec:ef:41:e6:a9:c7:96:ed:61:5a:dc:c0:1a:
         20:ad:85:bf:2d:b8:dc:6a:cc:a1:f1:59:66:f2:cd:fa:c7:3b:
         5a:c3:0b:a0:3e:5b:b6:f6:2a:d9:f8:45:16:d1:48:7c:1b:0c:
         97:af:be:dd:d2:ef:31:a0:9b:1a:3a:95:ce:64:46:18:05:d7:
         b6:53:1f:a3:9b:97:7e:b1:f7:b6:31:cb:ef:85:cd:30:f1:61:
         03:30:c4:e7:6e:da:97:4b:0b:52:67:c8:ef:78:66:cd:e9:b6:
         ce:de:f4:b6:83:18:6f:47:b0:e3:b0:29:8a:65:ec:21:60:0f:
         f6:25:1c:57:c6:28:b4:b8:bb:3c:a2:ab:a9:90:ca:54:65:a6:
         a5:b6:30:48:bc:5f:e4:da:30:52:ba:e0:b0:b9:d7:20:f3:16:
         ec:8c:52:d1:ab:7c:8a:d4:69:00:9a:2f:1d:3e:fb:d5:f6:52:
         fe:a6:98:3e:7f:b8:4e:ac:b9:8b:dd:68:2d:1e:89:26:3c:c0:
         0c:87:64:ec:9b:5f:9e:c8:03:17:78:3b:46:e4:bd:7e:fd:bf:
         1c:3e:9e:39:fa:e2:6c:e5:8c:33:c0:11:e9:a4:b2:cc:83:65:
         56:3d:0a:ad:43:f2:76:c3:71:29:84:7e:cc:1b:70:53:50:30:
         4f:6b:95:45:0d:86:ed:24:aa:8d:1e:76:c4:8b:0f:69:0f:c1:
         ec:1a:dd:00:72:12:4f:82:d3:0e:f2:f5:17:cb:c3:03:90:22:
         3a:be:22:f4:e9:bf:dd:91:33:f4:1a:a5:45:0e:af:7f:73:75:
         c4:11:0e:94:85:5d:16:65:cb:ff:80:b5:38:f0:dd:f0:21:1a:
         a3:2f:a1:69:06:ce:89:e6:f1:10:42:fa:a6:5c:ba:d4:a8:5d:
         08:da:e2:07:2a:e0:ed:f8:b7:0c:76:6f:7d:24:58:8d:27:6d:
         fb:92:ea:8d:72:7f:fb:39:2b:84:48:9f:31:38:b4:d7:ef:79:
         a2:d1:6e:37:89:c7:28:4c:78:d9:7b:fe:b8:66:43:de:f0:c3:
         f9:24:0f:d5:dd:e0:93:3b:42:c7:94:eb:de:75:7a:fc:ab:86:
         be:7b:5d:0d:c2:07:6d:41:f8:37:f1:dc:b9:ab:f5:73:fc:ff:
         5f:eb:ca:08:8e:d2:66:40:b0:77:71:e0:c5:6b:5a:79:12:1b:
         84:a4:e4:54:3d:1b:52:7d
-----BEGIN CERTIFICATE-----
MIIFrjCCA5agAwIBAgIBATANBgkqhkiG9w0BAQUFADAqMQswCQYDVQQGEwJCRTEb
MBkGA1UEAxMSdHhqc29ucnBjLXB5c2VydmVyMB4XDTEyMDYyMzE1NDczOFoXDTEz
MDYyMzE1NDczOFowKjELMAkGA1UEBhMCQkUxGzAZBgNVBAMTEnR4anNvbnJwYy1w
eXNlcnZlcjCCAiIwDQYJKoZIhvcNAQEBBQADggIPADCCAgoCggIBAM3eOKlsBuy4
ZqAjbTkXkRSAuMoLKnPj+LSN8DLXQC8/914839yRzwrOOZLNyAEsjdCH3W8V7ELv
AwA8l2KH8NCpPyCObi+403oyJtVmm7DPRDP/zL5pHV4hSVqS8tX1/SmmC5p6kpPB
zCjaZM1DxMj58+epugkKzdRzUVrBQ+6wVOeo76cB8vQ1sXVJQfcfenAJp+VLQ969
PYS2t+RqlTEUlfY5YQAHgmuvnugcaRibIfGnTf6OGVkRL8c33aQLX3Cd5c8Sq8fi
dm1TJxC/iNLw570xerrh8sJMIJexoEdNUiOA9SRXASHMeFUcmL8JYZAr9p6uL+KS
rAXBxhfvanaiI1wV7Kr3l9EEa/n+NBGqK0XJXnCyRVl/w8WPDG6l7/713mjXEdpH
FeC9S87OM3diD9/UIJwUul4vnc+sEnl8BqgEvR5WvKhe2FqnqvfDZGIhjVTbcgEe
OCzqSDIeOmj9QM/VRIziY+ydciSWVBfRYoZnkqAmv0t3OFBjl2mIDrMYpX0bmrkn
WxSxd9Yrw/mPZDRXU69YeZarVHv5e6y20JryKvxUMg6NxIjxZpexEgzr/SkTQW40
qIT4RQI/WsBZLEnlLemxzkJ9edeVq9eqkpcyAbTRJklUNzPtnwJEDmDAglELKrFe
847URvlTfDODiUui8zk25qtoUEucZNAfAgMBAAGjgd4wgdswCQYDVR0TBAIwADAR
BglghkgBhvhCAQEEBAMCBkAwKwYJYIZIAYb4QgENBB4WHFRpbnlDQSBHZW5lcmF0
ZWQgQ2VydGlmaWNhdGUwHQYDVR0OBBYEFCaMpfmmSv5M6A8EM34EJii/TJLzMFkG
A1UdIwRSMFCAFJ2PhHaUzQf+o+iL1/nZbu/KdVF7oS2kKzApMQswCQYDVQQGEwJC
RTEaMBgGA1UEAxMRdHhqc29ucnBjLXRlc3QtY2GCCQCN0q83+cqSCzAJBgNVHRIE
AjAAMAkGA1UdEQQCMAAwDQYJKoZIhvcNAQEFBQADggIBAJpt9d6UJnQ0K6BxczCX
m2s6/1BhO3GhjDqI5lnOiqhBQ9OICiJzPxlcsq4/ZywjOfLlOA+4/fCFg4aE7O9B
5qnHlu1hWtzAGiCthb8tuNxqzKHxWWbyzfrHO1rDC6A+W7b2Ktn4RRbRSHwbDJev
vt3S7zGgmxo6lc5kRhgF17ZTH6Obl36x97Yxy++FzTDxYQMwxOdu2pdLC1JnyO94
Zs3pts7e9LaDGG9HsOOwKYpl7CFgD/YlHFfGKLS4uzyiq6mQylRlpqW2MEi8X+Ta
MFK64LC51yDzFuyMUtGrfIrUaQCaLx0++9X2Uv6mmD5/uE6suYvdaC0eiSY8wAyH
ZOybX57IAxd4O0bkvX79vxw+njn64mzljDPAEemkssyDZVY9Cq1D8nbDcSmEfswb
cFNQME9rlUUNhu0kqo0edsSLD2kPwewa3QByEk+C0w7y9RfLwwOQIjq+IvTpv92R
M/QapUUOr39zdcQRDpSFXRZly/+AtTjw3fAhGqMvoWkGzonm8RBC+qZcutSoXQja
4gcq4O34twx2b30kWI0nbfuS6o1yf/s5K4RInzE4tNfveaLRbjeJxyhMeNl7/rhm
Q97ww/kkD9Xd4JM7QseU6951evyrhr57XQ3CB21B+Dfx3Lmr9XP8/1/rygiO0mZA
sHdx4MVrWnkSG4Sk5FQ9G1J9
-----END CERTIFICATE-----
