Certificate:
    Data:
        Version: 4 (0x3)
        Serial Number: 1 (0x1)
    Signature Algorithm: sha1WithRSAEncryption
        Issuer: CN=ca-true, C=BE, O=Gremwell bvba
        Validity
            Not Before: Jan  1 00:00:00 1970 GMT
            Not After : Jan 19 03:14:07 2038 GMT
        Subject: CN=www.example.com, C=BE, O=Gremwell bvba
        Subject Public Key Info:
            Public Key Algorithm: rsaEncryption
                Public-Key: (1024 bit)
                Modulus:
                    00:c3:80:51:bc:17:0b:f0:9a:d8:65:35:1b:ab:c5:
                    dc:59:b8:9a:ca:99:8b:4e:91:d0:7c:25:aa:85:bc:
                    dd:db:e2:a0:83:a0:2f:be:e5:57:86:16:ca:73:07:
                    cd:55:42:bd:4e:1a:18:c5:6c:f9:6d:0b:a0:20:a2:
                    52:f4:2a:66:5d:c3:b6:d4:52:d8:31:be:a2:21:e8:
                    09:b6:7e:4c:22:e6:d1:7a:82:c4:e0:3e:d1:a0:9d:
                    28:85:a4:fc:86:e0:35:dc:92:66:10:4e:34:60:b9:
                    83:4e:46:7c:a3:e6:26:53:9a:c4:01:11:9a:6d:5f:
                    60:7d:38:d3:4b:7a:4d:da:e5
                Exponent: 65537 (0x10001)
    Signature Algorithm: sha1WithRSAEncryption
         aa:19:75:e5:e8:4c:42:2e:f2:74:5f:e3:32:0f:38:94:3b:59:
         42:d3:43:fc:d2:23:3f:9c:e9:32:1c:01:0a:50:11:ec:ce:ba:
         bd:2a:3d:13:44:b2:a7:71:06:3c:d7:41:2d:55:ce:9b:20:9e:
         26:10:d1:fe:85:37:9f:b3:75:19:f4:e1:55:df:9c:13:12:80:
         4c:d9:aa:94:94:16:4a:b2:c9:7b:62:0b:e4:f3:35:16:6b:25:
         f2:c3:bd:3a:e7:a4:86:da:dc:3b:ab:bf:ca:e8:dd:6d:0d:da:
         1c:a0:29:72:e2:02:48:bc:8f:cd:f4:ac:1e:c7:4f:05:0d:f8:
         a6:aa
-----BEGIN CERTIFICATE-----
MIIB6jCCAVOgAwIBAwIBATANBgkqhkiG9w0BAQUFADA3MRAwDgYDVQQDEwdjYS10
cnVlMQswCQYDVQQGEwJCRTEWMBQGA1UEChMNR3JlbXdlbGwgYnZiYTAeFw03MDAx
MDEwMDAwMDBaFw0zODAxMTkwMzE0MDdaMD8xGDAWBgNVBAMTD3d3dy5leGFtcGxl
LmNvbTELMAkGA1UEBhMCQkUxFjAUBgNVBAoTDUdyZW13ZWxsIGJ2YmEwgZ8wDQYJ
KoZIhvcNAQEBBQADgY0AMIGJAoGBAMOAUbwXC/Ca2GU1G6vF3Fm4msqZi06R0Hwl
qoW83dvioIOgL77lV4YWynMHzVVCvU4aGMVs+W0LoCCiUvQqZl3DttRS2DG+oiHo
CbZ+TCLm0XqCxOA+0aCdKIWk/IbgNdySZhBONGC5g05GfKPmJlOaxAERmm1fYH04
00t6TdrlAgMBAAEwDQYJKoZIhvcNAQEFBQADgYEAqhl15ehMQi7ydF/jMg84lDtZ
QtND/NIjP5zpMhwBClAR7M66vSo9E0Syp3EGPNdBLVXOmyCeJhDR/oU3n7N1GfTh
Vd+cExKATNmqlJQWSrLJe2IL5PM1Fmsl8sO9OuekhtrcO6u/yujdbQ3aHKApcuIC
SLyPzfSsHsdPBQ34pqo=
-----END CERTIFICATE-----
Certificate:
    Data:
        Version: 4 (0x3)
        Serial Number: 1 (0x1)
    Signature Algorithm: sha1WithRSAEncryption
        Issuer: C=BE, CN=txjsonrpc-test-ca
        Validity
            Not Before: Jan  1 00:00:00 1970 GMT
            Not After : Jan 19 03:14:07 2038 GMT
        Subject: CN=ca-true, C=BE, O=Gremwell bvba
        Subject Public Key Info:
            Public Key Algorithm: rsaEncryption
                Public-Key: (1024 bit)
                Modulus:
                    00:ef:6c:bf:1d:e2:04:82:dc:e9:cd:42:d5:3c:7c:
                    2f:76:40:11:6e:fb:4d:c1:0d:8f:1c:19:89:27:8e:
                    b1:50:89:e5:e7:82:4b:34:86:27:7e:3c:0b:53:7f:
                    55:3f:89:11:15:87:3d:7b:42:d1:7e:25:31:5b:a2:
                    21:8e:ac:b9:26:7e:d1:40:51:75:e6:e8:91:6d:40:
                    c3:b6:dd:6a:17:d6:86:9e:2d:68:d8:6b:c6:10:53:
                    08:58:dc:ef:e8:c9:dc:87:f5:67:4f:9f:da:68:40:
                    68:5d:f6:3a:62:19:1b:7e:ed:a6:ef:0e:7a:86:3b:
                    d5:bf:4b:94:a8:4c:ee:8b:17
                Exponent: 65537 (0x10001)
        X509v3 extensions:
            X509v3 Basic Constraints: critical
                CA:TRUE
    Signature Algorithm: sha1WithRSAEncryption
         7e:8a:e4:02:90:f3:df:11:2b:05:9b:c0:6e:7b:46:25:b1:b8:
         b6:18:e5:0e:50:8c:20:0f:b2:cb:36:37:33:04:98:70:ad:19:
         3c:38:ab:5b:40:0b:35:59:c1:15:79:a2:76:1e:b3:d0:63:af:
         49:bd:17:a9:30:d1:2c:42:ff:0d:b3:4a:e2:5f:16:6d:41:a2:
         c3:a0:dd:e9:54:8e:b3:11:d8:77:71:c5:9b:99:92:bc:26:3f:
         95:23:12:e3:6f:1e:a9:f3:65:48:dd:aa:95:93:6e:db:25:83:
         8f:f5:ac:1f:31:6d:2d:44:89:c9:01:ed:c2:d7:7f:d9:ad:8d:
         45:31:cf:87:98:1a:9d:0d:10:a6:63:63:26:88:dc:10:1a:42:
         6f:5b:dc:e9:14:c2:08:e0:72:12:a4:35:e8:43:a3:18:23:07:
         ed:a9:10:f0:aa:37:f0:3e:eb:0c:33:b5:db:44:f7:18:58:ab:
         74:7e:b7:f9:3e:ab:1b:50:b5:5b:76:16:68:7d:1e:a9:fd:5e:
         88:ec:90:5e:c4:8e:24:2c:18:8c:0c:42:ee:f1:e7:ec:d2:c3:
         f4:6e:d8:41:87:57:ff:25:7b:36:0c:b0:5e:8e:47:27:e0:30:
         1a:30:05:b6:7d:48:46:97:3e:7b:0b:55:cd:01:63:46:37:ac:
         a4:2a:a3:aa:61:a3:55:dd:6f:59:50:f4:61:35:ac:c1:dd:68:
         f4:de:a7:dd:7f:22:62:18:a6:ce:cf:07:d0:3f:41:1b:8e:3c:
         80:50:9c:7c:63:e6:21:23:c7:53:f9:35:0b:e7:b5:77:33:a0:
         3c:b1:70:1c:bc:12:4d:9c:64:02:93:7d:0a:1a:ff:ee:fe:c5:
         2e:e2:8a:3f:4c:d7:59:24:39:03:57:60:1c:54:b8:ec:b6:5d:
         11:4b:2a:61:ef:b7:4e:54:2c:a5:b2:36:81:16:bd:9f:1d:5a:
         2e:06:5e:17:f9:ba:99:1f:b5:8c:81:e2:b0:cd:72:13:66:19:
         77:db:a4:86:51:fa:a3:69:5c:f3:13:4b:6b:dc:83:e8:3f:be:
         07:c9:e7:4f:58:9c:2e:b1:3d:c9:2b:eb:20:94:46:80:85:4f:
         04:be:70:00:f3:94:ca:6d:66:a5:91:92:b5:9e:99:e5:c3:7e:
         c2:4d:ab:f8:da:a3:4a:25:00:63:5a:82:07:78:ee:e8:67:35:
         00:43:f1:d1:6c:2c:a2:d7:f7:7f:72:f1:65:cd:14:3e:f3:ec:
         5d:43:2a:15:54:a1:d5:9b:14:41:c8:0a:57:47:4b:54:e3:cf:
         d0:7e:a3:2c:df:20:59:0f:0d:b7:04:55:b7:7c:aa:e7:97:aa:
         d8:22:39:34:b7:48:3a:ae
-----BEGIN CERTIFICATE-----
MIIDajCCAVKgAwIBAwIBATANBgkqhkiG9w0BAQUFADApMQswCQYDVQQGEwJCRTEa
MBgGA1UEAxMRdHhqc29ucnBjLXRlc3QtY2EwHhcNNzAwMTAxMDAwMDAwWhcNMzgw
MTE5MDMxNDA3WjA3MRAwDgYDVQQDEwdjYS10cnVlMQswCQYDVQQGEwJCRTEWMBQG
A1UEChMNR3JlbXdlbGwgYnZiYTCBnzANBgkqhkiG9w0BAQEFAAOBjQAwgYkCgYEA
72y/HeIEgtzpzULVPHwvdkARbvtNwQ2PHBmJJ46xUInl54JLNIYnfjwLU39VP4kR
FYc9e0LRfiUxW6Ihjqy5Jn7RQFF15uiRbUDDtt1qF9aGni1o2GvGEFMIWNzv6Mnc
h/VnT5/aaEBoXfY6Yhkbfu2m7w56hjvVv0uUqEzuixcCAwEAAaMTMBEwDwYDVR0T
AQH/BAUwAwEB/zANBgkqhkiG9w0BAQUFAAOCAgEAforkApDz3xErBZvAbntGJbG4
thjlDlCMIA+yyzY3MwSYcK0ZPDirW0ALNVnBFXmidh6z0GOvSb0XqTDRLEL/DbNK
4l8WbUGiw6Dd6VSOsxHYd3HFm5mSvCY/lSMS428eqfNlSN2qlZNu2yWDj/WsHzFt
LUSJyQHtwtd/2a2NRTHPh5ganQ0QpmNjJojcEBpCb1vc6RTCCOByEqQ16EOjGCMH
7akQ8Ko38D7rDDO120T3GFirdH63+T6rG1C1W3YWaH0eqf1eiOyQXsSOJCwYjAxC
7vHn7NLD9G7YQYdX/yV7NgywXo5HJ+AwGjAFtn1IRpc+ewtVzQFjRjespCqjqmGj
Vd1vWVD0YTWswd1o9N6n3X8iYhimzs8H0D9BG448gFCcfGPmISPHU/k1C+e1dzOg
PLFwHLwSTZxkApN9Chr/7v7FLuKKP0zXWSQ5A1dgHFS47LZdEUsqYe+3TlQspbI2
gRa9nx1aLgZeF/m6mR+1jIHisM1yE2YZd9ukhlH6o2lc8xNLa9yD6D++B8nnT1ic
LrE9ySvrIJRGgIVPBL5wAPOUym1mpZGStZ6Z5cN+wk2r+NqjSiUAY1qCB3ju6Gc1
AEPx0Wwsotf3f3LxZc0UPvPsXUMqFVSh1ZsUQcgKV0dLVOPP0H6jLN8gWQ8NtwRV
t3yq55eq2CI5NLdIOq4=
-----END CERTIFICATE-----
