Certificate:
    Data:
        Version: 3 (0x2)
        Serial Number: 1 (0x1)
    Signature Algorithm: sha1WithRSAEncryption
        Issuer: CN=ca-true, C=BE, O=Gremwell bvba
        Validity
            Not Before: Jun 23 15:47:38 2012 GMT
            Not After : Jun 23 15:47:38 2013 GMT
        Subject: C=BE, CN=txjsonrpc-pyserver
        Subject Public Key Info:
            Public Key Algorithm: rsaEncryption
                Public-Key: (4096 bit)
                Modulus:
                    00:cd:de:38:a9:6c:06:ec:b8:66:a0:23:6d:39:17:
                    91:14:80:b8:ca:0b:2a:73:e3:f8:b4:8d:f0:32:d7:
                    40:2f:3f:f7:5e:3c:df:dc:91:cf:0a:ce:39:92:cd:
                    c8:01:2c:8d:d0:87:dd:6f:15:ec:42:ef:03:00:3c:
                    97:62:87:f0:d0:a9:3f:20:8e:6e:2f:b8:d3:7a:32:
                    26:d5:66:9b:b0:cf:44:33:ff:cc:be:69:1d:5e:21:
                    49:5a:92:f2:d5:f5:fd:29:a6:0b:9a:7a:92:93:c1:
                    cc:28:da:64:cd:43:c4:c8:f9:f3:e7:a9:ba:09:0a:
                    cd:d4:73:51:5a:c1:43:ee:b0:54:e7:a8:ef:a7:01:
                    f2:f4:35:b1:75:49:41:f7:1f:7a:70:09:a7:e5:4b:
                    43:de:bd:3d:84:b6:b7:e4:6a:95:31:14:95:f6:39:
                    61:00:07:82:6b:af:9e:e8:1c:69:18:9b:21:f1:a7:
                    4d:fe:8e:19:59:11:2f:c7:37:dd:a4:0b:5f:70:9d:
                    e5:cf:12:ab:c7:e2:76:6d:53:27:10:bf:88:d2:f0:
                    e7:bd:31:7a:ba:e1:f2:c2:4c:20:97:b1:a0:47:4d:
                    52:23:80:f5:24:57:01:21:cc:78:55:1c:98:bf:09:
                    61:90:2b:f6:9e:ae:2f:e2:92:ac:05:c1:c6:17:ef:
                    6a:76:a2:23:5c:15:ec:aa:f7:97:d1:04:6b:f9:fe:
                    34:11:aa:2b:45:c9:5e:70:b2:45:59:7f:c3:c5:8f:
                    0c:6e:a5:ef:fe:f5:de:68:d7:11:da:47:15:e0:bd:
                    4b:ce:ce:33:77:62:0f:df:d4:20:9c:14:ba:5e:2f:
                    9d:cf:ac:12:79:7c:06:a8:04:bd:1e:56:bc:a8:5e:
                    d8:5a:a7:aa:f7:c3:64:62:21:8d:54:db:72:01:1e:
                    38:2c:ea:48:32:1e:3a:68:fd:40:cf:d5:44:8c:e2:
                    63:ec:9d:72:24:96:54:17:d1:62:86:67:92:a0:26:
                    bf:4b:77:38:50:63:97:69:88:0e:b3:18:a5:7d:1b:
                    9a:b9:27:5b:14:b1:77:d6:2b:c3:f9:8f:64:34:57:
                    53:af:58:79:96:ab:54:7b:f9:7b:ac:b6:d0:9a:f2:
                    2a:fc:54:32:0e:8d:c4:88:f1:66:97:b1:12:0c:eb:
                    fd:29:13:41:6e:34:a8:84:f8:45:02:3f:5a:c0:59:
                    2c:49:e5:2d:e9:b1:ce:42:7d:79:d7:95:ab:d7:aa:
                    92:97:32:01:b4:d1:26:49:54:37:33:ed:9f:02:44:
                    0e:60:c0:82:51:0b:2a:b1:5e:f3:8e:d4:46:f9:53:
                    7c:33:83:89:4b:a2:f3:39:36:e6:ab:68:50:4b:9c:
                    64:d0:1f
                Exponent: 65537 (0x10001)
        X509v3 extensions:
            X509v3 Basic Constraints: 
                CA:FALSE
            Netscape Cert Type: 
                SSL Server
            Netscape Comment: 
                TinyCA Generated Certificate
            X509v3 Subject Key Identifier: 
                26:8C:A5:F9:A6:4A:FE:4C:E8:0F:04:33:7E:04:26:28:BF:4C:92:F3
            X509v3 Authority Key Identifier: 
                keyid:9D:8F:84:76:94:CD:07:FE:A3:E8:8B:D7:F9:D9:6E:EF:CA:75:51:7B
                DirName:/C=BE/CN=txjsonrpc-test-ca
                serial:8D:D2:AF:37:F9:CA:92:0B

            X509v3 Issuer Alternative Name: 
                <EMPTY>

            X509v3 Subject Alternative Name: 
                <EMPTY>

    Signature Algorithm: sha1WithRSAEncryption
         f2:fc:88:3c:36:b5:0d:9d:e9:43:05:51:8a:a0:2b:2a:d8:3c:
         17:84:94:89:dc:b3:1c:e5:02:39:35:02:33:86:b3:f8:fd:39:
         05:89:e7:27:85:09:d6:03:e1:9b:7f:c5:40:ad:9a:f0:2a:f1:
         54:7b:68:1b:12:2d:56:3f:e8:e5:c6:24:27:4d:6f:ee:74:af:
         df:76:1f:7b:b8:01:c2:81:d5:65:6b:48:c7:ec:3e:80:35:09:
         f3:5a:bb:47:9e:c7:9a:7b:f6:53:5c:d9:1f:14:d6:05:f2:5f:
         34:a5:d7:56:9d:1d:f0:b4:22:df:fd:a4:20:d4:c1:e4:6e:5a:
         a6:7b
-----BEGIN CERTIFICATE-----
MIIEOjCCA6OgAwIBAgIBATANBgkqhkiG9w0BAQUFADA3MRAwDgYDVQQDEwdjYS10
cnVlMQswCQYDVQQGEwJCRTEWMBQGA1UEChMNR3JlbXdlbGwgYnZiYTAeFw0xMjA2
MjMxNTQ3MzhaFw0xMzA2MjMxNTQ3MzhaMCoxCzAJBgNVBAYTAkJFMRswGQYDVQQD
ExJ0eGpzb25ycGMtcHlzZXJ2ZXIwggIiMA0GCSqGSIb3DQEBAQUAA4ICDwAwggIK
AoICAQDN3jipbAbsuGagI205F5EUgLjKCypz4/i0jfAy10AvP/dePN/ckc8KzjmS
zcgBLI3Qh91vFexC7wMAPJdih/DQqT8gjm4vuNN6MibVZpuwz0Qz/8y+aR1eIUla
kvLV9f0ppguaepKTwcwo2mTNQ8TI+fPnqboJCs3Uc1FawUPusFTnqO+nAfL0NbF1
SUH3H3pwCaflS0PevT2EtrfkapUxFJX2OWEAB4Jrr57oHGkYmyHxp03+jhlZES/H
N92kC19wneXPEqvH4nZtUycQv4jS8Oe9MXq64fLCTCCXsaBHTVIjgPUkVwEhzHhV
HJi/CWGQK/aeri/ikqwFwcYX72p2oiNcFeyq95fRBGv5/jQRqitFyV5wskVZf8PF
jwxupe/+9d5o1xHaRxXgvUvOzjN3Yg/f1CCcFLpeL53PrBJ5fAaoBL0eVryoXtha
p6r3w2RiIY1U23IBHjgs6kgyHjpo/UDP1USM4mPsnXIkllQX0WKGZ5KgJr9LdzhQ
Y5dpiA6zGKV9G5q5J1sUsXfWK8P5j2Q0V1OvWHmWq1R7+XusttCa8ir8VDIOjcSI
8WaXsRIM6/0pE0FuNKiE+EUCP1rAWSxJ5S3psc5CfXnXlavXqpKXMgG00SZJVDcz
7Z8CRA5gwIJRCyqxXvOO1Eb5U3wzg4lLovM5NuaraFBLnGTQHwIDAQABo4HeMIHb
MAkGA1UdEwQCMAAwEQYJYIZIAYb4QgEBBAQDAgZAMCsGCWCGSAGG+EIBDQQeFhxU
aW55Q0EgR2VuZXJhdGVkIENlcnRpZmljYXRlMB0GA1UdDgQWBBQmjKX5pkr+TOgP
BDN+BCYov0yS8zBZBgNVHSMEUjBQgBSdj4R2lM0H/qPoi9f52W7vynVRe6EtpCsw
KTELMAkGA1UEBhMCQkUxGjAYBgNVBAMTEXR4anNvbnJwYy10ZXN0LWNhggkAjdKv
N/nKkgswCQYDVR0SBAIwADAJBgNVHREEAjAAMA0GCSqGSIb3DQEBBQUAA4GBAPL8
iDw2tQ2d6UMFUYqgKyrYPBeElIncsxzlAjk1AjOGs/j9OQWJ5yeFCdYD4Zt/xUCt
mvAq8VR7aBsSLVY/6OXGJCdNb+50r992H3u4AcKB1WVrSMfsPoA1CfNau0eex5p7
9lNc2R8U1gXyXzSl11adHfC0It/9pCDUweRuWqZ7
-----END CERTIFICATE-----
Certificate:
    Data:
        Version: 4 (0x3)
        Serial Number: 1 (0x1)
    Signature Algorithm: sha1WithRSAEncryption
        Issuer: C=BE, CN=txjsonrpc-test-ca
        Validity
            Not Before: Jan  1 00:00:00 1970 GMT
            Not After : Jan 19 03:14:07 2038 GMT
        Subject: CN=ca-true, C=BE, O=Gremwell bvba
        Subject Public Key Info:
            Public Key Algorithm: rsaEncryption
                Public-Key: (1024 bit)
                Modulus:
                    00:f6:58:a4:02:85:44:a5:3c:f0:d9:a9:a3:8d:51:
                    9d:b5:f1:10:97:e3:4f:b4:2a:dc:bf:c3:b1:6d:a6:
                    93:1e:d7:52:73:f7:20:97:8a:e0:9c:3f:0b:29:7f:
                    93:aa:71:24:db:54:0b:51:6d:1b:6b:9d:8b:ea:ab:
                    6a:5b:d4:54:b7:d3:38:73:13:36:be:2f:03:66:3d:
                    d3:6a:3b:6a:39:c4:1f:f6:59:2a:d4:23:8c:17:20:
                    82:1e:4d:42:4e:db:96:54:cd:ba:34:9b:17:a6:48:
                    69:ef:97:cb:0f:00:3e:5e:81:94:86:d0:6c:0b:dc:
                    84:0c:28:c1:0c:5a:68:68:41
                Exponent: 65537 (0x10001)
        X509v3 extensions:
            X509v3 Basic Constraints: critical
                CA:TRUE
    Signature Algorithm: sha1WithRSAEncryption
         6a:38:40:1c:65:f2:ec:5a:61:9d:fe:9e:4b:93:03:cf:c5:78:
         0f:2a:99:a4:da:3e:a1:f0:80:61:2d:bb:26:f3:a0:87:f0:63:
         ef:3d:1b:92:95:a3:56:7a:d6:8d:1c:0c:81:26:18:f7:85:34:
         2f:14:ac:2f:fd:bc:1b:13:b0:f7:b8:ff:a4:54:23:56:cf:cc:
         50:26:57:bf:ce:3e:85:80:23:55:03:57:6e:80:4b:2e:7b:89:
         f2:d1:cb:9d:0c:71:71:49:4c:79:7b:10:a5:17:4e:49:14:7f:
         fb:76:a7:3a:ea:31:9c:29:f2:45:44:15:f3:81:97:46:20:b5:
         82:a8:33:95:4d:27:60:ee:b8:3c:47:2a:70:69:ee:e5:af:e4:
         78:c1:3d:4a:f2:6c:b7:da:7e:82:9f:a4:5f:d1:09:ef:f7:55:
         78:55:d8:90:99:c2:cc:e6:ae:b3:06:9b:f2:99:dd:56:d2:4e:
         f2:12:21:52:92:a6:87:de:bf:01:f8:29:13:48:20:03:80:c4:
         73:be:72:bd:8c:5a:30:10:dc:13:2f:e6:6c:66:92:33:7d:e3:
         b2:65:e6:ed:c3:d0:51:31:1a:28:0e:4b:ea:2b:24:33:88:2d:
         54:cb:86:3f:6c:d7:01:0e:ea:5f:7a:6a:99:9f:b6:7b:8e:a5:
         e2:71:39:f4:2f:68:cf:be:54:7d:71:59:4b:9e:4b:90:37:dd:
         1f:31:a9:3e:a6:0a:0e:b9:4e:13:5f:b2:db:42:d0:45:79:96:
         f6:44:ee:c6:23:d2:33:d1:d6:82:c2:f0:1f:cc:8e:bc:78:2b:
         c3:94:f7:52:25:3e:2f:d8:35:31:21:2f:af:18:e8:16:ff:56:
         b2:50:36:4d:9c:bc:6a:b5:16:4f:77:64:70:c7:27:17:74:0e:
         b3:8e:f7:0e:4d:72:b4:a1:89:f2:15:dc:5f:ad:21:53:99:fd:
         50:cc:09:8d:29:57:8c:cc:38:d4:6c:18:8f:41:2e:5b:0e:ec:
         08:23:61:1c:21:75:b5:a2:57:5c:aa:15:a7:88:cf:91:a4:eb:
         38:e0:7a:52:d8:b0:57:63:ae:91:b5:3c:b0:90:f0:61:64:cf:
         d4:12:48:80:ce:21:57:8d:b7:a5:7e:6a:b9:54:63:bd:10:9c:
         46:4e:97:23:8b:88:61:bc:57:df:65:09:b5:8f:55:b3:c9:83:
         92:56:3a:4b:4b:ea:f9:a2:fb:13:5c:9c:c0:57:2a:ca:bb:e5:
         7b:9c:12:b3:cb:ca:83:0a:86:bc:27:c6:2c:25:c8:2b:f2:59:
         6e:1e:0d:ea:70:a9:df:55:65:50:a2:3d:3c:00:e6:b1:39:94:
         00:38:0f:40:13:1d:14:e2
-----BEGIN CERTIFICATE-----
MIIDajCCAVKgAwIBAwIBATANBgkqhkiG9w0BAQUFADApMQswCQYDVQQGEwJCRTEa
MBgGA1UEAxMRdHhqc29ucnBjLXRlc3QtY2EwHhcNNzAwMTAxMDAwMDAwWhcNMzgw
MTE5MDMxNDA3WjA3MRAwDgYDVQQDEwdjYS10cnVlMQswCQYDVQQGEwJCRTEWMBQG
A1UEChMNR3JlbXdlbGwgYnZiYTCBnzANBgkqhkiG9w0BAQEFAAOBjQAwgYkCgYEA
9likAoVEpTzw2amjjVGdtfEQl+NPtCrcv8OxbaaTHtdSc/cgl4rgnD8LKX+TqnEk
21QLUW0ba52L6qtqW9RUt9M4cxM2vi8DZj3TajtqOcQf9lkq1COMFyCCHk1CTtuW
VM26NJsXpkhp75fLDwA+XoGUhtBsC9yEDCjBDFpoaEECAwEAAaMTMBEwDwYDVR0T
AQH/BAUwAwEB/zANBgkqhkiG9w0BAQUFAAOCAgEAajhAHGXy7Fphnf6eS5MDz8V4
DyqZpNo+ofCAYS27JvOgh/Bj7z0bkpWjVnrWjRwMgSYY94U0LxSsL/28GxOw97j/
pFQjVs/MUCZXv84+hYAjVQNXboBLLnuJ8tHLnQxxcUlMeXsQpRdOSRR/+3anOuox
nCnyRUQV84GXRiC1gqgzlU0nYO64PEcqcGnu5a/keME9SvJst9p+gp+kX9EJ7/dV
eFXYkJnCzOauswab8pndVtJO8hIhUpKmh96/AfgpE0ggA4DEc75yvYxaMBDcEy/m
bGaSM33jsmXm7cPQUTEaKA5L6iskM4gtVMuGP2zXAQ7qX3pqmZ+2e46l4nE59C9o
z75UfXFZS55LkDfdHzGpPqYKDrlOE1+y20LQRXmW9kTuxiPSM9HWgsLwH8yOvHgr
w5T3UiU+L9g1MSEvrxjoFv9WslA2TZy8arUWT3dkcMcnF3QOs473Dk1ytKGJ8hXc
X60hU5n9UMwJjSlXjMw41GwYj0EuWw7sCCNhHCF1taJXXKoVp4jPkaTrOOB6Utiw
V2OukbU8sJDwYWTP1BJIgM4hV423pX5quVRjvRCcRk6XI4uIYbxX32UJtY9Vs8mD
klY6S0vq+aL7E1ycwFcqyrvle5wSs8vKgwqGvCfGLCXIK/JZbh4N6nCp31VlUKI9
PADmsTmUADgPQBMdFOI=
-----END CERTIFICATE-----
