Certificate:
    Data:
        Version: 4 (0x3)
        Serial Number: 1 (0x1)
    Signature Algorithm: sha1WithRSAEncryption
        Issuer: CN=ca-false, C=BE, O=Gremwell bvba
        Validity
            Not Before: Jan  1 00:00:00 1970 GMT
            Not After : Jan 19 03:14:07 2038 GMT
        Subject: CN=www.example.com, C=BE, O=Gremwell bvba
        Subject Public Key Info:
            Public Key Algorithm: rsaEncryption
                Public-Key: (1024 bit)
                Modulus:
                    00:c3:80:51:bc:17:0b:f0:9a:d8:65:35:1b:ab:c5:
                    dc:59:b8:9a:ca:99:8b:4e:91:d0:7c:25:aa:85:bc:
                    dd:db:e2:a0:83:a0:2f:be:e5:57:86:16:ca:73:07:
                    cd:55:42:bd:4e:1a:18:c5:6c:f9:6d:0b:a0:20:a2:
                    52:f4:2a:66:5d:c3:b6:d4:52:d8:31:be:a2:21:e8:
                    09:b6:7e:4c:22:e6:d1:7a:82:c4:e0:3e:d1:a0:9d:
                    28:85:a4:fc:86:e0:35:dc:92:66:10:4e:34:60:b9:
                    83:4e:46:7c:a3:e6:26:53:9a:c4:01:11:9a:6d:5f:
                    60:7d:38:d3:4b:7a:4d:da:e5
                Exponent: 65537 (0x10001)
    Signature Algorithm: sha1WithRSAEncryption
         a4:2d:be:6f:ea:80:50:aa:ad:57:9d:e0:c3:3b:fc:fb:79:f6:
         e4:62:ed:e5:29:52:89:ec:ed:dd:69:20:98:bc:8f:8d:ab:34:
         32:33:ae:96:1f:c4:ee:6d:6d:90:62:04:a2:94:46:10:c9:69:
         10:c6:65:84:6a:c7:e6:27:db:e8:2e:f8:de:4d:20:ce:b1:c9:
         10:52:41:7d:f1:de:65:41:6c:3a:21:bb:7c:b4:7a:d8:48:dd:
         7a:f4:6b:f6:54:53:6c:25:d7:8e:b1:1f:75:1b:e1:15:08:82:
         17:82:35:ca:1b:f3:2f:3c:38:ac:b9:a9:9c:02:bc:75:f2:0b:
         35:8f
-----BEGIN CERTIFICATE-----
MIIB6zCCAVSgAwIBAwIBATANBgkqhkiG9w0BAQUFADA4MREwDwYDVQQDEwhjYS1m
YWxzZTELMAkGA1UEBhMCQkUxFjAUBgNVBAoTDUdyZW13ZWxsIGJ2YmEwHhcNNzAw
MTAxMDAwMDAwWhcNMzgwMTE5MDMxNDA3WjA/MRgwFgYDVQQDEw93d3cuZXhhbXBs
ZS5jb20xCzAJBgNVBAYTAkJFMRYwFAYDVQQKEw1HcmVtd2VsbCBidmJhMIGfMA0G
CSqGSIb3DQEBAQUAA4GNADCBiQKBgQDDgFG8FwvwmthlNRurxdxZuJrKmYtOkdB8
JaqFvN3b4qCDoC++5VeGFspzB81VQr1OGhjFbPltC6AgolL0KmZdw7bUUtgxvqIh
6Am2fkwi5tF6gsTgPtGgnSiFpPyG4DXckmYQTjRguYNORnyj5iZTmsQBEZptX2B9
ONNLek3a5QIDAQABMA0GCSqGSIb3DQEBBQUAA4GBAKQtvm/qgFCqrVed4MM7/Pt5
9uRi7eUpUons7d1pIJi8j42rNDIzrpYfxO5tbZBiBKKURhDJaRDGZYRqx+Yn2+gu
+N5NIM6xyRBSQX3x3mVBbDohu3y0ethI3Xr0a/ZUU2wl146xH3Ub4RUIgheCNcob
8y88OKy5qZwCvHXyCzWP
-----END CERTIFICATE-----
Certificate:
    Data:
        Version: 4 (0x3)
        Serial Number: 1 (0x1)
    Signature Algorithm: sha1WithRSAEncryption
        Issuer: C=BE, CN=txjsonrpc-test-ca
        Validity
            Not Before: Jan  1 00:00:00 1970 GMT
            Not After : Jan 19 03:14:07 2038 GMT
        Subject: CN=ca-false, C=BE, O=Gremwell bvba
        Subject Public Key Info:
            Public Key Algorithm: rsaEncryption
                Public-Key: (1024 bit)
                Modulus:
                    00:cf:d3:cb:a1:6c:0b:43:e9:df:6f:a7:7d:fb:46:
                    d9:ae:e3:cb:38:6a:51:60:b0:7d:3b:24:65:64:86:
                    86:4b:ae:f9:13:9d:bd:52:7e:5a:23:95:b7:07:e8:
                    f6:5f:4b:e8:95:87:27:ac:1d:f1:39:d2:5e:11:28:
                    50:1a:8d:7b:b4:3e:80:ca:78:55:8f:e5:59:6c:b1:
                    6e:97:6d:11:43:6f:c7:e9:3e:38:46:10:33:f1:f9:
                    0f:19:2e:2b:71:04:e0:d5:b0:7c:1d:a4:72:c0:16:
                    96:03:cc:d2:71:09:77:06:51:a9:d8:1a:1f:fd:c8:
                    72:a4:e0:7b:37:7d:5b:51:2f
                Exponent: 65537 (0x10001)
        X509v3 extensions:
            X509v3 Basic Constraints: critical
                CA:FALSE
    Signature Algorithm: sha1WithRSAEncryption
         c9:77:24:ad:5e:c5:33:d8:8f:05:5d:19:f9:80:f3:77:2b:f6:
         c7:25:8b:9e:b6:03:a8:44:cd:6f:b5:5a:22:39:4d:12:32:0e:
         c7:ab:c5:9f:07:fa:88:0f:b2:cf:86:7b:be:f0:0d:33:7f:a5:
         a9:34:d3:f7:c0:41:16:bd:24:96:3c:34:aa:9c:9e:58:05:91:
         c1:b0:e6:6a:bc:9c:8d:30:bc:8e:6b:3c:03:48:42:4c:12:d5:
         a5:29:8b:6a:e2:a5:22:97:10:3f:10:44:58:7a:4f:43:e1:bc:
         ff:8c:de:36:a2:29:87:6b:c6:94:2c:3a:44:c9:00:b3:91:a4:
         b0:e3:c8:0f:06:30:40:ad:8a:db:1b:3e:59:af:75:af:be:cc:
         f3:a3:96:49:a9:fb:25:d2:6e:53:90:6a:f3:71:ca:84:bb:c5:
         73:31:b7:02:f1:af:bb:2c:d2:c7:c4:12:d1:a8:33:4c:f8:e9:
         b6:a8:f1:88:7a:ba:46:1d:e2:2f:b1:f9:25:3a:4f:59:f1:b8:
         27:8e:f5:9f:ad:4c:e9:35:5a:d6:ac:e7:00:ff:3f:8b:4b:68:
         da:5c:5c:b2:ea:2e:82:a8:e9:e5:58:41:4c:50:26:cd:a8:cb:
         7d:ba:48:02:65:11:68:a2:1d:23:e1:7d:a2:df:69:72:eb:6c:
         4d:6c:0c:bf:63:83:24:b3:bc:2f:76:ad:d6:e4:f6:29:9e:cf:
         53:74:c9:b7:52:50:e8:cb:fa:e3:dd:cd:74:25:88:cb:00:7f:
         c5:b6:3d:fd:4e:7a:df:fb:37:4d:fc:69:b1:5f:70:48:76:3d:
         7a:0c:c5:9e:5c:b0:49:d9:d7:8d:d6:af:67:ce:c8:cf:bd:76:
         ab:aa:ec:83:64:fb:37:f2:94:9d:f6:5d:a3:93:00:44:b1:2f:
         4f:5b:cf:4c:e9:ac:14:c1:3e:46:2b:e0:b3:bd:a5:7b:14:5d:
         c1:af:10:c0:ec:77:5d:f5:d5:7a:17:05:a3:b8:30:e6:71:72:
         51:26:9f:eb:fc:c7:43:31:0d:31:69:3b:84:f7:99:b9:75:44:
         c5:20:cc:c7:03:83:0e:88:68:b4:c1:d6:7f:38:9e:33:40:d0:
         be:c0:94:29:ed:f5:32:e1:5d:99:7f:2e:2b:4e:44:a7:61:cd:
         4b:e6:f1:71:26:e5:f3:ce:c2:13:a0:3f:d1:0a:c0:05:f1:bc:
         39:16:9e:f0:dd:2a:f7:08:aa:c6:45:7f:48:eb:8d:4d:a3:ad:
         f1:af:2f:73:7f:3a:d3:78:d9:bd:9e:6c:12:c6:b8:f7:22:48:
         fa:32:d3:65:c7:c3:92:b7:09:05:35:8c:73:71:bb:6d:54:53:
         72:35:d0:85:90:47:db:d3
-----BEGIN CERTIFICATE-----
MIIDaDCCAVCgAwIBAwIBATANBgkqhkiG9w0BAQUFADApMQswCQYDVQQGEwJCRTEa
MBgGA1UEAxMRdHhqc29ucnBjLXRlc3QtY2EwHhcNNzAwMTAxMDAwMDAwWhcNMzgw
MTE5MDMxNDA3WjA4MREwDwYDVQQDEwhjYS1mYWxzZTELMAkGA1UEBhMCQkUxFjAU
BgNVBAoTDUdyZW13ZWxsIGJ2YmEwgZ8wDQYJKoZIhvcNAQEBBQADgY0AMIGJAoGB
AM/Ty6FsC0Pp32+nfftG2a7jyzhqUWCwfTskZWSGhkuu+ROdvVJ+WiOVtwfo9l9L
6JWHJ6wd8TnSXhEoUBqNe7Q+gMp4VY/lWWyxbpdtEUNvx+k+OEYQM/H5DxkuK3EE
4NWwfB2kcsAWlgPM0nEJdwZRqdgaH/3IcqTgezd9W1EvAgMBAAGjEDAOMAwGA1Ud
EwEB/wQCMAAwDQYJKoZIhvcNAQEFBQADggIBAMl3JK1exTPYjwVdGfmA83cr9scl
i562A6hEzW+1WiI5TRIyDserxZ8H+ogPss+Ge77wDTN/pak00/fAQRa9JJY8NKqc
nlgFkcGw5mq8nI0wvI5rPANIQkwS1aUpi2ripSKXED8QRFh6T0PhvP+M3jaiKYdr
xpQsOkTJALORpLDjyA8GMECtitsbPlmvda++zPOjlkmp+yXSblOQavNxyoS7xXMx
twLxr7ss0sfEEtGoM0z46bao8Yh6ukYd4i+x+SU6T1nxuCeO9Z+tTOk1Wtas5wD/
P4tLaNpcXLLqLoKo6eVYQUxQJs2oy326SAJlEWiiHSPhfaLfaXLrbE1sDL9jgySz
vC92rdbk9imez1N0ybdSUOjL+uPdzXQliMsAf8W2Pf1Oet/7N038abFfcEh2PXoM
xZ5csEnZ143Wr2fOyM+9dquq7INk+zfylJ32XaOTAESxL09bz0zprBTBPkYr4LO9
pXsUXcGvEMDsd1311XoXBaO4MOZxclEmn+v8x0MxDTFpO4T3mbl1RMUgzMcDgw6I
aLTB1n84njNA0L7AlCnt9TLhXZl/LitORKdhzUvm8XEm5fPOwhOgP9EKwAXxvDkW
nvDdKvcIqsZFf0jrjU2jrfGvL3N/OtN42b2ebBLGuPciSPoy02XHw5K3CQU1jHNx
u21UU3I10IWQR9vT
-----END CERTIFICATE-----
