Certificate:
    Data:
        Version: 3 (0x2)
        Serial Number: 1 (0x1)
    Signature Algorithm: sha1WithRSAEncryption
        Issuer: CN=ca-none, C=BE, O=Gremwell bvba
        Validity
            Not Before: Jun 23 15:47:38 2012 GMT
            Not After : Jun 23 15:47:38 2013 GMT
        Subject: C=BE, CN=txjsonrpc-pyserver
        Subject Public Key Info:
            Public Key Algorithm: rsaEncryption
                Public-Key: (4096 bit)
                Modulus:
                    00:cd:de:38:a9:6c:06:ec:b8:66:a0:23:6d:39:17:
                    91:14:80:b8:ca:0b:2a:73:e3:f8:b4:8d:f0:32:d7:
                    40:2f:3f:f7:5e:3c:df:dc:91:cf:0a:ce:39:92:cd:
                    c8:01:2c:8d:d0:87:dd:6f:15:ec:42:ef:03:00:3c:
                    97:62:87:f0:d0:a9:3f:20:8e:6e:2f:b8:d3:7a:32:
                    26:d5:66:9b:b0:cf:44:33:ff:cc:be:69:1d:5e:21:
                    49:5a:92:f2:d5:f5:fd:29:a6:0b:9a:7a:92:93:c1:
                    cc:28:da:64:cd:43:c4:c8:f9:f3:e7:a9:ba:09:0a:
                    cd:d4:73:51:5a:c1:43:ee:b0:54:e7:a8:ef:a7:01:
                    f2:f4:35:b1:75:49:41:f7:1f:7a:70:09:a7:e5:4b:
                    43:de:bd:3d:84:b6:b7:e4:6a:95:31:14:95:f6:39:
                    61:00:07:82:6b:af:9e:e8:1c:69:18:9b:21:f1:a7:
                    4d:fe:8e:19:59:11:2f:c7:37:dd:a4:0b:5f:70:9d:
                    e5:cf:12:ab:c7:e2:76:6d:53:27:10:bf:88:d2:f0:
                    e7:bd:31:7a:ba:e1:f2:c2:4c:20:97:b1:a0:47:4d:
                    52:23:80:f5:24:57:01:21:cc:78:55:1c:98:bf:09:
                    61:90:2b:f6:9e:ae:2f:e2:92:ac:05:c1:c6:17:ef:
                    6a:76:a2:23:5c:15:ec:aa:f7:97:d1:04:6b:f9:fe:
                    34:11:aa:2b:45:c9:5e:70:b2:45:59:7f:c3:c5:8f:
                    0c:6e:a5:ef:fe:f5:de:68:d7:11:da:47:15:e0:bd:
                    4b:ce:ce:33:77:62:0f:df:d4:20:9c:14:ba:5e:2f:
                    9d:cf:ac:12:79:7c:06:a8:04:bd:1e:56:bc:a8:5e:
                    d8:5a:a7:aa:f7:c3:64:62:21:8d:54:db:72:01:1e:
                    38:2c:ea:48:32:1e:3a:68:fd:40:cf:d5:44:8c:e2:
                    63:ec:9d:72:24:96:54:17:d1:62:86:67:92:a0:26:
                    bf:4b:77:38:50:63:97:69:88:0e:b3:18:a5:7d:1b:
                    9a:b9:27:5b:14:b1:77:d6:2b:c3:f9:8f:64:34:57:
                    53:af:58:79:96:ab:54:7b:f9:7b:ac:b6:d0:9a:f2:
                    2a:fc:54:32:0e:8d:c4:88:f1:66:97:b1:12:0c:eb:
                    fd:29:13:41:6e:34:a8:84:f8:45:02:3f:5a:c0:59:
                    2c:49:e5:2d:e9:b1:ce:42:7d:79:d7:95:ab:d7:aa:
                    92:97:32:01:b4:d1:26:49:54:37:33:ed:9f:02:44:
                    0e:60:c0:82:51:0b:2a:b1:5e:f3:8e:d4:46:f9:53:
                    7c:33:83:89:4b:a2:f3:39:36:e6:ab:68:50:4b:9c:
                    64:d0:1f
                Exponent: 65537 (0x10001)
        X509v3 extensions:
            X509v3 Basic Constraints: 
                CA:FALSE
            Netscape Cert Type: 
                SSL Server
            Netscape Comment: 
                TinyCA Generated Certificate
            X509v3 Subject Key Identifier: 
                26:8C:A5:F9:A6:4A:FE:4C:E8:0F:04:33:7E:04:26:28:BF:4C:92:F3
            X509v3 Authority Key Identifier: 
                keyid:9D:8F:84:76:94:CD:07:FE:A3:E8:8B:D7:F9:D9:6E:EF:CA:75:51:7B
                DirName:/C=BE/CN=txjsonrpc-test-ca
                serial:8D:D2:AF:37:F9:CA:92:0B

            X509v3 Issuer Alternative Name: 
                <EMPTY>

            X509v3 Subject Alternative Name: 
                <EMPTY>

    Signature Algorithm: sha1WithRSAEncryption
         94:11:e7:87:5b:7d:3f:fa:c8:19:d4:47:4f:24:63:f7:fd:6c:
         a6:2c:df:e4:93:ab:17:22:d2:d2:23:a2:a0:67:b8:56:8a:87:
         ee:af:03:f7:8c:1a:b1:37:c0:c3:8a:3e:b2:13:cc:37:3f:06:
         71:02:df:8e:2e:0b:40:fa:c5:24:2b:1e:15:ad:6d:3b:42:bf:
         3e:7f:36:7f:11:bc:0b:2b:1d:38:01:80:ff:41:d7:2d:be:ae:
         c4:41:87:d1:fe:8b:28:69:39:1d:aa:a5:99:fb:54:a7:6c:38:
         44:05:0b:ec:a4:41:b7:fb:66:c9:28:e3:da:d7:40:f2:e3:03:
         94:b3
-----BEGIN CERTIFICATE-----
MIIEOjCCA6OgAwIBAgIBATANBgkqhkiG9w0BAQUFADA3MRAwDgYDVQQDEwdjYS1u
b25lMQswCQYDVQQGEwJCRTEWMBQGA1UEChMNR3JlbXdlbGwgYnZiYTAeFw0xMjA2
MjMxNTQ3MzhaFw0xMzA2MjMxNTQ3MzhaMCoxCzAJBgNVBAYTAkJFMRswGQYDVQQD
ExJ0eGpzb25ycGMtcHlzZXJ2ZXIwggIiMA0GCSqGSIb3DQEBAQUAA4ICDwAwggIK
AoICAQDN3jipbAbsuGagI205F5EUgLjKCypz4/i0jfAy10AvP/dePN/ckc8KzjmS
zcgBLI3Qh91vFexC7wMAPJdih/DQqT8gjm4vuNN6MibVZpuwz0Qz/8y+aR1eIUla
kvLV9f0ppguaepKTwcwo2mTNQ8TI+fPnqboJCs3Uc1FawUPusFTnqO+nAfL0NbF1
SUH3H3pwCaflS0PevT2EtrfkapUxFJX2OWEAB4Jrr57oHGkYmyHxp03+jhlZES/H
N92kC19wneXPEqvH4nZtUycQv4jS8Oe9MXq64fLCTCCXsaBHTVIjgPUkVwEhzHhV
HJi/CWGQK/aeri/ikqwFwcYX72p2oiNcFeyq95fRBGv5/jQRqitFyV5wskVZf8PF
jwxupe/+9d5o1xHaRxXgvUvOzjN3Yg/f1CCcFLpeL53PrBJ5fAaoBL0eVryoXtha
p6r3w2RiIY1U23IBHjgs6kgyHjpo/UDP1USM4mPsnXIkllQX0WKGZ5KgJr9LdzhQ
Y5dpiA6zGKV9G5q5J1sUsXfWK8P5j2Q0V1OvWHmWq1R7+XusttCa8ir8VDIOjcSI
8WaXsRIM6/0pE0FuNKiE+EUCP1rAWSxJ5S3psc5CfXnXlavXqpKXMgG00SZJVDcz
7Z8CRA5gwIJRCyqxXvOO1Eb5U3wzg4lLovM5NuaraFBLnGTQHwIDAQABo4HeMIHb
MAkGA1UdEwQCMAAwEQYJYIZIAYb4QgEBBAQDAgZAMCsGCWCGSAGG+EIBDQQeFhxU
aW55Q0EgR2VuZXJhdGVkIENlcnRpZmljYXRlMB0GA1UdDgQWBBQmjKX5pkr+TOgP
BDN+BCYov0yS8zBZBgNVHSMEUjBQgBSdj4R2lM0H/qPoi9f52W7vynVRe6EtpCsw
KTELMAkGA1UEBhMCQkUxGjAYBgNVBAMTEXR4anNvbnJwYy10ZXN0LWNhggkAjdKv
N/nKkgswCQYDVR0SBAIwADAJBgNVHREEAjAAMA0GCSqGSIb3DQEBBQUAA4GBAJQR
54dbfT/6yBnUR08kY/f9bKYs3+STqxci0tIjoqBnuFaKh+6vA/eMGrE3wMOKPrIT
zDc/BnEC344uC0D6xSQrHhWtbTtCvz5/Nn8RvAsrHTgBgP9B1y2+rsRBh9H+iyhp
OR2qpZn7VKdsOEQFC+ykQbf7Zsko49rXQPLjA5Sz
-----END CERTIFICATE-----
Certificate:
    Data:
        Version: 4 (0x3)
        Serial Number: 1 (0x1)
    Signature Algorithm: sha1WithRSAEncryption
        Issuer: C=BE, CN=txjsonrpc-test-ca
        Validity
            Not Before: Jan  1 00:00:00 1970 GMT
            Not After : Jan 19 03:14:07 2038 GMT
        Subject: CN=ca-none, C=BE, O=Gremwell bvba
        Subject Public Key Info:
            Public Key Algorithm: rsaEncryption
                Public-Key: (1024 bit)
                Modulus:
                    00:ac:f4:19:a7:27:0d:cc:e7:c1:9b:31:27:b5:b8:
                    c7:eb:10:c0:db:6b:dc:d7:6a:68:93:16:3d:f0:41:
                    cb:dd:71:6d:f4:8b:39:2c:bd:27:f6:fb:7b:23:97:
                    b7:5b:c7:ac:96:c0:5f:aa:26:d1:64:27:50:f4:48:
                    98:1a:c8:b3:e9:0e:19:ee:68:0d:89:96:3e:02:43:
                    a6:eb:52:b5:cb:d5:3c:8f:0b:fc:fe:84:03:38:b4:
                    e6:ef:af:88:92:be:91:43:77:1e:95:30:b2:bb:47:
                    71:82:58:3f:9d:2a:f8:be:91:a1:d7:b7:f1:92:1a:
                    c9:49:20:22:a5:61:0e:c9:47
                Exponent: 65537 (0x10001)
    Signature Algorithm: sha1WithRSAEncryption
         8b:98:9b:5b:87:20:9e:ef:75:a9:a7:bf:35:8f:9d:a6:6a:8d:
         64:82:1b:bd:52:62:69:31:34:7e:93:09:da:75:67:d6:85:51:
         7c:aa:7f:7d:2c:2c:54:ec:e3:78:95:4e:5a:67:98:da:69:35:
         43:69:14:6c:f1:0c:7a:cb:83:9d:d3:17:5b:88:a0:29:ff:75:
         fe:b1:0e:15:49:f8:2c:24:f6:57:d6:22:04:ce:80:37:d8:49:
         8c:09:63:1f:db:b3:7a:10:e8:1b:b8:18:e6:10:87:b7:62:71:
         87:54:a1:4b:f3:d2:0e:03:85:d1:88:8a:59:db:9a:bb:dc:e7:
         d7:92:fa:7e:ce:6a:be:f2:3a:ca:f5:d0:8f:19:32:92:5c:d8:
         cd:a2:53:a0:66:d5:ca:c0:9f:98:db:dd:e1:9b:48:01:d6:99:
         2a:c8:c5:d0:6b:af:1b:46:1f:c0:70:81:a9:1b:f5:4f:5e:f8:
         fb:97:cf:46:1c:6a:6a:02:93:67:89:49:a5:07:9f:f6:8e:10:
         69:7f:cb:3e:14:b3:5e:69:cb:6b:e0:a3:b2:e8:a8:7e:8d:71:
         13:fb:1a:e1:d7:21:84:e2:ba:cc:2c:ec:2f:6f:48:72:69:c8:
         f7:c6:c4:0d:26:a2:42:90:02:98:77:d7:65:14:86:c8:18:3a:
         27:e1:bb:d9:e9:4e:b6:e1:bb:da:9f:04:d8:77:72:28:0f:06:
         d6:9f:85:d2:9f:3a:71:4e:3d:41:26:8e:bb:9c:99:c0:93:55:
         3b:36:b3:35:bd:98:13:8f:c5:5f:1f:0d:dc:d0:6a:d0:03:63:
         6c:28:65:4b:a3:77:e2:f4:e5:a3:ef:bf:6d:85:ea:ce:d6:d7:
         1e:2b:a0:ff:bf:b6:86:f7:ea:8b:09:92:bd:c2:ec:38:dd:ec:
         5a:84:3e:19:4c:c3:cd:6e:1a:b5:b5:e2:b5:e4:ab:97:53:19:
         dd:93:66:7c:15:d8:f4:6b:7c:c3:31:37:7e:46:53:14:a4:c0:
         4d:1c:85:87:5b:08:7f:3a:9c:16:6e:3c:e9:dc:c2:b5:d6:88:
         f0:af:eb:3b:73:e1:6d:82:16:77:89:5d:e0:49:ce:a8:9e:bc:
         08:5d:9e:86:a8:c7:a1:50:30:16:73:76:37:79:59:29:3f:c1:
         77:5e:d7:87:db:60:34:b0:7a:59:3b:76:b0:79:9a:e6:f7:24:
         54:f0:e4:40:a0:e4:b5:ab:4c:da:0e:9e:b5:79:0d:0a:76:fd:
         e5:1e:6e:bf:6e:76:f9:85:fb:c7:f1:d3:b8:55:bf:32:4c:05:
         d6:61:52:03:94:62:fb:17:b3:1a:7d:eb:60:00:62:eb:fd:a1:
         f9:b2:a2:da:48:74:df:f7
-----BEGIN CERTIFICATE-----
MIIDVTCCAT2gAwIBAwIBATANBgkqhkiG9w0BAQUFADApMQswCQYDVQQGEwJCRTEa
MBgGA1UEAxMRdHhqc29ucnBjLXRlc3QtY2EwHhcNNzAwMTAxMDAwMDAwWhcNMzgw
MTE5MDMxNDA3WjA3MRAwDgYDVQQDEwdjYS1ub25lMQswCQYDVQQGEwJCRTEWMBQG
A1UEChMNR3JlbXdlbGwgYnZiYTCBnzANBgkqhkiG9w0BAQEFAAOBjQAwgYkCgYEA
rPQZpycNzOfBmzEntbjH6xDA22vc12pokxY98EHL3XFt9Is5LL0n9vt7I5e3W8es
lsBfqibRZCdQ9EiYGsiz6Q4Z7mgNiZY+AkOm61K1y9U8jwv8/oQDOLTm76+Ikr6R
Q3celTCyu0dxglg/nSr4vpGh17fxkhrJSSAipWEOyUcCAwEAATANBgkqhkiG9w0B
AQUFAAOCAgEAi5ibW4cgnu91qae/NY+dpmqNZIIbvVJiaTE0fpMJ2nVn1oVRfKp/
fSwsVOzjeJVOWmeY2mk1Q2kUbPEMesuDndMXW4igKf91/rEOFUn4LCT2V9YiBM6A
N9hJjAljH9uzehDoG7gY5hCHt2Jxh1ShS/PSDgOF0YiKWduau9zn15L6fs5qvvI6
yvXQjxkyklzYzaJToGbVysCfmNvd4ZtIAdaZKsjF0GuvG0YfwHCBqRv1T174+5fP
RhxqagKTZ4lJpQef9o4QaX/LPhSzXmnLa+Cjsuiofo1xE/sa4dchhOK6zCzsL29I
cmnI98bEDSaiQpACmHfXZRSGyBg6J+G72elOtuG72p8E2HdyKA8G1p+F0p86cU49
QSaOu5yZwJNVOzazNb2YE4/FXx8N3NBq0ANjbChlS6N34vTlo++/bYXqztbXHiug
/7+2hvfqiwmSvcLsON3sWoQ+GUzDzW4atbXiteSrl1MZ3ZNmfBXY9Gt8wzE3fkZT
FKTATRyFh1sIfzqcFm486dzCtdaI8K/rO3PhbYIWd4ld4EnOqJ68CF2ehqjHoVAw
FnN2N3lZKT/Bd17Xh9tgNLB6WTt2sHma5vckVPDkQKDktatM2g6etXkNCnb95R5u
v252+YX7x/HTuFW/MkwF1mFSA5Ri+xezGn3rYABi6/2h+bKi2kh03/c=
-----END CERTIFICATE-----
