Certificate:
    Data:
        Version: 4 (0x3)
        Serial Number: 1 (0x1)
    Signature Algorithm: sha1WithRSAEncryption
        Issuer: C=BE, CN=txjsonrpc-test-ca
        Validity
            Not Before: Jan  1 00:00:00 1970 GMT
            Not After : Jan 19 03:14:07 2038 GMT
        Subject: CN=ca-true, C=BE, O=Gremwell bvba
        Subject Public Key Info:
            Public Key Algorithm: rsaEncryption
                Public-Key: (1024 bit)
                Modulus:
                    00:ef:6c:bf:1d:e2:04:82:dc:e9:cd:42:d5:3c:7c:
                    2f:76:40:11:6e:fb:4d:c1:0d:8f:1c:19:89:27:8e:
                    b1:50:89:e5:e7:82:4b:34:86:27:7e:3c:0b:53:7f:
                    55:3f:89:11:15:87:3d:7b:42:d1:7e:25:31:5b:a2:
                    21:8e:ac:b9:26:7e:d1:40:51:75:e6:e8:91:6d:40:
                    c3:b6:dd:6a:17:d6:86:9e:2d:68:d8:6b:c6:10:53:
                    08:58:dc:ef:e8:c9:dc:87:f5:67:4f:9f:da:68:40:
                    68:5d:f6:3a:62:19:1b:7e:ed:a6:ef:0e:7a:86:3b:
                    d5:bf:4b:94:a8:4c:ee:8b:17
                Exponent: 65537 (0x10001)
        X509v3 extensions:
            X509v3 Basic Constraints: critical
                CA:TRUE
    Signature Algorithm: sha1WithRSAEncryption
         7e:8a:e4:02:90:f3:df:11:2b:05:9b:c0:6e:7b:46:25:b1:b8:
         b6:18:e5:0e:50:8c:20:0f:b2:cb:36:37:33:04:98:70:ad:19:
         3c:38:ab:5b:40:0b:35:59:c1:15:79:a2:76:1e:b3:d0:63:af:
         49:bd:17:a9:30:d1:2c:42:ff:0d:b3:4a:e2:5f:16:6d:41:a2:
         c3:a0:dd:e9:54:8e:b3:11:d8:77:71:c5:9b:99:92:bc:26:3f:
         95:23:12:e3:6f:1e:a9:f3:65:48:dd:aa:95:93:6e:db:25:83:
         8f:f5:ac:1f:31:6d:2d:44:89:c9:01:ed:c2:d7:7f:d9:ad:8d:
         45:31:cf:87:98:1a:9d:0d:10:a6:63:63:26:88:dc:10:1a:42:
         6f:5b:dc:e9:14:c2:08:e0:72:12:a4:35:e8:43:a3:18:23:07:
         ed:a9:10:f0:aa:37:f0:3e:eb:0c:33:b5:db:44:f7:18:58:ab:
         74:7e:b7:f9:3e:ab:1b:50:b5:5b:76:16:68:7d:1e:a9:fd:5e:
         88:ec:90:5e:c4:8e:24:2c:18:8c:0c:42:ee:f1:e7:ec:d2:c3:
         f4:6e:d8:41:87:57:ff:25:7b:36:0c:b0:5e:8e:47:27:e0:30:
         1a:30:05:b6:7d:48:46:97:3e:7b:0b:55:cd:01:63:46:37:ac:
         a4:2a:a3:aa:61:a3:55:dd:6f:59:50:f4:61:35:ac:c1:dd:68:
         f4:de:a7:dd:7f:22:62:18:a6:ce:cf:07:d0:3f:41:1b:8e:3c:
         80:50:9c:7c:63:e6:21:23:c7:53:f9:35:0b:e7:b5:77:33:a0:
         3c:b1:70:1c:bc:12:4d:9c:64:02:93:7d:0a:1a:ff:ee:fe:c5:
         2e:e2:8a:3f:4c:d7:59:24:39:03:57:60:1c:54:b8:ec:b6:5d:
         11:4b:2a:61:ef:b7:4e:54:2c:a5:b2:36:81:16:bd:9f:1d:5a:
         2e:06:5e:17:f9:ba:99:1f:b5:8c:81:e2:b0:cd:72:13:66:19:
         77:db:a4:86:51:fa:a3:69:5c:f3:13:4b:6b:dc:83:e8:3f:be:
         07:c9:e7:4f:58:9c:2e:b1:3d:c9:2b:eb:20:94:46:80:85:4f:
         04:be:70:00:f3:94:ca:6d:66:a5:91:92:b5:9e:99:e5:c3:7e:
         c2:4d:ab:f8:da:a3:4a:25:00:63:5a:82:07:78:ee:e8:67:35:
         00:43:f1:d1:6c:2c:a2:d7:f7:7f:72:f1:65:cd:14:3e:f3:ec:
         5d:43:2a:15:54:a1:d5:9b:14:41:c8:0a:57:47:4b:54:e3:cf:
         d0:7e:a3:2c:df:20:59:0f:0d:b7:04:55:b7:7c:aa:e7:97:aa:
         d8:22:39:34:b7:48:3a:ae
-----BEGIN CERTIFICATE-----
MIIDajCCAVKgAwIBAwIBATANBgkqhkiG9w0BAQUFADApMQswCQYDVQQGEwJCRTEa
MBgGA1UEAxMRdHhqc29ucnBjLXRlc3QtY2EwHhcNNzAwMTAxMDAwMDAwWhcNMzgw
MTE5MDMxNDA3WjA3MRAwDgYDVQQDEwdjYS10cnVlMQswCQYDVQQGEwJCRTEWMBQG
A1UEChMNR3JlbXdlbGwgYnZiYTCBnzANBgkqhkiG9w0BAQEFAAOBjQAwgYkCgYEA
72y/HeIEgtzpzULVPHwvdkARbvtNwQ2PHBmJJ46xUInl54JLNIYnfjwLU39VP4kR
FYc9e0LRfiUxW6Ihjqy5Jn7RQFF15uiRbUDDtt1qF9aGni1o2GvGEFMIWNzv6Mnc
h/VnT5/aaEBoXfY6Yhkbfu2m7w56hjvVv0uUqEzuixcCAwEAAaMTMBEwDwYDVR0T
AQH/BAUwAwEB/zANBgkqhkiG9w0BAQUFAAOCAgEAforkApDz3xErBZvAbntGJbG4
thjlDlCMIA+yyzY3MwSYcK0ZPDirW0ALNVnBFXmidh6z0GOvSb0XqTDRLEL/DbNK
4l8WbUGiw6Dd6VSOsxHYd3HFm5mSvCY/lSMS428eqfNlSN2qlZNu2yWDj/WsHzFt
LUSJyQHtwtd/2a2NRTHPh5ganQ0QpmNjJojcEBpCb1vc6RTCCOByEqQ16EOjGCMH
7akQ8Ko38D7rDDO120T3GFirdH63+T6rG1C1W3YWaH0eqf1eiOyQXsSOJCwYjAxC
7vHn7NLD9G7YQYdX/yV7NgywXo5HJ+AwGjAFtn1IRpc+ewtVzQFjRjespCqjqmGj
Vd1vWVD0YTWswd1o9N6n3X8iYhimzs8H0D9BG448gFCcfGPmISPHU/k1C+e1dzOg
PLFwHLwSTZxkApN9Chr/7v7FLuKKP0zXWSQ5A1dgHFS47LZdEUsqYe+3TlQspbI2
gRa9nx1aLgZeF/m6mR+1jIHisM1yE2YZd9ukhlH6o2lc8xNLa9yD6D++B8nnT1ic
LrE9ySvrIJRGgIVPBL5wAPOUym1mpZGStZ6Z5cN+wk2r+NqjSiUAY1qCB3ju6Gc1
AEPx0Wwsotf3f3LxZc0UPvPsXUMqFVSh1ZsUQcgKV0dLVOPP0H6jLN8gWQ8NtwRV
t3yq55eq2CI5NLdIOq4=
-----END CERTIFICATE-----
Certificate:
    Data:
        Version: 3 (0x2)
        Serial Number: 10219423159405941259 (0x8dd2af37f9ca920b)
    Signature Algorithm: sha1WithRSAEncryption
        Issuer: C=BE, CN=txjsonrpc-test-ca
        Validity
            Not Before: Jun 23 15:46:37 2012 GMT
            Not After : Jun 21 15:46:37 2022 GMT
        Subject: C=BE, CN=txjsonrpc-test-ca
        Subject Public Key Info:
            Public Key Algorithm: rsaEncryption
                Public-Key: (4096 bit)
                Modulus:
                    00:d1:25:af:77:c5:a8:72:cf:90:b9:39:10:fb:7b:
                    75:2c:a1:da:6a:95:e5:44:0c:d6:25:4b:58:7f:bb:
                    07:82:59:49:58:32:85:24:cc:3e:77:db:e1:a7:4f:
                    c8:b5:cb:ee:45:38:bd:bc:fb:e3:76:3b:88:04:ca:
                    ab:3a:a3:96:3b:5f:93:9c:28:a6:61:97:dc:a2:3f:
                    a0:93:2b:56:6c:cf:d3:4f:6a:9e:05:d3:1c:cd:ef:
                    75:80:1a:98:b7:92:49:14:33:b8:c4:7c:73:8c:7e:
                    83:a5:81:a2:59:8c:8b:a3:51:36:6d:68:ac:f2:f1:
                    ed:6f:49:d9:af:7a:63:c1:43:31:42:b6:c7:cd:b9:
                    78:b7:33:98:70:92:6c:9e:04:7a:7b:f0:6d:38:87:
                    eb:00:13:17:b9:d9:ec:b4:66:bb:51:d3:fd:81:e3:
                    0e:88:71:23:d2:80:2a:61:de:ab:25:02:47:a9:c1:
                    6b:c9:69:ae:da:47:b6:49:74:ac:a6:e1:c1:76:ba:
                    6d:b1:d9:68:6e:1c:37:a8:e2:18:60:37:b6:58:13:
                    6c:c7:92:7c:c6:45:8c:ef:c3:81:73:10:dc:2f:31:
                    e2:b9:05:5a:9e:28:70:5a:3e:1d:b8:68:71:81:c9:
                    e8:fe:1f:c3:a0:13:f8:e4:24:12:ba:91:8e:15:d2:
                    03:f1:8c:b0:aa:e2:34:e4:6b:f8:06:f6:23:8a:92:
                    43:a6:05:dc:e9:c7:a5:a8:06:d7:6e:91:52:72:47:
                    ab:ae:87:fe:b3:0f:04:87:6f:4b:22:29:e9:a9:06:
                    52:58:7d:03:16:d7:d5:31:44:b4:f1:51:44:a7:2a:
                    ba:5e:09:19:ec:4c:a2:e0:58:fe:0d:4e:b7:90:4d:
                    02:ac:2a:ad:99:14:65:3b:0a:3c:73:45:56:b2:0f:
                    10:25:24:51:79:57:1a:34:1a:10:6f:60:e0:fc:81:
                    db:ca:c2:e2:85:1b:4c:72:13:5c:9d:76:cc:d0:21:
                    33:31:56:82:8f:c5:57:b9:44:fd:8b:76:c1:b6:e4:
                    21:8b:35:9a:ee:54:74:9f:72:6b:19:84:d7:a2:3c:
                    a5:6e:11:0a:f1:93:04:2e:dd:7c:4c:7d:62:10:d4:
                    1b:8b:87:f6:ed:bf:12:b1:8b:f0:9a:7a:ee:02:94:
                    e1:3c:46:2b:7f:9c:54:fb:2e:61:c9:1c:ef:fc:de:
                    25:bc:2d:75:1b:1f:49:5e:44:3b:15:93:ad:c4:89:
                    d9:ae:3c:da:54:ef:d9:af:3a:16:cb:94:1b:6a:14:
                    e4:42:f9:75:33:46:6e:fb:40:bc:f8:82:36:cf:60:
                    f5:c2:a2:98:23:a7:2a:ae:c1:aa:22:f8:87:da:b7:
                    9c:a4:cf
                Exponent: 65537 (0x10001)
        X509v3 extensions:
            X509v3 Subject Key Identifier: 
                9D:8F:84:76:94:CD:07:FE:A3:E8:8B:D7:F9:D9:6E:EF:CA:75:51:7B
            X509v3 Authority Key Identifier: 
                keyid:9D:8F:84:76:94:CD:07:FE:A3:E8:8B:D7:F9:D9:6E:EF:CA:75:51:7B
                DirName:/C=BE/CN=txjsonrpc-test-ca
                serial:8D:D2:AF:37:F9:CA:92:0B

            X509v3 Basic Constraints: critical
                CA:TRUE
            Netscape Cert Type: 
                SSL CA, S/MIME CA
            X509v3 Issuer Alternative Name: 
                <EMPTY>

            Netscape Comment: 
                Test CA for txjsonrcp
            X509v3 Subject Alternative Name: 
                <EMPTY>

            X509v3 Key Usage: critical
                Certificate Sign, CRL Sign
    Signature Algorithm: sha1WithRSAEncryption
         06:82:86:81:a9:1b:7e:2d:ef:f5:fc:cc:d2:9d:d6:82:ad:d0:
         6f:7e:3d:b9:5c:b2:0f:3a:64:21:9a:fb:53:b2:93:81:dc:1a:
         24:fc:b8:30:57:a2:c7:71:0d:9c:1a:0b:8a:6c:89:52:8b:8a:
         f5:af:95:3e:b8:08:39:ee:36:50:ac:60:4d:df:2b:49:a2:72:
         f1:3f:12:3c:d9:55:56:a4:9a:77:2b:77:fa:16:b5:76:d9:f4:
         c4:51:6b:b9:fe:2f:a3:52:e8:64:80:49:22:6d:05:42:87:af:
         9d:85:6c:fa:c9:9b:48:39:7b:89:f5:a0:1e:ff:11:d3:9c:78:
         b1:b2:f6:4d:b1:e8:b3:98:23:2c:d4:20:e1:a1:01:3e:26:0a:
         5b:8e:eb:58:45:22:cf:e1:94:ad:84:40:b0:fb:ff:25:5f:31:
         9a:49:0b:36:ad:c6:1a:b0:42:60:40:e2:a2:3c:5a:36:41:89:
         fc:10:c4:60:ea:d4:85:7b:36:84:df:aa:81:cc:69:e7:52:ca:
         c1:46:b1:79:93:51:4f:24:84:42:14:3a:20:a0:6c:27:76:40:
         0f:96:7e:4e:c3:0c:37:b3:e3:73:49:86:58:31:00:1e:e7:0f:
         87:74:b6:4e:6e:1c:7d:87:a4:33:04:c9:76:ec:e5:3a:85:5f:
         a8:d1:ad:21:64:5e:c5:6a:df:b1:02:6e:65:a4:87:72:06:07:
         da:e5:f2:af:2b:a5:eb:18:80:67:83:a5:3c:e6:ed:d1:58:f9:
         90:5c:d6:e9:2f:76:c1:58:13:b8:bd:88:8a:f3:04:48:bb:42:
         8f:7f:c6:db:b4:30:3f:bb:6c:d5:47:e5:ae:8d:4b:da:92:a5:
         db:d3:6e:a8:9b:c2:6b:56:af:34:63:82:e6:78:f8:1f:54:d7:
         41:aa:a3:c9:7c:a6:83:41:bf:6e:33:7c:ae:e6:92:bd:da:27:
         b4:bc:e2:90:4f:33:1b:01:a1:cd:02:13:7a:31:ef:00:d6:9a:
         6e:38:6b:a7:cb:70:98:a8:0f:ff:1c:56:a8:b7:e6:d2:42:5a:
         bb:f4:78:27:71:13:d0:e8:43:eb:bc:2d:4f:e4:ea:4d:4f:76:
         7f:53:38:34:eb:13:e2:3d:c6:14:98:86:1c:ab:2c:0e:b7:68:
         2e:bd:63:a9:6a:8f:d5:22:2d:ab:13:d7:62:54:51:ff:5c:37:
         08:04:27:da:f9:57:77:05:18:73:88:5f:b0:c1:65:50:36:09:
         d6:c7:f5:ae:6e:3f:04:d1:84:3c:21:74:1d:bd:0a:fb:76:d0:
         13:2b:62:bb:24:48:43:89:d0:18:5c:b4:ad:ea:98:af:6d:fc:
         1c:6b:1f:06:64:54:23:88
-----BEGIN CERTIFICATE-----
MIIFwzCCA6ugAwIBAgIJAI3Srzf5ypILMA0GCSqGSIb3DQEBBQUAMCkxCzAJBgNV
BAYTAkJFMRowGAYDVQQDExF0eGpzb25ycGMtdGVzdC1jYTAeFw0xMjA2MjMxNTQ2
MzdaFw0yMjA2MjExNTQ2MzdaMCkxCzAJBgNVBAYTAkJFMRowGAYDVQQDExF0eGpz
b25ycGMtdGVzdC1jYTCCAiIwDQYJKoZIhvcNAQEBBQADggIPADCCAgoCggIBANEl
r3fFqHLPkLk5EPt7dSyh2mqV5UQM1iVLWH+7B4JZSVgyhSTMPnfb4adPyLXL7kU4
vbz743Y7iATKqzqjljtfk5wopmGX3KI/oJMrVmzP009qngXTHM3vdYAamLeSSRQz
uMR8c4x+g6WBolmMi6NRNm1orPLx7W9J2a96Y8FDMUK2x825eLczmHCSbJ4Eenvw
bTiH6wATF7nZ7LRmu1HT/YHjDohxI9KAKmHeqyUCR6nBa8lprtpHtkl0rKbhwXa6
bbHZaG4cN6jiGGA3tlgTbMeSfMZFjO/DgXMQ3C8x4rkFWp4ocFo+HbhocYHJ6P4f
w6AT+OQkErqRjhXSA/GMsKriNORr+Ab2I4qSQ6YF3OnHpagG126RUnJHq66H/rMP
BIdvSyIp6akGUlh9AxbX1TFEtPFRRKcqul4JGexMouBY/g1Ot5BNAqwqrZkUZTsK
PHNFVrIPECUkUXlXGjQaEG9g4PyB28rC4oUbTHITXJ12zNAhMzFWgo/FV7lE/Yt2
wbbkIYs1mu5UdJ9yaxmE16I8pW4RCvGTBC7dfEx9YhDUG4uH9u2/ErGL8Jp67gKU
4TxGK3+cVPsuYckc7/zeJbwtdRsfSV5EOxWTrcSJ2a482lTv2a86FsuUG2oU5EL5
dTNGbvtAvPiCNs9g9cKimCOnKq7BqiL4h9q3nKTPAgMBAAGjge0wgeowHQYDVR0O
BBYEFJ2PhHaUzQf+o+iL1/nZbu/KdVF7MFkGA1UdIwRSMFCAFJ2PhHaUzQf+o+iL
1/nZbu/KdVF7oS2kKzApMQswCQYDVQQGEwJCRTEaMBgGA1UEAxMRdHhqc29ucnBj
LXRlc3QtY2GCCQCN0q83+cqSCzAPBgNVHRMBAf8EBTADAQH/MBEGCWCGSAGG+EIB
AQQEAwIBBjAJBgNVHRIEAjAAMCQGCWCGSAGG+EIBDQQXFhVUZXN0IENBIGZvciB0
eGpzb25yY3AwCQYDVR0RBAIwADAOBgNVHQ8BAf8EBAMCAQYwDQYJKoZIhvcNAQEF
BQADggIBAAaChoGpG34t7/X8zNKd1oKt0G9+Pblcsg86ZCGa+1Oyk4HcGiT8uDBX
osdxDZwaC4psiVKLivWvlT64CDnuNlCsYE3fK0micvE/EjzZVVakmncrd/oWtXbZ
9MRRa7n+L6NS6GSASSJtBUKHr52FbPrJm0g5e4n1oB7/EdOceLGy9k2x6LOYIyzU
IOGhAT4mCluO61hFIs/hlK2EQLD7/yVfMZpJCzatxhqwQmBA4qI8WjZBifwQxGDq
1IV7NoTfqoHMaedSysFGsXmTUU8khEIUOiCgbCd2QA+Wfk7DDDez43NJhlgxAB7n
D4d0tk5uHH2HpDMEyXbs5TqFX6jRrSFkXsVq37ECbmWkh3IGB9rl8q8rpesYgGeD
pTzm7dFY+ZBc1ukvdsFYE7i9iIrzBEi7Qo9/xtu0MD+7bNVH5a6NS9qSpdvTbqib
wmtWrzRjguZ4+B9U10Gqo8l8poNBv24zfK7mkr3aJ7S84pBPMxsBoc0CE3ox7wDW
mm44a6fLcJioD/8cVqi35tJCWrv0eCdxE9DoQ+u8LU/k6k1Pdn9TODTrE+I9xhSY
hhyrLA63aC69Y6lqj9UiLasT12JUUf9cNwgEJ9r5V3cFGHOIX7DBZVA2CdbH9a5u
PwTRhDwhdB29Cvt20BMrYrskSEOJ0BhctK3qmK9t/BxrHwZkVCOI
-----END CERTIFICATE-----
