Certificate:
    Data:
        Version: 4 (0x3)
        Serial Number: 1 (0x1)
    Signature Algorithm: sha1WithRSAEncryption
        Issuer: CN=www.example.com, C=BE, O=Gremwell bvba
        Validity
            Not Before: Jan  1 00:00:00 1970 GMT
            Not After : Jan 19 03:14:07 2038 GMT
        Subject: CN=www.example.com, C=BE, O=Gremwell bvba
        Subject Public Key Info:
            Public Key Algorithm: rsaEncryption
                Public-Key: (1024 bit)
                Modulus:
                    00:c3:80:51:bc:17:0b:f0:9a:d8:65:35:1b:ab:c5:
                    dc:59:b8:9a:ca:99:8b:4e:91:d0:7c:25:aa:85:bc:
                    dd:db:e2:a0:83:a0:2f:be:e5:57:86:16:ca:73:07:
                    cd:55:42:bd:4e:1a:18:c5:6c:f9:6d:0b:a0:20:a2:
                    52:f4:2a:66:5d:c3:b6:d4:52:d8:31:be:a2:21:e8:
                    09:b6:7e:4c:22:e6:d1:7a:82:c4:e0:3e:d1:a0:9d:
                    28:85:a4:fc:86:e0:35:dc:92:66:10:4e:34:60:b9:
                    83:4e:46:7c:a3:e6:26:53:9a:c4:01:11:9a:6d:5f:
                    60:7d:38:d3:4b:7a:4d:da:e5
                Exponent: 65537 (0x10001)
    Signature Algorithm: sha1WithRSAEncryption
         79:cf:6a:6e:25:07:6e:29:29:3a:3a:39:59:49:cd:a6:75:b5:
         40:84:c9:24:81:d1:90:26:72:cb:61:bd:d0:31:b6:e5:26:7b:
         11:18:a5:33:8d:e1:d3:8f:ce:ca:44:d2:89:e2:56:a2:94:00:
         0d:d1:eb:a3:a4:79:50:4a:b4:39:a7:41:69:77:4e:3d:f0:a5:
         50:b6:d8:99:50:5c:cf:cf:92:c1:0b:b1:b6:8a:44:18:4c:08:
         a9:80:9b:c5:a1:ca:a2:11:2f:b7:7a:e4:3c:1d:b9:df:3e:1a:
         e6:e6:db:b1:d2:06:8c:6b:08:a0:79:2b:4a:2f:26:13:5b:dc:
         a1:05
-----BEGIN CERTIFICATE-----
MIIB8jCCAVugAwIBAwIBATANBgkqhkiG9w0BAQUFADA/MRgwFgYDVQQDEw93d3cu
ZXhhbXBsZS5jb20xCzAJBgNVBAYTAkJFMRYwFAYDVQQKEw1HcmVtd2VsbCBidmJh
MB4XDTcwMDEwMTAwMDAwMFoXDTM4MDExOTAzMTQwN1owPzEYMBYGA1UEAxMPd3d3
LmV4YW1wbGUuY29tMQswCQYDVQQGEwJCRTEWMBQGA1UEChMNR3JlbXdlbGwgYnZi
YTCBnzANBgkqhkiG9w0BAQEFAAOBjQAwgYkCgYEAw4BRvBcL8JrYZTUbq8XcWbia
ypmLTpHQfCWqhbzd2+Kgg6AvvuVXhhbKcwfNVUK9ThoYxWz5bQugIKJS9CpmXcO2
1FLYMb6iIegJtn5MIubReoLE4D7RoJ0ohaT8huA13JJmEE40YLmDTkZ8o+YmU5rE
ARGabV9gfTjTS3pN2uUCAwEAATANBgkqhkiG9w0BAQUFAAOBgQB5z2puJQduKSk6
OjlZSc2mdbVAhMkkgdGQJnLLYb3QMbblJnsRGKUzjeHTj87KRNKJ4lailAAN0euj
pHlQSrQ5p0Fpd0498KVQttiZUFzPz5LBC7G2ikQYTAipgJvFocqiES+3euQ8Hbnf
Phrm5tux0gaMawigeStKLyYTW9yhBQ==
-----END CERTIFICATE-----
