Certificate:
    Data:
        Version: 3 (0x2)
        Serial Number: 1 (0x1)
    Signature Algorithm: sha1WithRSAEncryption
        Issuer: C=BE, CN=txjsonrpc-test-ca
        Validity
            Not Before: Jun 23 15:47:38 2012 GMT
            Not After : Jun 23 15:47:38 2013 GMT
        Subject: C=BE, CN=txjsonrpc-pyserver
        Subject Public Key Info:
            Public Key Algorithm: rsaEncryption
                Public-Key: (4096 bit)
                Modulus:
                    00:cd:de:38:a9:6c:06:ec:b8:66:a0:23:6d:39:17:
                    91:14:80:b8:ca:0b:2a:73:e3:f8:b4:8d:f0:32:d7:
                    40:2f:3f:f7:5e:3c:df:dc:91:cf:0a:ce:39:92:cd:
                    c8:01:2c:8d:d0:87:dd:6f:15:ec:42:ef:03:00:3c:
                    97:62:87:f0:d0:a9:3f:20:8e:6e:2f:b8:d3:7a:32:
                    26:d5:66:9b:b0:cf:44:33:ff:cc:be:69:1d:5e:21:
                    49:5a:92:f2:d5:f5:fd:29:a6:0b:9a:7a:92:93:c1:
                    cc:28:da:64:cd:43:c4:c8:f9:f3:e7:a9:ba:09:0a:
                    cd:d4:73:51:5a:c1:43:ee:b0:54:e7:a8:ef:a7:01:
                    f2:f4:35:b1:75:49:41:f7:1f:7a:70:09:a7:e5:4b:
                    43:de:bd:3d:84:b6:b7:e4:6a:95:31:14:95:f6:39:
                    61:00:07:82:6b:af:9e:e8:1c:69:18:9b:21:f1:a7:
                    4d:fe:8e:19:59:11:2f:c7:37:dd:a4:0b:5f:70:9d:
                    e5:cf:12:ab:c7:e2:76:6d:53:27:10:bf:88:d2:f0:
                    e7:bd:31:7a:ba:e1:f2:c2:4c:20:97:b1:a0:47:4d:
                    52:23:80:f5:24:57:01:21:cc:78:55:1c:98:bf:09:
                    61:90:2b:f6:9e:ae:2f:e2:92:ac:05:c1:c6:17:ef:
                    6a:76:a2:23:5c:15:ec:aa:f7:97:d1:04:6b:f9:fe:
                    34:11:aa:2b:45:c9:5e:70:b2:45:59:7f:c3:c5:8f:
                    0c:6e:a5:ef:fe:f5:de:68:d7:11:da:47:15:e0:bd:
                    4b:ce:ce:33:77:62:0f:df:d4:20:9c:14:ba:5e:2f:
                    9d:cf:ac:12:79:7c:06:a8:04:bd:1e:56:bc:a8:5e:
                    d8:5a:a7:aa:f7:c3:64:62:21:8d:54:db:72:01:1e:
                    38:2c:ea:48:32:1e:3a:68:fd:40:cf:d5:44:8c:e2:
                    63:ec:9d:72:24:96:54:17:d1:62:86:67:92:a0:26:
                    bf:4b:77:38:50:63:97:69:88:0e:b3:18:a5:7d:1b:
                    9a:b9:27:5b:14:b1:77:d6:2b:c3:f9:8f:64:34:57:
                    53:af:58:79:96:ab:54:7b:f9:7b:ac:b6:d0:9a:f2:
                    2a:fc:54:32:0e:8d:c4:88:f1:66:97:b1:12:0c:eb:
                    fd:29:13:41:6e:34:a8:84:f8:45:02:3f:5a:c0:59:
                    2c:49:e5:2d:e9:b1:ce:42:7d:79:d7:95:ab:d7:aa:
                    92:97:32:01:b4:d1:26:49:54:37:33:ed:9f:02:44:
                    0e:60:c0:82:51:0b:2a:b1:5e:f3:8e:d4:46:f9:53:
                    7c:33:83:89:4b:a2:f3:39:36:e6:ab:68:50:4b:9c:
                    64:d0:1f
                Exponent: 65537 (0x10001)
        X509v3 extensions:
            X509v3 Basic Constraints: 
                CA:FALSE
            Netscape Cert Type: 
                SSL Server
            Netscape Comment: 
                TinyCA Generated Certificate
            X509v3 Subject Key Identifier: 
                26:8C:A5:F9:A6:4A:FE:4C:E8:0F:04:33:7E:04:26:28:BF:4C:92:F3
            X509v3 Authority Key Identifier: 
                keyid:9D:8F:84:76:94:CD:07:FE:A3:E8:8B:D7:F9:D9:6E:EF:CA:75:51:7B
                DirName:/C=BE/CN=txjsonrpc-test-ca
                serial:8D:D2:AF:37:F9:CA:92:0B

            X509v3 Issuer Alternative Name: 
                <EMPTY>

            X509v3 Subject Alternative Name: 
                <EMPTY>

    Signature Algorithm: sha1WithRSAEncryption
         27:33:07:54:ac:6c:13:1b:06:9b:19:b1:9b:9f:46:c8:5c:32:
         cd:e9:0c:37:3f:65:6a:08:eb:70:8a:a4:cc:26:cd:23:85:91:
         8f:db:75:22:ec:cc:89:e9:4b:ab:5b:67:ee:3b:7e:59:12:5a:
         08:4d:41:4d:6b:0b:08:98:94:a4:18:94:8d:39:59:92:f4:8e:
         f9:6d:f8:d8:19:8d:99:fe:06:da:64:45:90:7e:c6:f8:05:f0:
         b7:2a:14:c2:e1:8e:45:bc:08:e0:ae:11:ca:02:6c:c9:22:a1:
         25:69:db:e1:1b:8f:3d:d7:68:be:ff:43:89:92:58:b9:0e:df:
         6b:98:94:24:ef:eb:7d:3b:99:d4:ad:9e:06:17:93:b6:ab:46:
         94:db:ff:33:89:25:e0:69:ac:54:5b:af:0c:0c:22:24:c0:15:
         4f:69:17:75:b3:6e:69:25:65:cb:8e:22:01:42:e2:02:2c:d3:
         fa:0f:52:c5:97:bf:46:1b:90:52:1d:81:8f:7a:07:c2:83:41:
         48:e6:53:59:57:13:34:94:de:8d:e3:f0:7a:c9:43:6f:ca:f1:
         de:19:3e:e1:5e:6d:10:b4:a8:d6:7e:e4:d5:52:49:91:e5:a7:
         ee:6a:9e:69:70:0d:d9:c0:b4:a5:9f:c6:72:b8:0a:0a:fa:8d:
         aa:20:14:c6:b2:aa:cf:e9:24:e9:14:8a:99:02:e1:2d:ff:77:
         e4:a5:1e:e0:d9:27:3d:ea:fd:8e:be:cd:4c:c8:03:df:da:e2:
         93:a1:9d:ad:e1:ab:71:5e:7c:30:0a:8d:b9:22:8a:b5:d8:9f:
         4b:62:ad:f5:bb:dc:41:3c:49:3f:6c:43:42:d1:cb:6e:37:ff:
         ac:f1:24:72:a2:48:6d:28:4e:c2:28:0b:1d:38:dc:87:bf:6f:
         58:4c:26:38:c3:34:24:ce:bb:6b:0a:4c:e1:9e:a8:eb:3f:b1:
         32:88:f6:77:a3:3b:91:2a:16:12:f5:43:de:45:97:2d:5c:7a:
         9c:a4:fb:20:77:37:9e:07:93:bc:5b:1b:38:e3:78:d1:f1:7a:
         ac:c4:70:32:10:be:38:95:da:9a:b6:cb:d0:31:fb:ff:92:b6:
         88:1e:13:29:fd:33:1c:b3:4c:e8:9c:6d:44:e1:0f:3b:82:dc:
         af:74:2a:8b:f9:ab:06:c0:d6:a6:8a:6c:9e:36:4b:5a:5b:2b:
         a4:ba:5e:fe:75:b2:62:d1:4d:e4:d4:5d:8e:b2:bf:fb:b6:aa:
         22:6d:33:f6:90:70:da:2f:f1:2d:5f:2f:1c:86:18:47:98:c9:
         72:13:b0:ad:91:d8:75:be:d7:7e:58:84:58:51:a3:69:33:1c:
         99:3d:33:9d:a7:6d:f5:82
-----BEGIN CERTIFICATE-----
MIIFrTCCA5WgAwIBAgIBATANBgkqhkiG9w0BAQUFADApMQswCQYDVQQGEwJCRTEa
MBgGA1UEAxMRdHhqc29ucnBjLXRlc3QtY2EwHhcNMTIwNjIzMTU0NzM4WhcNMTMw
NjIzMTU0NzM4WjAqMQswCQYDVQQGEwJCRTEbMBkGA1UEAxMSdHhqc29ucnBjLXB5
c2VydmVyMIICIjANBgkqhkiG9w0BAQEFAAOCAg8AMIICCgKCAgEAzd44qWwG7Lhm
oCNtOReRFIC4ygsqc+P4tI3wMtdALz/3Xjzf3JHPCs45ks3IASyN0IfdbxXsQu8D
ADyXYofw0Kk/II5uL7jTejIm1WabsM9EM//MvmkdXiFJWpLy1fX9KaYLmnqSk8HM
KNpkzUPEyPnz56m6CQrN1HNRWsFD7rBU56jvpwHy9DWxdUlB9x96cAmn5UtD3r09
hLa35GqVMRSV9jlhAAeCa6+e6BxpGJsh8adN/o4ZWREvxzfdpAtfcJ3lzxKrx+J2
bVMnEL+I0vDnvTF6uuHywkwgl7GgR01SI4D1JFcBIcx4VRyYvwlhkCv2nq4v4pKs
BcHGF+9qdqIjXBXsqveX0QRr+f40EaorRclecLJFWX/DxY8MbqXv/vXeaNcR2kcV
4L1Lzs4zd2IP39QgnBS6Xi+dz6wSeXwGqAS9Hla8qF7YWqeq98NkYiGNVNtyAR44
LOpIMh46aP1Az9VEjOJj7J1yJJZUF9FihmeSoCa/S3c4UGOXaYgOsxilfRuauSdb
FLF31ivD+Y9kNFdTr1h5lqtUe/l7rLbQmvIq/FQyDo3EiPFml7ESDOv9KRNBbjSo
hPhFAj9awFksSeUt6bHOQn1515Wr16qSlzIBtNEmSVQ3M+2fAkQOYMCCUQsqsV7z
jtRG+VN8M4OJS6LzOTbmq2hQS5xk0B8CAwEAAaOB3jCB2zAJBgNVHRMEAjAAMBEG
CWCGSAGG+EIBAQQEAwIGQDArBglghkgBhvhCAQ0EHhYcVGlueUNBIEdlbmVyYXRl
ZCBDZXJ0aWZpY2F0ZTAdBgNVHQ4EFgQUJoyl+aZK/kzoDwQzfgQmKL9MkvMwWQYD
VR0jBFIwUIAUnY+EdpTNB/6j6IvX+dlu78p1UXuhLaQrMCkxCzAJBgNVBAYTAkJF
MRowGAYDVQQDExF0eGpzb25ycGMtdGVzdC1jYYIJAI3Srzf5ypILMAkGA1UdEgQC
MAAwCQYDVR0RBAIwADANBgkqhkiG9w0BAQUFAAOCAgEAJzMHVKxsExsGmxmxm59G
yFwyzekMNz9lagjrcIqkzCbNI4WRj9t1IuzMielLq1tn7jt+WRJaCE1BTWsLCJiU
pBiUjTlZkvSO+W342BmNmf4G2mRFkH7G+AXwtyoUwuGORbwI4K4RygJsySKhJWnb
4RuPPddovv9DiZJYuQ7fa5iUJO/rfTuZ1K2eBheTtqtGlNv/M4kl4GmsVFuvDAwi
JMAVT2kXdbNuaSVly44iAULiAizT+g9SxZe/RhuQUh2Bj3oHwoNBSOZTWVcTNJTe
jePweslDb8rx3hk+4V5tELSo1n7k1VJJkeWn7mqeaXAN2cC0pZ/GcrgKCvqNqiAU
xrKqz+kk6RSKmQLhLf935KUe4NknPer9jr7NTMgD39rik6GdreGrcV58MAqNuSKK
tdifS2Kt9bvcQTxJP2xDQtHLbjf/rPEkcqJIbShOwigLHTjch79vWEwmOMM0JM67
awpM4Z6o6z+xMoj2d6M7kSoWEvVD3kWXLVx6nKT7IHc3ngeTvFsbOON40fF6rMRw
MhC+OJXamrbL0DH7/5K2iB4TKf0zHLNM6JxtROEPO4Lcr3Qqi/mrBsDWpopsnjZL
WlsrpLpe/nWyYtFN5NRdjrK/+7aqIm0z9pBw2i/xLV8vHIYYR5jJchOwrZHYdb7X
fliEWFGjaTMcmT0znadt9YI=
-----END CERTIFICATE-----
Certificate:
    Data:
        Version: 3 (0x2)
        Serial Number: 10219423159405941259 (0x8dd2af37f9ca920b)
    Signature Algorithm: sha1WithRSAEncryption
        Issuer: C=BE, CN=txjsonrpc-test-ca
        Validity
            Not Before: Jun 23 15:46:37 2012 GMT
            Not After : Jun 21 15:46:37 2022 GMT
        Subject: C=BE, CN=txjsonrpc-test-ca
        Subject Public Key Info:
            Public Key Algorithm: rsaEncryption
                Public-Key: (4096 bit)
                Modulus:
                    00:d1:25:af:77:c5:a8:72:cf:90:b9:39:10:fb:7b:
                    75:2c:a1:da:6a:95:e5:44:0c:d6:25:4b:58:7f:bb:
                    07:82:59:49:58:32:85:24:cc:3e:77:db:e1:a7:4f:
                    c8:b5:cb:ee:45:38:bd:bc:fb:e3:76:3b:88:04:ca:
                    ab:3a:a3:96:3b:5f:93:9c:28:a6:61:97:dc:a2:3f:
                    a0:93:2b:56:6c:cf:d3:4f:6a:9e:05:d3:1c:cd:ef:
                    75:80:1a:98:b7:92:49:14:33:b8:c4:7c:73:8c:7e:
                    83:a5:81:a2:59:8c:8b:a3:51:36:6d:68:ac:f2:f1:
                    ed:6f:49:d9:af:7a:63:c1:43:31:42:b6:c7:cd:b9:
                    78:b7:33:98:70:92:6c:9e:04:7a:7b:f0:6d:38:87:
                    eb:00:13:17:b9:d9:ec:b4:66:bb:51:d3:fd:81:e3:
                    0e:88:71:23:d2:80:2a:61:de:ab:25:02:47:a9:c1:
                    6b:c9:69:ae:da:47:b6:49:74:ac:a6:e1:c1:76:ba:
                    6d:b1:d9:68:6e:1c:37:a8:e2:18:60:37:b6:58:13:
                    6c:c7:92:7c:c6:45:8c:ef:c3:81:73:10:dc:2f:31:
                    e2:b9:05:5a:9e:28:70:5a:3e:1d:b8:68:71:81:c9:
                    e8:fe:1f:c3:a0:13:f8:e4:24:12:ba:91:8e:15:d2:
                    03:f1:8c:b0:aa:e2:34:e4:6b:f8:06:f6:23:8a:92:
                    43:a6:05:dc:e9:c7:a5:a8:06:d7:6e:91:52:72:47:
                    ab:ae:87:fe:b3:0f:04:87:6f:4b:22:29:e9:a9:06:
                    52:58:7d:03:16:d7:d5:31:44:b4:f1:51:44:a7:2a:
                    ba:5e:09:19:ec:4c:a2:e0:58:fe:0d:4e:b7:90:4d:
                    02:ac:2a:ad:99:14:65:3b:0a:3c:73:45:56:b2:0f:
                    10:25:24:51:79:57:1a:34:1a:10:6f:60:e0:fc:81:
                    db:ca:c2:e2:85:1b:4c:72:13:5c:9d:76:cc:d0:21:
                    33:31:56:82:8f:c5:57:b9:44:fd:8b:76:c1:b6:e4:
                    21:8b:35:9a:ee:54:74:9f:72:6b:19:84:d7:a2:3c:
                    a5:6e:11:0a:f1:93:04:2e:dd:7c:4c:7d:62:10:d4:
                    1b:8b:87:f6:ed:bf:12:b1:8b:f0:9a:7a:ee:02:94:
                    e1:3c:46:2b:7f:9c:54:fb:2e:61:c9:1c:ef:fc:de:
                    25:bc:2d:75:1b:1f:49:5e:44:3b:15:93:ad:c4:89:
                    d9:ae:3c:da:54:ef:d9:af:3a:16:cb:94:1b:6a:14:
                    e4:42:f9:75:33:46:6e:fb:40:bc:f8:82:36:cf:60:
                    f5:c2:a2:98:23:a7:2a:ae:c1:aa:22:f8:87:da:b7:
                    9c:a4:cf
                Exponent: 65537 (0x10001)
        X509v3 extensions:
            X509v3 Subject Key Identifier: 
                9D:8F:84:76:94:CD:07:FE:A3:E8:8B:D7:F9:D9:6E:EF:CA:75:51:7B
            X509v3 Authority Key Identifier: 
                keyid:9D:8F:84:76:94:CD:07:FE:A3:E8:8B:D7:F9:D9:6E:EF:CA:75:51:7B
                DirName:/C=BE/CN=txjsonrpc-test-ca
                serial:8D:D2:AF:37:F9:CA:92:0B

            X509v3 Basic Constraints: critical
                CA:TRUE
            Netscape Cert Type: 
                SSL CA, S/MIME CA
            X509v3 Issuer Alternative Name: 
                <EMPTY>

            Netscape Comment: 
                Test CA for txjsonrcp
            X509v3 Subject Alternative Name: 
                <EMPTY>

            X509v3 Key Usage: critical
                Certificate Sign, CRL Sign
    Signature Algorithm: sha1WithRSAEncryption
         06:82:86:81:a9:1b:7e:2d:ef:f5:fc:cc:d2:9d:d6:82:ad:d0:
         6f:7e:3d:b9:5c:b2:0f:3a:64:21:9a:fb:53:b2:93:81:dc:1a:
         24:fc:b8:30:57:a2:c7:71:0d:9c:1a:0b:8a:6c:89:52:8b:8a:
         f5:af:95:3e:b8:08:39:ee:36:50:ac:60:4d:df:2b:49:a2:72:
         f1:3f:12:3c:d9:55:56:a4:9a:77:2b:77:fa:16:b5:76:d9:f4:
         c4:51:6b:b9:fe:2f:a3:52:e8:64:80:49:22:6d:05:42:87:af:
         9d:85:6c:fa:c9:9b:48:39:7b:89:f5:a0:1e:ff:11:d3:9c:78:
         b1:b2:f6:4d:b1:e8:b3:98:23:2c:d4:20:e1:a1:01:3e:26:0a:
         5b:8e:eb:58:45:22:cf:e1:94:ad:84:40:b0:fb:ff:25:5f:31:
         9a:49:0b:36:ad:c6:1a:b0:42:60:40:e2:a2:3c:5a:36:41:89:
         fc:10:c4:60:ea:d4:85:7b:36:84:df:aa:81:cc:69:e7:52:ca:
         c1:46:b1:79:93:51:4f:24:84:42:14:3a:20:a0:6c:27:76:40:
         0f:96:7e:4e:c3:0c:37:b3:e3:73:49:86:58:31:00:1e:e7:0f:
         87:74:b6:4e:6e:1c:7d:87:a4:33:04:c9:76:ec:e5:3a:85:5f:
         a8:d1:ad:21:64:5e:c5:6a:df:b1:02:6e:65:a4:87:72:06:07:
         da:e5:f2:af:2b:a5:eb:18:80:67:83:a5:3c:e6:ed:d1:58:f9:
         90:5c:d6:e9:2f:76:c1:58:13:b8:bd:88:8a:f3:04:48:bb:42:
         8f:7f:c6:db:b4:30:3f:bb:6c:d5:47:e5:ae:8d:4b:da:92:a5:
         db:d3:6e:a8:9b:c2:6b:56:af:34:63:82:e6:78:f8:1f:54:d7:
         41:aa:a3:c9:7c:a6:83:41:bf:6e:33:7c:ae:e6:92:bd:da:27:
         b4:bc:e2:90:4f:33:1b:01:a1:cd:02:13:7a:31:ef:00:d6:9a:
         6e:38:6b:a7:cb:70:98:a8:0f:ff:1c:56:a8:b7:e6:d2:42:5a:
         bb:f4:78:27:71:13:d0:e8:43:eb:bc:2d:4f:e4:ea:4d:4f:76:
         7f:53:38:34:eb:13:e2:3d:c6:14:98:86:1c:ab:2c:0e:b7:68:
         2e:bd:63:a9:6a:8f:d5:22:2d:ab:13:d7:62:54:51:ff:5c:37:
         08:04:27:da:f9:57:77:05:18:73:88:5f:b0:c1:65:50:36:09:
         d6:c7:f5:ae:6e:3f:04:d1:84:3c:21:74:1d:bd:0a:fb:76:d0:
         13:2b:62:bb:24:48:43:89:d0:18:5c:b4:ad:ea:98:af:6d:fc:
         1c:6b:1f:06:64:54:23:88
-----BEGIN CERTIFICATE-----
MIIFwzCCA6ugAwIBAgIJAI3Srzf5ypILMA0GCSqGSIb3DQEBBQUAMCkxCzAJBgNV
BAYTAkJFMRowGAYDVQQDExF0eGpzb25ycGMtdGVzdC1jYTAeFw0xMjA2MjMxNTQ2
MzdaFw0yMjA2MjExNTQ2MzdaMCkxCzAJBgNVBAYTAkJFMRowGAYDVQQDExF0eGpz
b25ycGMtdGVzdC1jYTCCAiIwDQYJKoZIhvcNAQEBBQADggIPADCCAgoCggIBANEl
r3fFqHLPkLk5EPt7dSyh2mqV5UQM1iVLWH+7B4JZSVgyhSTMPnfb4adPyLXL7kU4
vbz743Y7iATKqzqjljtfk5wopmGX3KI/oJMrVmzP009qngXTHM3vdYAamLeSSRQz
uMR8c4x+g6WBolmMi6NRNm1orPLx7W9J2a96Y8FDMUK2x825eLczmHCSbJ4Eenvw
bTiH6wATF7nZ7LRmu1HT/YHjDohxI9KAKmHeqyUCR6nBa8lprtpHtkl0rKbhwXa6
bbHZaG4cN6jiGGA3tlgTbMeSfMZFjO/DgXMQ3C8x4rkFWp4ocFo+HbhocYHJ6P4f
w6AT+OQkErqRjhXSA/GMsKriNORr+Ab2I4qSQ6YF3OnHpagG126RUnJHq66H/rMP
BIdvSyIp6akGUlh9AxbX1TFEtPFRRKcqul4JGexMouBY/g1Ot5BNAqwqrZkUZTsK
PHNFVrIPECUkUXlXGjQaEG9g4PyB28rC4oUbTHITXJ12zNAhMzFWgo/FV7lE/Yt2
wbbkIYs1mu5UdJ9yaxmE16I8pW4RCvGTBC7dfEx9YhDUG4uH9u2/ErGL8Jp67gKU
4TxGK3+cVPsuYckc7/zeJbwtdRsfSV5EOxWTrcSJ2a482lTv2a86FsuUG2oU5EL5
dTNGbvtAvPiCNs9g9cKimCOnKq7BqiL4h9q3nKTPAgMBAAGjge0wgeowHQYDVR0O
BBYEFJ2PhHaUzQf+o+iL1/nZbu/KdVF7MFkGA1UdIwRSMFCAFJ2PhHaUzQf+o+iL
1/nZbu/KdVF7oS2kKzApMQswCQYDVQQGEwJCRTEaMBgGA1UEAxMRdHhqc29ucnBj
LXRlc3QtY2GCCQCN0q83+cqSCzAPBgNVHRMBAf8EBTADAQH/MBEGCWCGSAGG+EIB
AQQEAwIBBjAJBgNVHRIEAjAAMCQGCWCGSAGG+EIBDQQXFhVUZXN0IENBIGZvciB0
eGpzb25yY3AwCQYDVR0RBAIwADAOBgNVHQ8BAf8EBAMCAQYwDQYJKoZIhvcNAQEF
BQADggIBAAaChoGpG34t7/X8zNKd1oKt0G9+Pblcsg86ZCGa+1Oyk4HcGiT8uDBX
osdxDZwaC4psiVKLivWvlT64CDnuNlCsYE3fK0micvE/EjzZVVakmncrd/oWtXbZ
9MRRa7n+L6NS6GSASSJtBUKHr52FbPrJm0g5e4n1oB7/EdOceLGy9k2x6LOYIyzU
IOGhAT4mCluO61hFIs/hlK2EQLD7/yVfMZpJCzatxhqwQmBA4qI8WjZBifwQxGDq
1IV7NoTfqoHMaedSysFGsXmTUU8khEIUOiCgbCd2QA+Wfk7DDDez43NJhlgxAB7n
D4d0tk5uHH2HpDMEyXbs5TqFX6jRrSFkXsVq37ECbmWkh3IGB9rl8q8rpesYgGeD
pTzm7dFY+ZBc1ukvdsFYE7i9iIrzBEi7Qo9/xtu0MD+7bNVH5a6NS9qSpdvTbqib
wmtWrzRjguZ4+B9U10Gqo8l8poNBv24zfK7mkr3aJ7S84pBPMxsBoc0CE3ox7wDW
mm44a6fLcJioD/8cVqi35tJCWrv0eCdxE9DoQ+u8LU/k6k1Pdn9TODTrE+I9xhSY
hhyrLA63aC69Y6lqj9UiLasT12JUUf9cNwgEJ9r5V3cFGHOIX7DBZVA2CdbH9a5u
PwTRhDwhdB29Cvt20BMrYrskSEOJ0BhctK3qmK9t/BxrHwZkVCOI
-----END CERTIFICATE-----
